
Navigationsenheten.elf:     file format elf32-avr

Sections:
Idx Name          Size      VMA       LMA       File off  Algn
  0 .data         00001202  00800100  00001e8c  00001f20  2**0
                  CONTENTS, ALLOC, LOAD, DATA
  1 .text         00001e8c  00000000  00000000  00000094  2**1
                  CONTENTS, ALLOC, LOAD, READONLY, CODE
  2 .bss          00000653  00801302  00801302  00003122  2**0
                  ALLOC
  3 .stab         00002dfc  00000000  00000000  00003124  2**2
                  CONTENTS, READONLY, DEBUGGING
  4 .stabstr      00000cd6  00000000  00000000  00005f20  2**0
                  CONTENTS, READONLY, DEBUGGING
  5 .comment      0000002f  00000000  00000000  00006bf6  2**0
                  CONTENTS, READONLY
  6 .debug_aranges 000003a8  00000000  00000000  00006c25  2**0
                  CONTENTS, READONLY, DEBUGGING
  7 .debug_info   0000358a  00000000  00000000  00006fcd  2**0
                  CONTENTS, READONLY, DEBUGGING
  8 .debug_abbrev 00000ed6  00000000  00000000  0000a557  2**0
                  CONTENTS, READONLY, DEBUGGING
  9 .debug_line   00002165  00000000  00000000  0000b42d  2**0
                  CONTENTS, READONLY, DEBUGGING
 10 .debug_frame  00000aa8  00000000  00000000  0000d594  2**2
                  CONTENTS, READONLY, DEBUGGING
 11 .debug_str    00000c39  00000000  00000000  0000e03c  2**0
                  CONTENTS, READONLY, DEBUGGING
 12 .debug_loc    00002793  00000000  00000000  0000ec75  2**0
                  CONTENTS, READONLY, DEBUGGING
 13 .debug_ranges 00000370  00000000  00000000  00011408  2**0
                  CONTENTS, READONLY, DEBUGGING

Disassembly of section .text:

00000000 <__vectors>:
       0:	6b c0       	rjmp	.+214    	; 0xd8 <__ctors_end>
       2:	00 00       	nop
       4:	87 c0       	rjmp	.+270    	; 0x114 <__bad_interrupt>
       6:	00 00       	nop
       8:	85 c0       	rjmp	.+266    	; 0x114 <__bad_interrupt>
       a:	00 00       	nop
       c:	83 c0       	rjmp	.+262    	; 0x114 <__bad_interrupt>
       e:	00 00       	nop
      10:	81 c0       	rjmp	.+258    	; 0x114 <__bad_interrupt>
      12:	00 00       	nop
      14:	7f c0       	rjmp	.+254    	; 0x114 <__bad_interrupt>
      16:	00 00       	nop
      18:	7d c0       	rjmp	.+250    	; 0x114 <__bad_interrupt>
      1a:	00 00       	nop
      1c:	7b c0       	rjmp	.+246    	; 0x114 <__bad_interrupt>
      1e:	00 00       	nop
      20:	79 c0       	rjmp	.+242    	; 0x114 <__bad_interrupt>
      22:	00 00       	nop
      24:	04 c4       	rjmp	.+2056   	; 0x82e <__vector_9>
      26:	00 00       	nop
      28:	75 c0       	rjmp	.+234    	; 0x114 <__bad_interrupt>
      2a:	00 00       	nop
      2c:	73 c0       	rjmp	.+230    	; 0x114 <__bad_interrupt>
      2e:	00 00       	nop
      30:	71 c0       	rjmp	.+226    	; 0x114 <__bad_interrupt>
      32:	00 00       	nop
      34:	cf c3       	rjmp	.+1950   	; 0x7d4 <__vector_13>
      36:	00 00       	nop
      38:	6d c0       	rjmp	.+218    	; 0x114 <__bad_interrupt>
      3a:	00 00       	nop
      3c:	6b c0       	rjmp	.+214    	; 0x114 <__bad_interrupt>
      3e:	00 00       	nop
      40:	69 c0       	rjmp	.+210    	; 0x114 <__bad_interrupt>
      42:	00 00       	nop
      44:	67 c0       	rjmp	.+206    	; 0x114 <__bad_interrupt>
      46:	00 00       	nop
      48:	65 c0       	rjmp	.+202    	; 0x114 <__bad_interrupt>
      4a:	00 00       	nop
      4c:	63 c0       	rjmp	.+198    	; 0x114 <__bad_interrupt>
      4e:	00 00       	nop
      50:	0c 94 ec 09 	jmp	0x13d8	; 0x13d8 <__vector_20>
      54:	5f c0       	rjmp	.+190    	; 0x114 <__bad_interrupt>
      56:	00 00       	nop
      58:	5d c0       	rjmp	.+186    	; 0x114 <__bad_interrupt>
      5a:	00 00       	nop
      5c:	5b c0       	rjmp	.+182    	; 0x114 <__bad_interrupt>
      5e:	00 00       	nop
      60:	59 c0       	rjmp	.+178    	; 0x114 <__bad_interrupt>
      62:	00 00       	nop
      64:	57 c0       	rjmp	.+174    	; 0x114 <__bad_interrupt>
      66:	00 00       	nop
      68:	1b c6       	rjmp	.+3126   	; 0xca0 <__vector_26>
      6a:	00 00       	nop
      6c:	53 c0       	rjmp	.+166    	; 0x114 <__bad_interrupt>
      6e:	00 00       	nop
      70:	51 c0       	rjmp	.+162    	; 0x114 <__bad_interrupt>
      72:	00 00       	nop
      74:	4f c0       	rjmp	.+158    	; 0x114 <__bad_interrupt>
      76:	00 00       	nop
      78:	4d c0       	rjmp	.+154    	; 0x114 <__bad_interrupt>
      7a:	00 00       	nop
      7c:	4b c0       	rjmp	.+150    	; 0x114 <__bad_interrupt>
      7e:	00 00       	nop
      80:	49 c0       	rjmp	.+146    	; 0x114 <__bad_interrupt>
      82:	00 00       	nop
      84:	47 c0       	rjmp	.+142    	; 0x114 <__bad_interrupt>
      86:	00 00       	nop
      88:	45 c0       	rjmp	.+138    	; 0x114 <__bad_interrupt>
      8a:	00 00       	nop
      8c:	08 4a       	sbci	r16, 0xA8	; 168
      8e:	d7 3b       	cpi	r29, 0xB7	; 183
      90:	3b ce       	rjmp	.-906    	; 0xfffffd08 <__eeprom_end+0xff7efd08>
      92:	01 6e       	ori	r16, 0xE1	; 225
      94:	84 bc       	out	0x24, r8	; 36
      96:	bf fd       	.word	0xfdbf	; ????
      98:	c1 2f       	mov	r28, r17
      9a:	3d 6c       	ori	r19, 0xCD	; 205
      9c:	74 31       	cpi	r23, 0x14	; 20
      9e:	9a bd       	out	0x2a, r25	; 42
      a0:	56 83       	std	Z+6, r21	; 0x06
      a2:	3d da       	rcall	.-2950   	; 0xfffff51e <__eeprom_end+0xff7ef51e>
      a4:	3d 00       	.word	0x003d	; ????
      a6:	c7 7f       	andi	r28, 0xF7	; 247
      a8:	11 be       	out	0x31, r1	; 49
      aa:	d9 e4       	ldi	r29, 0x49	; 73
      ac:	bb 4c       	sbci	r27, 0xCB	; 203
      ae:	3e 91       	ld	r19, -X
      b0:	6b aa       	std	Y+51, r6	; 0x33
      b2:	aa be       	out	0x3a, r10	; 58
      b4:	00 00       	nop
      b6:	00 80       	ld	r0, Z
      b8:	3f 05       	cpc	r19, r15
      ba:	a8 4c       	sbci	r26, 0xC8	; 200
      bc:	cd b2       	in	r12, 0x1d	; 29
      be:	d4 4e       	sbci	r29, 0xE4	; 228
      c0:	b9 38       	cpi	r27, 0x89	; 137
      c2:	36 a9       	ldd	r19, Z+54	; 0x36
      c4:	02 0c       	add	r0, r2
      c6:	50 b9       	out	0x00, r21	; 0
      c8:	91 86       	std	Z+9, r9	; 0x09
      ca:	88 08       	sbc	r8, r8
      cc:	3c a6       	std	Y+44, r3	; 0x2c
      ce:	aa aa       	std	Y+50, r10	; 0x32
      d0:	2a be       	out	0x3a, r2	; 58
      d2:	00 00       	nop
      d4:	00 80       	ld	r0, Z
      d6:	3f 00       	.word	0x003f	; ????

000000d8 <__ctors_end>:
      d8:	11 24       	eor	r1, r1
      da:	1f be       	out	0x3f, r1	; 63
      dc:	cf ef       	ldi	r28, 0xFF	; 255
      de:	d0 e4       	ldi	r29, 0x40	; 64
      e0:	de bf       	out	0x3e, r29	; 62
      e2:	cd bf       	out	0x3d, r28	; 61

000000e4 <__do_copy_data>:
      e4:	13 e1       	ldi	r17, 0x13	; 19
      e6:	a0 e0       	ldi	r26, 0x00	; 0
      e8:	b1 e0       	ldi	r27, 0x01	; 1
      ea:	ec e8       	ldi	r30, 0x8C	; 140
      ec:	fe e1       	ldi	r31, 0x1E	; 30
      ee:	00 e0       	ldi	r16, 0x00	; 0
      f0:	0b bf       	out	0x3b, r16	; 59
      f2:	02 c0       	rjmp	.+4      	; 0xf8 <__do_copy_data+0x14>
      f4:	07 90       	elpm	r0, Z+
      f6:	0d 92       	st	X+, r0
      f8:	a2 30       	cpi	r26, 0x02	; 2
      fa:	b1 07       	cpc	r27, r17
      fc:	d9 f7       	brne	.-10     	; 0xf4 <__do_copy_data+0x10>

000000fe <__do_clear_bss>:
      fe:	29 e1       	ldi	r18, 0x19	; 25
     100:	a2 e0       	ldi	r26, 0x02	; 2
     102:	b3 e1       	ldi	r27, 0x13	; 19
     104:	01 c0       	rjmp	.+2      	; 0x108 <.do_clear_bss_start>

00000106 <.do_clear_bss_loop>:
     106:	1d 92       	st	X+, r1

00000108 <.do_clear_bss_start>:
     108:	a5 35       	cpi	r26, 0x55	; 85
     10a:	b2 07       	cpc	r27, r18
     10c:	e1 f7       	brne	.-8      	; 0x106 <.do_clear_bss_loop>
     10e:	9b d3       	rcall	.+1846   	; 0x846 <main>
     110:	0c 94 44 0f 	jmp	0x1e88	; 0x1e88 <_exit>

00000114 <__bad_interrupt>:
     114:	75 cf       	rjmp	.-278    	; 0x0 <__vectors>

00000116 <turn_around>:
		walk_forward(sensors);
	}
}

void turn_around(uint8_t frontSensor)
{
     116:	cf 93       	push	r28
     118:	c8 2f       	mov	r28, r24
	if(gStatus)
     11a:	80 91 00 01 	lds	r24, 0x0100
     11e:	88 23       	and	r24, r24
     120:	21 f0       	breq	.+8      	; 0x12a <turn_around+0x14>
	{
		TWI_send_string(C_ADDRESS, "Starting to turn around.");
     122:	6e e0       	ldi	r22, 0x0E	; 14
     124:	71 e1       	ldi	r23, 0x11	; 17
     126:	80 e8       	ldi	r24, 0x80	; 128
     128:	ce d4       	rcall	.+2460   	; 0xac6 <TWI_send_string>
	}
	while (frontSensor < CORRIDOR_WIDTH)
     12a:	c0 35       	cpi	r28, 0x50	; 80
     12c:	48 f4       	brcc	.+18     	; 0x140 <turn_around+0x2a>
	{
		if(gStatus)
     12e:	80 91 00 01 	lds	r24, 0x0100
     132:	88 23       	and	r24, r24
     134:	71 f0       	breq	.+28     	; 0x152 <turn_around+0x3c>
		{
			TWI_send_string(C_ADDRESS, "Turning around.");
     136:	67 e2       	ldi	r22, 0x27	; 39
     138:	71 e1       	ldi	r23, 0x11	; 17
     13a:	80 e8       	ldi	r24, 0x80	; 128
     13c:	c4 d4       	rcall	.+2440   	; 0xac6 <TWI_send_string>
     13e:	09 c0       	rjmp	.+18     	; 0x152 <turn_around+0x3c>
		}
		USART_send_command_parameters(0, MAX_ROTATION_COUNTER_CLOCKWISE, gSpeed);
		_delay_ms(STEPPING_TIME);
	}
	if(gStatus)
     140:	80 91 00 01 	lds	r24, 0x0100
     144:	88 23       	and	r24, r24
     146:	a9 f0       	breq	.+42     	; 0x172 <turn_around+0x5c>
	{
		TWI_send_string(C_ADDRESS, "Corridor ahead, done turning around.");
     148:	67 e3       	ldi	r22, 0x37	; 55
     14a:	71 e1       	ldi	r23, 0x11	; 17
     14c:	80 e8       	ldi	r24, 0x80	; 128
     14e:	bb d4       	rcall	.+2422   	; 0xac6 <TWI_send_string>
     150:	10 c0       	rjmp	.+32     	; 0x172 <turn_around+0x5c>
	{
		if(gStatus)
		{
			TWI_send_string(C_ADDRESS, "Turning around.");
		}
		USART_send_command_parameters(0, MAX_ROTATION_COUNTER_CLOCKWISE, gSpeed);
     152:	40 91 01 01 	lds	r20, 0x0101
     156:	6a e0       	ldi	r22, 0x0A	; 10
     158:	80 e0       	ldi	r24, 0x00	; 0
     15a:	0e 94 77 0a 	call	0x14ee	; 0x14ee <USART_send_command_parameters>
	#else
		//round up by default
		__ticks_dc = (uint32_t)(ceil(fabs(__tmp)));
	#endif

	__builtin_avr_delay_cycles(__ticks_dc);
     15e:	2f ef       	ldi	r18, 0xFF	; 255
     160:	87 ea       	ldi	r24, 0xA7	; 167
     162:	91 e6       	ldi	r25, 0x61	; 97
     164:	21 50       	subi	r18, 0x01	; 1
     166:	80 40       	sbci	r24, 0x00	; 0
     168:	90 40       	sbci	r25, 0x00	; 0
     16a:	e1 f7       	brne	.-8      	; 0x164 <turn_around+0x4e>
     16c:	00 c0       	rjmp	.+0      	; 0x16e <turn_around+0x58>
     16e:	00 00       	nop
     170:	de cf       	rjmp	.-68     	; 0x12e <turn_around+0x18>
	}
	if(gStatus)
	{
		TWI_send_string(C_ADDRESS, "Corridor ahead, done turning around.");
	}
}
     172:	cf 91       	pop	r28
     174:	08 95       	ret

00000176 <walk_forward>:

void walk_forward(uint8_t sensors[5])
{
     176:	8f 92       	push	r8
     178:	9f 92       	push	r9
     17a:	af 92       	push	r10
     17c:	bf 92       	push	r11
     17e:	cf 92       	push	r12
     180:	df 92       	push	r13
     182:	ef 92       	push	r14
     184:	ff 92       	push	r15
     186:	cf 93       	push	r28
     188:	df 93       	push	r29
     18a:	ec 01       	movw	r28, r24
	if(gStatus)
     18c:	80 91 00 01 	lds	r24, 0x0100
     190:	88 23       	and	r24, r24
     192:	21 f0       	breq	.+8      	; 0x19c <walk_forward+0x26>
	{
		TWI_send_string(C_ADDRESS, "Finding regulation parameters.");
     194:	6c e5       	ldi	r22, 0x5C	; 92
     196:	71 e1       	ldi	r23, 0x11	; 17
     198:	80 e8       	ldi	r24, 0x80	; 128
     19a:	95 d4       	rcall	.+2346   	; 0xac6 <TWI_send_string>
	}
	float angleOffset = navigation_angle_offset(sensors);
     19c:	ce 01       	movw	r24, r28
     19e:	ce d1       	rcall	.+924    	; 0x53c <navigation_angle_offset>
     1a0:	6b 01       	movw	r12, r22
     1a2:	7c 01       	movw	r14, r24
	float directionCompensationAngle = navigation_direction_regulation(sensors, angleOffset);
     1a4:	ab 01       	movw	r20, r22
     1a6:	bc 01       	movw	r22, r24
     1a8:	ce 01       	movw	r24, r28
     1aa:	2c d2       	rcall	.+1112   	; 0x604 <navigation_direction_regulation>
     1ac:	4b 01       	movw	r8, r22
     1ae:	5c 01       	movw	r10, r24
	if(gStatus)
     1b0:	80 91 00 01 	lds	r24, 0x0100
     1b4:	88 23       	and	r24, r24
     1b6:	21 f0       	breq	.+8      	; 0x1c0 <walk_forward+0x4a>
	{
		TWI_send_string(C_ADDRESS, "Found regulation parameters.");
     1b8:	6b e7       	ldi	r22, 0x7B	; 123
     1ba:	71 e1       	ldi	r23, 0x11	; 17
     1bc:	80 e8       	ldi	r24, 0x80	; 128
     1be:	83 d4       	rcall	.+2310   	; 0xac6 <TWI_send_string>
	}
	int adjustmentRotation = (50 + 50 * angleOffset/MAX_ROTATION_RADIANS);
     1c0:	20 e0       	ldi	r18, 0x00	; 0
     1c2:	30 e0       	ldi	r19, 0x00	; 0
     1c4:	48 e4       	ldi	r20, 0x48	; 72
     1c6:	52 e4       	ldi	r21, 0x42	; 66
     1c8:	c7 01       	movw	r24, r14
     1ca:	b6 01       	movw	r22, r12
     1cc:	0e 94 9c 0c 	call	0x1938	; 0x1938 <__mulsf3>
     1d0:	26 e5       	ldi	r18, 0x56	; 86
     1d2:	3e e0       	ldi	r19, 0x0E	; 14
     1d4:	49 e4       	ldi	r20, 0x49	; 73
     1d6:	50 e4       	ldi	r21, 0x40	; 64
     1d8:	0e 94 10 0b 	call	0x1620	; 0x1620 <__divsf3>
     1dc:	20 e0       	ldi	r18, 0x00	; 0
     1de:	30 e0       	ldi	r19, 0x00	; 0
     1e0:	40 ec       	ldi	r20, 0xC0	; 192
     1e2:	50 e4       	ldi	r21, 0x40	; 64
     1e4:	0e 94 10 0b 	call	0x1620	; 0x1620 <__divsf3>
     1e8:	20 e0       	ldi	r18, 0x00	; 0
     1ea:	30 e0       	ldi	r19, 0x00	; 0
     1ec:	48 e4       	ldi	r20, 0x48	; 72
     1ee:	52 e4       	ldi	r21, 0x42	; 66
     1f0:	0e 94 81 0a 	call	0x1502	; 0x1502 <__addsf3>
     1f4:	0e 94 78 0b 	call	0x16f0	; 0x16f0 <__fixsfsi>
	if (adjustmentRotation >= 100)
     1f8:	64 36       	cpi	r22, 0x64	; 100
     1fa:	71 05       	cpc	r23, r1
     1fc:	34 f4       	brge	.+12     	; 0x20a <walk_forward+0x94>
     1fe:	eb 01       	movw	r28, r22
     200:	dd 23       	and	r29, r29
     202:	2c f4       	brge	.+10     	; 0x20e <walk_forward+0x98>
     204:	c0 e0       	ldi	r28, 0x00	; 0
     206:	d0 e0       	ldi	r29, 0x00	; 0
     208:	02 c0       	rjmp	.+4      	; 0x20e <walk_forward+0x98>
	{
		adjustmentRotation = 100;
     20a:	c4 e6       	ldi	r28, 0x64	; 100
     20c:	d0 e0       	ldi	r29, 0x00	; 0
	}
	else if(adjustmentRotation<=0)
	{
		adjustmentRotation = 0;
	}
	int adjustmentDirection = 90* directionCompensationAngle/(2*PI);
     20e:	20 e0       	ldi	r18, 0x00	; 0
     210:	30 e0       	ldi	r19, 0x00	; 0
     212:	44 eb       	ldi	r20, 0xB4	; 180
     214:	52 e4       	ldi	r21, 0x42	; 66
     216:	c5 01       	movw	r24, r10
     218:	b4 01       	movw	r22, r8
     21a:	0e 94 9c 0c 	call	0x1938	; 0x1938 <__mulsf3>
     21e:	2b ed       	ldi	r18, 0xDB	; 219
     220:	3f e0       	ldi	r19, 0x0F	; 15
     222:	49 ec       	ldi	r20, 0xC9	; 201
     224:	50 e4       	ldi	r21, 0x40	; 64
     226:	0e 94 10 0b 	call	0x1620	; 0x1620 <__divsf3>
     22a:	0e 94 78 0b 	call	0x16f0	; 0x16f0 <__fixsfsi>
     22e:	7b 01       	movw	r14, r22
	if(adjustmentDirection < 0)
     230:	77 23       	and	r23, r23
     232:	1c f4       	brge	.+6      	; 0x23a <walk_forward+0xc4>
	{
		adjustmentDirection = 90 + adjustmentDirection;
     234:	2a e5       	ldi	r18, 0x5A	; 90
     236:	e2 0e       	add	r14, r18
     238:	f1 1c       	adc	r15, r1
	}
	if(gStatus)
     23a:	80 91 00 01 	lds	r24, 0x0100
     23e:	88 23       	and	r24, r24
     240:	21 f0       	breq	.+8      	; 0x24a <walk_forward+0xd4>
	{
		TWI_send_string(C_ADDRESS, "Taking a step.");
     242:	68 e9       	ldi	r22, 0x98	; 152
     244:	71 e1       	ldi	r23, 0x11	; 17
     246:	80 e8       	ldi	r24, 0x80	; 128
     248:	3e d4       	rcall	.+2172   	; 0xac6 <TWI_send_string>
	}
	USART_send_command_parameters((uint8_t)adjustmentDirection, (uint8_t)adjustmentRotation, gSpeed);
     24a:	40 91 01 01 	lds	r20, 0x0101
     24e:	6c 2f       	mov	r22, r28
     250:	8e 2d       	mov	r24, r14
     252:	0e 94 77 0a 	call	0x14ee	; 0x14ee <USART_send_command_parameters>
     256:	8f ef       	ldi	r24, 0xFF	; 255
     258:	97 ea       	ldi	r25, 0xA7	; 167
     25a:	21 e6       	ldi	r18, 0x61	; 97
     25c:	81 50       	subi	r24, 0x01	; 1
     25e:	90 40       	sbci	r25, 0x00	; 0
     260:	20 40       	sbci	r18, 0x00	; 0
     262:	e1 f7       	brne	.-8      	; 0x25c <walk_forward+0xe6>
     264:	00 c0       	rjmp	.+0      	; 0x266 <walk_forward+0xf0>
     266:	00 00       	nop
	_delay_ms(STEPPING_TIME);
}
     268:	df 91       	pop	r29
     26a:	cf 91       	pop	r28
     26c:	ff 90       	pop	r15
     26e:	ef 90       	pop	r14
     270:	df 90       	pop	r13
     272:	cf 90       	pop	r12
     274:	bf 90       	pop	r11
     276:	af 90       	pop	r10
     278:	9f 90       	pop	r9
     27a:	8f 90       	pop	r8
     27c:	08 95       	ret

0000027e <turn_right>:
		walk_forward(sensors);
	}
}

void turn_right(uint8_t sensors[6])
{
     27e:	cf 93       	push	r28
     280:	df 93       	push	r29
     282:	ec 01       	movw	r28, r24
	if(gStatus)
     284:	80 91 00 01 	lds	r24, 0x0100
     288:	88 23       	and	r24, r24
     28a:	21 f0       	breq	.+8      	; 0x294 <turn_right+0x16>
	{
		TWI_send_string(C_ADDRESS, "Starting turning right.");
     28c:	67 ea       	ldi	r22, 0xA7	; 167
     28e:	71 e1       	ldi	r23, 0x11	; 17
     290:	80 e8       	ldi	r24, 0x80	; 128
     292:	19 d4       	rcall	.+2098   	; 0xac6 <TWI_send_string>
	}
	walk_forward(sensors);
     294:	ce 01       	movw	r24, r28
     296:	6f df       	rcall	.-290    	; 0x176 <walk_forward>
     298:	2f ef       	ldi	r18, 0xFF	; 255
     29a:	87 ea       	ldi	r24, 0xA7	; 167
     29c:	91 e6       	ldi	r25, 0x61	; 97
     29e:	21 50       	subi	r18, 0x01	; 1
     2a0:	80 40       	sbci	r24, 0x00	; 0
     2a2:	90 40       	sbci	r25, 0x00	; 0
     2a4:	e1 f7       	brne	.-8      	; 0x29e <turn_right+0x20>
     2a6:	00 c0       	rjmp	.+0      	; 0x2a8 <turn_right+0x2a>
     2a8:	00 00       	nop
	_delay_ms(STEPPING_TIME);
	while(sensors[4] < CORRIDOR_WIDTH && sensors[5] > (CORRIDOR_WIDTH/2))
     2aa:	8c 81       	ldd	r24, Y+4	; 0x04
     2ac:	80 35       	cpi	r24, 0x50	; 80
     2ae:	00 f5       	brcc	.+64     	; 0x2f0 <turn_right+0x72>
     2b0:	8d 81       	ldd	r24, Y+5	; 0x05
     2b2:	89 32       	cpi	r24, 0x29	; 41
     2b4:	e8 f0       	brcs	.+58     	; 0x2f0 <turn_right+0x72>
	{
		if(gStatus)
     2b6:	80 91 00 01 	lds	r24, 0x0100
     2ba:	88 23       	and	r24, r24
     2bc:	21 f0       	breq	.+8      	; 0x2c6 <turn_right+0x48>
		{
			TWI_send_string(C_ADDRESS, "Rotating right.");
     2be:	6f eb       	ldi	r22, 0xBF	; 191
     2c0:	71 e1       	ldi	r23, 0x11	; 17
     2c2:	80 e8       	ldi	r24, 0x80	; 128
     2c4:	00 d4       	rcall	.+2048   	; 0xac6 <TWI_send_string>
		}
		USART_send_command_parameters(0, MAX_ROTATION_CLOCKWISE, gSpeed);
     2c6:	40 91 01 01 	lds	r20, 0x0101
     2ca:	6a e5       	ldi	r22, 0x5A	; 90
     2cc:	80 e0       	ldi	r24, 0x00	; 0
     2ce:	0e 94 77 0a 	call	0x14ee	; 0x14ee <USART_send_command_parameters>
     2d2:	2f ef       	ldi	r18, 0xFF	; 255
     2d4:	87 ea       	ldi	r24, 0xA7	; 167
     2d6:	91 e6       	ldi	r25, 0x61	; 97
     2d8:	21 50       	subi	r18, 0x01	; 1
     2da:	80 40       	sbci	r24, 0x00	; 0
     2dc:	90 40       	sbci	r25, 0x00	; 0
     2de:	e1 f7       	brne	.-8      	; 0x2d8 <turn_right+0x5a>
     2e0:	00 c0       	rjmp	.+0      	; 0x2e2 <turn_right+0x64>
     2e2:	00 00       	nop
	{
		TWI_send_string(C_ADDRESS, "Starting turning right.");
	}
	walk_forward(sensors);
	_delay_ms(STEPPING_TIME);
	while(sensors[4] < CORRIDOR_WIDTH && sensors[5] > (CORRIDOR_WIDTH/2))
     2e4:	8c 81       	ldd	r24, Y+4	; 0x04
     2e6:	80 35       	cpi	r24, 0x50	; 80
     2e8:	18 f4       	brcc	.+6      	; 0x2f0 <turn_right+0x72>
     2ea:	8d 81       	ldd	r24, Y+5	; 0x05
     2ec:	89 32       	cpi	r24, 0x29	; 41
     2ee:	18 f7       	brcc	.-58     	; 0x2b6 <turn_right+0x38>
		USART_send_command_parameters(0, MAX_ROTATION_CLOCKWISE, gSpeed);
		_delay_ms(STEPPING_TIME);
	}
	for(int i=0; i < 3; ++i)
	{
		walk_forward(sensors);
     2f0:	ce 01       	movw	r24, r28
     2f2:	41 df       	rcall	.-382    	; 0x176 <walk_forward>
     2f4:	ce 01       	movw	r24, r28
     2f6:	3f df       	rcall	.-386    	; 0x176 <walk_forward>
     2f8:	ce 01       	movw	r24, r28
     2fa:	3d df       	rcall	.-390    	; 0x176 <walk_forward>
	}
}
     2fc:	df 91       	pop	r29
     2fe:	cf 91       	pop	r28
     300:	08 95       	ret

00000302 <turn_left>:
{
	return gStatus;
}

void turn_left(uint8_t sensors[6])
{
     302:	cf 93       	push	r28
     304:	df 93       	push	r29
     306:	ec 01       	movw	r28, r24
	if(gStatus)
     308:	80 91 00 01 	lds	r24, 0x0100
     30c:	88 23       	and	r24, r24
     30e:	21 f0       	breq	.+8      	; 0x318 <turn_left+0x16>
	{
		TWI_send_string(C_ADDRESS, "Starting turning left.");
     310:	6f ec       	ldi	r22, 0xCF	; 207
     312:	71 e1       	ldi	r23, 0x11	; 17
     314:	80 e8       	ldi	r24, 0x80	; 128
     316:	d7 d3       	rcall	.+1966   	; 0xac6 <TWI_send_string>
	}
	walk_forward(sensors);
     318:	ce 01       	movw	r24, r28
     31a:	2d df       	rcall	.-422    	; 0x176 <walk_forward>
     31c:	2f ef       	ldi	r18, 0xFF	; 255
     31e:	87 ea       	ldi	r24, 0xA7	; 167
     320:	91 e6       	ldi	r25, 0x61	; 97
     322:	21 50       	subi	r18, 0x01	; 1
     324:	80 40       	sbci	r24, 0x00	; 0
     326:	90 40       	sbci	r25, 0x00	; 0
     328:	e1 f7       	brne	.-8      	; 0x322 <turn_left+0x20>
     32a:	00 c0       	rjmp	.+0      	; 0x32c <turn_left+0x2a>
     32c:	00 00       	nop
	_delay_ms(STEPPING_TIME);
	while(sensors[4] < CORRIDOR_WIDTH && sensors[5] > (CORRIDOR_WIDTH/2))
     32e:	8c 81       	ldd	r24, Y+4	; 0x04
     330:	80 35       	cpi	r24, 0x50	; 80
     332:	00 f5       	brcc	.+64     	; 0x374 <turn_left+0x72>
     334:	8d 81       	ldd	r24, Y+5	; 0x05
     336:	89 32       	cpi	r24, 0x29	; 41
     338:	e8 f0       	brcs	.+58     	; 0x374 <turn_left+0x72>
	{
		if(gStatus)
     33a:	80 91 00 01 	lds	r24, 0x0100
     33e:	88 23       	and	r24, r24
     340:	21 f0       	breq	.+8      	; 0x34a <turn_left+0x48>
		{
			TWI_send_string(C_ADDRESS, "Rotating left.");
     342:	66 ee       	ldi	r22, 0xE6	; 230
     344:	71 e1       	ldi	r23, 0x11	; 17
     346:	80 e8       	ldi	r24, 0x80	; 128
     348:	be d3       	rcall	.+1916   	; 0xac6 <TWI_send_string>
		}
		USART_send_command_parameters(0, MAX_ROTATION_COUNTER_CLOCKWISE, gSpeed);
     34a:	40 91 01 01 	lds	r20, 0x0101
     34e:	6a e0       	ldi	r22, 0x0A	; 10
     350:	80 e0       	ldi	r24, 0x00	; 0
     352:	0e 94 77 0a 	call	0x14ee	; 0x14ee <USART_send_command_parameters>
     356:	2f ef       	ldi	r18, 0xFF	; 255
     358:	87 ea       	ldi	r24, 0xA7	; 167
     35a:	91 e6       	ldi	r25, 0x61	; 97
     35c:	21 50       	subi	r18, 0x01	; 1
     35e:	80 40       	sbci	r24, 0x00	; 0
     360:	90 40       	sbci	r25, 0x00	; 0
     362:	e1 f7       	brne	.-8      	; 0x35c <turn_left+0x5a>
     364:	00 c0       	rjmp	.+0      	; 0x366 <turn_left+0x64>
     366:	00 00       	nop
	{
		TWI_send_string(C_ADDRESS, "Starting turning left.");
	}
	walk_forward(sensors);
	_delay_ms(STEPPING_TIME);
	while(sensors[4] < CORRIDOR_WIDTH && sensors[5] > (CORRIDOR_WIDTH/2))
     368:	8c 81       	ldd	r24, Y+4	; 0x04
     36a:	80 35       	cpi	r24, 0x50	; 80
     36c:	18 f4       	brcc	.+6      	; 0x374 <turn_left+0x72>
     36e:	8d 81       	ldd	r24, Y+5	; 0x05
     370:	89 32       	cpi	r24, 0x29	; 41
     372:	18 f7       	brcc	.-58     	; 0x33a <turn_left+0x38>
		USART_send_command_parameters(0, MAX_ROTATION_COUNTER_CLOCKWISE, gSpeed);
		_delay_ms(STEPPING_TIME);
	}
	for(int i=0; i < 3; ++i)
	{
		walk_forward(sensors);
     374:	ce 01       	movw	r24, r28
     376:	ff de       	rcall	.-514    	; 0x176 <walk_forward>
     378:	ce 01       	movw	r24, r28
     37a:	fd de       	rcall	.-518    	; 0x176 <walk_forward>
     37c:	ce 01       	movw	r24, r28
     37e:	fb de       	rcall	.-522    	; 0x176 <walk_forward>
	}
}
     380:	df 91       	pop	r29
     382:	cf 91       	pop	r28
     384:	08 95       	ret

00000386 <autonomouswalk_walk>:
	USART_send_command_parameters((uint8_t)adjustmentDirection, (uint8_t)adjustmentRotation, gSpeed);
	_delay_ms(STEPPING_TIME);
}

void autonomouswalk_walk(uint8_t sensors[6])
{
     386:	cf 93       	push	r28
     388:	df 93       	push	r29
     38a:	ec 01       	movw	r28, r24
	uint8_t leftSideAlgorithm = navigation_left_algorithm();
     38c:	ce d0       	rcall	.+412    	; 0x52a <navigation_left_algorithm>
	if(leftSideAlgorithm)
     38e:	88 23       	and	r24, r24
     390:	c9 f0       	breq	.+50     	; 0x3c4 <autonomouswalk_walk+0x3e>
	{
		if(navigation_check_left_turn(sensors[0], sensors[2]) == 2)
     392:	6a 81       	ldd	r22, Y+2	; 0x02
     394:	88 81       	ld	r24, Y
     396:	86 d1       	rcall	.+780    	; 0x6a4 <navigation_check_left_turn>
     398:	82 30       	cpi	r24, 0x02	; 2
     39a:	19 f4       	brne	.+6      	; 0x3a2 <autonomouswalk_walk+0x1c>
		{
			turn_left(sensors);
     39c:	ce 01       	movw	r24, r28
     39e:	b1 df       	rcall	.-158    	; 0x302 <turn_left>
     3a0:	29 c0       	rjmp	.+82     	; 0x3f4 <autonomouswalk_walk+0x6e>
		}
		else if(sensors[4] > CORRIDOR_WIDTH)
     3a2:	8c 81       	ldd	r24, Y+4	; 0x04
     3a4:	81 35       	cpi	r24, 0x51	; 81
     3a6:	18 f0       	brcs	.+6      	; 0x3ae <autonomouswalk_walk+0x28>
		{
			walk_forward(sensors);
     3a8:	ce 01       	movw	r24, r28
     3aa:	e5 de       	rcall	.-566    	; 0x176 <walk_forward>
     3ac:	23 c0       	rjmp	.+70     	; 0x3f4 <autonomouswalk_walk+0x6e>
		}
		else if(navigation_check_right_turn(sensors[1], sensors[3]) == 2)
     3ae:	6b 81       	ldd	r22, Y+3	; 0x03
     3b0:	89 81       	ldd	r24, Y+1	; 0x01
     3b2:	84 d1       	rcall	.+776    	; 0x6bc <navigation_check_right_turn>
     3b4:	82 30       	cpi	r24, 0x02	; 2
     3b6:	19 f4       	brne	.+6      	; 0x3be <autonomouswalk_walk+0x38>
		{
			turn_right(sensors);
     3b8:	ce 01       	movw	r24, r28
     3ba:	61 df       	rcall	.-318    	; 0x27e <turn_right>
     3bc:	1b c0       	rjmp	.+54     	; 0x3f4 <autonomouswalk_walk+0x6e>
		}
		else
		{
			turn_around(sensors[4]);
     3be:	8c 81       	ldd	r24, Y+4	; 0x04
     3c0:	aa de       	rcall	.-684    	; 0x116 <turn_around>
     3c2:	18 c0       	rjmp	.+48     	; 0x3f4 <autonomouswalk_walk+0x6e>
		}
	}
	else
	{
		if(navigation_check_right_turn(sensors[1], sensors[3]) == 2)
     3c4:	6b 81       	ldd	r22, Y+3	; 0x03
     3c6:	89 81       	ldd	r24, Y+1	; 0x01
     3c8:	79 d1       	rcall	.+754    	; 0x6bc <navigation_check_right_turn>
     3ca:	82 30       	cpi	r24, 0x02	; 2
     3cc:	19 f4       	brne	.+6      	; 0x3d4 <autonomouswalk_walk+0x4e>
		{
			turn_left(sensors);
     3ce:	ce 01       	movw	r24, r28
     3d0:	98 df       	rcall	.-208    	; 0x302 <turn_left>
     3d2:	10 c0       	rjmp	.+32     	; 0x3f4 <autonomouswalk_walk+0x6e>
		}
		else if(sensors[4] > CORRIDOR_WIDTH)
     3d4:	8c 81       	ldd	r24, Y+4	; 0x04
     3d6:	81 35       	cpi	r24, 0x51	; 81
     3d8:	18 f0       	brcs	.+6      	; 0x3e0 <autonomouswalk_walk+0x5a>
		{
			walk_forward(sensors);
     3da:	ce 01       	movw	r24, r28
     3dc:	cc de       	rcall	.-616    	; 0x176 <walk_forward>
     3de:	0a c0       	rjmp	.+20     	; 0x3f4 <autonomouswalk_walk+0x6e>
		}
		else if(navigation_check_left_turn(sensors[0], sensors[2]) == 2)
     3e0:	6a 81       	ldd	r22, Y+2	; 0x02
     3e2:	88 81       	ld	r24, Y
     3e4:	5f d1       	rcall	.+702    	; 0x6a4 <navigation_check_left_turn>
     3e6:	82 30       	cpi	r24, 0x02	; 2
     3e8:	19 f4       	brne	.+6      	; 0x3f0 <autonomouswalk_walk+0x6a>
		{
			turn_right(sensors);
     3ea:	ce 01       	movw	r24, r28
     3ec:	48 df       	rcall	.-368    	; 0x27e <turn_right>
     3ee:	02 c0       	rjmp	.+4      	; 0x3f4 <autonomouswalk_walk+0x6e>
		}
		else
		{
			turn_around(sensors[4]);
     3f0:	8c 81       	ldd	r24, Y+4	; 0x04
     3f2:	91 de       	rcall	.-734    	; 0x116 <turn_around>
		}
	}
     3f4:	df 91       	pop	r29
     3f6:	cf 91       	pop	r28
     3f8:	08 95       	ret

000003fa <set_counter_1>:
	TCNT2 = 0;
}

void set_counter_1(uint16_t delay)
{
	delay = 15.625 * delay;
     3fa:	bc 01       	movw	r22, r24
     3fc:	80 e0       	ldi	r24, 0x00	; 0
     3fe:	90 e0       	ldi	r25, 0x00	; 0
     400:	0e 94 a9 0b 	call	0x1752	; 0x1752 <__floatunsisf>
     404:	20 e0       	ldi	r18, 0x00	; 0
     406:	30 e0       	ldi	r19, 0x00	; 0
     408:	4a e7       	ldi	r20, 0x7A	; 122
     40a:	51 e4       	ldi	r21, 0x41	; 65
     40c:	0e 94 9c 0c 	call	0x1938	; 0x1938 <__mulsf3>
     410:	0e 94 7d 0b 	call	0x16fa	; 0x16fa <__fixunssfsi>
	OCR1A = delay;
     414:	70 93 89 00 	sts	0x0089, r23
     418:	60 93 88 00 	sts	0x0088, r22
     41c:	08 95       	ret

0000041e <set_counter_2>:
}

void set_counter_2(uint16_t delay)
{
	delay = 15.625 * delay;
     41e:	bc 01       	movw	r22, r24
     420:	80 e0       	ldi	r24, 0x00	; 0
     422:	90 e0       	ldi	r25, 0x00	; 0
     424:	0e 94 a9 0b 	call	0x1752	; 0x1752 <__floatunsisf>
     428:	20 e0       	ldi	r18, 0x00	; 0
     42a:	30 e0       	ldi	r19, 0x00	; 0
     42c:	4a e7       	ldi	r20, 0x7A	; 122
     42e:	51 e4       	ldi	r21, 0x41	; 65
     430:	0e 94 9c 0c 	call	0x1938	; 0x1938 <__mulsf3>
     434:	0e 94 7d 0b 	call	0x16fa	; 0x16fa <__fixunssfsi>
	OCR2A = delay;
     438:	60 93 b3 00 	sts	0x00B3, r22
     43c:	08 95       	ret

0000043e <init_counters>:

//---------------------------------------COUNTERS/TIMERS-----------
void init_counters()
{
	// WGMn3:0 = 4 (OCRnA) or 12 (OCRn), where top value is read from.
	TCCR1B |= 0b00000101; // clock 1, prescaler 1024
     43e:	e1 e8       	ldi	r30, 0x81	; 129
     440:	f0 e0       	ldi	r31, 0x00	; 0
     442:	80 81       	ld	r24, Z
     444:	85 60       	ori	r24, 0x05	; 5
     446:	80 83       	st	Z, r24
	TCCR2B |= 0b00000101; // clock 2, prescaler 1024
     448:	e1 eb       	ldi	r30, 0xB1	; 177
     44a:	f0 e0       	ldi	r31, 0x00	; 0
     44c:	80 81       	ld	r24, Z
     44e:	85 60       	ori	r24, 0x05	; 5
     450:	80 83       	st	Z, r24
	
	// standardvalue for interrupt is 1000ms
	set_counter_1(1000);
     452:	88 ee       	ldi	r24, 0xE8	; 232
     454:	93 e0       	ldi	r25, 0x03	; 3
     456:	d1 df       	rcall	.-94     	; 0x3fa <set_counter_1>
	set_counter_2(1000);
     458:	88 ee       	ldi	r24, 0xE8	; 232
     45a:	93 e0       	ldi	r25, 0x03	; 3
     45c:	e0 df       	rcall	.-64     	; 0x41e <set_counter_2>
	
	TIMSK1 |= 0b00000010; // Enable interrupts when OCF1A, in TIFR1, is set.
     45e:	ef e6       	ldi	r30, 0x6F	; 111
     460:	f0 e0       	ldi	r31, 0x00	; 0
     462:	80 81       	ld	r24, Z
     464:	82 60       	ori	r24, 0x02	; 2
     466:	80 83       	st	Z, r24
	TIMSK2 |= 0b00000010; // Enable interrupts when OCF2A, in TIFR2, is set.
     468:	e0 e7       	ldi	r30, 0x70	; 112
     46a:	f0 e0       	ldi	r31, 0x00	; 0
     46c:	80 81       	ld	r24, Z
     46e:	82 60       	ori	r24, 0x02	; 2
     470:	80 83       	st	Z, r24
	// OCF1A (or ICFn) Flag, in TIFR1, can be used to generate interrupts.
	TCNT1 = 0;
     472:	10 92 85 00 	sts	0x0085, r1
     476:	10 92 84 00 	sts	0x0084, r1
	TCNT2 = 0;
     47a:	10 92 b2 00 	sts	0x00B2, r1
     47e:	08 95       	ret

00000480 <FifoDataLength>:

#include <avr/io.h>
#include "fifo.h"

uint8_t FifoDataLength (struct fifo *fifo)
{
     480:	fc 01       	movw	r30, r24
	return (fifo->write - fifo->read) & (fifo->size -1);
     482:	90 81       	ld	r25, Z
     484:	91 50       	subi	r25, 0x01	; 1
     486:	84 81       	ldd	r24, Z+4	; 0x04
     488:	22 81       	ldd	r18, Z+2	; 0x02
     48a:	82 1b       	sub	r24, r18
};
     48c:	89 23       	and	r24, r25
     48e:	08 95       	ret

00000490 <FifoWrite>:

uint8_t FifoWrite (struct fifo *fifo, unsigned char data)
{
     490:	1f 93       	push	r17
     492:	cf 93       	push	r28
     494:	df 93       	push	r29
     496:	ec 01       	movw	r28, r24
     498:	16 2f       	mov	r17, r22
	// fifo full : error
	if (FifoDataLength(fifo) == (fifo->size - 1))
     49a:	f2 df       	rcall	.-28     	; 0x480 <FifoDataLength>
     49c:	28 81       	ld	r18, Y
     49e:	39 81       	ldd	r19, Y+1	; 0x01
     4a0:	21 50       	subi	r18, 0x01	; 1
     4a2:	31 09       	sbc	r19, r1
     4a4:	90 e0       	ldi	r25, 0x00	; 0
     4a6:	82 17       	cp	r24, r18
     4a8:	93 07       	cpc	r25, r19
     4aa:	69 f0       	breq	.+26     	; 0x4c6 <FifoWrite+0x36>
	{
		return 1;
	}
	// write data & increment write pointer
	fifo->buffer[fifo->write] = data;
     4ac:	8c 81       	ldd	r24, Y+4	; 0x04
     4ae:	9d 81       	ldd	r25, Y+5	; 0x05
     4b0:	fe 01       	movw	r30, r28
     4b2:	e8 0f       	add	r30, r24
     4b4:	f9 1f       	adc	r31, r25
     4b6:	16 83       	std	Z+6, r17	; 0x06
	fifo->write = (fifo->write + 1) & (fifo->size - 1);
     4b8:	01 96       	adiw	r24, 0x01	; 1
     4ba:	28 23       	and	r18, r24
     4bc:	39 23       	and	r19, r25
     4be:	3d 83       	std	Y+5, r19	; 0x05
     4c0:	2c 83       	std	Y+4, r18	; 0x04
	return 0;
     4c2:	80 e0       	ldi	r24, 0x00	; 0
     4c4:	01 c0       	rjmp	.+2      	; 0x4c8 <FifoWrite+0x38>
uint8_t FifoWrite (struct fifo *fifo, unsigned char data)
{
	// fifo full : error
	if (FifoDataLength(fifo) == (fifo->size - 1))
	{
		return 1;
     4c6:	81 e0       	ldi	r24, 0x01	; 1
	}
	// write data & increment write pointer
	fifo->buffer[fifo->write] = data;
	fifo->write = (fifo->write + 1) & (fifo->size - 1);
	return 0;
};
     4c8:	df 91       	pop	r29
     4ca:	cf 91       	pop	r28
     4cc:	1f 91       	pop	r17
     4ce:	08 95       	ret

000004d0 <FifoRead>:


uint8_t FifoRead (struct fifo *fifo, unsigned char *data)
{
     4d0:	0f 93       	push	r16
     4d2:	1f 93       	push	r17
     4d4:	cf 93       	push	r28
     4d6:	df 93       	push	r29
     4d8:	ec 01       	movw	r28, r24
     4da:	8b 01       	movw	r16, r22
	// fifo empty : error
	if (FifoDataLength(fifo) == 0)
     4dc:	d1 df       	rcall	.-94     	; 0x480 <FifoDataLength>
     4de:	88 23       	and	r24, r24
     4e0:	a1 f0       	breq	.+40     	; 0x50a <FifoRead+0x3a>
	{
		return 1;
	}
	// read data & increment read pointer
	*data = fifo->buffer[fifo->read];
     4e2:	ea 81       	ldd	r30, Y+2	; 0x02
     4e4:	fb 81       	ldd	r31, Y+3	; 0x03
     4e6:	ec 0f       	add	r30, r28
     4e8:	fd 1f       	adc	r31, r29
     4ea:	86 81       	ldd	r24, Z+6	; 0x06
     4ec:	f8 01       	movw	r30, r16
     4ee:	80 83       	st	Z, r24
	fifo->read = (fifo->read + 1) & (fifo->size - 1);
     4f0:	28 81       	ld	r18, Y
     4f2:	39 81       	ldd	r19, Y+1	; 0x01
     4f4:	21 50       	subi	r18, 0x01	; 1
     4f6:	31 09       	sbc	r19, r1
     4f8:	8a 81       	ldd	r24, Y+2	; 0x02
     4fa:	9b 81       	ldd	r25, Y+3	; 0x03
     4fc:	01 96       	adiw	r24, 0x01	; 1
     4fe:	82 23       	and	r24, r18
     500:	93 23       	and	r25, r19
     502:	9b 83       	std	Y+3, r25	; 0x03
     504:	8a 83       	std	Y+2, r24	; 0x02
	return 0;
     506:	80 e0       	ldi	r24, 0x00	; 0
     508:	01 c0       	rjmp	.+2      	; 0x50c <FifoRead+0x3c>
uint8_t FifoRead (struct fifo *fifo, unsigned char *data)
{
	// fifo empty : error
	if (FifoDataLength(fifo) == 0)
	{
		return 1;
     50a:	81 e0       	ldi	r24, 0x01	; 1
	}
	// read data & increment read pointer
	*data = fifo->buffer[fifo->read];
	fifo->read = (fifo->read + 1) & (fifo->size - 1);
	return 0;
     50c:	df 91       	pop	r29
     50e:	cf 91       	pop	r28
     510:	1f 91       	pop	r17
     512:	0f 91       	pop	r16
     514:	08 95       	ret

00000516 <compare>:
	}
	else
	{
		return 0;
	}
}
     516:	fc 01       	movw	r30, r24
     518:	20 81       	ld	r18, Z
     51a:	30 e0       	ldi	r19, 0x00	; 0
     51c:	fb 01       	movw	r30, r22
     51e:	80 81       	ld	r24, Z
     520:	28 1b       	sub	r18, r24
     522:	31 09       	sbc	r19, r1
     524:	82 2f       	mov	r24, r18
     526:	93 2f       	mov	r25, r19
     528:	08 95       	ret

0000052a <navigation_left_algorithm>:
     52a:	80 91 05 01 	lds	r24, 0x0105
     52e:	08 95       	ret

00000530 <navigation_autonomous_walk>:
     530:	80 91 02 13 	lds	r24, 0x1302
     534:	08 95       	ret

00000536 <navigation_set_autonomous_walk>:
     536:	80 93 02 13 	sts	0x1302, r24
     53a:	08 95       	ret

0000053c <navigation_angle_offset>:
     53c:	fc 01       	movw	r30, r24
     53e:	80 91 05 01 	lds	r24, 0x0105
     542:	88 23       	and	r24, r24
     544:	71 f1       	breq	.+92     	; 0x5a2 <navigation_angle_offset+0x66>
     546:	82 81       	ldd	r24, Z+2	; 0x02
     548:	90 e0       	ldi	r25, 0x00	; 0
     54a:	20 81       	ld	r18, Z
     54c:	30 e0       	ldi	r19, 0x00	; 0
     54e:	ac 01       	movw	r20, r24
     550:	42 0f       	add	r20, r18
     552:	53 1f       	adc	r21, r19
     554:	44 36       	cpi	r20, 0x64	; 100
     556:	51 05       	cpc	r21, r1
     558:	7c f4       	brge	.+30     	; 0x578 <navigation_angle_offset+0x3c>
     55a:	82 1b       	sub	r24, r18
     55c:	93 0b       	sbc	r25, r19
     55e:	60 e9       	ldi	r22, 0x90	; 144
     560:	71 e0       	ldi	r23, 0x01	; 1
     562:	0e 94 21 0d 	call	0x1a42	; 0x1a42 <__divmodhi4>
     566:	88 27       	eor	r24, r24
     568:	77 fd       	sbrc	r23, 7
     56a:	80 95       	com	r24
     56c:	98 2f       	mov	r25, r24
     56e:	0e 94 ab 0b 	call	0x1756	; 0x1756 <__floatsisf>
     572:	0e 94 e5 0a 	call	0x15ca	; 0x15ca <atan>
     576:	45 c0       	rjmp	.+138    	; 0x602 <navigation_angle_offset+0xc6>
     578:	84 81       	ldd	r24, Z+4	; 0x04
     57a:	81 35       	cpi	r24, 0x51	; 81
     57c:	90 f0       	brcs	.+36     	; 0x5a2 <navigation_angle_offset+0x66>
     57e:	81 81       	ldd	r24, Z+1	; 0x01
     580:	90 e0       	ldi	r25, 0x00	; 0
     582:	23 81       	ldd	r18, Z+3	; 0x03
     584:	82 1b       	sub	r24, r18
     586:	91 09       	sbc	r25, r1
     588:	60 e9       	ldi	r22, 0x90	; 144
     58a:	71 e0       	ldi	r23, 0x01	; 1
     58c:	0e 94 21 0d 	call	0x1a42	; 0x1a42 <__divmodhi4>
     590:	88 27       	eor	r24, r24
     592:	77 fd       	sbrc	r23, 7
     594:	80 95       	com	r24
     596:	98 2f       	mov	r25, r24
     598:	0e 94 ab 0b 	call	0x1756	; 0x1756 <__floatsisf>
     59c:	0e 94 e5 0a 	call	0x15ca	; 0x15ca <atan>
     5a0:	30 c0       	rjmp	.+96     	; 0x602 <navigation_angle_offset+0xc6>
     5a2:	81 81       	ldd	r24, Z+1	; 0x01
     5a4:	90 e0       	ldi	r25, 0x00	; 0
     5a6:	23 81       	ldd	r18, Z+3	; 0x03
     5a8:	30 e0       	ldi	r19, 0x00	; 0
     5aa:	ac 01       	movw	r20, r24
     5ac:	42 0f       	add	r20, r18
     5ae:	53 1f       	adc	r21, r19
     5b0:	44 36       	cpi	r20, 0x64	; 100
     5b2:	51 05       	cpc	r21, r1
     5b4:	74 f4       	brge	.+28     	; 0x5d2 <navigation_angle_offset+0x96>
     5b6:	82 1b       	sub	r24, r18
     5b8:	93 0b       	sbc	r25, r19
     5ba:	60 e9       	ldi	r22, 0x90	; 144
     5bc:	71 e0       	ldi	r23, 0x01	; 1
     5be:	0e 94 21 0d 	call	0x1a42	; 0x1a42 <__divmodhi4>
     5c2:	88 27       	eor	r24, r24
     5c4:	77 fd       	sbrc	r23, 7
     5c6:	80 95       	com	r24
     5c8:	98 2f       	mov	r25, r24
     5ca:	0e 94 ab 0b 	call	0x1756	; 0x1756 <__floatsisf>
     5ce:	fd d7       	rcall	.+4090   	; 0x15ca <atan>
     5d0:	18 c0       	rjmp	.+48     	; 0x602 <navigation_angle_offset+0xc6>
     5d2:	84 81       	ldd	r24, Z+4	; 0x04
     5d4:	81 35       	cpi	r24, 0x51	; 81
     5d6:	88 f0       	brcs	.+34     	; 0x5fa <navigation_angle_offset+0xbe>
     5d8:	82 81       	ldd	r24, Z+2	; 0x02
     5da:	90 e0       	ldi	r25, 0x00	; 0
     5dc:	20 81       	ld	r18, Z
     5de:	82 1b       	sub	r24, r18
     5e0:	91 09       	sbc	r25, r1
     5e2:	60 e9       	ldi	r22, 0x90	; 144
     5e4:	71 e0       	ldi	r23, 0x01	; 1
     5e6:	0e 94 21 0d 	call	0x1a42	; 0x1a42 <__divmodhi4>
     5ea:	88 27       	eor	r24, r24
     5ec:	77 fd       	sbrc	r23, 7
     5ee:	80 95       	com	r24
     5f0:	98 2f       	mov	r25, r24
     5f2:	0e 94 ab 0b 	call	0x1756	; 0x1756 <__floatsisf>
     5f6:	e9 d7       	rcall	.+4050   	; 0x15ca <atan>
     5f8:	04 c0       	rjmp	.+8      	; 0x602 <navigation_angle_offset+0xc6>
     5fa:	60 e0       	ldi	r22, 0x00	; 0
     5fc:	70 e0       	ldi	r23, 0x00	; 0
     5fe:	80 e0       	ldi	r24, 0x00	; 0
     600:	90 e0       	ldi	r25, 0x00	; 0
     602:	08 95       	ret

00000604 <navigation_direction_regulation>:
     604:	20 91 05 01 	lds	r18, 0x0105
     608:	22 23       	and	r18, r18
     60a:	89 f0       	breq	.+34     	; 0x62e <navigation_direction_regulation+0x2a>
     60c:	fc 01       	movw	r30, r24
     60e:	84 81       	ldd	r24, Z+4	; 0x04
     610:	81 35       	cpi	r24, 0x51	; 81
     612:	c8 f1       	brcs	.+114    	; 0x686 <navigation_direction_regulation+0x82>
     614:	cb 01       	movw	r24, r22
     616:	ba 01       	movw	r22, r20
     618:	0e 94 0d 0b 	call	0x161a	; 0x161a <cos>
     61c:	20 e0       	ldi	r18, 0x00	; 0
     61e:	30 e0       	ldi	r19, 0x00	; 0
     620:	48 e4       	ldi	r20, 0x48	; 72
     622:	53 e4       	ldi	r21, 0x43	; 67
     624:	0e 94 9c 0c 	call	0x1938	; 0x1938 <__mulsf3>
     628:	0e 94 78 0b 	call	0x16f0	; 0x16f0 <__fixsfsi>
     62c:	16 c0       	rjmp	.+44     	; 0x65a <navigation_direction_regulation+0x56>
     62e:	fc 01       	movw	r30, r24
     630:	84 81       	ldd	r24, Z+4	; 0x04
     632:	81 35       	cpi	r24, 0x51	; 81
     634:	68 f1       	brcs	.+90     	; 0x690 <navigation_direction_regulation+0x8c>
     636:	cb 01       	movw	r24, r22
     638:	ba 01       	movw	r22, r20
     63a:	ef d7       	rcall	.+4062   	; 0x161a <cos>
     63c:	20 e0       	ldi	r18, 0x00	; 0
     63e:	30 e0       	ldi	r19, 0x00	; 0
     640:	48 e4       	ldi	r20, 0x48	; 72
     642:	53 e4       	ldi	r21, 0x43	; 67
     644:	0e 94 9c 0c 	call	0x1938	; 0x1938 <__mulsf3>
     648:	9b 01       	movw	r18, r22
     64a:	ac 01       	movw	r20, r24
     64c:	60 e0       	ldi	r22, 0x00	; 0
     64e:	70 e0       	ldi	r23, 0x00	; 0
     650:	80 ea       	ldi	r24, 0xA0	; 160
     652:	92 e4       	ldi	r25, 0x42	; 66
     654:	55 d7       	rcall	.+3754   	; 0x1500 <__subsf3>
     656:	0e 94 78 0b 	call	0x16f0	; 0x16f0 <__fixsfsi>
     65a:	88 e2       	ldi	r24, 0x28	; 40
     65c:	90 e0       	ldi	r25, 0x00	; 0
     65e:	86 1b       	sub	r24, r22
     660:	97 0b       	sbc	r25, r23
     662:	85 30       	cpi	r24, 0x05	; 5
     664:	91 05       	cpc	r25, r1
     666:	cc f0       	brlt	.+50     	; 0x69a <navigation_direction_regulation+0x96>
     668:	20 91 04 01 	lds	r18, 0x0104
     66c:	28 9f       	mul	r18, r24
     66e:	b0 01       	movw	r22, r0
     670:	29 9f       	mul	r18, r25
     672:	70 0d       	add	r23, r0
     674:	11 24       	eor	r1, r1
     676:	88 27       	eor	r24, r24
     678:	77 fd       	sbrc	r23, 7
     67a:	80 95       	com	r24
     67c:	98 2f       	mov	r25, r24
     67e:	0e 94 ab 0b 	call	0x1756	; 0x1756 <__floatsisf>
     682:	a3 d7       	rcall	.+3910   	; 0x15ca <atan>
     684:	0e c0       	rjmp	.+28     	; 0x6a2 <navigation_direction_regulation+0x9e>
     686:	60 e0       	ldi	r22, 0x00	; 0
     688:	70 e0       	ldi	r23, 0x00	; 0
     68a:	80 e0       	ldi	r24, 0x00	; 0
     68c:	90 e0       	ldi	r25, 0x00	; 0
     68e:	09 c0       	rjmp	.+18     	; 0x6a2 <navigation_direction_regulation+0x9e>
     690:	60 e0       	ldi	r22, 0x00	; 0
     692:	70 e0       	ldi	r23, 0x00	; 0
     694:	80 e0       	ldi	r24, 0x00	; 0
     696:	90 e0       	ldi	r25, 0x00	; 0
     698:	04 c0       	rjmp	.+8      	; 0x6a2 <navigation_direction_regulation+0x9e>
     69a:	60 e0       	ldi	r22, 0x00	; 0
     69c:	70 e0       	ldi	r23, 0x00	; 0
     69e:	80 e0       	ldi	r24, 0x00	; 0
     6a0:	90 e0       	ldi	r25, 0x00	; 0
     6a2:	08 95       	ret

000006a4 <navigation_check_left_turn>:
     6a4:	81 35       	cpi	r24, 0x51	; 81
     6a6:	10 f0       	brcs	.+4      	; 0x6ac <navigation_check_left_turn+0x8>
     6a8:	61 35       	cpi	r22, 0x51	; 81
     6aa:	28 f4       	brcc	.+10     	; 0x6b6 <navigation_check_left_turn+0x12>
     6ac:	91 e0       	ldi	r25, 0x01	; 1
     6ae:	81 35       	cpi	r24, 0x51	; 81
     6b0:	18 f4       	brcc	.+6      	; 0x6b8 <navigation_check_left_turn+0x14>
     6b2:	90 e0       	ldi	r25, 0x00	; 0
     6b4:	01 c0       	rjmp	.+2      	; 0x6b8 <navigation_check_left_turn+0x14>
     6b6:	92 e0       	ldi	r25, 0x02	; 2
     6b8:	89 2f       	mov	r24, r25
     6ba:	08 95       	ret

000006bc <navigation_check_right_turn>:
     6bc:	81 35       	cpi	r24, 0x51	; 81
     6be:	10 f0       	brcs	.+4      	; 0x6c4 <navigation_check_right_turn+0x8>
     6c0:	61 35       	cpi	r22, 0x51	; 81
     6c2:	28 f4       	brcc	.+10     	; 0x6ce <navigation_check_right_turn+0x12>
     6c4:	91 e0       	ldi	r25, 0x01	; 1
     6c6:	81 35       	cpi	r24, 0x51	; 81
     6c8:	18 f4       	brcc	.+6      	; 0x6d0 <navigation_check_right_turn+0x14>
     6ca:	90 e0       	ldi	r25, 0x00	; 0
     6cc:	01 c0       	rjmp	.+2      	; 0x6d0 <navigation_check_right_turn+0x14>
     6ce:	92 e0       	ldi	r25, 0x02	; 2
     6d0:	89 2f       	mov	r24, r25
     6d2:	08 95       	ret

000006d4 <navigation_get_sensor>:
{
	return ( *(uint8_t*)a - *(uint8_t*)b );
}

uint8_t navigation_get_sensor(int sensorNr)
{
     6d4:	ef 92       	push	r14
     6d6:	ff 92       	push	r15
     6d8:	0f 93       	push	r16
     6da:	1f 93       	push	r17
     6dc:	cf 93       	push	r28
     6de:	df 93       	push	r29
     6e0:	cd b7       	in	r28, 0x3d	; 61
     6e2:	de b7       	in	r29, 0x3e	; 62
	{
		temp[i] = sensorBuffer[sensorNr][i];
	}
	qsort(temp, sensorBufferSize, sizeof(uint8_t), compare);
	return temp[sensorBufferSize / 2];
}
     6e4:	ed b6       	in	r14, 0x3d	; 61
     6e6:	fe b6       	in	r15, 0x3e	; 62
	return ( *(uint8_t*)a - *(uint8_t*)b );
}

uint8_t navigation_get_sensor(int sensorNr)
{
	uint8_t temp[sensorBufferSize];
     6e8:	60 91 02 01 	lds	r22, 0x0102
     6ec:	70 91 03 01 	lds	r23, 0x0103
     6f0:	2d b7       	in	r18, 0x3d	; 61
     6f2:	3e b7       	in	r19, 0x3e	; 62
     6f4:	26 1b       	sub	r18, r22
     6f6:	37 0b       	sbc	r19, r23
     6f8:	0f b6       	in	r0, 0x3f	; 63
     6fa:	f8 94       	cli
     6fc:	3e bf       	out	0x3e, r19	; 62
     6fe:	0f be       	out	0x3f, r0	; 63
     700:	2d bf       	out	0x3d, r18	; 61
     702:	0d b7       	in	r16, 0x3d	; 61
     704:	1e b7       	in	r17, 0x3e	; 62
     706:	0f 5f       	subi	r16, 0xFF	; 255
     708:	1f 4f       	sbci	r17, 0xFF	; 255
	for(int i = 0; i < sensorBufferSize; ++i)
     70a:	16 16       	cp	r1, r22
     70c:	17 06       	cpc	r1, r23
     70e:	84 f4       	brge	.+32     	; 0x730 <navigation_get_sensor+0x5c>
int compare (const void * a, const void * b)
{
	return ( *(uint8_t*)a - *(uint8_t*)b );
}

uint8_t navigation_get_sensor(int sensorNr)
     710:	dc 01       	movw	r26, r24
     712:	aa 0f       	add	r26, r26
     714:	bb 1f       	adc	r27, r27
     716:	a8 0f       	add	r26, r24
     718:	b9 1f       	adc	r27, r25
     71a:	a2 5f       	subi	r26, 0xF2	; 242
     71c:	bc 4e       	sbci	r27, 0xEC	; 236
     71e:	f8 01       	movw	r30, r16
     720:	c8 01       	movw	r24, r16
     722:	86 0f       	add	r24, r22
     724:	97 1f       	adc	r25, r23
{
	uint8_t temp[sensorBufferSize];
	for(int i = 0; i < sensorBufferSize; ++i)
	{
		temp[i] = sensorBuffer[sensorNr][i];
     726:	2d 91       	ld	r18, X+
     728:	21 93       	st	Z+, r18
}

uint8_t navigation_get_sensor(int sensorNr)
{
	uint8_t temp[sensorBufferSize];
	for(int i = 0; i < sensorBufferSize; ++i)
     72a:	e8 17       	cp	r30, r24
     72c:	f9 07       	cpc	r31, r25
     72e:	d9 f7       	brne	.-10     	; 0x726 <navigation_get_sensor+0x52>
	{
		temp[i] = sensorBuffer[sensorNr][i];
	}
	qsort(temp, sensorBufferSize, sizeof(uint8_t), compare);
     730:	2b e8       	ldi	r18, 0x8B	; 139
     732:	32 e0       	ldi	r19, 0x02	; 2
     734:	41 e0       	ldi	r20, 0x01	; 1
     736:	50 e0       	ldi	r21, 0x00	; 0
     738:	c8 01       	movw	r24, r16
     73a:	0e 94 8a 0d 	call	0x1b14	; 0x1b14 <qsort>
	return temp[sensorBufferSize / 2];
     73e:	20 91 02 01 	lds	r18, 0x0102
     742:	30 91 03 01 	lds	r19, 0x0103
     746:	33 23       	and	r19, r19
     748:	14 f4       	brge	.+4      	; 0x74e <navigation_get_sensor+0x7a>
     74a:	2f 5f       	subi	r18, 0xFF	; 255
     74c:	3f 4f       	sbci	r19, 0xFF	; 255
     74e:	35 95       	asr	r19
     750:	27 95       	ror	r18
     752:	f8 01       	movw	r30, r16
     754:	e2 0f       	add	r30, r18
     756:	f3 1f       	adc	r31, r19
}
     758:	80 81       	ld	r24, Z
     75a:	0f b6       	in	r0, 0x3f	; 63
     75c:	f8 94       	cli
     75e:	fe be       	out	0x3e, r15	; 62
     760:	0f be       	out	0x3f, r0	; 63
     762:	ed be       	out	0x3d, r14	; 61
     764:	df 91       	pop	r29
     766:	cf 91       	pop	r28
     768:	1f 91       	pop	r17
     76a:	0f 91       	pop	r16
     76c:	ff 90       	pop	r15
     76e:	ef 90       	pop	r14
     770:	08 95       	ret

00000772 <navigation_fill_buffer>:

void navigation_fill_buffer()
{
     772:	0f 93       	push	r16
     774:	1f 93       	push	r17
     776:	cf 93       	push	r28
     778:	df 93       	push	r29
	for(int i = 0; i < 8; ++i)
     77a:	c0 e0       	ldi	r28, 0x00	; 0
     77c:	d0 e0       	ldi	r29, 0x00	; 0
	{
		sensorBuffer[i][currentBufferLine] = TWI_get_sensor(i);
     77e:	00 91 0d 13 	lds	r16, 0x130D
     782:	10 e0       	ldi	r17, 0x00	; 0
     784:	ce 01       	movw	r24, r28
     786:	70 d2       	rcall	.+1248   	; 0xc68 <TWI_get_sensor>
     788:	fe 01       	movw	r30, r28
     78a:	ee 0f       	add	r30, r30
     78c:	ff 1f       	adc	r31, r31
     78e:	ec 0f       	add	r30, r28
     790:	fd 1f       	adc	r31, r29
     792:	0e 0f       	add	r16, r30
     794:	1f 1f       	adc	r17, r31
     796:	f8 01       	movw	r30, r16
     798:	e2 5f       	subi	r30, 0xF2	; 242
     79a:	fc 4e       	sbci	r31, 0xEC	; 236
     79c:	80 83       	st	Z, r24
	return temp[sensorBufferSize / 2];
}

void navigation_fill_buffer()
{
	for(int i = 0; i < 8; ++i)
     79e:	21 96       	adiw	r28, 0x01	; 1
     7a0:	c8 30       	cpi	r28, 0x08	; 8
     7a2:	d1 05       	cpc	r29, r1
     7a4:	61 f7       	brne	.-40     	; 0x77e <navigation_fill_buffer+0xc>
	{
		sensorBuffer[i][currentBufferLine] = TWI_get_sensor(i);
	}
	if(currentBufferLine == sensorBufferSize - 1)
     7a6:	40 91 0d 13 	lds	r20, 0x130D
     7aa:	24 2f       	mov	r18, r20
     7ac:	30 e0       	ldi	r19, 0x00	; 0
     7ae:	80 91 02 01 	lds	r24, 0x0102
     7b2:	90 91 03 01 	lds	r25, 0x0103
     7b6:	01 97       	sbiw	r24, 0x01	; 1
     7b8:	28 17       	cp	r18, r24
     7ba:	39 07       	cpc	r19, r25
     7bc:	19 f4       	brne	.+6      	; 0x7c4 <navigation_fill_buffer+0x52>
	currentBufferLine = 0;
     7be:	10 92 0d 13 	sts	0x130D, r1
     7c2:	03 c0       	rjmp	.+6      	; 0x7ca <navigation_fill_buffer+0x58>
	else
	currentBufferLine += 1;
     7c4:	4f 5f       	subi	r20, 0xFF	; 255
     7c6:	40 93 0d 13 	sts	0x130D, r20
}
     7ca:	df 91       	pop	r29
     7cc:	cf 91       	pop	r28
     7ce:	1f 91       	pop	r17
     7d0:	0f 91       	pop	r16
     7d2:	08 95       	ret

000007d4 <__vector_13>:

/************************************************************************/
/*      COUNTERS/TIMERS interrupt vectors                               */
/************************************************************************/
ISR(TIMER1_COMPA_vect)
{
     7d4:	1f 92       	push	r1
     7d6:	0f 92       	push	r0
     7d8:	0f b6       	in	r0, 0x3f	; 63
     7da:	0f 92       	push	r0
     7dc:	11 24       	eor	r1, r1
     7de:	0b b6       	in	r0, 0x3b	; 59
     7e0:	0f 92       	push	r0
     7e2:	2f 93       	push	r18
     7e4:	3f 93       	push	r19
     7e6:	4f 93       	push	r20
     7e8:	5f 93       	push	r21
     7ea:	6f 93       	push	r22
     7ec:	7f 93       	push	r23
     7ee:	8f 93       	push	r24
     7f0:	9f 93       	push	r25
     7f2:	af 93       	push	r26
     7f4:	bf 93       	push	r27
     7f6:	ef 93       	push	r30
     7f8:	ff 93       	push	r31
	if(TWI_sensor_flag())
     7fa:	3e d2       	rcall	.+1148   	; 0xc78 <TWI_sensor_flag>
     7fc:	81 11       	cpse	r24, r1
	navigation_fill_buffer();
     7fe:	b9 df       	rcall	.-142    	; 0x772 <navigation_fill_buffer>
	TCNT1 = 0;
     800:	10 92 85 00 	sts	0x0085, r1
     804:	10 92 84 00 	sts	0x0084, r1
}
     808:	ff 91       	pop	r31
     80a:	ef 91       	pop	r30
     80c:	bf 91       	pop	r27
     80e:	af 91       	pop	r26
     810:	9f 91       	pop	r25
     812:	8f 91       	pop	r24
     814:	7f 91       	pop	r23
     816:	6f 91       	pop	r22
     818:	5f 91       	pop	r21
     81a:	4f 91       	pop	r20
     81c:	3f 91       	pop	r19
     81e:	2f 91       	pop	r18
     820:	0f 90       	pop	r0
     822:	0b be       	out	0x3b, r0	; 59
     824:	0f 90       	pop	r0
     826:	0f be       	out	0x3f, r0	; 63
     828:	0f 90       	pop	r0
     82a:	1f 90       	pop	r1
     82c:	18 95       	reti

0000082e <__vector_9>:

ISR(TIMER2_COMPA_vect)
{
     82e:	1f 92       	push	r1
     830:	0f 92       	push	r0
     832:	0f b6       	in	r0, 0x3f	; 63
     834:	0f 92       	push	r0
     836:	11 24       	eor	r1, r1
	TCNT2 = 0;
     838:	10 92 b2 00 	sts	0x00B2, r1
     83c:	0f 90       	pop	r0
     83e:	0f be       	out	0x3f, r0	; 63
     840:	0f 90       	pop	r0
     842:	1f 90       	pop	r1
     844:	18 95       	reti

00000846 <main>:
#include "counter.h"
#include "Navigation.h"
#include "autonomouswalk.h"

int main(void)
{
     846:	cf 93       	push	r28
     848:	df 93       	push	r29
     84a:	00 d0       	rcall	.+0      	; 0x84c <main+0x6>
     84c:	00 d0       	rcall	.+0      	; 0x84e <main+0x8>
     84e:	00 d0       	rcall	.+0      	; 0x850 <main+0xa>
     850:	cd b7       	in	r28, 0x3d	; 61
     852:	de b7       	in	r29, 0x3e	; 62
	USART_init();
     854:	9c d3       	rcall	.+1848   	; 0xf8e <USART_init>
	sei();
     856:	78 94       	sei
	TWI_init(ST_ADDRESS);
     858:	80 e2       	ldi	r24, 0x20	; 32
     85a:	ca d0       	rcall	.+404    	; 0x9f0 <TWI_init>
	init_counters();
     85c:	f0 dd       	rcall	.-1056   	; 0x43e <init_counters>
	DDRA |= (1<<PORTA0 | 1<<PORTA1);
     85e:	81 b1       	in	r24, 0x01	; 1
     860:	83 60       	ori	r24, 0x03	; 3
     862:	81 b9       	out	0x01, r24	; 1
			autonomouswalk_walk(sensors);
		}
		else
		{
			if(TWI_command_flag()){
				PORTA ^= (1<<PORTA1);
     864:	12 e0       	ldi	r17, 0x02	; 2
	init_counters();
	DDRA |= (1<<PORTA0 | 1<<PORTA1);
    while(1)
    {
		
		navigation_set_autonomous_walk(TWI_get_autonom_settings());
     866:	05 d2       	rcall	.+1034   	; 0xc72 <TWI_get_autonom_settings>
     868:	66 de       	rcall	.-820    	; 0x536 <navigation_set_autonomous_walk>
		PORTA &= ~(1<<PORTA0);
		_delay_ms(1000);
		USART_SendMessage("apa");
		TWI_send_string(S_ADRESS, "Hue");
		*/
		if(navigation_autonomous_walk() == 1)
     86a:	62 de       	rcall	.-828    	; 0x530 <navigation_autonomous_walk>
     86c:	81 30       	cpi	r24, 0x01	; 1
     86e:	e1 f4       	brne	.+56     	; 0x8a8 <main+0x62>
		{
			uint8_t sensors[6];
			sensors[0]=navigation_get_sensor(0);
     870:	80 e0       	ldi	r24, 0x00	; 0
     872:	90 e0       	ldi	r25, 0x00	; 0
     874:	2f df       	rcall	.-418    	; 0x6d4 <navigation_get_sensor>
     876:	89 83       	std	Y+1, r24	; 0x01
			sensors[1]=navigation_get_sensor(1);
     878:	81 e0       	ldi	r24, 0x01	; 1
     87a:	90 e0       	ldi	r25, 0x00	; 0
     87c:	2b df       	rcall	.-426    	; 0x6d4 <navigation_get_sensor>
     87e:	8a 83       	std	Y+2, r24	; 0x02
			sensors[2]=navigation_get_sensor(2);
     880:	82 e0       	ldi	r24, 0x02	; 2
     882:	90 e0       	ldi	r25, 0x00	; 0
     884:	27 df       	rcall	.-434    	; 0x6d4 <navigation_get_sensor>
     886:	8b 83       	std	Y+3, r24	; 0x03
			sensors[3]=navigation_get_sensor(3);
     888:	83 e0       	ldi	r24, 0x03	; 3
     88a:	90 e0       	ldi	r25, 0x00	; 0
     88c:	23 df       	rcall	.-442    	; 0x6d4 <navigation_get_sensor>
     88e:	8c 83       	std	Y+4, r24	; 0x04
			sensors[4]=navigation_get_sensor(4);
     890:	84 e0       	ldi	r24, 0x04	; 4
     892:	90 e0       	ldi	r25, 0x00	; 0
     894:	1f df       	rcall	.-450    	; 0x6d4 <navigation_get_sensor>
     896:	8d 83       	std	Y+5, r24	; 0x05
			sensors[5]=navigation_get_sensor(5);
     898:	85 e0       	ldi	r24, 0x05	; 5
     89a:	90 e0       	ldi	r25, 0x00	; 0
     89c:	1b df       	rcall	.-458    	; 0x6d4 <navigation_get_sensor>
     89e:	8e 83       	std	Y+6, r24	; 0x06
			autonomouswalk_walk(sensors);
     8a0:	ce 01       	movw	r24, r28
     8a2:	01 96       	adiw	r24, 0x01	; 1
     8a4:	70 dd       	rcall	.-1312   	; 0x386 <autonomouswalk_walk>
     8a6:	07 c0       	rjmp	.+14     	; 0x8b6 <main+0x70>
		}
		else
		{
			if(TWI_command_flag()){
     8a8:	f1 d1       	rcall	.+994    	; 0xc8c <TWI_command_flag>
     8aa:	88 23       	and	r24, r24
     8ac:	21 f0       	breq	.+8      	; 0x8b6 <main+0x70>
				PORTA ^= (1<<PORTA1);
     8ae:	82 b1       	in	r24, 0x02	; 2
     8b0:	81 27       	eor	r24, r17
     8b2:	82 b9       	out	0x02, r24	; 2
				USART_SendCommand();
     8b4:	3e d4       	rcall	.+2172   	; 0x1132 <USART_SendCommand>
			}
		}
		USART_DecodeRxFIFO();
     8b6:	72 d5       	rcall	.+2788   	; 0x139c <USART_DecodeRxFIFO>
    }
     8b8:	d6 cf       	rjmp	.-84     	; 0x866 <main+0x20>

000008ba <set_twi_reciever_enable>:
	{
		sweepFlag_ = 0;
		return 1;
	}
	return 0;
}
     8ba:	85 e4       	ldi	r24, 0x45	; 69
     8bc:	80 93 bc 00 	sts	0x00BC, r24
     8c0:	08 95       	ret

000008c2 <clear_int>:
     8c2:	81 ec       	ldi	r24, 0xC1	; 193
     8c4:	80 93 bc 00 	sts	0x00BC, r24
     8c8:	08 95       	ret

000008ca <start_bus>:
     8ca:	84 ea       	ldi	r24, 0xA4	; 164
     8cc:	80 93 bc 00 	sts	0x00BC, r24
     8d0:	08 95       	ret

000008d2 <stop_bus>:
     8d2:	85 ed       	ldi	r24, 0xD5	; 213
     8d4:	80 93 bc 00 	sts	0x00BC, r24
     8d8:	08 95       	ret

000008da <Error>:
     8da:	80 91 b9 00 	lds	r24, 0x00B9
     8de:	88 7f       	andi	r24, 0xF8	; 248
     8e0:	88 33       	cpi	r24, 0x38	; 56
     8e2:	09 f0       	breq	.+2      	; 0x8e6 <Error+0xc>
     8e4:	f6 cf       	rjmp	.-20     	; 0x8d2 <stop_bus>
     8e6:	ed cf       	rjmp	.-38     	; 0x8c2 <clear_int>

000008e8 <get_data>:
     8e8:	80 91 bb 00 	lds	r24, 0x00BB
     8ec:	08 95       	ret

000008ee <wait_for_bus>:
     8ee:	ec eb       	ldi	r30, 0xBC	; 188
     8f0:	f0 e0       	ldi	r31, 0x00	; 0
     8f2:	80 81       	ld	r24, Z
     8f4:	88 23       	and	r24, r24
     8f6:	ec f7       	brge	.-6      	; 0x8f2 <wait_for_bus+0x4>
     8f8:	08 95       	ret

000008fa <send_data_and_wait>:
     8fa:	80 93 bb 00 	sts	0x00BB, r24
     8fe:	84 e8       	ldi	r24, 0x84	; 132
     900:	80 93 bc 00 	sts	0x00BC, r24
     904:	f4 cf       	rjmp	.-24     	; 0x8ee <wait_for_bus>

00000906 <stop_twi>:
     906:	10 92 39 14 	sts	0x1439, r1
     90a:	10 92 38 14 	sts	0x1438, r1
     90e:	10 92 43 14 	sts	0x1443, r1
     912:	10 92 42 14 	sts	0x1442, r1
     916:	10 92 2e 14 	sts	0x142E, r1
     91a:	10 92 2d 14 	sts	0x142D, r1
     91e:	10 92 33 14 	sts	0x1433, r1
     922:	10 92 32 14 	sts	0x1432, r1
     926:	10 92 36 14 	sts	0x1436, r1
     92a:	10 92 35 14 	sts	0x1435, r1
     92e:	08 95       	ret

00000930 <reset_TWI>:
     930:	ec eb       	ldi	r30, 0xBC	; 188
     932:	f0 e0       	ldi	r31, 0x00	; 0
     934:	80 81       	ld	r24, Z
     936:	80 6c       	ori	r24, 0xC0	; 192
     938:	80 83       	st	Z, r24
     93a:	08 95       	ret

0000093c <get_sensor_from_bus>:
     93c:	cf 93       	push	r28
     93e:	df 93       	push	r29
     940:	c0 91 42 14 	lds	r28, 0x1442
     944:	d0 91 43 14 	lds	r29, 0x1443
     948:	c8 30       	cpi	r28, 0x08	; 8
     94a:	d1 05       	cpc	r29, r1
     94c:	91 f4       	brne	.+36     	; 0x972 <get_sensor_from_bus+0x36>
     94e:	ee e0       	ldi	r30, 0x0E	; 14
     950:	f3 e1       	ldi	r31, 0x13	; 19
     952:	a4 e4       	ldi	r26, 0x44	; 68
     954:	b4 e1       	ldi	r27, 0x14	; 20
     956:	86 e1       	ldi	r24, 0x16	; 22
     958:	93 e1       	ldi	r25, 0x13	; 19
     95a:	21 91       	ld	r18, Z+
     95c:	2d 93       	st	X+, r18
     95e:	e8 17       	cp	r30, r24
     960:	f9 07       	cpc	r31, r25
     962:	d9 f7       	brne	.-10     	; 0x95a <get_sensor_from_bus+0x1e>
     964:	c1 df       	rcall	.-126    	; 0x8e8 <get_data>
     966:	80 93 3c 14 	sts	0x143C, r24
     96a:	81 e0       	ldi	r24, 0x01	; 1
     96c:	80 93 08 13 	sts	0x1308, r24
     970:	0d c0       	rjmp	.+26     	; 0x98c <get_sensor_from_bus+0x50>
     972:	ba df       	rcall	.-140    	; 0x8e8 <get_data>
     974:	c2 5f       	subi	r28, 0xF2	; 242
     976:	dc 4e       	sbci	r29, 0xEC	; 236
     978:	88 83       	st	Y, r24
     97a:	80 91 42 14 	lds	r24, 0x1442
     97e:	90 91 43 14 	lds	r25, 0x1443
     982:	01 96       	adiw	r24, 0x01	; 1
     984:	90 93 43 14 	sts	0x1443, r25
     988:	80 93 42 14 	sts	0x1442, r24
     98c:	df 91       	pop	r29
     98e:	cf 91       	pop	r28
     990:	08 95       	ret

00000992 <get_control_settings_from_bus>:
     992:	cf 93       	push	r28
     994:	df 93       	push	r29
     996:	c0 91 32 14 	lds	r28, 0x1432
     99a:	d0 91 33 14 	lds	r29, 0x1433
     99e:	a4 df       	rcall	.-184    	; 0x8e8 <get_data>
     9a0:	c1 5d       	subi	r28, 0xD1	; 209
     9a2:	db 4e       	sbci	r29, 0xEB	; 235
     9a4:	88 83       	st	Y, r24
     9a6:	10 92 33 14 	sts	0x1433, r1
     9aa:	10 92 32 14 	sts	0x1432, r1
     9ae:	df 91       	pop	r29
     9b0:	cf 91       	pop	r28
     9b2:	08 95       	ret

000009b4 <get_autonom_settings_from_bus>:
     9b4:	99 df       	rcall	.-206    	; 0x8e8 <get_data>
     9b6:	80 93 2d 13 	sts	0x132D, r24
     9ba:	08 95       	ret

000009bc <get_char_from_bus>:
     9bc:	cf 93       	push	r28
     9be:	df 93       	push	r29
     9c0:	c0 91 2d 14 	lds	r28, 0x142D
     9c4:	d0 91 2e 14 	lds	r29, 0x142E
     9c8:	8f df       	rcall	.-226    	; 0x8e8 <get_data>
     9ca:	c2 5d       	subi	r28, 0xD2	; 210
     9cc:	dc 4e       	sbci	r29, 0xEC	; 236
     9ce:	88 83       	st	Y, r24
     9d0:	80 91 2d 14 	lds	r24, 0x142D
     9d4:	90 91 2e 14 	lds	r25, 0x142E
     9d8:	01 96       	adiw	r24, 0x01	; 1
     9da:	90 93 2e 14 	sts	0x142E, r25
     9de:	80 93 2d 14 	sts	0x142D, r24
     9e2:	90 93 3e 14 	sts	0x143E, r25
     9e6:	80 93 3d 14 	sts	0x143D, r24
     9ea:	df 91       	pop	r29
     9ec:	cf 91       	pop	r28
     9ee:	08 95       	ret

000009f0 <TWI_init>:
     9f0:	80 93 34 14 	sts	0x1434, r24
     9f4:	80 34       	cpi	r24, 0x40	; 64
     9f6:	79 f0       	breq	.+30     	; 0xa16 <TWI_init+0x26>
     9f8:	80 38       	cpi	r24, 0x80	; 128
     9fa:	19 f0       	breq	.+6      	; 0xa02 <TWI_init+0x12>
     9fc:	80 32       	cpi	r24, 0x20	; 32
     9fe:	d1 f4       	brne	.+52     	; 0xa34 <TWI_init+0x44>
     a00:	12 c0       	rjmp	.+36     	; 0xa26 <TWI_init+0x36>
     a02:	83 e0       	ldi	r24, 0x03	; 3
     a04:	88 b9       	out	0x08, r24	; 8
     a06:	59 df       	rcall	.-334    	; 0x8ba <set_twi_reciever_enable>
     a08:	8f e3       	ldi	r24, 0x3F	; 63
     a0a:	80 93 b8 00 	sts	0x00B8, r24
     a0e:	81 e8       	ldi	r24, 0x81	; 129
     a10:	80 93 ba 00 	sts	0x00BA, r24
     a14:	08 95       	ret
     a16:	8f e3       	ldi	r24, 0x3F	; 63
     a18:	80 93 b8 00 	sts	0x00B8, r24
     a1c:	4e df       	rcall	.-356    	; 0x8ba <set_twi_reciever_enable>
     a1e:	80 e4       	ldi	r24, 0x40	; 64
     a20:	80 93 ba 00 	sts	0x00BA, r24
     a24:	08 95       	ret
     a26:	8f e3       	ldi	r24, 0x3F	; 63
     a28:	80 93 b8 00 	sts	0x00B8, r24
     a2c:	46 df       	rcall	.-372    	; 0x8ba <set_twi_reciever_enable>
     a2e:	81 e2       	ldi	r24, 0x21	; 33
     a30:	80 93 ba 00 	sts	0x00BA, r24
     a34:	08 95       	ret

00000a36 <TWI_send_command>:
     a36:	1f 93       	push	r17
     a38:	cf 93       	push	r28
     a3a:	df 93       	push	r29
     a3c:	c8 2f       	mov	r28, r24
     a3e:	d6 2f       	mov	r29, r22
     a40:	14 2f       	mov	r17, r20
     a42:	43 df       	rcall	.-378    	; 0x8ca <start_bus>
     a44:	54 df       	rcall	.-344    	; 0x8ee <wait_for_bus>
     a46:	90 91 b9 00 	lds	r25, 0x00B9
     a4a:	98 7f       	andi	r25, 0xF8	; 248
     a4c:	98 30       	cpi	r25, 0x08	; 8
     a4e:	19 f0       	breq	.+6      	; 0xa56 <TWI_send_command+0x20>
     a50:	44 df       	rcall	.-376    	; 0x8da <Error>
     a52:	80 e0       	ldi	r24, 0x00	; 0
     a54:	34 c0       	rjmp	.+104    	; 0xabe <TWI_send_command+0x88>
     a56:	80 e2       	ldi	r24, 0x20	; 32
     a58:	50 df       	rcall	.-352    	; 0x8fa <send_data_and_wait>
     a5a:	80 91 b9 00 	lds	r24, 0x00B9
     a5e:	88 7f       	andi	r24, 0xF8	; 248
     a60:	88 31       	cpi	r24, 0x18	; 24
     a62:	19 f0       	breq	.+6      	; 0xa6a <TWI_send_command+0x34>
     a64:	3a df       	rcall	.-396    	; 0x8da <Error>
     a66:	80 e0       	ldi	r24, 0x00	; 0
     a68:	2a c0       	rjmp	.+84     	; 0xabe <TWI_send_command+0x88>
     a6a:	80 e0       	ldi	r24, 0x00	; 0
     a6c:	46 df       	rcall	.-372    	; 0x8fa <send_data_and_wait>
     a6e:	80 91 b9 00 	lds	r24, 0x00B9
     a72:	88 7f       	andi	r24, 0xF8	; 248
     a74:	88 32       	cpi	r24, 0x28	; 40
     a76:	19 f0       	breq	.+6      	; 0xa7e <TWI_send_command+0x48>
     a78:	30 df       	rcall	.-416    	; 0x8da <Error>
     a7a:	80 e0       	ldi	r24, 0x00	; 0
     a7c:	20 c0       	rjmp	.+64     	; 0xabe <TWI_send_command+0x88>
     a7e:	8c 2f       	mov	r24, r28
     a80:	3c df       	rcall	.-392    	; 0x8fa <send_data_and_wait>
     a82:	80 91 b9 00 	lds	r24, 0x00B9
     a86:	88 7f       	andi	r24, 0xF8	; 248
     a88:	88 32       	cpi	r24, 0x28	; 40
     a8a:	19 f0       	breq	.+6      	; 0xa92 <TWI_send_command+0x5c>
     a8c:	26 df       	rcall	.-436    	; 0x8da <Error>
     a8e:	80 e0       	ldi	r24, 0x00	; 0
     a90:	16 c0       	rjmp	.+44     	; 0xabe <TWI_send_command+0x88>
     a92:	8d 2f       	mov	r24, r29
     a94:	32 df       	rcall	.-412    	; 0x8fa <send_data_and_wait>
     a96:	80 91 b9 00 	lds	r24, 0x00B9
     a9a:	88 7f       	andi	r24, 0xF8	; 248
     a9c:	88 32       	cpi	r24, 0x28	; 40
     a9e:	19 f0       	breq	.+6      	; 0xaa6 <TWI_send_command+0x70>
     aa0:	1c df       	rcall	.-456    	; 0x8da <Error>
     aa2:	80 e0       	ldi	r24, 0x00	; 0
     aa4:	0c c0       	rjmp	.+24     	; 0xabe <TWI_send_command+0x88>
     aa6:	81 2f       	mov	r24, r17
     aa8:	28 df       	rcall	.-432    	; 0x8fa <send_data_and_wait>
     aaa:	80 91 b9 00 	lds	r24, 0x00B9
     aae:	88 7f       	andi	r24, 0xF8	; 248
     ab0:	88 32       	cpi	r24, 0x28	; 40
     ab2:	19 f0       	breq	.+6      	; 0xaba <TWI_send_command+0x84>
     ab4:	12 df       	rcall	.-476    	; 0x8da <Error>
     ab6:	80 e0       	ldi	r24, 0x00	; 0
     ab8:	02 c0       	rjmp	.+4      	; 0xabe <TWI_send_command+0x88>
     aba:	0b df       	rcall	.-490    	; 0x8d2 <stop_bus>
     abc:	81 e0       	ldi	r24, 0x01	; 1
     abe:	df 91       	pop	r29
     ac0:	cf 91       	pop	r28
     ac2:	1f 91       	pop	r17
     ac4:	08 95       	ret

00000ac6 <TWI_send_string>:
     ac6:	ef 92       	push	r14
     ac8:	ff 92       	push	r15
     aca:	0f 93       	push	r16
     acc:	1f 93       	push	r17
     ace:	cf 93       	push	r28
     ad0:	df 93       	push	r29
     ad2:	c8 2f       	mov	r28, r24
     ad4:	e6 2e       	mov	r14, r22
     ad6:	f7 2e       	mov	r15, r23
     ad8:	f8 de       	rcall	.-528    	; 0x8ca <start_bus>
     ada:	09 df       	rcall	.-494    	; 0x8ee <wait_for_bus>
     adc:	90 91 b9 00 	lds	r25, 0x00B9
     ae0:	98 7f       	andi	r25, 0xF8	; 248
     ae2:	98 30       	cpi	r25, 0x08	; 8
     ae4:	19 f0       	breq	.+6      	; 0xaec <TWI_send_string+0x26>
     ae6:	f9 de       	rcall	.-526    	; 0x8da <Error>
     ae8:	80 e0       	ldi	r24, 0x00	; 0
     aea:	2c c0       	rjmp	.+88     	; 0xb44 <TWI_send_string+0x7e>
     aec:	8c 2f       	mov	r24, r28
     aee:	05 df       	rcall	.-502    	; 0x8fa <send_data_and_wait>
     af0:	80 91 b9 00 	lds	r24, 0x00B9
     af4:	88 7f       	andi	r24, 0xF8	; 248
     af6:	88 31       	cpi	r24, 0x18	; 24
     af8:	19 f0       	breq	.+6      	; 0xb00 <TWI_send_string+0x3a>
     afa:	ef de       	rcall	.-546    	; 0x8da <Error>
     afc:	80 e0       	ldi	r24, 0x00	; 0
     afe:	22 c0       	rjmp	.+68     	; 0xb44 <TWI_send_string+0x7e>
     b00:	89 e1       	ldi	r24, 0x19	; 25
     b02:	fb de       	rcall	.-522    	; 0x8fa <send_data_and_wait>
     b04:	80 91 b9 00 	lds	r24, 0x00B9
     b08:	88 7f       	andi	r24, 0xF8	; 248
     b0a:	88 32       	cpi	r24, 0x28	; 40
     b0c:	29 f4       	brne	.+10     	; 0xb18 <TWI_send_string+0x52>
     b0e:	0e 2d       	mov	r16, r14
     b10:	1f 2d       	mov	r17, r15
     b12:	c0 e0       	ldi	r28, 0x00	; 0
     b14:	d0 e0       	ldi	r29, 0x00	; 0
     b16:	08 c0       	rjmp	.+16     	; 0xb28 <TWI_send_string+0x62>
     b18:	e0 de       	rcall	.-576    	; 0x8da <Error>
     b1a:	80 e0       	ldi	r24, 0x00	; 0
     b1c:	13 c0       	rjmp	.+38     	; 0xb44 <TWI_send_string+0x7e>
     b1e:	f8 01       	movw	r30, r16
     b20:	81 91       	ld	r24, Z+
     b22:	8f 01       	movw	r16, r30
     b24:	ea de       	rcall	.-556    	; 0x8fa <send_data_and_wait>
     b26:	21 96       	adiw	r28, 0x01	; 1
     b28:	ee 2d       	mov	r30, r14
     b2a:	ff 2d       	mov	r31, r15
     b2c:	df 01       	movw	r26, r30
     b2e:	0d 90       	ld	r0, X+
     b30:	00 20       	and	r0, r0
     b32:	e9 f7       	brne	.-6      	; 0xb2e <TWI_send_string+0x68>
     b34:	11 97       	sbiw	r26, 0x01	; 1
     b36:	ae 1b       	sub	r26, r30
     b38:	bf 0b       	sbc	r27, r31
     b3a:	ca 17       	cp	r28, r26
     b3c:	db 07       	cpc	r29, r27
     b3e:	78 f3       	brcs	.-34     	; 0xb1e <TWI_send_string+0x58>
     b40:	c8 de       	rcall	.-624    	; 0x8d2 <stop_bus>
     b42:	81 e0       	ldi	r24, 0x01	; 1
     b44:	df 91       	pop	r29
     b46:	cf 91       	pop	r28
     b48:	1f 91       	pop	r17
     b4a:	0f 91       	pop	r16
     b4c:	ff 90       	pop	r15
     b4e:	ef 90       	pop	r14
     b50:	08 95       	ret

00000b52 <TWI_send_string_fixed_length>:
     b52:	ef 92       	push	r14
     b54:	ff 92       	push	r15
     b56:	0f 93       	push	r16
     b58:	1f 93       	push	r17
     b5a:	cf 93       	push	r28
     b5c:	df 93       	push	r29
     b5e:	c8 2f       	mov	r28, r24
     b60:	e6 2e       	mov	r14, r22
     b62:	f7 2e       	mov	r15, r23
     b64:	8a 01       	movw	r16, r20
     b66:	b1 de       	rcall	.-670    	; 0x8ca <start_bus>
     b68:	c2 de       	rcall	.-636    	; 0x8ee <wait_for_bus>
     b6a:	90 91 b9 00 	lds	r25, 0x00B9
     b6e:	98 7f       	andi	r25, 0xF8	; 248
     b70:	98 30       	cpi	r25, 0x08	; 8
     b72:	19 f0       	breq	.+6      	; 0xb7a <TWI_send_string_fixed_length+0x28>
     b74:	b2 de       	rcall	.-668    	; 0x8da <Error>
     b76:	80 e0       	ldi	r24, 0x00	; 0
     b78:	23 c0       	rjmp	.+70     	; 0xbc0 <TWI_send_string_fixed_length+0x6e>
     b7a:	8c 2f       	mov	r24, r28
     b7c:	be de       	rcall	.-644    	; 0x8fa <send_data_and_wait>
     b7e:	80 91 b9 00 	lds	r24, 0x00B9
     b82:	88 7f       	andi	r24, 0xF8	; 248
     b84:	88 31       	cpi	r24, 0x18	; 24
     b86:	19 f0       	breq	.+6      	; 0xb8e <TWI_send_string_fixed_length+0x3c>
     b88:	a8 de       	rcall	.-688    	; 0x8da <Error>
     b8a:	80 e0       	ldi	r24, 0x00	; 0
     b8c:	19 c0       	rjmp	.+50     	; 0xbc0 <TWI_send_string_fixed_length+0x6e>
     b8e:	89 e1       	ldi	r24, 0x19	; 25
     b90:	b4 de       	rcall	.-664    	; 0x8fa <send_data_and_wait>
     b92:	80 91 b9 00 	lds	r24, 0x00B9
     b96:	88 7f       	andi	r24, 0xF8	; 248
     b98:	88 32       	cpi	r24, 0x28	; 40
     b9a:	21 f4       	brne	.+8      	; 0xba4 <TWI_send_string_fixed_length+0x52>
     b9c:	10 16       	cp	r1, r16
     b9e:	11 06       	cpc	r1, r17
     ba0:	24 f0       	brlt	.+8      	; 0xbaa <TWI_send_string_fixed_length+0x58>
     ba2:	0c c0       	rjmp	.+24     	; 0xbbc <TWI_send_string_fixed_length+0x6a>
     ba4:	9a de       	rcall	.-716    	; 0x8da <Error>
     ba6:	80 e0       	ldi	r24, 0x00	; 0
     ba8:	0b c0       	rjmp	.+22     	; 0xbc0 <TWI_send_string_fixed_length+0x6e>
     baa:	ce 2d       	mov	r28, r14
     bac:	df 2d       	mov	r29, r15
     bae:	0c 0f       	add	r16, r28
     bb0:	1d 1f       	adc	r17, r29
     bb2:	89 91       	ld	r24, Y+
     bb4:	a2 de       	rcall	.-700    	; 0x8fa <send_data_and_wait>
     bb6:	c0 17       	cp	r28, r16
     bb8:	d1 07       	cpc	r29, r17
     bba:	d9 f7       	brne	.-10     	; 0xbb2 <TWI_send_string_fixed_length+0x60>
     bbc:	8a de       	rcall	.-748    	; 0x8d2 <stop_bus>
     bbe:	81 e0       	ldi	r24, 0x01	; 1
     bc0:	df 91       	pop	r29
     bc2:	cf 91       	pop	r28
     bc4:	1f 91       	pop	r17
     bc6:	0f 91       	pop	r16
     bc8:	ff 90       	pop	r15
     bca:	ef 90       	pop	r14
     bcc:	08 95       	ret

00000bce <TWI_send_float>:
     bce:	ef 92       	push	r14
     bd0:	ff 92       	push	r15
     bd2:	0f 93       	push	r16
     bd4:	1f 93       	push	r17
     bd6:	cf 93       	push	r28
     bd8:	df 93       	push	r29
     bda:	00 d0       	rcall	.+0      	; 0xbdc <TWI_send_float+0xe>
     bdc:	00 d0       	rcall	.+0      	; 0xbde <TWI_send_float+0x10>
     bde:	cd b7       	in	r28, 0x3d	; 61
     be0:	de b7       	in	r29, 0x3e	; 62
     be2:	18 2f       	mov	r17, r24
     be4:	49 83       	std	Y+1, r20	; 0x01
     be6:	5a 83       	std	Y+2, r21	; 0x02
     be8:	6b 83       	std	Y+3, r22	; 0x03
     bea:	7c 83       	std	Y+4, r23	; 0x04
     bec:	6e de       	rcall	.-804    	; 0x8ca <start_bus>
     bee:	7f de       	rcall	.-770    	; 0x8ee <wait_for_bus>
     bf0:	90 91 b9 00 	lds	r25, 0x00B9
     bf4:	98 7f       	andi	r25, 0xF8	; 248
     bf6:	98 30       	cpi	r25, 0x08	; 8
     bf8:	19 f0       	breq	.+6      	; 0xc00 <TWI_send_float+0x32>
     bfa:	6f de       	rcall	.-802    	; 0x8da <Error>
     bfc:	80 e0       	ldi	r24, 0x00	; 0
     bfe:	24 c0       	rjmp	.+72     	; 0xc48 <TWI_send_float+0x7a>
     c00:	81 2f       	mov	r24, r17
     c02:	7b de       	rcall	.-778    	; 0x8fa <send_data_and_wait>
     c04:	80 91 b9 00 	lds	r24, 0x00B9
     c08:	88 7f       	andi	r24, 0xF8	; 248
     c0a:	88 31       	cpi	r24, 0x18	; 24
     c0c:	19 f0       	breq	.+6      	; 0xc14 <TWI_send_float+0x46>
     c0e:	65 de       	rcall	.-822    	; 0x8da <Error>
     c10:	80 e0       	ldi	r24, 0x00	; 0
     c12:	1a c0       	rjmp	.+52     	; 0xc48 <TWI_send_float+0x7a>
     c14:	86 e0       	ldi	r24, 0x06	; 6
     c16:	71 de       	rcall	.-798    	; 0x8fa <send_data_and_wait>
     c18:	80 91 b9 00 	lds	r24, 0x00B9
     c1c:	88 7f       	andi	r24, 0xF8	; 248
     c1e:	88 32       	cpi	r24, 0x28	; 40
     c20:	19 f0       	breq	.+6      	; 0xc28 <TWI_send_float+0x5a>
     c22:	5b de       	rcall	.-842    	; 0x8da <Error>
     c24:	80 e0       	ldi	r24, 0x00	; 0
     c26:	10 c0       	rjmp	.+32     	; 0xc48 <TWI_send_float+0x7a>
     c28:	8e 01       	movw	r16, r28
     c2a:	0f 5f       	subi	r16, 0xFF	; 255
     c2c:	1f 4f       	sbci	r17, 0xFF	; 255
     c2e:	7e 01       	movw	r14, r28
     c30:	85 e0       	ldi	r24, 0x05	; 5
     c32:	e8 0e       	add	r14, r24
     c34:	f1 1c       	adc	r15, r1
     c36:	f8 01       	movw	r30, r16
     c38:	81 91       	ld	r24, Z+
     c3a:	8f 01       	movw	r16, r30
     c3c:	5e de       	rcall	.-836    	; 0x8fa <send_data_and_wait>
     c3e:	0e 15       	cp	r16, r14
     c40:	1f 05       	cpc	r17, r15
     c42:	c9 f7       	brne	.-14     	; 0xc36 <TWI_send_float+0x68>
     c44:	46 de       	rcall	.-884    	; 0x8d2 <stop_bus>
     c46:	81 e0       	ldi	r24, 0x01	; 1
     c48:	0f 90       	pop	r0
     c4a:	0f 90       	pop	r0
     c4c:	0f 90       	pop	r0
     c4e:	0f 90       	pop	r0
     c50:	df 91       	pop	r29
     c52:	cf 91       	pop	r28
     c54:	1f 91       	pop	r17
     c56:	0f 91       	pop	r16
     c58:	ff 90       	pop	r15
     c5a:	ef 90       	pop	r14
     c5c:	08 95       	ret

00000c5e <TWI_get_command>:
     c5e:	86 5d       	subi	r24, 0xD6	; 214
     c60:	9c 4e       	sbci	r25, 0xEC	; 236
     c62:	fc 01       	movw	r30, r24
     c64:	80 81       	ld	r24, Z
     c66:	08 95       	ret

00000c68 <TWI_get_sensor>:
     c68:	8c 5b       	subi	r24, 0xBC	; 188
     c6a:	9b 4e       	sbci	r25, 0xEB	; 235
     c6c:	fc 01       	movw	r30, r24
     c6e:	80 81       	ld	r24, Z
     c70:	08 95       	ret

00000c72 <TWI_get_autonom_settings>:
     c72:	80 91 2d 13 	lds	r24, 0x132D
     c76:	08 95       	ret

00000c78 <TWI_sensor_flag>:
     c78:	80 91 08 13 	lds	r24, 0x1308
     c7c:	88 23       	and	r24, r24
     c7e:	21 f0       	breq	.+8      	; 0xc88 <TWI_sensor_flag+0x10>
     c80:	10 92 08 13 	sts	0x1308, r1
     c84:	81 e0       	ldi	r24, 0x01	; 1
     c86:	08 95       	ret
     c88:	80 e0       	ldi	r24, 0x00	; 0
     c8a:	08 95       	ret

00000c8c <TWI_command_flag>:
     c8c:	80 91 07 13 	lds	r24, 0x1307
     c90:	88 23       	and	r24, r24
     c92:	21 f0       	breq	.+8      	; 0xc9c <TWI_command_flag+0x10>
     c94:	10 92 07 13 	sts	0x1307, r1
     c98:	81 e0       	ldi	r24, 0x01	; 1
     c9a:	08 95       	ret
     c9c:	80 e0       	ldi	r24, 0x00	; 0
     c9e:	08 95       	ret

00000ca0 <__vector_26>:

//TWI Interrupt vector MUHAHAHAHA
// ----------------------------------------------------------------------------- Communications
ISR(TWI_vect)
{
     ca0:	1f 92       	push	r1
     ca2:	0f 92       	push	r0
     ca4:	0f b6       	in	r0, 0x3f	; 63
     ca6:	0f 92       	push	r0
     ca8:	11 24       	eor	r1, r1
     caa:	0b b6       	in	r0, 0x3b	; 59
     cac:	0f 92       	push	r0
     cae:	2f 93       	push	r18
     cb0:	3f 93       	push	r19
     cb2:	4f 93       	push	r20
     cb4:	5f 93       	push	r21
     cb6:	6f 93       	push	r22
     cb8:	7f 93       	push	r23
     cba:	8f 93       	push	r24
     cbc:	9f 93       	push	r25
     cbe:	af 93       	push	r26
     cc0:	bf 93       	push	r27
     cc2:	cf 93       	push	r28
     cc4:	df 93       	push	r29
     cc6:	ef 93       	push	r30
     cc8:	ff 93       	push	r31
	switch(myAdress)
     cca:	80 91 34 14 	lds	r24, 0x1434
     cce:	80 34       	cpi	r24, 0x40	; 64
     cd0:	09 f4       	brne	.+2      	; 0xcd4 <__vector_26+0x34>
     cd2:	6f c0       	rjmp	.+222    	; 0xdb2 <__vector_26+0x112>
     cd4:	80 38       	cpi	r24, 0x80	; 128
     cd6:	21 f0       	breq	.+8      	; 0xce0 <__vector_26+0x40>
     cd8:	80 32       	cpi	r24, 0x20	; 32
     cda:	09 f0       	breq	.+2      	; 0xcde <__vector_26+0x3e>
     cdc:	43 c1       	rjmp	.+646    	; 0xf64 <__vector_26+0x2c4>
     cde:	a9 c0       	rjmp	.+338    	; 0xe32 <__vector_26+0x192>
	{
		case(C_ADDRESS):
		{
			if(CONTROL == SLAW || CONTROL == ARBIT_SLAW)
     ce0:	80 91 b9 00 	lds	r24, 0x00B9
     ce4:	88 7f       	andi	r24, 0xF8	; 248
     ce6:	80 36       	cpi	r24, 0x60	; 96
     ce8:	29 f0       	breq	.+10     	; 0xcf4 <__vector_26+0x54>
     cea:	80 91 b9 00 	lds	r24, 0x00B9
     cee:	88 7f       	andi	r24, 0xF8	; 248
     cf0:	88 36       	cpi	r24, 0x68	; 104
     cf2:	21 f4       	brne	.+8      	; 0xcfc <__vector_26+0x5c>
			{
				instruction = 1;
     cf4:	81 e0       	ldi	r24, 0x01	; 1
     cf6:	80 93 37 14 	sts	0x1437, r24
     cfa:	59 c0       	rjmp	.+178    	; 0xdae <__vector_26+0x10e>
				
			}
			else if(CONTROL == DATA_SLAW)
     cfc:	80 91 b9 00 	lds	r24, 0x00B9
     d00:	88 7f       	andi	r24, 0xF8	; 248
     d02:	80 38       	cpi	r24, 0x80	; 128
     d04:	b1 f5       	brne	.+108    	; 0xd72 <__vector_26+0xd2>
			{
				if(instruction)
     d06:	80 91 37 14 	lds	r24, 0x1437
     d0a:	88 23       	and	r24, r24
     d0c:	41 f0       	breq	.+16     	; 0xd1e <__vector_26+0x7e>
				{
					currentInstruction = get_data();
     d0e:	ec dd       	rcall	.-1064   	; 0x8e8 <get_data>
     d10:	80 93 40 14 	sts	0x1440, r24
     d14:	10 92 41 14 	sts	0x1441, r1
					instruction = 0;
     d18:	10 92 37 14 	sts	0x1437, r1
     d1c:	48 c0       	rjmp	.+144    	; 0xdae <__vector_26+0x10e>
				}
				else
				{
					switch(currentInstruction)
     d1e:	80 91 40 14 	lds	r24, 0x1440
     d22:	90 91 41 14 	lds	r25, 0x1441
     d26:	85 30       	cpi	r24, 0x05	; 5
     d28:	91 05       	cpc	r25, r1
     d2a:	69 f0       	breq	.+26     	; 0xd46 <__vector_26+0xa6>
     d2c:	24 f4       	brge	.+8      	; 0xd36 <__vector_26+0x96>
     d2e:	01 97       	sbiw	r24, 0x01	; 1
     d30:	09 f0       	breq	.+2      	; 0xd34 <__vector_26+0x94>
     d32:	3d c0       	rjmp	.+122    	; 0xdae <__vector_26+0x10e>
     d34:	06 c0       	rjmp	.+12     	; 0xd42 <__vector_26+0xa2>
     d36:	86 30       	cpi	r24, 0x06	; 6
     d38:	91 05       	cpc	r25, r1
     d3a:	49 f0       	breq	.+18     	; 0xd4e <__vector_26+0xae>
     d3c:	49 97       	sbiw	r24, 0x19	; 25
     d3e:	b9 f5       	brne	.+110    	; 0xdae <__vector_26+0x10e>
     d40:	04 c0       	rjmp	.+8      	; 0xd4a <__vector_26+0xaa>
					{
						case(I_SETTINGS):
						{
							get_control_settings_from_bus();
     d42:	27 de       	rcall	.-946    	; 0x992 <get_control_settings_from_bus>
							break;
     d44:	34 c0       	rjmp	.+104    	; 0xdae <__vector_26+0x10e>
						}
						case(I_AUTONOM):
						{
							get_autonom_settings_from_bus();
     d46:	36 de       	rcall	.-916    	; 0x9b4 <get_autonom_settings_from_bus>
							break;
     d48:	32 c0       	rjmp	.+100    	; 0xdae <__vector_26+0x10e>
						}
						case(I_STRING):
						{
							get_char_from_bus();
     d4a:	38 de       	rcall	.-912    	; 0x9bc <get_char_from_bus>
							break;
     d4c:	30 c0       	rjmp	.+96     	; 0xdae <__vector_26+0x10e>
	currentCommand += 1;
}

void get_float_from_bus()
{
	floatMessage[floatCounter] = get_data();
     d4e:	c0 91 35 14 	lds	r28, 0x1435
     d52:	d0 91 36 14 	lds	r29, 0x1436
     d56:	c8 dd       	rcall	.-1136   	; 0x8e8 <get_data>
     d58:	ca 5d       	subi	r28, 0xDA	; 218
     d5a:	dc 4e       	sbci	r29, 0xEC	; 236
     d5c:	88 83       	st	Y, r24
	floatCounter += 1;
     d5e:	80 91 35 14 	lds	r24, 0x1435
     d62:	90 91 36 14 	lds	r25, 0x1436
     d66:	01 96       	adiw	r24, 0x01	; 1
     d68:	90 93 36 14 	sts	0x1436, r25
     d6c:	80 93 35 14 	sts	0x1435, r24
     d70:	1e c0       	rjmp	.+60     	; 0xdae <__vector_26+0x10e>
							break;
						}
					}
				}
			}
			else if (CONTROL == DATA_GENERAL)
     d72:	80 91 b9 00 	lds	r24, 0x00B9
     d76:	88 7f       	andi	r24, 0xF8	; 248
     d78:	80 39       	cpi	r24, 0x90	; 144
     d7a:	11 f4       	brne	.+4      	; 0xd80 <__vector_26+0xe0>
			{
				get_sensor_from_bus();
     d7c:	df dd       	rcall	.-1090   	; 0x93c <get_sensor_from_bus>
     d7e:	17 c0       	rjmp	.+46     	; 0xdae <__vector_26+0x10e>
			}
			else if (CONTROL == STOP)
     d80:	80 91 b9 00 	lds	r24, 0x00B9
     d84:	88 7f       	andi	r24, 0xF8	; 248
     d86:	80 3a       	cpi	r24, 0xA0	; 160
     d88:	91 f4       	brne	.+36     	; 0xdae <__vector_26+0x10e>
			{
				stop_twi();
     d8a:	bd dd       	rcall	.-1158   	; 0x906 <stop_twi>
				switch(currentInstruction)
     d8c:	80 91 40 14 	lds	r24, 0x1440
     d90:	90 91 41 14 	lds	r25, 0x1441
     d94:	81 30       	cpi	r24, 0x01	; 1
     d96:	91 05       	cpc	r25, r1
     d98:	19 f0       	breq	.+6      	; 0xda0 <__vector_26+0x100>
     d9a:	05 97       	sbiw	r24, 0x05	; 5
     d9c:	41 f4       	brne	.+16     	; 0xdae <__vector_26+0x10e>
     d9e:	04 c0       	rjmp	.+8      	; 0xda8 <__vector_26+0x108>
				{
					case(I_SETTINGS):
					{
						controlSettingsFlag_ = 1;
     da0:	81 e0       	ldi	r24, 0x01	; 1
     da2:	80 93 06 13 	sts	0x1306, r24
						break;
     da6:	03 c0       	rjmp	.+6      	; 0xdae <__vector_26+0x10e>
					}
					case(I_AUTONOM):
					{
						autonomSettingsFlag_ = 1;
     da8:	81 e0       	ldi	r24, 0x01	; 1
     daa:	80 93 05 13 	sts	0x1305, r24
						//Do smart stuff
						break;
					}
				}
			}
			reset_TWI();
     dae:	c0 dd       	rcall	.-1152   	; 0x930 <reset_TWI>
			break;
     db0:	d9 c0       	rjmp	.+434    	; 0xf64 <__vector_26+0x2c4>
		}
		// ----------------------------------------------------------------------------- Sensors
		case(S_ADDRESS):
		{
			if(CONTROL == SLAW || CONTROL == ARBIT_SLAW)
     db2:	80 91 b9 00 	lds	r24, 0x00B9
     db6:	88 7f       	andi	r24, 0xF8	; 248
     db8:	80 36       	cpi	r24, 0x60	; 96
     dba:	29 f0       	breq	.+10     	; 0xdc6 <__vector_26+0x126>
     dbc:	80 91 b9 00 	lds	r24, 0x00B9
     dc0:	88 7f       	andi	r24, 0xF8	; 248
     dc2:	88 36       	cpi	r24, 0x68	; 104
     dc4:	21 f4       	brne	.+8      	; 0xdce <__vector_26+0x12e>
			{
				instruction = 1;
     dc6:	81 e0       	ldi	r24, 0x01	; 1
     dc8:	80 93 37 14 	sts	0x1437, r24
     dcc:	30 c0       	rjmp	.+96     	; 0xe2e <__vector_26+0x18e>
			}
			else if(CONTROL == DATA_SLAW)
     dce:	80 91 b9 00 	lds	r24, 0x00B9
     dd2:	88 7f       	andi	r24, 0xF8	; 248
     dd4:	80 38       	cpi	r24, 0x80	; 128
     dd6:	e1 f4       	brne	.+56     	; 0xe10 <__vector_26+0x170>
			{
				if(instruction)
     dd8:	80 91 37 14 	lds	r24, 0x1437
     ddc:	88 23       	and	r24, r24
     dde:	41 f0       	breq	.+16     	; 0xdf0 <__vector_26+0x150>
				{
					currentInstruction = get_data();
     de0:	83 dd       	rcall	.-1274   	; 0x8e8 <get_data>
     de2:	80 93 40 14 	sts	0x1440, r24
     de6:	10 92 41 14 	sts	0x1441, r1
					instruction = 0;
     dea:	10 92 37 14 	sts	0x1437, r1
     dee:	1f c0       	rjmp	.+62     	; 0xe2e <__vector_26+0x18e>
				}
				else
				{
					switch(currentInstruction)
     df0:	80 91 40 14 	lds	r24, 0x1440
     df4:	90 91 41 14 	lds	r25, 0x1441
     df8:	82 30       	cpi	r24, 0x02	; 2
     dfa:	91 05       	cpc	r25, r1
     dfc:	19 f0       	breq	.+6      	; 0xe04 <__vector_26+0x164>
     dfe:	49 97       	sbiw	r24, 0x19	; 25
     e00:	b1 f4       	brne	.+44     	; 0xe2e <__vector_26+0x18e>
     e02:	04 c0       	rjmp	.+8      	; 0xe0c <__vector_26+0x16c>
	}
}

void get_sweep_from_bus()
{
	sweep = get_data();
     e04:	71 dd       	rcall	.-1310   	; 0x8e8 <get_data>
     e06:	80 93 3f 14 	sts	0x143F, r24
     e0a:	11 c0       	rjmp	.+34     	; 0xe2e <__vector_26+0x18e>
							get_sweep_from_bus();
							break;
						}
						case(I_STRING):
						{
							get_char_from_bus();
     e0c:	d7 dd       	rcall	.-1106   	; 0x9bc <get_char_from_bus>
							break;
     e0e:	0f c0       	rjmp	.+30     	; 0xe2e <__vector_26+0x18e>
						}
					}
				}
			}
			else if (CONTROL == STOP)
     e10:	80 91 b9 00 	lds	r24, 0x00B9
     e14:	88 7f       	andi	r24, 0xF8	; 248
     e16:	80 3a       	cpi	r24, 0xA0	; 160
     e18:	51 f4       	brne	.+20     	; 0xe2e <__vector_26+0x18e>
			{
				stop_twi();
     e1a:	75 dd       	rcall	.-1302   	; 0x906 <stop_twi>
				switch(currentInstruction)
     e1c:	80 91 40 14 	lds	r24, 0x1440
     e20:	90 91 41 14 	lds	r25, 0x1441
     e24:	02 97       	sbiw	r24, 0x02	; 2
     e26:	19 f4       	brne	.+6      	; 0xe2e <__vector_26+0x18e>
				{
					case(I_SWEEP):
					{
						sweepFlag_ = 1;
     e28:	81 e0       	ldi	r24, 0x01	; 1
     e2a:	80 93 03 13 	sts	0x1303, r24
						//Add message to buffer
						break;
					}
				}
			}
			reset_TWI();
     e2e:	80 dd       	rcall	.-1280   	; 0x930 <reset_TWI>
			break;
     e30:	99 c0       	rjmp	.+306    	; 0xf64 <__vector_26+0x2c4>
		}
		// ----------------------------------------------------------------------------- Steer
		case(ST_ADDRESS):
		{
			if(CONTROL == SLAW || CONTROL == ARBIT_SLAW)
     e32:	80 91 b9 00 	lds	r24, 0x00B9
     e36:	88 7f       	andi	r24, 0xF8	; 248
     e38:	80 36       	cpi	r24, 0x60	; 96
     e3a:	29 f0       	breq	.+10     	; 0xe46 <__vector_26+0x1a6>
     e3c:	80 91 b9 00 	lds	r24, 0x00B9
     e40:	88 7f       	andi	r24, 0xF8	; 248
     e42:	88 36       	cpi	r24, 0x68	; 104
     e44:	21 f4       	brne	.+8      	; 0xe4e <__vector_26+0x1ae>
			{
				instruction = 1;
     e46:	81 e0       	ldi	r24, 0x01	; 1
     e48:	80 93 37 14 	sts	0x1437, r24
     e4c:	8a c0       	rjmp	.+276    	; 0xf62 <__vector_26+0x2c2>
			}
			else if(CONTROL == DATA_SLAW)
     e4e:	80 91 b9 00 	lds	r24, 0x00B9
     e52:	88 7f       	andi	r24, 0xF8	; 248
     e54:	80 38       	cpi	r24, 0x80	; 128
     e56:	09 f0       	breq	.+2      	; 0xe5a <__vector_26+0x1ba>
     e58:	57 c0       	rjmp	.+174    	; 0xf08 <__vector_26+0x268>
			{
				if(instruction)
     e5a:	80 91 37 14 	lds	r24, 0x1437
     e5e:	88 23       	and	r24, r24
     e60:	41 f0       	breq	.+16     	; 0xe72 <__vector_26+0x1d2>
				{
					currentInstruction = get_data();
     e62:	42 dd       	rcall	.-1404   	; 0x8e8 <get_data>
     e64:	80 93 40 14 	sts	0x1440, r24
     e68:	10 92 41 14 	sts	0x1441, r1
					instruction = 0;
     e6c:	10 92 37 14 	sts	0x1437, r1
     e70:	78 c0       	rjmp	.+240    	; 0xf62 <__vector_26+0x2c2>
				}
				else
				{
					switch(currentInstruction)
     e72:	80 91 40 14 	lds	r24, 0x1440
     e76:	90 91 41 14 	lds	r25, 0x1441
     e7a:	81 30       	cpi	r24, 0x01	; 1
     e7c:	91 05       	cpc	r25, r1
     e7e:	09 f4       	brne	.+2      	; 0xe82 <__vector_26+0x1e2>
     e80:	3f c0       	rjmp	.+126    	; 0xf00 <__vector_26+0x260>
     e82:	1c f4       	brge	.+6      	; 0xe8a <__vector_26+0x1ea>
     e84:	89 2b       	or	r24, r25
     e86:	41 f0       	breq	.+16     	; 0xe98 <__vector_26+0x1f8>
     e88:	6c c0       	rjmp	.+216    	; 0xf62 <__vector_26+0x2c2>
     e8a:	84 30       	cpi	r24, 0x04	; 4
     e8c:	91 05       	cpc	r25, r1
     e8e:	b1 f0       	breq	.+44     	; 0xebc <__vector_26+0x21c>
     e90:	05 97       	sbiw	r24, 0x05	; 5
     e92:	09 f0       	breq	.+2      	; 0xe96 <__vector_26+0x1f6>
     e94:	66 c0       	rjmp	.+204    	; 0xf62 <__vector_26+0x2c2>
     e96:	36 c0       	rjmp	.+108    	; 0xf04 <__vector_26+0x264>
	messageLength = messageCounter;
}

void get_command_from_bus()
{
	command[currentCommand] = get_data();
     e98:	c0 91 38 14 	lds	r28, 0x1438
     e9c:	d0 91 39 14 	lds	r29, 0x1439
     ea0:	23 dd       	rcall	.-1466   	; 0x8e8 <get_data>
     ea2:	c6 5d       	subi	r28, 0xD6	; 214
     ea4:	dc 4e       	sbci	r29, 0xEC	; 236
     ea6:	88 83       	st	Y, r24
	currentCommand += 1;
     ea8:	80 91 38 14 	lds	r24, 0x1438
     eac:	90 91 39 14 	lds	r25, 0x1439
     eb0:	01 96       	adiw	r24, 0x01	; 1
     eb2:	90 93 39 14 	sts	0x1439, r25
     eb6:	80 93 38 14 	sts	0x1438, r24
     eba:	53 c0       	rjmp	.+166    	; 0xf62 <__vector_26+0x2c2>
	floatCounter += 1;
}

void get_elevation_from_bus()
{
	elevation += get_data();
     ebc:	15 dd       	rcall	.-1494   	; 0x8e8 <get_data>
     ebe:	20 91 3a 14 	lds	r18, 0x143A
     ec2:	30 91 3b 14 	lds	r19, 0x143B
     ec6:	a9 01       	movw	r20, r18
     ec8:	48 0f       	add	r20, r24
     eca:	51 1d       	adc	r21, r1
     ecc:	ca 01       	movw	r24, r20
	if(elevation < 1)
     ece:	18 16       	cp	r1, r24
     ed0:	19 06       	cpc	r1, r25
     ed2:	3c f0       	brlt	.+14     	; 0xee2 <__vector_26+0x242>
	elevation = 1;
     ed4:	81 e0       	ldi	r24, 0x01	; 1
     ed6:	90 e0       	ldi	r25, 0x00	; 0
     ed8:	90 93 3b 14 	sts	0x143B, r25
     edc:	80 93 3a 14 	sts	0x143A, r24
     ee0:	40 c0       	rjmp	.+128    	; 0xf62 <__vector_26+0x2c2>
	else if(elevation > 7) // 7 niver?!
     ee2:	48 30       	cpi	r20, 0x08	; 8
     ee4:	51 05       	cpc	r21, r1
     ee6:	2c f4       	brge	.+10     	; 0xef2 <__vector_26+0x252>
	floatCounter += 1;
}

void get_elevation_from_bus()
{
	elevation += get_data();
     ee8:	50 93 3b 14 	sts	0x143B, r21
     eec:	40 93 3a 14 	sts	0x143A, r20
     ef0:	38 c0       	rjmp	.+112    	; 0xf62 <__vector_26+0x2c2>
	if(elevation < 1)
	elevation = 1;
	else if(elevation > 7) // 7 niver?!
	elevation = 7;
     ef2:	87 e0       	ldi	r24, 0x07	; 7
     ef4:	90 e0       	ldi	r25, 0x00	; 0
     ef6:	90 93 3b 14 	sts	0x143B, r25
     efa:	80 93 3a 14 	sts	0x143A, r24
     efe:	31 c0       	rjmp	.+98     	; 0xf62 <__vector_26+0x2c2>
							get_elevation_from_bus();
							break;
						}
						case(I_SETTINGS):
						{
							get_control_settings_from_bus();
     f00:	48 dd       	rcall	.-1392   	; 0x992 <get_control_settings_from_bus>
							break;
     f02:	2f c0       	rjmp	.+94     	; 0xf62 <__vector_26+0x2c2>
						}
						case(I_AUTONOM):
						{
							get_autonom_settings_from_bus();
     f04:	57 dd       	rcall	.-1362   	; 0x9b4 <get_autonom_settings_from_bus>
							break;
     f06:	2d c0       	rjmp	.+90     	; 0xf62 <__vector_26+0x2c2>
						}
					}
				}
			}
			else if (CONTROL == DATA_GENERAL)
     f08:	80 91 b9 00 	lds	r24, 0x00B9
     f0c:	88 7f       	andi	r24, 0xF8	; 248
     f0e:	80 39       	cpi	r24, 0x90	; 144
     f10:	11 f4       	brne	.+4      	; 0xf16 <__vector_26+0x276>
			{
				get_sensor_from_bus();
     f12:	14 dd       	rcall	.-1496   	; 0x93c <get_sensor_from_bus>
     f14:	26 c0       	rjmp	.+76     	; 0xf62 <__vector_26+0x2c2>
			}
			else if (CONTROL == STOP)
     f16:	80 91 b9 00 	lds	r24, 0x00B9
     f1a:	88 7f       	andi	r24, 0xF8	; 248
     f1c:	80 3a       	cpi	r24, 0xA0	; 160
     f1e:	09 f5       	brne	.+66     	; 0xf62 <__vector_26+0x2c2>
			{
				stop_twi();
     f20:	f2 dc       	rcall	.-1564   	; 0x906 <stop_twi>
				switch(currentInstruction)
     f22:	80 91 40 14 	lds	r24, 0x1440
     f26:	90 91 41 14 	lds	r25, 0x1441
     f2a:	81 30       	cpi	r24, 0x01	; 1
     f2c:	91 05       	cpc	r25, r1
     f2e:	91 f0       	breq	.+36     	; 0xf54 <__vector_26+0x2b4>
     f30:	1c f4       	brge	.+6      	; 0xf38 <__vector_26+0x298>
     f32:	89 2b       	or	r24, r25
     f34:	39 f0       	breq	.+14     	; 0xf44 <__vector_26+0x2a4>
     f36:	15 c0       	rjmp	.+42     	; 0xf62 <__vector_26+0x2c2>
     f38:	84 30       	cpi	r24, 0x04	; 4
     f3a:	91 05       	cpc	r25, r1
     f3c:	39 f0       	breq	.+14     	; 0xf4c <__vector_26+0x2ac>
     f3e:	05 97       	sbiw	r24, 0x05	; 5
     f40:	81 f4       	brne	.+32     	; 0xf62 <__vector_26+0x2c2>
     f42:	0c c0       	rjmp	.+24     	; 0xf5c <__vector_26+0x2bc>
				{
					case(I_COMMAND):
					{
						commandFlag_ = 1;
     f44:	81 e0       	ldi	r24, 0x01	; 1
     f46:	80 93 07 13 	sts	0x1307, r24
						break;
     f4a:	0b c0       	rjmp	.+22     	; 0xf62 <__vector_26+0x2c2>
					}
					case(I_ELEVATION):
					{
						elevationFlag_ = 1;
     f4c:	81 e0       	ldi	r24, 0x01	; 1
     f4e:	80 93 04 13 	sts	0x1304, r24
						break;
     f52:	07 c0       	rjmp	.+14     	; 0xf62 <__vector_26+0x2c2>
					}
					case(I_SETTINGS):
					{
						controlSettingsFlag_ = 1;
     f54:	81 e0       	ldi	r24, 0x01	; 1
     f56:	80 93 06 13 	sts	0x1306, r24
						break;
     f5a:	03 c0       	rjmp	.+6      	; 0xf62 <__vector_26+0x2c2>
					}
					case(I_AUTONOM):
					{
						autonomSettingsFlag_ = 1;
     f5c:	81 e0       	ldi	r24, 0x01	; 1
     f5e:	80 93 05 13 	sts	0x1305, r24
						break;
					}
				}
			}
			reset_TWI();
     f62:	e6 dc       	rcall	.-1588   	; 0x930 <reset_TWI>
			break;
		}
	}
     f64:	ff 91       	pop	r31
     f66:	ef 91       	pop	r30
     f68:	df 91       	pop	r29
     f6a:	cf 91       	pop	r28
     f6c:	bf 91       	pop	r27
     f6e:	af 91       	pop	r26
     f70:	9f 91       	pop	r25
     f72:	8f 91       	pop	r24
     f74:	7f 91       	pop	r23
     f76:	6f 91       	pop	r22
     f78:	5f 91       	pop	r21
     f7a:	4f 91       	pop	r20
     f7c:	3f 91       	pop	r19
     f7e:	2f 91       	pop	r18
     f80:	0f 90       	pop	r0
     f82:	0b be       	out	0x3b, r0	; 59
     f84:	0f 90       	pop	r0
     f86:	0f be       	out	0x3f, r0	; 63
     f88:	0f 90       	pop	r0
     f8a:	1f 90       	pop	r1
     f8c:	18 95       	reti

00000f8e <USART_init>:
{
	for(int i = 0; i < gRxBuffer[1]; i++)
	{
		gTxPayload[i] = gRxBuffer[i+2];
	}
	USART_SendPacket(gRxBuffer[0], gRxBuffer[1]);
     f8e:	10 92 c5 00 	sts	0x00C5, r1
     f92:	87 e0       	ldi	r24, 0x07	; 7
     f94:	80 93 c4 00 	sts	0x00C4, r24
     f98:	88 e9       	ldi	r24, 0x98	; 152
     f9a:	80 93 c1 00 	sts	0x00C1, r24
     f9e:	86 e0       	ldi	r24, 0x06	; 6
     fa0:	80 93 c2 00 	sts	0x00C2, r24
     fa4:	08 95       	ret

00000fa6 <USART_CheckTxReady>:
     fa6:	80 91 c0 00 	lds	r24, 0x00C0
     faa:	80 72       	andi	r24, 0x20	; 32
     fac:	08 95       	ret

00000fae <USART_WriteByte>:
     fae:	cf 93       	push	r28
     fb0:	c8 2f       	mov	r28, r24
     fb2:	f9 df       	rcall	.-14     	; 0xfa6 <USART_CheckTxReady>
     fb4:	88 23       	and	r24, r24
     fb6:	e9 f3       	breq	.-6      	; 0xfb2 <USART_WriteByte+0x4>
     fb8:	c0 93 c6 00 	sts	0x00C6, r28
     fbc:	cf 91       	pop	r28
     fbe:	08 95       	ret

00000fc0 <USART_crc16>:
     fc0:	cf 92       	push	r12
     fc2:	df 92       	push	r13
     fc4:	ef 92       	push	r14
     fc6:	ff 92       	push	r15
     fc8:	0f 93       	push	r16
     fca:	1f 93       	push	r17
     fcc:	cf 93       	push	r28
     fce:	df 93       	push	r29
     fd0:	66 23       	and	r22, r22
     fd2:	09 f4       	brne	.+2      	; 0xfd6 <USART_crc16+0x16>
     fd4:	3e c0       	rjmp	.+124    	; 0x1052 <USART_crc16+0x92>
     fd6:	06 2f       	mov	r16, r22
     fd8:	10 e0       	ldi	r17, 0x00	; 0
     fda:	4f ef       	ldi	r20, 0xFF	; 255
     fdc:	5f ef       	ldi	r21, 0xFF	; 255
     fde:	ee ef       	ldi	r30, 0xFE	; 254
     fe0:	ff ef       	ldi	r31, 0xFF	; 255
     fe2:	c6 2e       	mov	r12, r22
     fe4:	d1 2c       	mov	r13, r1
     fe6:	e8 2e       	mov	r14, r24
     fe8:	f1 2c       	mov	r15, r1
     fea:	c8 e0       	ldi	r28, 0x08	; 8
     fec:	d0 e0       	ldi	r29, 0x00	; 0
     fee:	ee 3f       	cpi	r30, 0xFE	; 254
     ff0:	6f ef       	ldi	r22, 0xFF	; 255
     ff2:	f6 07       	cpc	r31, r22
     ff4:	19 f4       	brne	.+6      	; 0xffc <USART_crc16+0x3c>
     ff6:	8e 2d       	mov	r24, r14
     ff8:	9f 2d       	mov	r25, r15
     ffa:	30 c0       	rjmp	.+96     	; 0x105c <USART_crc16+0x9c>
     ffc:	ef 3f       	cpi	r30, 0xFF	; 255
     ffe:	8f ef       	ldi	r24, 0xFF	; 255
    1000:	f8 07       	cpc	r31, r24
    1002:	19 f4       	brne	.+6      	; 0x100a <USART_crc16+0x4a>
    1004:	8c 2d       	mov	r24, r12
    1006:	9d 2d       	mov	r25, r13
    1008:	29 c0       	rjmp	.+82     	; 0x105c <USART_crc16+0x9c>
    100a:	df 01       	movw	r26, r30
    100c:	af 5a       	subi	r26, 0xAF	; 175
    100e:	b9 4e       	sbci	r27, 0xE9	; 233
    1010:	8c 91       	ld	r24, X
    1012:	90 e0       	ldi	r25, 0x00	; 0
    1014:	23 c0       	rjmp	.+70     	; 0x105c <USART_crc16+0x9c>
    1016:	ba 01       	movw	r22, r20
    1018:	68 27       	eor	r22, r24
    101a:	79 27       	eor	r23, r25
    101c:	60 ff       	sbrs	r22, 0
    101e:	07 c0       	rjmp	.+14     	; 0x102e <USART_crc16+0x6e>
    1020:	56 95       	lsr	r21
    1022:	47 95       	ror	r20
    1024:	68 e0       	ldi	r22, 0x08	; 8
    1026:	46 27       	eor	r20, r22
    1028:	64 e8       	ldi	r22, 0x84	; 132
    102a:	56 27       	eor	r21, r22
    102c:	02 c0       	rjmp	.+4      	; 0x1032 <USART_crc16+0x72>
    102e:	56 95       	lsr	r21
    1030:	47 95       	ror	r20
    1032:	96 95       	lsr	r25
    1034:	87 95       	ror	r24
    1036:	21 50       	subi	r18, 0x01	; 1
    1038:	31 09       	sbc	r19, r1
    103a:	69 f7       	brne	.-38     	; 0x1016 <USART_crc16+0x56>
    103c:	31 96       	adiw	r30, 0x01	; 1
    103e:	e0 17       	cp	r30, r16
    1040:	f1 07       	cpc	r31, r17
    1042:	a9 f6       	brne	.-86     	; 0xfee <USART_crc16+0x2e>
    1044:	9a 01       	movw	r18, r20
    1046:	20 95       	com	r18
    1048:	30 95       	com	r19
    104a:	32 27       	eor	r19, r18
    104c:	23 27       	eor	r18, r19
    104e:	32 27       	eor	r19, r18
    1050:	02 c0       	rjmp	.+4      	; 0x1056 <USART_crc16+0x96>
    1052:	20 e0       	ldi	r18, 0x00	; 0
    1054:	30 e0       	ldi	r19, 0x00	; 0
    1056:	82 2f       	mov	r24, r18
    1058:	93 2f       	mov	r25, r19
    105a:	02 c0       	rjmp	.+4      	; 0x1060 <USART_crc16+0xa0>
    105c:	9e 01       	movw	r18, r28
    105e:	db cf       	rjmp	.-74     	; 0x1016 <USART_crc16+0x56>
    1060:	df 91       	pop	r29
    1062:	cf 91       	pop	r28
    1064:	1f 91       	pop	r17
    1066:	0f 91       	pop	r16
    1068:	ff 90       	pop	r15
    106a:	ef 90       	pop	r14
    106c:	df 90       	pop	r13
    106e:	cf 90       	pop	r12
    1070:	08 95       	ret

00001072 <USART_SendPacket>:
    1072:	0f 93       	push	r16
    1074:	1f 93       	push	r17
    1076:	cf 93       	push	r28
    1078:	df 93       	push	r29
    107a:	9e e7       	ldi	r25, 0x7E	; 126
    107c:	90 93 50 17 	sts	0x1750, r25
    1080:	80 93 51 17 	sts	0x1751, r24
    1084:	60 93 52 17 	sts	0x1752, r22
    1088:	26 2f       	mov	r18, r22
    108a:	30 e0       	ldi	r19, 0x00	; 0
    108c:	12 16       	cp	r1, r18
    108e:	13 06       	cpc	r1, r19
    1090:	4c f5       	brge	.+82     	; 0x10e4 <USART_SendPacket+0x72>
    1092:	e1 e5       	ldi	r30, 0x51	; 81
    1094:	f6 e1       	ldi	r31, 0x16	; 22
    1096:	03 e0       	ldi	r16, 0x03	; 3
    1098:	10 e0       	ldi	r17, 0x00	; 0
    109a:	c0 e0       	ldi	r28, 0x00	; 0
    109c:	d0 e0       	ldi	r29, 0x00	; 0
    109e:	7d e7       	ldi	r23, 0x7D	; 125
    10a0:	50 e2       	ldi	r21, 0x20	; 32
    10a2:	90 81       	ld	r25, Z
    10a4:	49 2f       	mov	r20, r25
    10a6:	4d 57       	subi	r20, 0x7D	; 125
    10a8:	42 30       	cpi	r20, 0x02	; 2
    10aa:	80 f4       	brcc	.+32     	; 0x10cc <USART_SendPacket+0x5a>
    10ac:	d8 01       	movw	r26, r16
    10ae:	a0 5b       	subi	r26, 0xB0	; 176
    10b0:	b8 4e       	sbci	r27, 0xE8	; 232
    10b2:	ac 0f       	add	r26, r28
    10b4:	bd 1f       	adc	r27, r29
    10b6:	7c 93       	st	X, r23
    10b8:	0f 5f       	subi	r16, 0xFF	; 255
    10ba:	1f 4f       	sbci	r17, 0xFF	; 255
    10bc:	d8 01       	movw	r26, r16
    10be:	a0 5b       	subi	r26, 0xB0	; 176
    10c0:	b8 4e       	sbci	r27, 0xE8	; 232
    10c2:	ac 0f       	add	r26, r28
    10c4:	bd 1f       	adc	r27, r29
    10c6:	95 27       	eor	r25, r21
    10c8:	9c 93       	st	X, r25
    10ca:	06 c0       	rjmp	.+12     	; 0x10d8 <USART_SendPacket+0x66>
    10cc:	d8 01       	movw	r26, r16
    10ce:	a0 5b       	subi	r26, 0xB0	; 176
    10d0:	b8 4e       	sbci	r27, 0xE8	; 232
    10d2:	ac 0f       	add	r26, r28
    10d4:	bd 1f       	adc	r27, r29
    10d6:	9c 93       	st	X, r25
    10d8:	21 96       	adiw	r28, 0x01	; 1
    10da:	31 96       	adiw	r30, 0x01	; 1
    10dc:	c2 17       	cp	r28, r18
    10de:	d3 07       	cpc	r29, r19
    10e0:	01 f7       	brne	.-64     	; 0x10a2 <USART_SendPacket+0x30>
    10e2:	04 c0       	rjmp	.+8      	; 0x10ec <USART_SendPacket+0x7a>
    10e4:	03 e0       	ldi	r16, 0x03	; 3
    10e6:	10 e0       	ldi	r17, 0x00	; 0
    10e8:	c0 e0       	ldi	r28, 0x00	; 0
    10ea:	d0 e0       	ldi	r29, 0x00	; 0
    10ec:	69 df       	rcall	.-302    	; 0xfc0 <USART_crc16>
    10ee:	f8 01       	movw	r30, r16
    10f0:	e0 5b       	subi	r30, 0xB0	; 176
    10f2:	f8 4e       	sbci	r31, 0xE8	; 232
    10f4:	ec 0f       	add	r30, r28
    10f6:	fd 1f       	adc	r31, r29
    10f8:	90 83       	st	Z, r25
    10fa:	81 83       	std	Z+1, r24	; 0x01
    10fc:	22 96       	adiw	r28, 0x02	; 2
    10fe:	0c 0f       	add	r16, r28
    1100:	1d 1f       	adc	r17, r29
    1102:	f8 01       	movw	r30, r16
    1104:	e0 5b       	subi	r30, 0xB0	; 176
    1106:	f8 4e       	sbci	r31, 0xE8	; 232
    1108:	8e e7       	ldi	r24, 0x7E	; 126
    110a:	80 83       	st	Z, r24
    110c:	c8 01       	movw	r24, r16
    110e:	01 96       	adiw	r24, 0x01	; 1
    1110:	18 16       	cp	r1, r24
    1112:	19 06       	cpc	r1, r25
    1114:	4c f4       	brge	.+18     	; 0x1128 <USART_SendPacket+0xb6>
    1116:	c0 e5       	ldi	r28, 0x50	; 80
    1118:	d7 e1       	ldi	r29, 0x17	; 23
    111a:	0f 5a       	subi	r16, 0xAF	; 175
    111c:	18 4e       	sbci	r17, 0xE8	; 232
    111e:	89 91       	ld	r24, Y+
    1120:	46 df       	rcall	.-372    	; 0xfae <USART_WriteByte>
    1122:	c0 17       	cp	r28, r16
    1124:	d1 07       	cpc	r29, r17
    1126:	d9 f7       	brne	.-10     	; 0x111e <USART_SendPacket+0xac>
    1128:	df 91       	pop	r29
    112a:	cf 91       	pop	r28
    112c:	1f 91       	pop	r17
    112e:	0f 91       	pop	r16
    1130:	08 95       	ret

00001132 <USART_SendCommand>:
    1132:	80 e0       	ldi	r24, 0x00	; 0
    1134:	90 e0       	ldi	r25, 0x00	; 0
    1136:	93 dd       	rcall	.-1242   	; 0xc5e <TWI_get_command>
    1138:	80 93 51 16 	sts	0x1651, r24
    113c:	81 e0       	ldi	r24, 0x01	; 1
    113e:	90 e0       	ldi	r25, 0x00	; 0
    1140:	8e dd       	rcall	.-1252   	; 0xc5e <TWI_get_command>
    1142:	80 93 52 16 	sts	0x1652, r24
    1146:	82 e0       	ldi	r24, 0x02	; 2
    1148:	90 e0       	ldi	r25, 0x00	; 0
    114a:	89 dd       	rcall	.-1262   	; 0xc5e <TWI_get_command>
    114c:	80 93 53 16 	sts	0x1653, r24
    1150:	63 e0       	ldi	r22, 0x03	; 3
    1152:	83 e4       	ldi	r24, 0x43	; 67
    1154:	8e cf       	rjmp	.-228    	; 0x1072 <USART_SendPacket>

00001156 <USART_DecodeMessageRxFIFO>:
    1156:	8f 92       	push	r8
    1158:	9f 92       	push	r9
    115a:	af 92       	push	r10
    115c:	bf 92       	push	r11
    115e:	cf 92       	push	r12
    1160:	df 92       	push	r13
    1162:	ef 92       	push	r14
    1164:	ff 92       	push	r15
    1166:	0f 93       	push	r16
    1168:	1f 93       	push	r17
    116a:	cf 93       	push	r28
    116c:	df 93       	push	r29
    116e:	cd b7       	in	r28, 0x3d	; 61
    1170:	de b7       	in	r29, 0x3e	; 62
    1172:	ad b6       	in	r10, 0x3d	; 61
    1174:	be b6       	in	r11, 0x3e	; 62
    1176:	60 e0       	ldi	r22, 0x00	; 0
    1178:	70 e0       	ldi	r23, 0x00	; 0
    117a:	80 91 06 01 	lds	r24, 0x0106
    117e:	90 91 07 01 	lds	r25, 0x0107
    1182:	a6 d9       	rcall	.-3252   	; 0x4d0 <FifoRead>
    1184:	88 23       	and	r24, r24
    1186:	31 f0       	breq	.+12     	; 0x1194 <USART_DecodeMessageRxFIFO+0x3e>
    1188:	65 ef       	ldi	r22, 0xF5	; 245
    118a:	71 e1       	ldi	r23, 0x11	; 17
    118c:	80 e4       	ldi	r24, 0x40	; 64
    118e:	9b dc       	rcall	.-1738   	; 0xac6 <TWI_send_string>
    1190:	81 e0       	ldi	r24, 0x01	; 1
    1192:	43 c0       	rjmp	.+134    	; 0x121a <USART_DecodeMessageRxFIFO+0xc4>
    1194:	c0 90 00 00 	lds	r12, 0x0000
    1198:	d1 2c       	mov	r13, r1
    119a:	96 01       	movw	r18, r12
    119c:	21 50       	subi	r18, 0x01	; 1
    119e:	31 09       	sbc	r19, r1
    11a0:	81 e0       	ldi	r24, 0x01	; 1
    11a2:	90 e0       	ldi	r25, 0x00	; 0
    11a4:	c1 14       	cp	r12, r1
    11a6:	d1 04       	cpc	r13, r1
    11a8:	11 f0       	breq	.+4      	; 0x11ae <USART_DecodeMessageRxFIFO+0x58>
    11aa:	80 e0       	ldi	r24, 0x00	; 0
    11ac:	90 e0       	ldi	r25, 0x00	; 0
    11ae:	82 0f       	add	r24, r18
    11b0:	93 1f       	adc	r25, r19
    11b2:	2d b7       	in	r18, 0x3d	; 61
    11b4:	3e b7       	in	r19, 0x3e	; 62
    11b6:	28 1b       	sub	r18, r24
    11b8:	39 0b       	sbc	r19, r25
    11ba:	0f b6       	in	r0, 0x3f	; 63
    11bc:	f8 94       	cli
    11be:	3e bf       	out	0x3e, r19	; 62
    11c0:	0f be       	out	0x3f, r0	; 63
    11c2:	2d bf       	out	0x3d, r18	; 61
    11c4:	8d b7       	in	r24, 0x3d	; 61
    11c6:	9e b7       	in	r25, 0x3e	; 62
    11c8:	01 96       	adiw	r24, 0x01	; 1
    11ca:	88 2e       	mov	r8, r24
    11cc:	99 2e       	mov	r9, r25
    11ce:	1c 14       	cp	r1, r12
    11d0:	1d 04       	cpc	r1, r13
    11d2:	ec f4       	brge	.+58     	; 0x120e <USART_DecodeMessageRxFIFO+0xb8>
    11d4:	e8 2e       	mov	r14, r24
    11d6:	f9 2e       	mov	r15, r25
    11d8:	00 e0       	ldi	r16, 0x00	; 0
    11da:	10 e0       	ldi	r17, 0x00	; 0
    11dc:	60 e0       	ldi	r22, 0x00	; 0
    11de:	70 e0       	ldi	r23, 0x00	; 0
    11e0:	80 91 06 01 	lds	r24, 0x0106
    11e4:	90 91 07 01 	lds	r25, 0x0107
    11e8:	73 d9       	rcall	.-3354   	; 0x4d0 <FifoRead>
    11ea:	88 23       	and	r24, r24
    11ec:	31 f0       	breq	.+12     	; 0x11fa <USART_DecodeMessageRxFIFO+0xa4>
    11ee:	67 e1       	ldi	r22, 0x17	; 23
    11f0:	72 e1       	ldi	r23, 0x12	; 18
    11f2:	80 e4       	ldi	r24, 0x40	; 64
    11f4:	68 dc       	rcall	.-1840   	; 0xac6 <TWI_send_string>
    11f6:	81 e0       	ldi	r24, 0x01	; 1
    11f8:	10 c0       	rjmp	.+32     	; 0x121a <USART_DecodeMessageRxFIFO+0xc4>
    11fa:	80 91 00 00 	lds	r24, 0x0000
    11fe:	f7 01       	movw	r30, r14
    1200:	81 93       	st	Z+, r24
    1202:	7f 01       	movw	r14, r30
    1204:	0f 5f       	subi	r16, 0xFF	; 255
    1206:	1f 4f       	sbci	r17, 0xFF	; 255
    1208:	0c 15       	cp	r16, r12
    120a:	1d 05       	cpc	r17, r13
    120c:	3c f3       	brlt	.-50     	; 0x11dc <USART_DecodeMessageRxFIFO+0x86>
    120e:	a6 01       	movw	r20, r12
    1210:	68 2d       	mov	r22, r8
    1212:	79 2d       	mov	r23, r9
    1214:	80 e8       	ldi	r24, 0x80	; 128
    1216:	9d dc       	rcall	.-1734   	; 0xb52 <TWI_send_string_fixed_length>
    1218:	80 e0       	ldi	r24, 0x00	; 0
    121a:	0f b6       	in	r0, 0x3f	; 63
    121c:	f8 94       	cli
    121e:	be be       	out	0x3e, r11	; 62
    1220:	0f be       	out	0x3f, r0	; 63
    1222:	ad be       	out	0x3d, r10	; 61
    1224:	df 91       	pop	r29
    1226:	cf 91       	pop	r28
    1228:	1f 91       	pop	r17
    122a:	0f 91       	pop	r16
    122c:	ff 90       	pop	r15
    122e:	ef 90       	pop	r14
    1230:	df 90       	pop	r13
    1232:	cf 90       	pop	r12
    1234:	bf 90       	pop	r11
    1236:	af 90       	pop	r10
    1238:	9f 90       	pop	r9
    123a:	8f 90       	pop	r8
    123c:	08 95       	ret

0000123e <USART_DecodeCommandRxFIFO>:
    123e:	cf 93       	push	r28
    1240:	df 93       	push	r29
    1242:	60 e0       	ldi	r22, 0x00	; 0
    1244:	70 e0       	ldi	r23, 0x00	; 0
    1246:	80 91 06 01 	lds	r24, 0x0106
    124a:	90 91 07 01 	lds	r25, 0x0107
    124e:	40 d9       	rcall	.-3456   	; 0x4d0 <FifoRead>
    1250:	88 23       	and	r24, r24
    1252:	31 f0       	breq	.+12     	; 0x1260 <USART_DecodeCommandRxFIFO+0x22>
    1254:	6a e3       	ldi	r22, 0x3A	; 58
    1256:	72 e1       	ldi	r23, 0x12	; 18
    1258:	80 e4       	ldi	r24, 0x40	; 64
    125a:	35 dc       	rcall	.-1942   	; 0xac6 <TWI_send_string>
    125c:	81 e0       	ldi	r24, 0x01	; 1
    125e:	42 c0       	rjmp	.+132    	; 0x12e4 <USART_DecodeCommandRxFIFO+0xa6>
    1260:	80 91 00 00 	lds	r24, 0x0000
    1264:	83 30       	cpi	r24, 0x03	; 3
    1266:	09 f0       	breq	.+2      	; 0x126a <USART_DecodeCommandRxFIFO+0x2c>
    1268:	38 c0       	rjmp	.+112    	; 0x12da <USART_DecodeCommandRxFIFO+0x9c>
    126a:	60 e0       	ldi	r22, 0x00	; 0
    126c:	70 e0       	ldi	r23, 0x00	; 0
    126e:	80 91 06 01 	lds	r24, 0x0106
    1272:	90 91 07 01 	lds	r25, 0x0107
    1276:	2c d9       	rcall	.-3496   	; 0x4d0 <FifoRead>
    1278:	88 23       	and	r24, r24
    127a:	31 f0       	breq	.+12     	; 0x1288 <USART_DecodeCommandRxFIFO+0x4a>
    127c:	6c e5       	ldi	r22, 0x5C	; 92
    127e:	72 e1       	ldi	r23, 0x12	; 18
    1280:	80 e4       	ldi	r24, 0x40	; 64
    1282:	21 dc       	rcall	.-1982   	; 0xac6 <TWI_send_string>
    1284:	81 e0       	ldi	r24, 0x01	; 1
    1286:	2e c0       	rjmp	.+92     	; 0x12e4 <USART_DecodeCommandRxFIFO+0xa6>
    1288:	c0 91 00 00 	lds	r28, 0x0000
    128c:	60 e0       	ldi	r22, 0x00	; 0
    128e:	70 e0       	ldi	r23, 0x00	; 0
    1290:	80 91 06 01 	lds	r24, 0x0106
    1294:	90 91 07 01 	lds	r25, 0x0107
    1298:	1b d9       	rcall	.-3530   	; 0x4d0 <FifoRead>
    129a:	88 23       	and	r24, r24
    129c:	31 f0       	breq	.+12     	; 0x12aa <USART_DecodeCommandRxFIFO+0x6c>
    129e:	64 e8       	ldi	r22, 0x84	; 132
    12a0:	72 e1       	ldi	r23, 0x12	; 18
    12a2:	80 e4       	ldi	r24, 0x40	; 64
    12a4:	10 dc       	rcall	.-2016   	; 0xac6 <TWI_send_string>
    12a6:	81 e0       	ldi	r24, 0x01	; 1
    12a8:	1d c0       	rjmp	.+58     	; 0x12e4 <USART_DecodeCommandRxFIFO+0xa6>
    12aa:	d0 91 00 00 	lds	r29, 0x0000
    12ae:	60 e0       	ldi	r22, 0x00	; 0
    12b0:	70 e0       	ldi	r23, 0x00	; 0
    12b2:	80 91 06 01 	lds	r24, 0x0106
    12b6:	90 91 07 01 	lds	r25, 0x0107
    12ba:	0a d9       	rcall	.-3564   	; 0x4d0 <FifoRead>
    12bc:	88 23       	and	r24, r24
    12be:	31 f0       	breq	.+12     	; 0x12cc <USART_DecodeCommandRxFIFO+0x8e>
    12c0:	6b ea       	ldi	r22, 0xAB	; 171
    12c2:	72 e1       	ldi	r23, 0x12	; 18
    12c4:	80 e4       	ldi	r24, 0x40	; 64
    12c6:	ff db       	rcall	.-2050   	; 0xac6 <TWI_send_string>
    12c8:	81 e0       	ldi	r24, 0x01	; 1
    12ca:	0c c0       	rjmp	.+24     	; 0x12e4 <USART_DecodeCommandRxFIFO+0xa6>
    12cc:	40 91 00 00 	lds	r20, 0x0000
    12d0:	6d 2f       	mov	r22, r29
    12d2:	8c 2f       	mov	r24, r28
    12d4:	b0 db       	rcall	.-2208   	; 0xa36 <TWI_send_command>
    12d6:	80 e0       	ldi	r24, 0x00	; 0
    12d8:	05 c0       	rjmp	.+10     	; 0x12e4 <USART_DecodeCommandRxFIFO+0xa6>
    12da:	6f ec       	ldi	r22, 0xCF	; 207
    12dc:	72 e1       	ldi	r23, 0x12	; 18
    12de:	80 e4       	ldi	r24, 0x40	; 64
    12e0:	f2 db       	rcall	.-2076   	; 0xac6 <TWI_send_string>
    12e2:	81 e0       	ldi	r24, 0x01	; 1
    12e4:	df 91       	pop	r29
    12e6:	cf 91       	pop	r28
    12e8:	08 95       	ret

000012ea <USART_DecodeValueFIFO>:
    12ea:	ef 92       	push	r14
    12ec:	ff 92       	push	r15
    12ee:	0f 93       	push	r16
    12f0:	1f 93       	push	r17
    12f2:	cf 93       	push	r28
    12f4:	df 93       	push	r29
    12f6:	00 d0       	rcall	.+0      	; 0x12f8 <USART_DecodeValueFIFO+0xe>
    12f8:	00 d0       	rcall	.+0      	; 0x12fa <USART_DecodeValueFIFO+0x10>
    12fa:	cd b7       	in	r28, 0x3d	; 61
    12fc:	de b7       	in	r29, 0x3e	; 62
    12fe:	60 e0       	ldi	r22, 0x00	; 0
    1300:	70 e0       	ldi	r23, 0x00	; 0
    1302:	80 91 06 01 	lds	r24, 0x0106
    1306:	90 91 07 01 	lds	r25, 0x0107
    130a:	e2 d8       	rcall	.-3644   	; 0x4d0 <FifoRead>
    130c:	88 23       	and	r24, r24
    130e:	31 f0       	breq	.+12     	; 0x131c <USART_DecodeValueFIFO+0x32>
    1310:	6a e3       	ldi	r22, 0x3A	; 58
    1312:	72 e1       	ldi	r23, 0x12	; 18
    1314:	80 e4       	ldi	r24, 0x40	; 64
    1316:	d7 db       	rcall	.-2130   	; 0xac6 <TWI_send_string>
    1318:	81 e0       	ldi	r24, 0x01	; 1
    131a:	35 c0       	rjmp	.+106    	; 0x1386 <USART_DecodeValueFIFO+0x9c>
    131c:	80 91 00 00 	lds	r24, 0x0000
    1320:	84 30       	cpi	r24, 0x04	; 4
    1322:	71 f5       	brne	.+92     	; 0x1380 <USART_DecodeValueFIFO+0x96>
    1324:	8e 01       	movw	r16, r28
    1326:	0f 5f       	subi	r16, 0xFF	; 255
    1328:	1f 4f       	sbci	r17, 0xFF	; 255
    132a:	7e 01       	movw	r14, r28
    132c:	85 e0       	ldi	r24, 0x05	; 5
    132e:	e8 0e       	add	r14, r24
    1330:	f1 1c       	adc	r15, r1
    1332:	60 e0       	ldi	r22, 0x00	; 0
    1334:	70 e0       	ldi	r23, 0x00	; 0
    1336:	80 91 06 01 	lds	r24, 0x0106
    133a:	90 91 07 01 	lds	r25, 0x0107
    133e:	c8 d8       	rcall	.-3696   	; 0x4d0 <FifoRead>
    1340:	81 11       	cpse	r24, r1
    1342:	20 c0       	rjmp	.+64     	; 0x1384 <USART_DecodeValueFIFO+0x9a>
    1344:	e0 e0       	ldi	r30, 0x00	; 0
    1346:	f0 e0       	ldi	r31, 0x00	; 0
    1348:	80 81       	ld	r24, Z
    134a:	d8 01       	movw	r26, r16
    134c:	8d 93       	st	X+, r24
    134e:	8d 01       	movw	r16, r26
    1350:	60 81       	ld	r22, Z
    1352:	70 e0       	ldi	r23, 0x00	; 0
    1354:	80 e0       	ldi	r24, 0x00	; 0
    1356:	90 e0       	ldi	r25, 0x00	; 0
    1358:	fc d1       	rcall	.+1016   	; 0x1752 <__floatunsisf>
    135a:	ab 01       	movw	r20, r22
    135c:	bc 01       	movw	r22, r24
    135e:	80 e8       	ldi	r24, 0x80	; 128
    1360:	36 dc       	rcall	.-1940   	; 0xbce <TWI_send_float>
    1362:	0e 15       	cp	r16, r14
    1364:	1f 05       	cpc	r17, r15
    1366:	29 f7       	brne	.-54     	; 0x1332 <USART_DecodeValueFIFO+0x48>
    1368:	49 81       	ldd	r20, Y+1	; 0x01
    136a:	5a 81       	ldd	r21, Y+2	; 0x02
    136c:	6b 81       	ldd	r22, Y+3	; 0x03
    136e:	7c 81       	ldd	r23, Y+4	; 0x04
    1370:	80 e8       	ldi	r24, 0x80	; 128
    1372:	2d dc       	rcall	.-1958   	; 0xbce <TWI_send_float>
    1374:	92 b1       	in	r25, 0x02	; 2
    1376:	81 e0       	ldi	r24, 0x01	; 1
    1378:	89 27       	eor	r24, r25
    137a:	82 b9       	out	0x02, r24	; 2
    137c:	80 e0       	ldi	r24, 0x00	; 0
    137e:	03 c0       	rjmp	.+6      	; 0x1386 <USART_DecodeValueFIFO+0x9c>
    1380:	81 e0       	ldi	r24, 0x01	; 1
    1382:	01 c0       	rjmp	.+2      	; 0x1386 <USART_DecodeValueFIFO+0x9c>
    1384:	81 e0       	ldi	r24, 0x01	; 1
    1386:	0f 90       	pop	r0
    1388:	0f 90       	pop	r0
    138a:	0f 90       	pop	r0
    138c:	0f 90       	pop	r0
    138e:	df 91       	pop	r29
    1390:	cf 91       	pop	r28
    1392:	1f 91       	pop	r17
    1394:	0f 91       	pop	r16
    1396:	ff 90       	pop	r15
    1398:	ef 90       	pop	r14
    139a:	08 95       	ret

0000139c <USART_DecodeRxFIFO>:
    139c:	13 c0       	rjmp	.+38     	; 0x13c4 <USART_DecodeRxFIFO+0x28>
    139e:	80 91 00 00 	lds	r24, 0x0000
    13a2:	8d 34       	cpi	r24, 0x4D	; 77
    13a4:	29 f0       	breq	.+10     	; 0x13b0 <USART_DecodeRxFIFO+0x14>
    13a6:	86 35       	cpi	r24, 0x56	; 86
    13a8:	51 f0       	breq	.+20     	; 0x13be <USART_DecodeRxFIFO+0x22>
    13aa:	83 34       	cpi	r24, 0x43	; 67
    13ac:	59 f4       	brne	.+22     	; 0x13c4 <USART_DecodeRxFIFO+0x28>
    13ae:	04 c0       	rjmp	.+8      	; 0x13b8 <USART_DecodeRxFIFO+0x1c>
    13b0:	d2 de       	rcall	.-604    	; 0x1156 <USART_DecodeMessageRxFIFO>
    13b2:	88 23       	and	r24, r24
    13b4:	39 f0       	breq	.+14     	; 0x13c4 <USART_DecodeRxFIFO+0x28>
    13b6:	08 95       	ret
    13b8:	42 df       	rcall	.-380    	; 0x123e <USART_DecodeCommandRxFIFO>
    13ba:	81 11       	cpse	r24, r1
    13bc:	0c c0       	rjmp	.+24     	; 0x13d6 <USART_DecodeRxFIFO+0x3a>
    13be:	95 df       	rcall	.-214    	; 0x12ea <USART_DecodeValueFIFO>
    13c0:	81 11       	cpse	r24, r1
    13c2:	09 c0       	rjmp	.+18     	; 0x13d6 <USART_DecodeRxFIFO+0x3a>
    13c4:	60 e0       	ldi	r22, 0x00	; 0
    13c6:	70 e0       	ldi	r23, 0x00	; 0
    13c8:	80 91 06 01 	lds	r24, 0x0106
    13cc:	90 91 07 01 	lds	r25, 0x0107
    13d0:	7f d8       	rcall	.-3842   	; 0x4d0 <FifoRead>
    13d2:	88 23       	and	r24, r24
    13d4:	21 f3       	breq	.-56     	; 0x139e <USART_DecodeRxFIFO+0x2>
    13d6:	08 95       	ret

000013d8 <__vector_20>:
}


ISR (USART0_RX_vect)
{
    13d8:	1f 92       	push	r1
    13da:	0f 92       	push	r0
    13dc:	0f b6       	in	r0, 0x3f	; 63
    13de:	0f 92       	push	r0
    13e0:	11 24       	eor	r1, r1
    13e2:	0b b6       	in	r0, 0x3b	; 59
    13e4:	0f 92       	push	r0
    13e6:	ef 92       	push	r14
    13e8:	ff 92       	push	r15
    13ea:	0f 93       	push	r16
    13ec:	1f 93       	push	r17
    13ee:	2f 93       	push	r18
    13f0:	3f 93       	push	r19
    13f2:	4f 93       	push	r20
    13f4:	5f 93       	push	r21
    13f6:	6f 93       	push	r22
    13f8:	7f 93       	push	r23
    13fa:	8f 93       	push	r24
    13fc:	9f 93       	push	r25
    13fe:	af 93       	push	r26
    1400:	bf 93       	push	r27
    1402:	cf 93       	push	r28
    1404:	df 93       	push	r29
    1406:	ef 93       	push	r30
    1408:	ff 93       	push	r31
	uint8_t data;
	data = UDR0; // read data from buffer TODO: add check for overflow
    140a:	20 91 c6 00 	lds	r18, 0x00C6
	
	if(data == 0x7e)
    140e:	2e 37       	cpi	r18, 0x7E	; 126
    1410:	09 f0       	breq	.+2      	; 0x1414 <__vector_20+0x3c>
    1412:	3e c0       	rjmp	.+124    	; 0x1490 <__vector_20+0xb8>
	{
		if(gRxBufferIndex >= 4 || gRxBufferIndex == gRxBuffer[1] + 4) //TODO: add crc check
    1414:	80 91 0b 13 	lds	r24, 0x130B
    1418:	90 91 0c 13 	lds	r25, 0x130C
    141c:	84 30       	cpi	r24, 0x04	; 4
    141e:	91 05       	cpc	r25, r1
    1420:	40 f4       	brcc	.+16     	; 0x1432 <__vector_20+0x5a>
    1422:	20 91 4d 14 	lds	r18, 0x144D
    1426:	30 e0       	ldi	r19, 0x00	; 0
    1428:	2c 5f       	subi	r18, 0xFC	; 252
    142a:	3f 4f       	sbci	r19, 0xFF	; 255
    142c:	82 17       	cp	r24, r18
    142e:	93 07       	cpc	r25, r19
    1430:	51 f5       	brne	.+84     	; 0x1486 <__vector_20+0xae>
		{
			if(gInvertNextFlag)
    1432:	80 91 09 13 	lds	r24, 0x1309
    1436:	90 91 0a 13 	lds	r25, 0x130A
    143a:	89 2b       	or	r24, r25
    143c:	21 f0       	breq	.+8      	; 0x1446 <__vector_20+0x6e>
			{
				data = (1<<5)^data;
				gInvertNextFlag = 0;
    143e:	10 92 0a 13 	sts	0x130A, r1
    1442:	10 92 09 13 	sts	0x1309, r1
    1446:	0c e4       	ldi	r16, 0x4C	; 76
    1448:	14 e1       	ldi	r17, 0x14	; 20
			}
			
			//USART_Bounce();
			
			// Add packet (no crc) to fifo-buffer to cue it for decoding
			for(int i = 0; i < gRxBuffer[1] + 2; ++i)
    144a:	c0 e0       	ldi	r28, 0x00	; 0
    144c:	d0 e0       	ldi	r29, 0x00	; 0
    144e:	0f 2e       	mov	r0, r31
    1450:	fd e4       	ldi	r31, 0x4D	; 77
    1452:	ef 2e       	mov	r14, r31
    1454:	f4 e1       	ldi	r31, 0x14	; 20
    1456:	ff 2e       	mov	r15, r31
    1458:	f0 2d       	mov	r31, r0
			{
				if(FifoWrite(gRxFIFO, gRxBuffer[i]))
    145a:	f8 01       	movw	r30, r16
    145c:	61 91       	ld	r22, Z+
    145e:	8f 01       	movw	r16, r30
    1460:	80 91 06 01 	lds	r24, 0x0106
    1464:	90 91 07 01 	lds	r25, 0x0107
    1468:	13 d8       	rcall	.-4058   	; 0x490 <FifoWrite>
    146a:	88 23       	and	r24, r24
    146c:	21 f0       	breq	.+8      	; 0x1476 <__vector_20+0x9e>
				{
					TWI_send_string(S_ADDRESS,"U_FIFO-full");
    146e:	66 ef       	ldi	r22, 0xF6	; 246
    1470:	72 e1       	ldi	r23, 0x12	; 18
    1472:	80 e4       	ldi	r24, 0x40	; 64
    1474:	28 db       	rcall	.-2480   	; 0xac6 <TWI_send_string>
			}
			
			//USART_Bounce();
			
			// Add packet (no crc) to fifo-buffer to cue it for decoding
			for(int i = 0; i < gRxBuffer[1] + 2; ++i)
    1476:	21 96       	adiw	r28, 0x01	; 1
    1478:	f7 01       	movw	r30, r14
    147a:	80 81       	ld	r24, Z
    147c:	90 e0       	ldi	r25, 0x00	; 0
    147e:	02 96       	adiw	r24, 0x02	; 2
    1480:	c8 17       	cp	r28, r24
    1482:	d9 07       	cpc	r29, r25
    1484:	54 f3       	brlt	.-44     	; 0x145a <__vector_20+0x82>
					TWI_send_string(S_ADDRESS,"U_FIFO-full");
				}
			}
		}
		
		gRxBufferIndex = 0; // always reset buffer index when frame delimiter (0x7e) is read
    1486:	10 92 0c 13 	sts	0x130C, r1
    148a:	10 92 0b 13 	sts	0x130B, r1
    148e:	16 c0       	rjmp	.+44     	; 0x14bc <__vector_20+0xe4>
		
	}else if(data == 0x7d)
    1490:	2d 37       	cpi	r18, 0x7D	; 125
    1492:	39 f4       	brne	.+14     	; 0x14a2 <__vector_20+0xca>
	{
		gInvertNextFlag = 1;
    1494:	81 e0       	ldi	r24, 0x01	; 1
    1496:	90 e0       	ldi	r25, 0x00	; 0
    1498:	90 93 0a 13 	sts	0x130A, r25
    149c:	80 93 09 13 	sts	0x1309, r24
    14a0:	0d c0       	rjmp	.+26     	; 0x14bc <__vector_20+0xe4>
	}else
	{
		gRxBuffer[gRxBufferIndex] = data;
    14a2:	80 91 0b 13 	lds	r24, 0x130B
    14a6:	90 91 0c 13 	lds	r25, 0x130C
    14aa:	fc 01       	movw	r30, r24
    14ac:	e4 5b       	subi	r30, 0xB4	; 180
    14ae:	fb 4e       	sbci	r31, 0xEB	; 235
    14b0:	20 83       	st	Z, r18
		++gRxBufferIndex;
    14b2:	01 96       	adiw	r24, 0x01	; 1
    14b4:	90 93 0c 13 	sts	0x130C, r25
    14b8:	80 93 0b 13 	sts	0x130B, r24
	}
	
	
}
    14bc:	ff 91       	pop	r31
    14be:	ef 91       	pop	r30
    14c0:	df 91       	pop	r29
    14c2:	cf 91       	pop	r28
    14c4:	bf 91       	pop	r27
    14c6:	af 91       	pop	r26
    14c8:	9f 91       	pop	r25
    14ca:	8f 91       	pop	r24
    14cc:	7f 91       	pop	r23
    14ce:	6f 91       	pop	r22
    14d0:	5f 91       	pop	r21
    14d2:	4f 91       	pop	r20
    14d4:	3f 91       	pop	r19
    14d6:	2f 91       	pop	r18
    14d8:	1f 91       	pop	r17
    14da:	0f 91       	pop	r16
    14dc:	ff 90       	pop	r15
    14de:	ef 90       	pop	r14
    14e0:	0f 90       	pop	r0
    14e2:	0b be       	out	0x3b, r0	; 59
    14e4:	0f 90       	pop	r0
    14e6:	0f be       	out	0x3f, r0	; 63
    14e8:	0f 90       	pop	r0
    14ea:	1f 90       	pop	r1
    14ec:	18 95       	reti

000014ee <USART_send_command_parameters>:

void USART_send_command_parameters(uint8_t direction, uint8_t rotation, uint8_t speed)
{
	gTxPayload[0] = direction;
    14ee:	80 93 51 16 	sts	0x1651, r24
	gTxPayload[1] = rotation;
    14f2:	60 93 52 16 	sts	0x1652, r22
	gTxPayload[2] = speed;
    14f6:	40 93 53 16 	sts	0x1653, r20
	
	
	USART_SendPacket('C', 3);
    14fa:	63 e0       	ldi	r22, 0x03	; 3
    14fc:	83 e4       	ldi	r24, 0x43	; 67
    14fe:	b9 cd       	rjmp	.-1166   	; 0x1072 <USART_SendPacket>

00001500 <__subsf3>:
    1500:	50 58       	subi	r21, 0x80	; 128

00001502 <__addsf3>:
    1502:	bb 27       	eor	r27, r27
    1504:	aa 27       	eor	r26, r26
    1506:	0e d0       	rcall	.+28     	; 0x1524 <__addsf3x>
    1508:	c5 c1       	rjmp	.+906    	; 0x1894 <__fp_round>
    150a:	8e d1       	rcall	.+796    	; 0x1828 <__fp_pscA>
    150c:	30 f0       	brcs	.+12     	; 0x151a <__addsf3+0x18>
    150e:	93 d1       	rcall	.+806    	; 0x1836 <__fp_pscB>
    1510:	20 f0       	brcs	.+8      	; 0x151a <__addsf3+0x18>
    1512:	31 f4       	brne	.+12     	; 0x1520 <__addsf3+0x1e>
    1514:	9f 3f       	cpi	r25, 0xFF	; 255
    1516:	11 f4       	brne	.+4      	; 0x151c <__addsf3+0x1a>
    1518:	1e f4       	brtc	.+6      	; 0x1520 <__addsf3+0x1e>
    151a:	5e c1       	rjmp	.+700    	; 0x17d8 <__fp_nan>
    151c:	0e f4       	brtc	.+2      	; 0x1520 <__addsf3+0x1e>
    151e:	e0 95       	com	r30
    1520:	e7 fb       	bst	r30, 7
    1522:	54 c1       	rjmp	.+680    	; 0x17cc <__fp_inf>

00001524 <__addsf3x>:
    1524:	e9 2f       	mov	r30, r25
    1526:	d8 d1       	rcall	.+944    	; 0x18d8 <__fp_split3>
    1528:	80 f3       	brcs	.-32     	; 0x150a <__addsf3+0x8>
    152a:	ba 17       	cp	r27, r26
    152c:	62 07       	cpc	r22, r18
    152e:	73 07       	cpc	r23, r19
    1530:	84 07       	cpc	r24, r20
    1532:	95 07       	cpc	r25, r21
    1534:	18 f0       	brcs	.+6      	; 0x153c <__addsf3x+0x18>
    1536:	71 f4       	brne	.+28     	; 0x1554 <__addsf3x+0x30>
    1538:	9e f5       	brtc	.+102    	; 0x15a0 <__addsf3x+0x7c>
    153a:	f0 c1       	rjmp	.+992    	; 0x191c <__fp_zero>
    153c:	0e f4       	brtc	.+2      	; 0x1540 <__addsf3x+0x1c>
    153e:	e0 95       	com	r30
    1540:	0b 2e       	mov	r0, r27
    1542:	ba 2f       	mov	r27, r26
    1544:	a0 2d       	mov	r26, r0
    1546:	0b 01       	movw	r0, r22
    1548:	b9 01       	movw	r22, r18
    154a:	90 01       	movw	r18, r0
    154c:	0c 01       	movw	r0, r24
    154e:	ca 01       	movw	r24, r20
    1550:	a0 01       	movw	r20, r0
    1552:	11 24       	eor	r1, r1
    1554:	ff 27       	eor	r31, r31
    1556:	59 1b       	sub	r21, r25
    1558:	99 f0       	breq	.+38     	; 0x1580 <__addsf3x+0x5c>
    155a:	59 3f       	cpi	r21, 0xF9	; 249
    155c:	50 f4       	brcc	.+20     	; 0x1572 <__addsf3x+0x4e>
    155e:	50 3e       	cpi	r21, 0xE0	; 224
    1560:	68 f1       	brcs	.+90     	; 0x15bc <__addsf3x+0x98>
    1562:	1a 16       	cp	r1, r26
    1564:	f0 40       	sbci	r31, 0x00	; 0
    1566:	a2 2f       	mov	r26, r18
    1568:	23 2f       	mov	r18, r19
    156a:	34 2f       	mov	r19, r20
    156c:	44 27       	eor	r20, r20
    156e:	58 5f       	subi	r21, 0xF8	; 248
    1570:	f3 cf       	rjmp	.-26     	; 0x1558 <__addsf3x+0x34>
    1572:	46 95       	lsr	r20
    1574:	37 95       	ror	r19
    1576:	27 95       	ror	r18
    1578:	a7 95       	ror	r26
    157a:	f0 40       	sbci	r31, 0x00	; 0
    157c:	53 95       	inc	r21
    157e:	c9 f7       	brne	.-14     	; 0x1572 <__addsf3x+0x4e>
    1580:	7e f4       	brtc	.+30     	; 0x15a0 <__addsf3x+0x7c>
    1582:	1f 16       	cp	r1, r31
    1584:	ba 0b       	sbc	r27, r26
    1586:	62 0b       	sbc	r22, r18
    1588:	73 0b       	sbc	r23, r19
    158a:	84 0b       	sbc	r24, r20
    158c:	ba f0       	brmi	.+46     	; 0x15bc <__addsf3x+0x98>
    158e:	91 50       	subi	r25, 0x01	; 1
    1590:	a1 f0       	breq	.+40     	; 0x15ba <__addsf3x+0x96>
    1592:	ff 0f       	add	r31, r31
    1594:	bb 1f       	adc	r27, r27
    1596:	66 1f       	adc	r22, r22
    1598:	77 1f       	adc	r23, r23
    159a:	88 1f       	adc	r24, r24
    159c:	c2 f7       	brpl	.-16     	; 0x158e <__addsf3x+0x6a>
    159e:	0e c0       	rjmp	.+28     	; 0x15bc <__addsf3x+0x98>
    15a0:	ba 0f       	add	r27, r26
    15a2:	62 1f       	adc	r22, r18
    15a4:	73 1f       	adc	r23, r19
    15a6:	84 1f       	adc	r24, r20
    15a8:	48 f4       	brcc	.+18     	; 0x15bc <__addsf3x+0x98>
    15aa:	87 95       	ror	r24
    15ac:	77 95       	ror	r23
    15ae:	67 95       	ror	r22
    15b0:	b7 95       	ror	r27
    15b2:	f7 95       	ror	r31
    15b4:	9e 3f       	cpi	r25, 0xFE	; 254
    15b6:	08 f0       	brcs	.+2      	; 0x15ba <__addsf3x+0x96>
    15b8:	b3 cf       	rjmp	.-154    	; 0x1520 <__addsf3+0x1e>
    15ba:	93 95       	inc	r25
    15bc:	88 0f       	add	r24, r24
    15be:	08 f0       	brcs	.+2      	; 0x15c2 <__addsf3x+0x9e>
    15c0:	99 27       	eor	r25, r25
    15c2:	ee 0f       	add	r30, r30
    15c4:	97 95       	ror	r25
    15c6:	87 95       	ror	r24
    15c8:	08 95       	ret

000015ca <atan>:
    15ca:	df 93       	push	r29
    15cc:	dd 27       	eor	r29, r29
    15ce:	b9 2f       	mov	r27, r25
    15d0:	bf 77       	andi	r27, 0x7F	; 127
    15d2:	40 e8       	ldi	r20, 0x80	; 128
    15d4:	5f e3       	ldi	r21, 0x3F	; 63
    15d6:	16 16       	cp	r1, r22
    15d8:	17 06       	cpc	r1, r23
    15da:	48 07       	cpc	r20, r24
    15dc:	5b 07       	cpc	r21, r27
    15de:	10 f4       	brcc	.+4      	; 0x15e4 <atan+0x1a>
    15e0:	d9 2f       	mov	r29, r25
    15e2:	a3 d1       	rcall	.+838    	; 0x192a <inverse>
    15e4:	9f 93       	push	r25
    15e6:	8f 93       	push	r24
    15e8:	7f 93       	push	r23
    15ea:	6f 93       	push	r22
    15ec:	08 d2       	rcall	.+1040   	; 0x19fe <square>
    15ee:	ec e8       	ldi	r30, 0x8C	; 140
    15f0:	f0 e0       	ldi	r31, 0x00	; 0
    15f2:	f5 d0       	rcall	.+490    	; 0x17de <__fp_powser>
    15f4:	4f d1       	rcall	.+670    	; 0x1894 <__fp_round>
    15f6:	2f 91       	pop	r18
    15f8:	3f 91       	pop	r19
    15fa:	4f 91       	pop	r20
    15fc:	5f 91       	pop	r21
    15fe:	a8 d1       	rcall	.+848    	; 0x1950 <__mulsf3x>
    1600:	dd 23       	and	r29, r29
    1602:	49 f0       	breq	.+18     	; 0x1616 <atan+0x4c>
    1604:	90 58       	subi	r25, 0x80	; 128
    1606:	a2 ea       	ldi	r26, 0xA2	; 162
    1608:	2a ed       	ldi	r18, 0xDA	; 218
    160a:	3f e0       	ldi	r19, 0x0F	; 15
    160c:	49 ec       	ldi	r20, 0xC9	; 201
    160e:	5f e3       	ldi	r21, 0x3F	; 63
    1610:	d0 78       	andi	r29, 0x80	; 128
    1612:	5d 27       	eor	r21, r29
    1614:	87 df       	rcall	.-242    	; 0x1524 <__addsf3x>
    1616:	df 91       	pop	r29
    1618:	3d c1       	rjmp	.+634    	; 0x1894 <__fp_round>

0000161a <cos>:
    161a:	15 d1       	rcall	.+554    	; 0x1846 <__fp_rempio2>
    161c:	e3 95       	inc	r30
    161e:	4b c1       	rjmp	.+662    	; 0x18b6 <__fp_sinus>

00001620 <__divsf3>:
    1620:	0c d0       	rcall	.+24     	; 0x163a <__divsf3x>
    1622:	38 c1       	rjmp	.+624    	; 0x1894 <__fp_round>
    1624:	08 d1       	rcall	.+528    	; 0x1836 <__fp_pscB>
    1626:	40 f0       	brcs	.+16     	; 0x1638 <__divsf3+0x18>
    1628:	ff d0       	rcall	.+510    	; 0x1828 <__fp_pscA>
    162a:	30 f0       	brcs	.+12     	; 0x1638 <__divsf3+0x18>
    162c:	21 f4       	brne	.+8      	; 0x1636 <__divsf3+0x16>
    162e:	5f 3f       	cpi	r21, 0xFF	; 255
    1630:	19 f0       	breq	.+6      	; 0x1638 <__divsf3+0x18>
    1632:	cc c0       	rjmp	.+408    	; 0x17cc <__fp_inf>
    1634:	51 11       	cpse	r21, r1
    1636:	73 c1       	rjmp	.+742    	; 0x191e <__fp_szero>
    1638:	cf c0       	rjmp	.+414    	; 0x17d8 <__fp_nan>

0000163a <__divsf3x>:
    163a:	4e d1       	rcall	.+668    	; 0x18d8 <__fp_split3>
    163c:	98 f3       	brcs	.-26     	; 0x1624 <__divsf3+0x4>

0000163e <__divsf3_pse>:
    163e:	99 23       	and	r25, r25
    1640:	c9 f3       	breq	.-14     	; 0x1634 <__divsf3+0x14>
    1642:	55 23       	and	r21, r21
    1644:	b1 f3       	breq	.-20     	; 0x1632 <__divsf3+0x12>
    1646:	95 1b       	sub	r25, r21
    1648:	55 0b       	sbc	r21, r21
    164a:	bb 27       	eor	r27, r27
    164c:	aa 27       	eor	r26, r26
    164e:	62 17       	cp	r22, r18
    1650:	73 07       	cpc	r23, r19
    1652:	84 07       	cpc	r24, r20
    1654:	38 f0       	brcs	.+14     	; 0x1664 <__divsf3_pse+0x26>
    1656:	9f 5f       	subi	r25, 0xFF	; 255
    1658:	5f 4f       	sbci	r21, 0xFF	; 255
    165a:	22 0f       	add	r18, r18
    165c:	33 1f       	adc	r19, r19
    165e:	44 1f       	adc	r20, r20
    1660:	aa 1f       	adc	r26, r26
    1662:	a9 f3       	breq	.-22     	; 0x164e <__divsf3_pse+0x10>
    1664:	33 d0       	rcall	.+102    	; 0x16cc <__divsf3_pse+0x8e>
    1666:	0e 2e       	mov	r0, r30
    1668:	3a f0       	brmi	.+14     	; 0x1678 <__divsf3_pse+0x3a>
    166a:	e0 e8       	ldi	r30, 0x80	; 128
    166c:	30 d0       	rcall	.+96     	; 0x16ce <__divsf3_pse+0x90>
    166e:	91 50       	subi	r25, 0x01	; 1
    1670:	50 40       	sbci	r21, 0x00	; 0
    1672:	e6 95       	lsr	r30
    1674:	00 1c       	adc	r0, r0
    1676:	ca f7       	brpl	.-14     	; 0x166a <__divsf3_pse+0x2c>
    1678:	29 d0       	rcall	.+82     	; 0x16cc <__divsf3_pse+0x8e>
    167a:	fe 2f       	mov	r31, r30
    167c:	27 d0       	rcall	.+78     	; 0x16cc <__divsf3_pse+0x8e>
    167e:	66 0f       	add	r22, r22
    1680:	77 1f       	adc	r23, r23
    1682:	88 1f       	adc	r24, r24
    1684:	bb 1f       	adc	r27, r27
    1686:	26 17       	cp	r18, r22
    1688:	37 07       	cpc	r19, r23
    168a:	48 07       	cpc	r20, r24
    168c:	ab 07       	cpc	r26, r27
    168e:	b0 e8       	ldi	r27, 0x80	; 128
    1690:	09 f0       	breq	.+2      	; 0x1694 <__divsf3_pse+0x56>
    1692:	bb 0b       	sbc	r27, r27
    1694:	80 2d       	mov	r24, r0
    1696:	bf 01       	movw	r22, r30
    1698:	ff 27       	eor	r31, r31
    169a:	93 58       	subi	r25, 0x83	; 131
    169c:	5f 4f       	sbci	r21, 0xFF	; 255
    169e:	2a f0       	brmi	.+10     	; 0x16aa <__divsf3_pse+0x6c>
    16a0:	9e 3f       	cpi	r25, 0xFE	; 254
    16a2:	51 05       	cpc	r21, r1
    16a4:	68 f0       	brcs	.+26     	; 0x16c0 <__divsf3_pse+0x82>
    16a6:	92 c0       	rjmp	.+292    	; 0x17cc <__fp_inf>
    16a8:	3a c1       	rjmp	.+628    	; 0x191e <__fp_szero>
    16aa:	5f 3f       	cpi	r21, 0xFF	; 255
    16ac:	ec f3       	brlt	.-6      	; 0x16a8 <__divsf3_pse+0x6a>
    16ae:	98 3e       	cpi	r25, 0xE8	; 232
    16b0:	dc f3       	brlt	.-10     	; 0x16a8 <__divsf3_pse+0x6a>
    16b2:	86 95       	lsr	r24
    16b4:	77 95       	ror	r23
    16b6:	67 95       	ror	r22
    16b8:	b7 95       	ror	r27
    16ba:	f7 95       	ror	r31
    16bc:	9f 5f       	subi	r25, 0xFF	; 255
    16be:	c9 f7       	brne	.-14     	; 0x16b2 <__divsf3_pse+0x74>
    16c0:	88 0f       	add	r24, r24
    16c2:	91 1d       	adc	r25, r1
    16c4:	96 95       	lsr	r25
    16c6:	87 95       	ror	r24
    16c8:	97 f9       	bld	r25, 7
    16ca:	08 95       	ret
    16cc:	e1 e0       	ldi	r30, 0x01	; 1
    16ce:	66 0f       	add	r22, r22
    16d0:	77 1f       	adc	r23, r23
    16d2:	88 1f       	adc	r24, r24
    16d4:	bb 1f       	adc	r27, r27
    16d6:	62 17       	cp	r22, r18
    16d8:	73 07       	cpc	r23, r19
    16da:	84 07       	cpc	r24, r20
    16dc:	ba 07       	cpc	r27, r26
    16de:	20 f0       	brcs	.+8      	; 0x16e8 <__divsf3_pse+0xaa>
    16e0:	62 1b       	sub	r22, r18
    16e2:	73 0b       	sbc	r23, r19
    16e4:	84 0b       	sbc	r24, r20
    16e6:	ba 0b       	sbc	r27, r26
    16e8:	ee 1f       	adc	r30, r30
    16ea:	88 f7       	brcc	.-30     	; 0x16ce <__divsf3_pse+0x90>
    16ec:	e0 95       	com	r30
    16ee:	08 95       	ret

000016f0 <__fixsfsi>:
    16f0:	04 d0       	rcall	.+8      	; 0x16fa <__fixunssfsi>
    16f2:	68 94       	set
    16f4:	b1 11       	cpse	r27, r1
    16f6:	13 c1       	rjmp	.+550    	; 0x191e <__fp_szero>
    16f8:	08 95       	ret

000016fa <__fixunssfsi>:
    16fa:	f6 d0       	rcall	.+492    	; 0x18e8 <__fp_splitA>
    16fc:	88 f0       	brcs	.+34     	; 0x1720 <__fixunssfsi+0x26>
    16fe:	9f 57       	subi	r25, 0x7F	; 127
    1700:	90 f0       	brcs	.+36     	; 0x1726 <__fixunssfsi+0x2c>
    1702:	b9 2f       	mov	r27, r25
    1704:	99 27       	eor	r25, r25
    1706:	b7 51       	subi	r27, 0x17	; 23
    1708:	a0 f0       	brcs	.+40     	; 0x1732 <__fixunssfsi+0x38>
    170a:	d1 f0       	breq	.+52     	; 0x1740 <__fixunssfsi+0x46>
    170c:	66 0f       	add	r22, r22
    170e:	77 1f       	adc	r23, r23
    1710:	88 1f       	adc	r24, r24
    1712:	99 1f       	adc	r25, r25
    1714:	1a f0       	brmi	.+6      	; 0x171c <__fixunssfsi+0x22>
    1716:	ba 95       	dec	r27
    1718:	c9 f7       	brne	.-14     	; 0x170c <__fixunssfsi+0x12>
    171a:	12 c0       	rjmp	.+36     	; 0x1740 <__fixunssfsi+0x46>
    171c:	b1 30       	cpi	r27, 0x01	; 1
    171e:	81 f0       	breq	.+32     	; 0x1740 <__fixunssfsi+0x46>
    1720:	fd d0       	rcall	.+506    	; 0x191c <__fp_zero>
    1722:	b1 e0       	ldi	r27, 0x01	; 1
    1724:	08 95       	ret
    1726:	fa c0       	rjmp	.+500    	; 0x191c <__fp_zero>
    1728:	67 2f       	mov	r22, r23
    172a:	78 2f       	mov	r23, r24
    172c:	88 27       	eor	r24, r24
    172e:	b8 5f       	subi	r27, 0xF8	; 248
    1730:	39 f0       	breq	.+14     	; 0x1740 <__fixunssfsi+0x46>
    1732:	b9 3f       	cpi	r27, 0xF9	; 249
    1734:	cc f3       	brlt	.-14     	; 0x1728 <__fixunssfsi+0x2e>
    1736:	86 95       	lsr	r24
    1738:	77 95       	ror	r23
    173a:	67 95       	ror	r22
    173c:	b3 95       	inc	r27
    173e:	d9 f7       	brne	.-10     	; 0x1736 <__fixunssfsi+0x3c>
    1740:	3e f4       	brtc	.+14     	; 0x1750 <__fixunssfsi+0x56>
    1742:	90 95       	com	r25
    1744:	80 95       	com	r24
    1746:	70 95       	com	r23
    1748:	61 95       	neg	r22
    174a:	7f 4f       	sbci	r23, 0xFF	; 255
    174c:	8f 4f       	sbci	r24, 0xFF	; 255
    174e:	9f 4f       	sbci	r25, 0xFF	; 255
    1750:	08 95       	ret

00001752 <__floatunsisf>:
    1752:	e8 94       	clt
    1754:	09 c0       	rjmp	.+18     	; 0x1768 <__floatsisf+0x12>

00001756 <__floatsisf>:
    1756:	97 fb       	bst	r25, 7
    1758:	3e f4       	brtc	.+14     	; 0x1768 <__floatsisf+0x12>
    175a:	90 95       	com	r25
    175c:	80 95       	com	r24
    175e:	70 95       	com	r23
    1760:	61 95       	neg	r22
    1762:	7f 4f       	sbci	r23, 0xFF	; 255
    1764:	8f 4f       	sbci	r24, 0xFF	; 255
    1766:	9f 4f       	sbci	r25, 0xFF	; 255
    1768:	99 23       	and	r25, r25
    176a:	a9 f0       	breq	.+42     	; 0x1796 <__floatsisf+0x40>
    176c:	f9 2f       	mov	r31, r25
    176e:	96 e9       	ldi	r25, 0x96	; 150
    1770:	bb 27       	eor	r27, r27
    1772:	93 95       	inc	r25
    1774:	f6 95       	lsr	r31
    1776:	87 95       	ror	r24
    1778:	77 95       	ror	r23
    177a:	67 95       	ror	r22
    177c:	b7 95       	ror	r27
    177e:	f1 11       	cpse	r31, r1
    1780:	f8 cf       	rjmp	.-16     	; 0x1772 <__floatsisf+0x1c>
    1782:	fa f4       	brpl	.+62     	; 0x17c2 <__floatsisf+0x6c>
    1784:	bb 0f       	add	r27, r27
    1786:	11 f4       	brne	.+4      	; 0x178c <__floatsisf+0x36>
    1788:	60 ff       	sbrs	r22, 0
    178a:	1b c0       	rjmp	.+54     	; 0x17c2 <__floatsisf+0x6c>
    178c:	6f 5f       	subi	r22, 0xFF	; 255
    178e:	7f 4f       	sbci	r23, 0xFF	; 255
    1790:	8f 4f       	sbci	r24, 0xFF	; 255
    1792:	9f 4f       	sbci	r25, 0xFF	; 255
    1794:	16 c0       	rjmp	.+44     	; 0x17c2 <__floatsisf+0x6c>
    1796:	88 23       	and	r24, r24
    1798:	11 f0       	breq	.+4      	; 0x179e <__floatsisf+0x48>
    179a:	96 e9       	ldi	r25, 0x96	; 150
    179c:	11 c0       	rjmp	.+34     	; 0x17c0 <__floatsisf+0x6a>
    179e:	77 23       	and	r23, r23
    17a0:	21 f0       	breq	.+8      	; 0x17aa <__floatsisf+0x54>
    17a2:	9e e8       	ldi	r25, 0x8E	; 142
    17a4:	87 2f       	mov	r24, r23
    17a6:	76 2f       	mov	r23, r22
    17a8:	05 c0       	rjmp	.+10     	; 0x17b4 <__floatsisf+0x5e>
    17aa:	66 23       	and	r22, r22
    17ac:	71 f0       	breq	.+28     	; 0x17ca <__floatsisf+0x74>
    17ae:	96 e8       	ldi	r25, 0x86	; 134
    17b0:	86 2f       	mov	r24, r22
    17b2:	70 e0       	ldi	r23, 0x00	; 0
    17b4:	60 e0       	ldi	r22, 0x00	; 0
    17b6:	2a f0       	brmi	.+10     	; 0x17c2 <__floatsisf+0x6c>
    17b8:	9a 95       	dec	r25
    17ba:	66 0f       	add	r22, r22
    17bc:	77 1f       	adc	r23, r23
    17be:	88 1f       	adc	r24, r24
    17c0:	da f7       	brpl	.-10     	; 0x17b8 <__floatsisf+0x62>
    17c2:	88 0f       	add	r24, r24
    17c4:	96 95       	lsr	r25
    17c6:	87 95       	ror	r24
    17c8:	97 f9       	bld	r25, 7
    17ca:	08 95       	ret

000017cc <__fp_inf>:
    17cc:	97 f9       	bld	r25, 7
    17ce:	9f 67       	ori	r25, 0x7F	; 127
    17d0:	80 e8       	ldi	r24, 0x80	; 128
    17d2:	70 e0       	ldi	r23, 0x00	; 0
    17d4:	60 e0       	ldi	r22, 0x00	; 0
    17d6:	08 95       	ret

000017d8 <__fp_nan>:
    17d8:	9f ef       	ldi	r25, 0xFF	; 255
    17da:	80 ec       	ldi	r24, 0xC0	; 192
    17dc:	08 95       	ret

000017de <__fp_powser>:
    17de:	df 93       	push	r29
    17e0:	cf 93       	push	r28
    17e2:	1f 93       	push	r17
    17e4:	0f 93       	push	r16
    17e6:	ff 92       	push	r15
    17e8:	ef 92       	push	r14
    17ea:	df 92       	push	r13
    17ec:	7b 01       	movw	r14, r22
    17ee:	8c 01       	movw	r16, r24
    17f0:	68 94       	set
    17f2:	05 c0       	rjmp	.+10     	; 0x17fe <__fp_powser+0x20>
    17f4:	da 2e       	mov	r13, r26
    17f6:	ef 01       	movw	r28, r30
    17f8:	ab d0       	rcall	.+342    	; 0x1950 <__mulsf3x>
    17fa:	fe 01       	movw	r30, r28
    17fc:	e8 94       	clt
    17fe:	a5 91       	lpm	r26, Z+
    1800:	25 91       	lpm	r18, Z+
    1802:	35 91       	lpm	r19, Z+
    1804:	45 91       	lpm	r20, Z+
    1806:	55 91       	lpm	r21, Z+
    1808:	ae f3       	brts	.-22     	; 0x17f4 <__fp_powser+0x16>
    180a:	ef 01       	movw	r28, r30
    180c:	8b de       	rcall	.-746    	; 0x1524 <__addsf3x>
    180e:	fe 01       	movw	r30, r28
    1810:	97 01       	movw	r18, r14
    1812:	a8 01       	movw	r20, r16
    1814:	da 94       	dec	r13
    1816:	79 f7       	brne	.-34     	; 0x17f6 <__fp_powser+0x18>
    1818:	df 90       	pop	r13
    181a:	ef 90       	pop	r14
    181c:	ff 90       	pop	r15
    181e:	0f 91       	pop	r16
    1820:	1f 91       	pop	r17
    1822:	cf 91       	pop	r28
    1824:	df 91       	pop	r29
    1826:	08 95       	ret

00001828 <__fp_pscA>:
    1828:	00 24       	eor	r0, r0
    182a:	0a 94       	dec	r0
    182c:	16 16       	cp	r1, r22
    182e:	17 06       	cpc	r1, r23
    1830:	18 06       	cpc	r1, r24
    1832:	09 06       	cpc	r0, r25
    1834:	08 95       	ret

00001836 <__fp_pscB>:
    1836:	00 24       	eor	r0, r0
    1838:	0a 94       	dec	r0
    183a:	12 16       	cp	r1, r18
    183c:	13 06       	cpc	r1, r19
    183e:	14 06       	cpc	r1, r20
    1840:	05 06       	cpc	r0, r21
    1842:	08 95       	ret
    1844:	c9 cf       	rjmp	.-110    	; 0x17d8 <__fp_nan>

00001846 <__fp_rempio2>:
    1846:	50 d0       	rcall	.+160    	; 0x18e8 <__fp_splitA>
    1848:	e8 f3       	brcs	.-6      	; 0x1844 <__fp_pscB+0xe>
    184a:	e8 94       	clt
    184c:	e0 e0       	ldi	r30, 0x00	; 0
    184e:	bb 27       	eor	r27, r27
    1850:	9f 57       	subi	r25, 0x7F	; 127
    1852:	f0 f0       	brcs	.+60     	; 0x1890 <__fp_rempio2+0x4a>
    1854:	2a ed       	ldi	r18, 0xDA	; 218
    1856:	3f e0       	ldi	r19, 0x0F	; 15
    1858:	49 ec       	ldi	r20, 0xC9	; 201
    185a:	06 c0       	rjmp	.+12     	; 0x1868 <__fp_rempio2+0x22>
    185c:	ee 0f       	add	r30, r30
    185e:	bb 0f       	add	r27, r27
    1860:	66 1f       	adc	r22, r22
    1862:	77 1f       	adc	r23, r23
    1864:	88 1f       	adc	r24, r24
    1866:	28 f0       	brcs	.+10     	; 0x1872 <__fp_rempio2+0x2c>
    1868:	b2 3a       	cpi	r27, 0xA2	; 162
    186a:	62 07       	cpc	r22, r18
    186c:	73 07       	cpc	r23, r19
    186e:	84 07       	cpc	r24, r20
    1870:	28 f0       	brcs	.+10     	; 0x187c <__fp_rempio2+0x36>
    1872:	b2 5a       	subi	r27, 0xA2	; 162
    1874:	62 0b       	sbc	r22, r18
    1876:	73 0b       	sbc	r23, r19
    1878:	84 0b       	sbc	r24, r20
    187a:	e3 95       	inc	r30
    187c:	9a 95       	dec	r25
    187e:	72 f7       	brpl	.-36     	; 0x185c <__fp_rempio2+0x16>
    1880:	80 38       	cpi	r24, 0x80	; 128
    1882:	30 f4       	brcc	.+12     	; 0x1890 <__fp_rempio2+0x4a>
    1884:	9a 95       	dec	r25
    1886:	bb 0f       	add	r27, r27
    1888:	66 1f       	adc	r22, r22
    188a:	77 1f       	adc	r23, r23
    188c:	88 1f       	adc	r24, r24
    188e:	d2 f7       	brpl	.-12     	; 0x1884 <__fp_rempio2+0x3e>
    1890:	90 48       	sbci	r25, 0x80	; 128
    1892:	ba c0       	rjmp	.+372    	; 0x1a08 <__fp_mpack_finite>

00001894 <__fp_round>:
    1894:	09 2e       	mov	r0, r25
    1896:	03 94       	inc	r0
    1898:	00 0c       	add	r0, r0
    189a:	11 f4       	brne	.+4      	; 0x18a0 <__fp_round+0xc>
    189c:	88 23       	and	r24, r24
    189e:	52 f0       	brmi	.+20     	; 0x18b4 <__fp_round+0x20>
    18a0:	bb 0f       	add	r27, r27
    18a2:	40 f4       	brcc	.+16     	; 0x18b4 <__fp_round+0x20>
    18a4:	bf 2b       	or	r27, r31
    18a6:	11 f4       	brne	.+4      	; 0x18ac <__fp_round+0x18>
    18a8:	60 ff       	sbrs	r22, 0
    18aa:	04 c0       	rjmp	.+8      	; 0x18b4 <__fp_round+0x20>
    18ac:	6f 5f       	subi	r22, 0xFF	; 255
    18ae:	7f 4f       	sbci	r23, 0xFF	; 255
    18b0:	8f 4f       	sbci	r24, 0xFF	; 255
    18b2:	9f 4f       	sbci	r25, 0xFF	; 255
    18b4:	08 95       	ret

000018b6 <__fp_sinus>:
    18b6:	ef 93       	push	r30
    18b8:	e0 ff       	sbrs	r30, 0
    18ba:	06 c0       	rjmp	.+12     	; 0x18c8 <__fp_sinus+0x12>
    18bc:	a2 ea       	ldi	r26, 0xA2	; 162
    18be:	2a ed       	ldi	r18, 0xDA	; 218
    18c0:	3f e0       	ldi	r19, 0x0F	; 15
    18c2:	49 ec       	ldi	r20, 0xC9	; 201
    18c4:	5f eb       	ldi	r21, 0xBF	; 191
    18c6:	2e de       	rcall	.-932    	; 0x1524 <__addsf3x>
    18c8:	e5 df       	rcall	.-54     	; 0x1894 <__fp_round>
    18ca:	0f 90       	pop	r0
    18cc:	03 94       	inc	r0
    18ce:	01 fc       	sbrc	r0, 1
    18d0:	90 58       	subi	r25, 0x80	; 128
    18d2:	e9 eb       	ldi	r30, 0xB9	; 185
    18d4:	f0 e0       	ldi	r31, 0x00	; 0
    18d6:	a4 c0       	rjmp	.+328    	; 0x1a20 <__fp_powsodd>

000018d8 <__fp_split3>:
    18d8:	57 fd       	sbrc	r21, 7
    18da:	90 58       	subi	r25, 0x80	; 128
    18dc:	44 0f       	add	r20, r20
    18de:	55 1f       	adc	r21, r21
    18e0:	59 f0       	breq	.+22     	; 0x18f8 <__fp_splitA+0x10>
    18e2:	5f 3f       	cpi	r21, 0xFF	; 255
    18e4:	71 f0       	breq	.+28     	; 0x1902 <__fp_splitA+0x1a>
    18e6:	47 95       	ror	r20

000018e8 <__fp_splitA>:
    18e8:	88 0f       	add	r24, r24
    18ea:	97 fb       	bst	r25, 7
    18ec:	99 1f       	adc	r25, r25
    18ee:	61 f0       	breq	.+24     	; 0x1908 <__fp_splitA+0x20>
    18f0:	9f 3f       	cpi	r25, 0xFF	; 255
    18f2:	79 f0       	breq	.+30     	; 0x1912 <__fp_splitA+0x2a>
    18f4:	87 95       	ror	r24
    18f6:	08 95       	ret
    18f8:	12 16       	cp	r1, r18
    18fa:	13 06       	cpc	r1, r19
    18fc:	14 06       	cpc	r1, r20
    18fe:	55 1f       	adc	r21, r21
    1900:	f2 cf       	rjmp	.-28     	; 0x18e6 <__fp_split3+0xe>
    1902:	46 95       	lsr	r20
    1904:	f1 df       	rcall	.-30     	; 0x18e8 <__fp_splitA>
    1906:	08 c0       	rjmp	.+16     	; 0x1918 <__fp_splitA+0x30>
    1908:	16 16       	cp	r1, r22
    190a:	17 06       	cpc	r1, r23
    190c:	18 06       	cpc	r1, r24
    190e:	99 1f       	adc	r25, r25
    1910:	f1 cf       	rjmp	.-30     	; 0x18f4 <__fp_splitA+0xc>
    1912:	86 95       	lsr	r24
    1914:	71 05       	cpc	r23, r1
    1916:	61 05       	cpc	r22, r1
    1918:	08 94       	sec
    191a:	08 95       	ret

0000191c <__fp_zero>:
    191c:	e8 94       	clt

0000191e <__fp_szero>:
    191e:	bb 27       	eor	r27, r27
    1920:	66 27       	eor	r22, r22
    1922:	77 27       	eor	r23, r23
    1924:	cb 01       	movw	r24, r22
    1926:	97 f9       	bld	r25, 7
    1928:	08 95       	ret

0000192a <inverse>:
    192a:	9b 01       	movw	r18, r22
    192c:	ac 01       	movw	r20, r24
    192e:	60 e0       	ldi	r22, 0x00	; 0
    1930:	70 e0       	ldi	r23, 0x00	; 0
    1932:	80 e8       	ldi	r24, 0x80	; 128
    1934:	9f e3       	ldi	r25, 0x3F	; 63
    1936:	74 ce       	rjmp	.-792    	; 0x1620 <__divsf3>

00001938 <__mulsf3>:
    1938:	0b d0       	rcall	.+22     	; 0x1950 <__mulsf3x>
    193a:	ac cf       	rjmp	.-168    	; 0x1894 <__fp_round>
    193c:	75 df       	rcall	.-278    	; 0x1828 <__fp_pscA>
    193e:	28 f0       	brcs	.+10     	; 0x194a <__mulsf3+0x12>
    1940:	7a df       	rcall	.-268    	; 0x1836 <__fp_pscB>
    1942:	18 f0       	brcs	.+6      	; 0x194a <__mulsf3+0x12>
    1944:	95 23       	and	r25, r21
    1946:	09 f0       	breq	.+2      	; 0x194a <__mulsf3+0x12>
    1948:	41 cf       	rjmp	.-382    	; 0x17cc <__fp_inf>
    194a:	46 cf       	rjmp	.-372    	; 0x17d8 <__fp_nan>
    194c:	11 24       	eor	r1, r1
    194e:	e7 cf       	rjmp	.-50     	; 0x191e <__fp_szero>

00001950 <__mulsf3x>:
    1950:	c3 df       	rcall	.-122    	; 0x18d8 <__fp_split3>
    1952:	a0 f3       	brcs	.-24     	; 0x193c <__mulsf3+0x4>

00001954 <__mulsf3_pse>:
    1954:	95 9f       	mul	r25, r21
    1956:	d1 f3       	breq	.-12     	; 0x194c <__mulsf3+0x14>
    1958:	95 0f       	add	r25, r21
    195a:	50 e0       	ldi	r21, 0x00	; 0
    195c:	55 1f       	adc	r21, r21
    195e:	62 9f       	mul	r22, r18
    1960:	f0 01       	movw	r30, r0
    1962:	72 9f       	mul	r23, r18
    1964:	bb 27       	eor	r27, r27
    1966:	f0 0d       	add	r31, r0
    1968:	b1 1d       	adc	r27, r1
    196a:	63 9f       	mul	r22, r19
    196c:	aa 27       	eor	r26, r26
    196e:	f0 0d       	add	r31, r0
    1970:	b1 1d       	adc	r27, r1
    1972:	aa 1f       	adc	r26, r26
    1974:	64 9f       	mul	r22, r20
    1976:	66 27       	eor	r22, r22
    1978:	b0 0d       	add	r27, r0
    197a:	a1 1d       	adc	r26, r1
    197c:	66 1f       	adc	r22, r22
    197e:	82 9f       	mul	r24, r18
    1980:	22 27       	eor	r18, r18
    1982:	b0 0d       	add	r27, r0
    1984:	a1 1d       	adc	r26, r1
    1986:	62 1f       	adc	r22, r18
    1988:	73 9f       	mul	r23, r19
    198a:	b0 0d       	add	r27, r0
    198c:	a1 1d       	adc	r26, r1
    198e:	62 1f       	adc	r22, r18
    1990:	83 9f       	mul	r24, r19
    1992:	a0 0d       	add	r26, r0
    1994:	61 1d       	adc	r22, r1
    1996:	22 1f       	adc	r18, r18
    1998:	74 9f       	mul	r23, r20
    199a:	33 27       	eor	r19, r19
    199c:	a0 0d       	add	r26, r0
    199e:	61 1d       	adc	r22, r1
    19a0:	23 1f       	adc	r18, r19
    19a2:	84 9f       	mul	r24, r20
    19a4:	60 0d       	add	r22, r0
    19a6:	21 1d       	adc	r18, r1
    19a8:	82 2f       	mov	r24, r18
    19aa:	76 2f       	mov	r23, r22
    19ac:	6a 2f       	mov	r22, r26
    19ae:	11 24       	eor	r1, r1
    19b0:	9f 57       	subi	r25, 0x7F	; 127
    19b2:	50 40       	sbci	r21, 0x00	; 0
    19b4:	8a f0       	brmi	.+34     	; 0x19d8 <__mulsf3_pse+0x84>
    19b6:	e1 f0       	breq	.+56     	; 0x19f0 <__mulsf3_pse+0x9c>
    19b8:	88 23       	and	r24, r24
    19ba:	4a f0       	brmi	.+18     	; 0x19ce <__mulsf3_pse+0x7a>
    19bc:	ee 0f       	add	r30, r30
    19be:	ff 1f       	adc	r31, r31
    19c0:	bb 1f       	adc	r27, r27
    19c2:	66 1f       	adc	r22, r22
    19c4:	77 1f       	adc	r23, r23
    19c6:	88 1f       	adc	r24, r24
    19c8:	91 50       	subi	r25, 0x01	; 1
    19ca:	50 40       	sbci	r21, 0x00	; 0
    19cc:	a9 f7       	brne	.-22     	; 0x19b8 <__mulsf3_pse+0x64>
    19ce:	9e 3f       	cpi	r25, 0xFE	; 254
    19d0:	51 05       	cpc	r21, r1
    19d2:	70 f0       	brcs	.+28     	; 0x19f0 <__mulsf3_pse+0x9c>
    19d4:	fb ce       	rjmp	.-522    	; 0x17cc <__fp_inf>
    19d6:	a3 cf       	rjmp	.-186    	; 0x191e <__fp_szero>
    19d8:	5f 3f       	cpi	r21, 0xFF	; 255
    19da:	ec f3       	brlt	.-6      	; 0x19d6 <__mulsf3_pse+0x82>
    19dc:	98 3e       	cpi	r25, 0xE8	; 232
    19de:	dc f3       	brlt	.-10     	; 0x19d6 <__mulsf3_pse+0x82>
    19e0:	86 95       	lsr	r24
    19e2:	77 95       	ror	r23
    19e4:	67 95       	ror	r22
    19e6:	b7 95       	ror	r27
    19e8:	f7 95       	ror	r31
    19ea:	e7 95       	ror	r30
    19ec:	9f 5f       	subi	r25, 0xFF	; 255
    19ee:	c1 f7       	brne	.-16     	; 0x19e0 <__mulsf3_pse+0x8c>
    19f0:	fe 2b       	or	r31, r30
    19f2:	88 0f       	add	r24, r24
    19f4:	91 1d       	adc	r25, r1
    19f6:	96 95       	lsr	r25
    19f8:	87 95       	ror	r24
    19fa:	97 f9       	bld	r25, 7
    19fc:	08 95       	ret

000019fe <square>:
    19fe:	9b 01       	movw	r18, r22
    1a00:	ac 01       	movw	r20, r24
    1a02:	9a cf       	rjmp	.-204    	; 0x1938 <__mulsf3>

00001a04 <__fp_mpack>:
    1a04:	9f 3f       	cpi	r25, 0xFF	; 255
    1a06:	31 f0       	breq	.+12     	; 0x1a14 <__fp_mpack_finite+0xc>

00001a08 <__fp_mpack_finite>:
    1a08:	91 50       	subi	r25, 0x01	; 1
    1a0a:	20 f4       	brcc	.+8      	; 0x1a14 <__fp_mpack_finite+0xc>
    1a0c:	87 95       	ror	r24
    1a0e:	77 95       	ror	r23
    1a10:	67 95       	ror	r22
    1a12:	b7 95       	ror	r27
    1a14:	88 0f       	add	r24, r24
    1a16:	91 1d       	adc	r25, r1
    1a18:	96 95       	lsr	r25
    1a1a:	87 95       	ror	r24
    1a1c:	97 f9       	bld	r25, 7
    1a1e:	08 95       	ret

00001a20 <__fp_powsodd>:
    1a20:	9f 93       	push	r25
    1a22:	8f 93       	push	r24
    1a24:	7f 93       	push	r23
    1a26:	6f 93       	push	r22
    1a28:	ff 93       	push	r31
    1a2a:	ef 93       	push	r30
    1a2c:	9b 01       	movw	r18, r22
    1a2e:	ac 01       	movw	r20, r24
    1a30:	83 df       	rcall	.-250    	; 0x1938 <__mulsf3>
    1a32:	ef 91       	pop	r30
    1a34:	ff 91       	pop	r31
    1a36:	d3 de       	rcall	.-602    	; 0x17de <__fp_powser>
    1a38:	2f 91       	pop	r18
    1a3a:	3f 91       	pop	r19
    1a3c:	4f 91       	pop	r20
    1a3e:	5f 91       	pop	r21
    1a40:	7b cf       	rjmp	.-266    	; 0x1938 <__mulsf3>

00001a42 <__divmodhi4>:
    1a42:	97 fb       	bst	r25, 7
    1a44:	07 2e       	mov	r0, r23
    1a46:	16 f4       	brtc	.+4      	; 0x1a4c <__divmodhi4+0xa>
    1a48:	00 94       	com	r0
    1a4a:	06 d0       	rcall	.+12     	; 0x1a58 <__divmodhi4_neg1>
    1a4c:	77 fd       	sbrc	r23, 7
    1a4e:	08 d0       	rcall	.+16     	; 0x1a60 <__divmodhi4_neg2>
    1a50:	0b d0       	rcall	.+22     	; 0x1a68 <__udivmodhi4>
    1a52:	07 fc       	sbrc	r0, 7
    1a54:	05 d0       	rcall	.+10     	; 0x1a60 <__divmodhi4_neg2>
    1a56:	3e f4       	brtc	.+14     	; 0x1a66 <__divmodhi4_exit>

00001a58 <__divmodhi4_neg1>:
    1a58:	90 95       	com	r25
    1a5a:	81 95       	neg	r24
    1a5c:	9f 4f       	sbci	r25, 0xFF	; 255
    1a5e:	08 95       	ret

00001a60 <__divmodhi4_neg2>:
    1a60:	70 95       	com	r23
    1a62:	61 95       	neg	r22
    1a64:	7f 4f       	sbci	r23, 0xFF	; 255

00001a66 <__divmodhi4_exit>:
    1a66:	08 95       	ret

00001a68 <__udivmodhi4>:
    1a68:	aa 1b       	sub	r26, r26
    1a6a:	bb 1b       	sub	r27, r27
    1a6c:	51 e1       	ldi	r21, 0x11	; 17
    1a6e:	07 c0       	rjmp	.+14     	; 0x1a7e <__udivmodhi4_ep>

00001a70 <__udivmodhi4_loop>:
    1a70:	aa 1f       	adc	r26, r26
    1a72:	bb 1f       	adc	r27, r27
    1a74:	a6 17       	cp	r26, r22
    1a76:	b7 07       	cpc	r27, r23
    1a78:	10 f0       	brcs	.+4      	; 0x1a7e <__udivmodhi4_ep>
    1a7a:	a6 1b       	sub	r26, r22
    1a7c:	b7 0b       	sbc	r27, r23

00001a7e <__udivmodhi4_ep>:
    1a7e:	88 1f       	adc	r24, r24
    1a80:	99 1f       	adc	r25, r25
    1a82:	5a 95       	dec	r21
    1a84:	a9 f7       	brne	.-22     	; 0x1a70 <__udivmodhi4_loop>
    1a86:	80 95       	com	r24
    1a88:	90 95       	com	r25
    1a8a:	bc 01       	movw	r22, r24
    1a8c:	cd 01       	movw	r24, r26
    1a8e:	08 95       	ret

00001a90 <swapfunc>:
    1a90:	fb 01       	movw	r30, r22
    1a92:	dc 01       	movw	r26, r24
    1a94:	ca 01       	movw	r24, r20
    1a96:	2c 91       	ld	r18, X
    1a98:	30 81       	ld	r19, Z
    1a9a:	3d 93       	st	X+, r19
    1a9c:	21 93       	st	Z+, r18
    1a9e:	01 97       	sbiw	r24, 0x01	; 1
    1aa0:	18 16       	cp	r1, r24
    1aa2:	19 06       	cpc	r1, r25
    1aa4:	c4 f3       	brlt	.-16     	; 0x1a96 <swapfunc+0x6>
    1aa6:	08 95       	ret

00001aa8 <med3>:
    1aa8:	cf 92       	push	r12
    1aaa:	df 92       	push	r13
    1aac:	ef 92       	push	r14
    1aae:	ff 92       	push	r15
    1ab0:	0f 93       	push	r16
    1ab2:	1f 93       	push	r17
    1ab4:	cf 93       	push	r28
    1ab6:	df 93       	push	r29
    1ab8:	6c 01       	movw	r12, r24
    1aba:	8b 01       	movw	r16, r22
    1abc:	7a 01       	movw	r14, r20
    1abe:	e9 01       	movw	r28, r18
    1ac0:	f9 01       	movw	r30, r18
    1ac2:	09 95       	icall
    1ac4:	b7 01       	movw	r22, r14
    1ac6:	97 ff       	sbrs	r25, 7
    1ac8:	0c c0       	rjmp	.+24     	; 0x1ae2 <med3+0x3a>
    1aca:	c8 01       	movw	r24, r16
    1acc:	fe 01       	movw	r30, r28
    1ace:	09 95       	icall
    1ad0:	97 fd       	sbrc	r25, 7
    1ad2:	16 c0       	rjmp	.+44     	; 0x1b00 <med3+0x58>
    1ad4:	b7 01       	movw	r22, r14
    1ad6:	c6 01       	movw	r24, r12
    1ad8:	fe 01       	movw	r30, r28
    1ada:	09 95       	icall
    1adc:	97 ff       	sbrs	r25, 7
    1ade:	0d c0       	rjmp	.+26     	; 0x1afa <med3+0x52>
    1ae0:	0e c0       	rjmp	.+28     	; 0x1afe <med3+0x56>
    1ae2:	c8 01       	movw	r24, r16
    1ae4:	fe 01       	movw	r30, r28
    1ae6:	09 95       	icall
    1ae8:	18 16       	cp	r1, r24
    1aea:	19 06       	cpc	r1, r25
    1aec:	4c f0       	brlt	.+18     	; 0x1b00 <med3+0x58>
    1aee:	b7 01       	movw	r22, r14
    1af0:	c6 01       	movw	r24, r12
    1af2:	fe 01       	movw	r30, r28
    1af4:	09 95       	icall
    1af6:	97 ff       	sbrs	r25, 7
    1af8:	02 c0       	rjmp	.+4      	; 0x1afe <med3+0x56>
    1afa:	86 01       	movw	r16, r12
    1afc:	01 c0       	rjmp	.+2      	; 0x1b00 <med3+0x58>
    1afe:	87 01       	movw	r16, r14
    1b00:	c8 01       	movw	r24, r16
    1b02:	df 91       	pop	r29
    1b04:	cf 91       	pop	r28
    1b06:	1f 91       	pop	r17
    1b08:	0f 91       	pop	r16
    1b0a:	ff 90       	pop	r15
    1b0c:	ef 90       	pop	r14
    1b0e:	df 90       	pop	r13
    1b10:	cf 90       	pop	r12
    1b12:	08 95       	ret

00001b14 <qsort>:
    1b14:	2f 92       	push	r2
    1b16:	3f 92       	push	r3
    1b18:	4f 92       	push	r4
    1b1a:	5f 92       	push	r5
    1b1c:	6f 92       	push	r6
    1b1e:	7f 92       	push	r7
    1b20:	8f 92       	push	r8
    1b22:	9f 92       	push	r9
    1b24:	af 92       	push	r10
    1b26:	bf 92       	push	r11
    1b28:	cf 92       	push	r12
    1b2a:	df 92       	push	r13
    1b2c:	ef 92       	push	r14
    1b2e:	ff 92       	push	r15
    1b30:	0f 93       	push	r16
    1b32:	1f 93       	push	r17
    1b34:	cf 93       	push	r28
    1b36:	df 93       	push	r29
    1b38:	cd b7       	in	r28, 0x3d	; 61
    1b3a:	de b7       	in	r29, 0x3e	; 62
    1b3c:	28 97       	sbiw	r28, 0x08	; 8
    1b3e:	0f b6       	in	r0, 0x3f	; 63
    1b40:	f8 94       	cli
    1b42:	de bf       	out	0x3e, r29	; 62
    1b44:	0f be       	out	0x3f, r0	; 63
    1b46:	cd bf       	out	0x3d, r28	; 61
    1b48:	8c 01       	movw	r16, r24
    1b4a:	6b 01       	movw	r12, r22
    1b4c:	58 87       	std	Y+8, r21	; 0x08
    1b4e:	4f 83       	std	Y+7, r20	; 0x07
    1b50:	59 01       	movw	r10, r18
    1b52:	4b 83       	std	Y+3, r20	; 0x03
    1b54:	5c 83       	std	Y+4, r21	; 0x04
    1b56:	27 e0       	ldi	r18, 0x07	; 7
    1b58:	c2 16       	cp	r12, r18
    1b5a:	d1 04       	cpc	r13, r1
    1b5c:	88 f5       	brcc	.+98     	; 0x1bc0 <qsort+0xac>
    1b5e:	ef 80       	ldd	r14, Y+7	; 0x07
    1b60:	f8 84       	ldd	r15, Y+8	; 0x08
    1b62:	e0 0e       	add	r14, r16
    1b64:	f1 1e       	adc	r15, r17
    1b66:	4f 81       	ldd	r20, Y+7	; 0x07
    1b68:	58 85       	ldd	r21, Y+8	; 0x08
    1b6a:	c4 9e       	mul	r12, r20
    1b6c:	40 01       	movw	r8, r0
    1b6e:	c5 9e       	mul	r12, r21
    1b70:	90 0c       	add	r9, r0
    1b72:	d4 9e       	mul	r13, r20
    1b74:	90 0c       	add	r9, r0
    1b76:	11 24       	eor	r1, r1
    1b78:	80 0e       	add	r8, r16
    1b7a:	91 1e       	adc	r9, r17
    1b7c:	1b c0       	rjmp	.+54     	; 0x1bb4 <qsort+0xa0>
    1b7e:	4f 81       	ldd	r20, Y+7	; 0x07
    1b80:	58 85       	ldd	r21, Y+8	; 0x08
    1b82:	b6 01       	movw	r22, r12
    1b84:	c3 01       	movw	r24, r6
    1b86:	84 df       	rcall	.-248    	; 0x1a90 <swapfunc>
    1b88:	36 01       	movw	r6, r12
    1b8a:	06 15       	cp	r16, r6
    1b8c:	17 05       	cpc	r17, r7
    1b8e:	28 f0       	brcs	.+10     	; 0x1b9a <qsort+0x86>
    1b90:	6f 81       	ldd	r22, Y+7	; 0x07
    1b92:	78 85       	ldd	r23, Y+8	; 0x08
    1b94:	e6 0e       	add	r14, r22
    1b96:	f7 1e       	adc	r15, r23
    1b98:	0d c0       	rjmp	.+26     	; 0x1bb4 <qsort+0xa0>
    1b9a:	63 01       	movw	r12, r6
    1b9c:	8f 81       	ldd	r24, Y+7	; 0x07
    1b9e:	98 85       	ldd	r25, Y+8	; 0x08
    1ba0:	c8 1a       	sub	r12, r24
    1ba2:	d9 0a       	sbc	r13, r25
    1ba4:	b3 01       	movw	r22, r6
    1ba6:	c6 01       	movw	r24, r12
    1ba8:	f5 01       	movw	r30, r10
    1baa:	09 95       	icall
    1bac:	18 16       	cp	r1, r24
    1bae:	19 06       	cpc	r1, r25
    1bb0:	34 f3       	brlt	.-52     	; 0x1b7e <qsort+0x6a>
    1bb2:	ee cf       	rjmp	.-36     	; 0x1b90 <qsort+0x7c>
    1bb4:	e8 14       	cp	r14, r8
    1bb6:	f9 04       	cpc	r15, r9
    1bb8:	08 f0       	brcs	.+2      	; 0x1bbc <qsort+0xa8>
    1bba:	4d c1       	rjmp	.+666    	; 0x1e56 <qsort+0x342>
    1bbc:	37 01       	movw	r6, r14
    1bbe:	e5 cf       	rjmp	.-54     	; 0x1b8a <qsort+0x76>
    1bc0:	c6 01       	movw	r24, r12
    1bc2:	96 95       	lsr	r25
    1bc4:	87 95       	ror	r24
    1bc6:	2f 81       	ldd	r18, Y+7	; 0x07
    1bc8:	38 85       	ldd	r19, Y+8	; 0x08
    1bca:	82 9f       	mul	r24, r18
    1bcc:	70 01       	movw	r14, r0
    1bce:	83 9f       	mul	r24, r19
    1bd0:	f0 0c       	add	r15, r0
    1bd2:	92 9f       	mul	r25, r18
    1bd4:	f0 0c       	add	r15, r0
    1bd6:	11 24       	eor	r1, r1
    1bd8:	e0 0e       	add	r14, r16
    1bda:	f1 1e       	adc	r15, r17
    1bdc:	37 e0       	ldi	r19, 0x07	; 7
    1bde:	c3 16       	cp	r12, r19
    1be0:	d1 04       	cpc	r13, r1
    1be2:	09 f4       	brne	.+2      	; 0x1be6 <qsort+0xd2>
    1be4:	4c c0       	rjmp	.+152    	; 0x1c7e <qsort+0x16a>
    1be6:	c6 01       	movw	r24, r12
    1be8:	01 97       	sbiw	r24, 0x01	; 1
    1bea:	4f 81       	ldd	r20, Y+7	; 0x07
    1bec:	58 85       	ldd	r21, Y+8	; 0x08
    1bee:	84 9f       	mul	r24, r20
    1bf0:	40 01       	movw	r8, r0
    1bf2:	85 9f       	mul	r24, r21
    1bf4:	90 0c       	add	r9, r0
    1bf6:	94 9f       	mul	r25, r20
    1bf8:	90 0c       	add	r9, r0
    1bfa:	11 24       	eor	r1, r1
    1bfc:	80 0e       	add	r8, r16
    1bfe:	91 1e       	adc	r9, r17
    1c00:	59 e2       	ldi	r21, 0x29	; 41
    1c02:	c5 16       	cp	r12, r21
    1c04:	d1 04       	cpc	r13, r1
    1c06:	a0 f1       	brcs	.+104    	; 0x1c70 <qsort+0x15c>
    1c08:	c6 01       	movw	r24, r12
    1c0a:	23 e0       	ldi	r18, 0x03	; 3
    1c0c:	96 95       	lsr	r25
    1c0e:	87 95       	ror	r24
    1c10:	2a 95       	dec	r18
    1c12:	e1 f7       	brne	.-8      	; 0x1c0c <qsort+0xf8>
    1c14:	6f 81       	ldd	r22, Y+7	; 0x07
    1c16:	78 85       	ldd	r23, Y+8	; 0x08
    1c18:	86 9f       	mul	r24, r22
    1c1a:	30 01       	movw	r6, r0
    1c1c:	87 9f       	mul	r24, r23
    1c1e:	70 0c       	add	r7, r0
    1c20:	96 9f       	mul	r25, r22
    1c22:	70 0c       	add	r7, r0
    1c24:	11 24       	eor	r1, r1
    1c26:	13 01       	movw	r2, r6
    1c28:	22 0c       	add	r2, r2
    1c2a:	33 1c       	adc	r3, r3
    1c2c:	a8 01       	movw	r20, r16
    1c2e:	42 0d       	add	r20, r2
    1c30:	53 1d       	adc	r21, r3
    1c32:	b8 01       	movw	r22, r16
    1c34:	66 0d       	add	r22, r6
    1c36:	77 1d       	adc	r23, r7
    1c38:	95 01       	movw	r18, r10
    1c3a:	c8 01       	movw	r24, r16
    1c3c:	35 df       	rcall	.-406    	; 0x1aa8 <med3>
    1c3e:	2c 01       	movw	r4, r24
    1c40:	a7 01       	movw	r20, r14
    1c42:	46 0d       	add	r20, r6
    1c44:	57 1d       	adc	r21, r7
    1c46:	71 94       	neg	r7
    1c48:	61 94       	neg	r6
    1c4a:	71 08       	sbc	r7, r1
    1c4c:	95 01       	movw	r18, r10
    1c4e:	b7 01       	movw	r22, r14
    1c50:	c7 01       	movw	r24, r14
    1c52:	86 0d       	add	r24, r6
    1c54:	97 1d       	adc	r25, r7
    1c56:	28 df       	rcall	.-432    	; 0x1aa8 <med3>
    1c58:	7c 01       	movw	r14, r24
    1c5a:	b4 01       	movw	r22, r8
    1c5c:	66 0d       	add	r22, r6
    1c5e:	77 1d       	adc	r23, r7
    1c60:	95 01       	movw	r18, r10
    1c62:	a4 01       	movw	r20, r8
    1c64:	c4 01       	movw	r24, r8
    1c66:	82 19       	sub	r24, r2
    1c68:	93 09       	sbc	r25, r3
    1c6a:	1e df       	rcall	.-452    	; 0x1aa8 <med3>
    1c6c:	4c 01       	movw	r8, r24
    1c6e:	01 c0       	rjmp	.+2      	; 0x1c72 <qsort+0x15e>
    1c70:	28 01       	movw	r4, r16
    1c72:	95 01       	movw	r18, r10
    1c74:	a4 01       	movw	r20, r8
    1c76:	b7 01       	movw	r22, r14
    1c78:	c2 01       	movw	r24, r4
    1c7a:	16 df       	rcall	.-468    	; 0x1aa8 <med3>
    1c7c:	7c 01       	movw	r14, r24
    1c7e:	4b 81       	ldd	r20, Y+3	; 0x03
    1c80:	5c 81       	ldd	r21, Y+4	; 0x04
    1c82:	b7 01       	movw	r22, r14
    1c84:	c8 01       	movw	r24, r16
    1c86:	04 df       	rcall	.-504    	; 0x1a90 <swapfunc>
    1c88:	4f 80       	ldd	r4, Y+7	; 0x07
    1c8a:	58 84       	ldd	r5, Y+8	; 0x08
    1c8c:	40 0e       	add	r4, r16
    1c8e:	51 1e       	adc	r5, r17
    1c90:	c6 01       	movw	r24, r12
    1c92:	01 97       	sbiw	r24, 0x01	; 1
    1c94:	ef 81       	ldd	r30, Y+7	; 0x07
    1c96:	f8 85       	ldd	r31, Y+8	; 0x08
    1c98:	8e 9f       	mul	r24, r30
    1c9a:	30 01       	movw	r6, r0
    1c9c:	8f 9f       	mul	r24, r31
    1c9e:	70 0c       	add	r7, r0
    1ca0:	9e 9f       	mul	r25, r30
    1ca2:	70 0c       	add	r7, r0
    1ca4:	11 24       	eor	r1, r1
    1ca6:	60 0e       	add	r6, r16
    1ca8:	71 1e       	adc	r7, r17
    1caa:	43 01       	movw	r8, r6
    1cac:	72 01       	movw	r14, r4
    1cae:	12 01       	movw	r2, r4
    1cb0:	20 e0       	ldi	r18, 0x00	; 0
    1cb2:	30 e0       	ldi	r19, 0x00	; 0
    1cb4:	11 c0       	rjmp	.+34     	; 0x1cd8 <qsort+0x1c4>
    1cb6:	89 2b       	or	r24, r25
    1cb8:	59 f4       	brne	.+22     	; 0x1cd0 <qsort+0x1bc>
    1cba:	4b 81       	ldd	r20, Y+3	; 0x03
    1cbc:	5c 81       	ldd	r21, Y+4	; 0x04
    1cbe:	b7 01       	movw	r22, r14
    1cc0:	c1 01       	movw	r24, r2
    1cc2:	e6 de       	rcall	.-564    	; 0x1a90 <swapfunc>
    1cc4:	2f 81       	ldd	r18, Y+7	; 0x07
    1cc6:	38 85       	ldd	r19, Y+8	; 0x08
    1cc8:	22 0e       	add	r2, r18
    1cca:	33 1e       	adc	r3, r19
    1ccc:	21 e0       	ldi	r18, 0x01	; 1
    1cce:	30 e0       	ldi	r19, 0x00	; 0
    1cd0:	4f 81       	ldd	r20, Y+7	; 0x07
    1cd2:	58 85       	ldd	r21, Y+8	; 0x08
    1cd4:	e4 0e       	add	r14, r20
    1cd6:	f5 1e       	adc	r15, r21
    1cd8:	8e 14       	cp	r8, r14
    1cda:	9f 04       	cpc	r9, r15
    1cdc:	d8 f0       	brcs	.+54     	; 0x1d14 <qsort+0x200>
    1cde:	b8 01       	movw	r22, r16
    1ce0:	c7 01       	movw	r24, r14
    1ce2:	2d 83       	std	Y+5, r18	; 0x05
    1ce4:	3e 83       	std	Y+6, r19	; 0x06
    1ce6:	f5 01       	movw	r30, r10
    1ce8:	09 95       	icall
    1cea:	2d 81       	ldd	r18, Y+5	; 0x05
    1cec:	3e 81       	ldd	r19, Y+6	; 0x06
    1cee:	18 16       	cp	r1, r24
    1cf0:	19 06       	cpc	r1, r25
    1cf2:	84 f0       	brlt	.+32     	; 0x1d14 <qsort+0x200>
    1cf4:	e0 cf       	rjmp	.-64     	; 0x1cb6 <qsort+0x1a2>
    1cf6:	89 2b       	or	r24, r25
    1cf8:	59 f4       	brne	.+22     	; 0x1d10 <qsort+0x1fc>
    1cfa:	4b 81       	ldd	r20, Y+3	; 0x03
    1cfc:	5c 81       	ldd	r21, Y+4	; 0x04
    1cfe:	b3 01       	movw	r22, r6
    1d00:	c4 01       	movw	r24, r8
    1d02:	c6 de       	rcall	.-628    	; 0x1a90 <swapfunc>
    1d04:	2f 81       	ldd	r18, Y+7	; 0x07
    1d06:	38 85       	ldd	r19, Y+8	; 0x08
    1d08:	62 1a       	sub	r6, r18
    1d0a:	73 0a       	sbc	r7, r19
    1d0c:	21 e0       	ldi	r18, 0x01	; 1
    1d0e:	30 e0       	ldi	r19, 0x00	; 0
    1d10:	89 80       	ldd	r8, Y+1	; 0x01
    1d12:	9a 80       	ldd	r9, Y+2	; 0x02
    1d14:	8e 14       	cp	r8, r14
    1d16:	9f 04       	cpc	r9, r15
    1d18:	08 f4       	brcc	.+2      	; 0x1d1c <qsort+0x208>
    1d1a:	90 c0       	rjmp	.+288    	; 0x1e3c <qsort+0x328>
    1d1c:	b8 01       	movw	r22, r16
    1d1e:	c4 01       	movw	r24, r8
    1d20:	2d 83       	std	Y+5, r18	; 0x05
    1d22:	3e 83       	std	Y+6, r19	; 0x06
    1d24:	f5 01       	movw	r30, r10
    1d26:	09 95       	icall
    1d28:	a4 01       	movw	r20, r8
    1d2a:	6f 81       	ldd	r22, Y+7	; 0x07
    1d2c:	78 85       	ldd	r23, Y+8	; 0x08
    1d2e:	46 1b       	sub	r20, r22
    1d30:	57 0b       	sbc	r21, r23
    1d32:	5a 83       	std	Y+2, r21	; 0x02
    1d34:	49 83       	std	Y+1, r20	; 0x01
    1d36:	2d 81       	ldd	r18, Y+5	; 0x05
    1d38:	3e 81       	ldd	r19, Y+6	; 0x06
    1d3a:	97 ff       	sbrs	r25, 7
    1d3c:	dc cf       	rjmp	.-72     	; 0x1cf6 <qsort+0x1e2>
    1d3e:	70 c0       	rjmp	.+224    	; 0x1e20 <qsort+0x30c>
    1d40:	48 01       	movw	r8, r16
    1d42:	88 0e       	add	r8, r24
    1d44:	99 1e       	adc	r9, r25
    1d46:	1b c0       	rjmp	.+54     	; 0x1d7e <qsort+0x26a>
    1d48:	4b 81       	ldd	r20, Y+3	; 0x03
    1d4a:	5c 81       	ldd	r21, Y+4	; 0x04
    1d4c:	b6 01       	movw	r22, r12
    1d4e:	c7 01       	movw	r24, r14
    1d50:	9f de       	rcall	.-706    	; 0x1a90 <swapfunc>
    1d52:	76 01       	movw	r14, r12
    1d54:	0e 15       	cp	r16, r14
    1d56:	1f 05       	cpc	r17, r15
    1d58:	28 f0       	brcs	.+10     	; 0x1d64 <qsort+0x250>
    1d5a:	8f 81       	ldd	r24, Y+7	; 0x07
    1d5c:	98 85       	ldd	r25, Y+8	; 0x08
    1d5e:	48 0e       	add	r4, r24
    1d60:	59 1e       	adc	r5, r25
    1d62:	0d c0       	rjmp	.+26     	; 0x1d7e <qsort+0x26a>
    1d64:	67 01       	movw	r12, r14
    1d66:	ef 81       	ldd	r30, Y+7	; 0x07
    1d68:	f8 85       	ldd	r31, Y+8	; 0x08
    1d6a:	ce 1a       	sub	r12, r30
    1d6c:	df 0a       	sbc	r13, r31
    1d6e:	b7 01       	movw	r22, r14
    1d70:	c6 01       	movw	r24, r12
    1d72:	f5 01       	movw	r30, r10
    1d74:	09 95       	icall
    1d76:	18 16       	cp	r1, r24
    1d78:	19 06       	cpc	r1, r25
    1d7a:	34 f3       	brlt	.-52     	; 0x1d48 <qsort+0x234>
    1d7c:	ee cf       	rjmp	.-36     	; 0x1d5a <qsort+0x246>
    1d7e:	48 14       	cp	r4, r8
    1d80:	59 04       	cpc	r5, r9
    1d82:	08 f0       	brcs	.+2      	; 0x1d86 <qsort+0x272>
    1d84:	68 c0       	rjmp	.+208    	; 0x1e56 <qsort+0x342>
    1d86:	72 01       	movw	r14, r4
    1d88:	e5 cf       	rjmp	.-54     	; 0x1d54 <qsort+0x240>
    1d8a:	98 01       	movw	r18, r16
    1d8c:	28 0f       	add	r18, r24
    1d8e:	39 1f       	adc	r19, r25
    1d90:	3a 83       	std	Y+2, r19	; 0x02
    1d92:	29 83       	std	Y+1, r18	; 0x01
    1d94:	27 01       	movw	r4, r14
    1d96:	42 18       	sub	r4, r2
    1d98:	53 08       	sbc	r5, r3
    1d9a:	a1 01       	movw	r20, r2
    1d9c:	40 1b       	sub	r20, r16
    1d9e:	51 0b       	sbc	r21, r17
    1da0:	44 16       	cp	r4, r20
    1da2:	55 06       	cpc	r5, r21
    1da4:	0c f4       	brge	.+2      	; 0x1da8 <qsort+0x294>
    1da6:	a2 01       	movw	r20, r4
    1da8:	14 16       	cp	r1, r20
    1daa:	15 06       	cpc	r1, r21
    1dac:	2c f4       	brge	.+10     	; 0x1db8 <qsort+0x2a4>
    1dae:	b7 01       	movw	r22, r14
    1db0:	64 1b       	sub	r22, r20
    1db2:	75 0b       	sbc	r23, r21
    1db4:	c8 01       	movw	r24, r16
    1db6:	6c de       	rcall	.-808    	; 0x1a90 <swapfunc>
    1db8:	63 01       	movw	r12, r6
    1dba:	c8 18       	sub	r12, r8
    1dbc:	d9 08       	sbc	r13, r9
    1dbe:	49 81       	ldd	r20, Y+1	; 0x01
    1dc0:	5a 81       	ldd	r21, Y+2	; 0x02
    1dc2:	46 19       	sub	r20, r6
    1dc4:	57 09       	sbc	r21, r7
    1dc6:	6f 81       	ldd	r22, Y+7	; 0x07
    1dc8:	78 85       	ldd	r23, Y+8	; 0x08
    1dca:	46 1b       	sub	r20, r22
    1dcc:	57 0b       	sbc	r21, r23
    1dce:	c4 16       	cp	r12, r20
    1dd0:	d5 06       	cpc	r13, r21
    1dd2:	08 f4       	brcc	.+2      	; 0x1dd6 <qsort+0x2c2>
    1dd4:	a6 01       	movw	r20, r12
    1dd6:	14 16       	cp	r1, r20
    1dd8:	15 06       	cpc	r1, r21
    1dda:	34 f4       	brge	.+12     	; 0x1de8 <qsort+0x2d4>
    1ddc:	69 81       	ldd	r22, Y+1	; 0x01
    1dde:	7a 81       	ldd	r23, Y+2	; 0x02
    1de0:	64 1b       	sub	r22, r20
    1de2:	75 0b       	sbc	r23, r21
    1de4:	c7 01       	movw	r24, r14
    1de6:	54 de       	rcall	.-856    	; 0x1a90 <swapfunc>
    1de8:	8f 81       	ldd	r24, Y+7	; 0x07
    1dea:	98 85       	ldd	r25, Y+8	; 0x08
    1dec:	84 15       	cp	r24, r4
    1dee:	95 05       	cpc	r25, r5
    1df0:	48 f4       	brcc	.+18     	; 0x1e04 <qsort+0x2f0>
    1df2:	c2 01       	movw	r24, r4
    1df4:	6f 81       	ldd	r22, Y+7	; 0x07
    1df6:	78 85       	ldd	r23, Y+8	; 0x08
    1df8:	37 de       	rcall	.-914    	; 0x1a68 <__udivmodhi4>
    1dfa:	95 01       	movw	r18, r10
    1dfc:	4f 81       	ldd	r20, Y+7	; 0x07
    1dfe:	58 85       	ldd	r21, Y+8	; 0x08
    1e00:	c8 01       	movw	r24, r16
    1e02:	88 de       	rcall	.-752    	; 0x1b14 <qsort>
    1e04:	ef 81       	ldd	r30, Y+7	; 0x07
    1e06:	f8 85       	ldd	r31, Y+8	; 0x08
    1e08:	ec 15       	cp	r30, r12
    1e0a:	fd 05       	cpc	r31, r13
    1e0c:	20 f5       	brcc	.+72     	; 0x1e56 <qsort+0x342>
    1e0e:	09 81       	ldd	r16, Y+1	; 0x01
    1e10:	1a 81       	ldd	r17, Y+2	; 0x02
    1e12:	0c 19       	sub	r16, r12
    1e14:	1d 09       	sbc	r17, r13
    1e16:	c6 01       	movw	r24, r12
    1e18:	bf 01       	movw	r22, r30
    1e1a:	26 de       	rcall	.-948    	; 0x1a68 <__udivmodhi4>
    1e1c:	6b 01       	movw	r12, r22
    1e1e:	9b ce       	rjmp	.-714    	; 0x1b56 <qsort+0x42>
    1e20:	4b 81       	ldd	r20, Y+3	; 0x03
    1e22:	5c 81       	ldd	r21, Y+4	; 0x04
    1e24:	b4 01       	movw	r22, r8
    1e26:	c7 01       	movw	r24, r14
    1e28:	33 de       	rcall	.-922    	; 0x1a90 <swapfunc>
    1e2a:	2f 81       	ldd	r18, Y+7	; 0x07
    1e2c:	38 85       	ldd	r19, Y+8	; 0x08
    1e2e:	e2 0e       	add	r14, r18
    1e30:	f3 1e       	adc	r15, r19
    1e32:	89 80       	ldd	r8, Y+1	; 0x01
    1e34:	9a 80       	ldd	r9, Y+2	; 0x02
    1e36:	21 e0       	ldi	r18, 0x01	; 1
    1e38:	30 e0       	ldi	r19, 0x00	; 0
    1e3a:	4e cf       	rjmp	.-356    	; 0x1cd8 <qsort+0x1c4>
    1e3c:	4f 81       	ldd	r20, Y+7	; 0x07
    1e3e:	58 85       	ldd	r21, Y+8	; 0x08
    1e40:	c4 9e       	mul	r12, r20
    1e42:	c0 01       	movw	r24, r0
    1e44:	c5 9e       	mul	r12, r21
    1e46:	90 0d       	add	r25, r0
    1e48:	d4 9e       	mul	r13, r20
    1e4a:	90 0d       	add	r25, r0
    1e4c:	11 24       	eor	r1, r1
    1e4e:	23 2b       	or	r18, r19
    1e50:	09 f0       	breq	.+2      	; 0x1e54 <qsort+0x340>
    1e52:	9b cf       	rjmp	.-202    	; 0x1d8a <qsort+0x276>
    1e54:	75 cf       	rjmp	.-278    	; 0x1d40 <qsort+0x22c>
    1e56:	28 96       	adiw	r28, 0x08	; 8
    1e58:	0f b6       	in	r0, 0x3f	; 63
    1e5a:	f8 94       	cli
    1e5c:	de bf       	out	0x3e, r29	; 62
    1e5e:	0f be       	out	0x3f, r0	; 63
    1e60:	cd bf       	out	0x3d, r28	; 61
    1e62:	df 91       	pop	r29
    1e64:	cf 91       	pop	r28
    1e66:	1f 91       	pop	r17
    1e68:	0f 91       	pop	r16
    1e6a:	ff 90       	pop	r15
    1e6c:	ef 90       	pop	r14
    1e6e:	df 90       	pop	r13
    1e70:	cf 90       	pop	r12
    1e72:	bf 90       	pop	r11
    1e74:	af 90       	pop	r10
    1e76:	9f 90       	pop	r9
    1e78:	8f 90       	pop	r8
    1e7a:	7f 90       	pop	r7
    1e7c:	6f 90       	pop	r6
    1e7e:	5f 90       	pop	r5
    1e80:	4f 90       	pop	r4
    1e82:	3f 90       	pop	r3
    1e84:	2f 90       	pop	r2
    1e86:	08 95       	ret

00001e88 <_exit>:
    1e88:	f8 94       	cli

00001e8a <__stop_program>:
    1e8a:	ff cf       	rjmp	.-2      	; 0x1e8a <__stop_program>
