
Navigationsenheten.elf:     file format elf32-avr

Sections:
Idx Name          Size      VMA       LMA       File off  Algn
  0 .data         0000111e  00800100  00000c3e  00000cd2  2**0
                  CONTENTS, ALLOC, LOAD, DATA
  1 .text         00000c3e  00000000  00000000  00000094  2**1
                  CONTENTS, ALLOC, LOAD, READONLY, CODE
  2 .bss          00000639  0080121e  0080121e  00001df0  2**0
                  ALLOC
  3 .stab         00001674  00000000  00000000  00001df0  2**2
                  CONTENTS, READONLY, DEBUGGING
  4 .stabstr      00000598  00000000  00000000  00003464  2**0
                  CONTENTS, READONLY, DEBUGGING
  5 .comment      0000002f  00000000  00000000  000039fc  2**0
                  CONTENTS, READONLY
  6 .debug_aranges 00000288  00000000  00000000  00003a2b  2**0
                  CONTENTS, READONLY, DEBUGGING
  7 .debug_info   00001ee1  00000000  00000000  00003cb3  2**0
                  CONTENTS, READONLY, DEBUGGING
  8 .debug_abbrev 00000812  00000000  00000000  00005b94  2**0
                  CONTENTS, READONLY, DEBUGGING
  9 .debug_line   00001741  00000000  00000000  000063a6  2**0
                  CONTENTS, READONLY, DEBUGGING
 10 .debug_frame  00000720  00000000  00000000  00007ae8  2**2
                  CONTENTS, READONLY, DEBUGGING
 11 .debug_str    000007b8  00000000  00000000  00008208  2**0
                  CONTENTS, READONLY, DEBUGGING
 12 .debug_loc    0000154e  00000000  00000000  000089c0  2**0
                  CONTENTS, READONLY, DEBUGGING
 13 .debug_ranges 00000250  00000000  00000000  00009f0e  2**0
                  CONTENTS, READONLY, DEBUGGING

Disassembly of section .text:

00000000 <__vectors>:
   0:	45 c0       	rjmp	.+138    	; 0x8c <__ctors_end>
   2:	00 00       	nop
   4:	60 c0       	rjmp	.+192    	; 0xc6 <__bad_interrupt>
   6:	00 00       	nop
   8:	5e c0       	rjmp	.+188    	; 0xc6 <__bad_interrupt>
   a:	00 00       	nop
   c:	5c c0       	rjmp	.+184    	; 0xc6 <__bad_interrupt>
   e:	00 00       	nop
  10:	5a c0       	rjmp	.+180    	; 0xc6 <__bad_interrupt>
  12:	00 00       	nop
  14:	58 c0       	rjmp	.+176    	; 0xc6 <__bad_interrupt>
  16:	00 00       	nop
  18:	56 c0       	rjmp	.+172    	; 0xc6 <__bad_interrupt>
  1a:	00 00       	nop
  1c:	54 c0       	rjmp	.+168    	; 0xc6 <__bad_interrupt>
  1e:	00 00       	nop
  20:	52 c0       	rjmp	.+164    	; 0xc6 <__bad_interrupt>
  22:	00 00       	nop
  24:	fa c0       	rjmp	.+500    	; 0x21a <__vector_9>
  26:	00 00       	nop
  28:	4e c0       	rjmp	.+156    	; 0xc6 <__bad_interrupt>
  2a:	00 00       	nop
  2c:	4c c0       	rjmp	.+152    	; 0xc6 <__bad_interrupt>
  2e:	00 00       	nop
  30:	4a c0       	rjmp	.+148    	; 0xc6 <__bad_interrupt>
  32:	00 00       	nop
  34:	e4 c0       	rjmp	.+456    	; 0x1fe <__vector_13>
  36:	00 00       	nop
  38:	46 c0       	rjmp	.+140    	; 0xc6 <__bad_interrupt>
  3a:	00 00       	nop
  3c:	44 c0       	rjmp	.+136    	; 0xc6 <__bad_interrupt>
  3e:	00 00       	nop
  40:	42 c0       	rjmp	.+132    	; 0xc6 <__bad_interrupt>
  42:	00 00       	nop
  44:	40 c0       	rjmp	.+128    	; 0xc6 <__bad_interrupt>
  46:	00 00       	nop
  48:	3e c0       	rjmp	.+124    	; 0xc6 <__bad_interrupt>
  4a:	00 00       	nop
  4c:	3c c0       	rjmp	.+120    	; 0xc6 <__bad_interrupt>
  4e:	00 00       	nop
  50:	4c c4       	rjmp	.+2200   	; 0x8ea <__vector_20>
  52:	00 00       	nop
  54:	38 c0       	rjmp	.+112    	; 0xc6 <__bad_interrupt>
  56:	00 00       	nop
  58:	36 c0       	rjmp	.+108    	; 0xc6 <__bad_interrupt>
  5a:	00 00       	nop
  5c:	34 c0       	rjmp	.+104    	; 0xc6 <__bad_interrupt>
  5e:	00 00       	nop
  60:	32 c0       	rjmp	.+100    	; 0xc6 <__bad_interrupt>
  62:	00 00       	nop
  64:	30 c0       	rjmp	.+96     	; 0xc6 <__bad_interrupt>
  66:	00 00       	nop
  68:	ee c1       	rjmp	.+988    	; 0x446 <__vector_26>
  6a:	00 00       	nop
  6c:	2c c0       	rjmp	.+88     	; 0xc6 <__bad_interrupt>
  6e:	00 00       	nop
  70:	2a c0       	rjmp	.+84     	; 0xc6 <__bad_interrupt>
  72:	00 00       	nop
  74:	28 c0       	rjmp	.+80     	; 0xc6 <__bad_interrupt>
  76:	00 00       	nop
  78:	26 c0       	rjmp	.+76     	; 0xc6 <__bad_interrupt>
  7a:	00 00       	nop
  7c:	24 c0       	rjmp	.+72     	; 0xc6 <__bad_interrupt>
  7e:	00 00       	nop
  80:	22 c0       	rjmp	.+68     	; 0xc6 <__bad_interrupt>
  82:	00 00       	nop
  84:	20 c0       	rjmp	.+64     	; 0xc6 <__bad_interrupt>
  86:	00 00       	nop
  88:	1e c0       	rjmp	.+60     	; 0xc6 <__bad_interrupt>
	...

0000008c <__ctors_end>:
  8c:	11 24       	eor	r1, r1
  8e:	1f be       	out	0x3f, r1	; 63
  90:	cf ef       	ldi	r28, 0xFF	; 255
  92:	d0 e4       	ldi	r29, 0x40	; 64
  94:	de bf       	out	0x3e, r29	; 62
  96:	cd bf       	out	0x3d, r28	; 61

00000098 <__do_copy_data>:
  98:	12 e1       	ldi	r17, 0x12	; 18
  9a:	a0 e0       	ldi	r26, 0x00	; 0
  9c:	b1 e0       	ldi	r27, 0x01	; 1
  9e:	ee e3       	ldi	r30, 0x3E	; 62
  a0:	fc e0       	ldi	r31, 0x0C	; 12
  a2:	00 e0       	ldi	r16, 0x00	; 0
  a4:	0b bf       	out	0x3b, r16	; 59
  a6:	02 c0       	rjmp	.+4      	; 0xac <__do_copy_data+0x14>
  a8:	07 90       	elpm	r0, Z+
  aa:	0d 92       	st	X+, r0
  ac:	ae 31       	cpi	r26, 0x1E	; 30
  ae:	b1 07       	cpc	r27, r17
  b0:	d9 f7       	brne	.-10     	; 0xa8 <__do_copy_data+0x10>

000000b2 <__do_clear_bss>:
  b2:	28 e1       	ldi	r18, 0x18	; 24
  b4:	ae e1       	ldi	r26, 0x1E	; 30
  b6:	b2 e1       	ldi	r27, 0x12	; 18
  b8:	01 c0       	rjmp	.+2      	; 0xbc <.do_clear_bss_start>

000000ba <.do_clear_bss_loop>:
  ba:	1d 92       	st	X+, r1

000000bc <.do_clear_bss_start>:
  bc:	a7 35       	cpi	r26, 0x57	; 87
  be:	b2 07       	cpc	r27, r18
  c0:	e1 f7       	brne	.-8      	; 0xba <.do_clear_bss_loop>
  c2:	69 d0       	rcall	.+210    	; 0x196 <main>
  c4:	ba c5       	rjmp	.+2932   	; 0xc3a <_exit>

000000c6 <__bad_interrupt>:
  c6:	9c cf       	rjmp	.-200    	; 0x0 <__vectors>

000000c8 <set_counter_1>:
	TCNT2 = 0;
}

void set_counter_1(uint16_t delay)
{
	delay = 15.625 * delay;
  c8:	bc 01       	movw	r22, r24
  ca:	80 e0       	ldi	r24, 0x00	; 0
  cc:	90 e0       	ldi	r25, 0x00	; 0
  ce:	c4 d4       	rcall	.+2440   	; 0xa58 <__floatunsisf>
  d0:	20 e0       	ldi	r18, 0x00	; 0
  d2:	30 e0       	ldi	r19, 0x00	; 0
  d4:	4a e7       	ldi	r20, 0x7A	; 122
  d6:	51 e4       	ldi	r21, 0x41	; 65
  d8:	25 d5       	rcall	.+2634   	; 0xb24 <__mulsf3>
  da:	92 d4       	rcall	.+2340   	; 0xa00 <__fixunssfsi>
	OCR1A = delay;
  dc:	70 93 89 00 	sts	0x0089, r23
  e0:	60 93 88 00 	sts	0x0088, r22
  e4:	08 95       	ret

000000e6 <set_counter_2>:
}

void set_counter_2(uint16_t delay)
{
	delay = 15.625 * delay;
  e6:	bc 01       	movw	r22, r24
  e8:	80 e0       	ldi	r24, 0x00	; 0
  ea:	90 e0       	ldi	r25, 0x00	; 0
  ec:	b5 d4       	rcall	.+2410   	; 0xa58 <__floatunsisf>
  ee:	20 e0       	ldi	r18, 0x00	; 0
  f0:	30 e0       	ldi	r19, 0x00	; 0
  f2:	4a e7       	ldi	r20, 0x7A	; 122
  f4:	51 e4       	ldi	r21, 0x41	; 65
  f6:	16 d5       	rcall	.+2604   	; 0xb24 <__mulsf3>
  f8:	83 d4       	rcall	.+2310   	; 0xa00 <__fixunssfsi>
	OCR1A = delay;
  fa:	70 93 89 00 	sts	0x0089, r23
  fe:	60 93 88 00 	sts	0x0088, r22
 102:	08 95       	ret

00000104 <init_counters>:

//---------------------------------------COUNTERS/TIMERS-----------
void init_counters()
{
	// WGMn3:0 = 4 (OCRnA) or 12 (OCRn), where top value is read from.
	TCCR1B |= 0b00000101; // clock 1, prescaler 1024
 104:	e1 e8       	ldi	r30, 0x81	; 129
 106:	f0 e0       	ldi	r31, 0x00	; 0
 108:	80 81       	ld	r24, Z
 10a:	85 60       	ori	r24, 0x05	; 5
 10c:	80 83       	st	Z, r24
	TCCR2B |= 0b00000101; // clock 2, prescaler 1024
 10e:	e1 eb       	ldi	r30, 0xB1	; 177
 110:	f0 e0       	ldi	r31, 0x00	; 0
 112:	80 81       	ld	r24, Z
 114:	85 60       	ori	r24, 0x05	; 5
 116:	80 83       	st	Z, r24
	
	// standardvalue for interrupt is 1000ms
	set_counter_1(1000);
 118:	88 ee       	ldi	r24, 0xE8	; 232
 11a:	93 e0       	ldi	r25, 0x03	; 3
 11c:	d5 df       	rcall	.-86     	; 0xc8 <set_counter_1>
	set_counter_2(1000);
 11e:	88 ee       	ldi	r24, 0xE8	; 232
 120:	93 e0       	ldi	r25, 0x03	; 3
 122:	e1 df       	rcall	.-62     	; 0xe6 <set_counter_2>
	
	TIMSK1 |= 0b00000010; // Enable interrupts when OCF1A, in TIFR1, is set.
 124:	ef e6       	ldi	r30, 0x6F	; 111
 126:	f0 e0       	ldi	r31, 0x00	; 0
 128:	80 81       	ld	r24, Z
 12a:	82 60       	ori	r24, 0x02	; 2
 12c:	80 83       	st	Z, r24
	TIMSK2 |= 0b00000010; // Enable interrupts when OCF2A, in TIFR2, is set.
 12e:	e0 e7       	ldi	r30, 0x70	; 112
 130:	f0 e0       	ldi	r31, 0x00	; 0
 132:	80 81       	ld	r24, Z
 134:	82 60       	ori	r24, 0x02	; 2
 136:	80 83       	st	Z, r24
	// OCF1A (or ICFn) Flag, in TIFR1, can be used to generate interrupts.
	TCNT1 = 0;
 138:	10 92 85 00 	sts	0x0085, r1
 13c:	10 92 84 00 	sts	0x0084, r1
	TCNT2 = 0;
 140:	10 92 b2 00 	sts	0x00B2, r1
 144:	08 95       	ret

00000146 <FifoDataLength>:

#include <avr/io.h>
#include "fifo.h"

uint8_t FifoDataLength (struct fifo *fifo)
{
 146:	fc 01       	movw	r30, r24
	return (fifo->write - fifo->read) & (fifo->size -1);
 148:	90 81       	ld	r25, Z
 14a:	91 50       	subi	r25, 0x01	; 1
 14c:	84 81       	ldd	r24, Z+4	; 0x04
 14e:	22 81       	ldd	r18, Z+2	; 0x02
 150:	82 1b       	sub	r24, r18
};
 152:	89 23       	and	r24, r25
 154:	08 95       	ret

00000156 <FifoWrite>:

uint8_t FifoWrite (struct fifo *fifo, unsigned char data)
{
 156:	1f 93       	push	r17
 158:	cf 93       	push	r28
 15a:	df 93       	push	r29
 15c:	ec 01       	movw	r28, r24
 15e:	16 2f       	mov	r17, r22
	// fifo full : error
	if (FifoDataLength(fifo) == (fifo->size - 1))
 160:	f2 df       	rcall	.-28     	; 0x146 <FifoDataLength>
 162:	28 81       	ld	r18, Y
 164:	39 81       	ldd	r19, Y+1	; 0x01
 166:	21 50       	subi	r18, 0x01	; 1
 168:	31 09       	sbc	r19, r1
 16a:	90 e0       	ldi	r25, 0x00	; 0
 16c:	82 17       	cp	r24, r18
 16e:	93 07       	cpc	r25, r19
 170:	69 f0       	breq	.+26     	; 0x18c <FifoWrite+0x36>
	{
		return 1;
	}
	// write data & increment write pointer
	fifo->buffer[fifo->write] = data;
 172:	8c 81       	ldd	r24, Y+4	; 0x04
 174:	9d 81       	ldd	r25, Y+5	; 0x05
 176:	fe 01       	movw	r30, r28
 178:	e8 0f       	add	r30, r24
 17a:	f9 1f       	adc	r31, r25
 17c:	16 83       	std	Z+6, r17	; 0x06
	fifo->write = (fifo->write + 1) & (fifo->size - 1);
 17e:	01 96       	adiw	r24, 0x01	; 1
 180:	28 23       	and	r18, r24
 182:	39 23       	and	r19, r25
 184:	3d 83       	std	Y+5, r19	; 0x05
 186:	2c 83       	std	Y+4, r18	; 0x04
	return 0;
 188:	80 e0       	ldi	r24, 0x00	; 0
 18a:	01 c0       	rjmp	.+2      	; 0x18e <FifoWrite+0x38>
uint8_t FifoWrite (struct fifo *fifo, unsigned char data)
{
	// fifo full : error
	if (FifoDataLength(fifo) == (fifo->size - 1))
	{
		return 1;
 18c:	81 e0       	ldi	r24, 0x01	; 1
	}
	// write data & increment write pointer
	fifo->buffer[fifo->write] = data;
	fifo->write = (fifo->write + 1) & (fifo->size - 1);
	return 0;
};
 18e:	df 91       	pop	r29
 190:	cf 91       	pop	r28
 192:	1f 91       	pop	r17
 194:	08 95       	ret

00000196 <main>:
#include "counter.h"


int main(void)
{
	USART_init();
 196:	b6 d2       	rcall	.+1388   	; 0x704 <USART_init>
	sei();
 198:	78 94       	sei
	TWI_init(ST_ADRESS);
 19a:	80 e2       	ldi	r24, 0x20	; 32
 19c:	e1 d0       	rcall	.+450    	; 0x360 <TWI_init>
	init_counters();
 19e:	b2 df       	rcall	.-156    	; 0x104 <init_counters>
	DDRA |= (1<<PORTA0 | 1<<PORTA1);
 1a0:	81 b1       	in	r24, 0x01	; 1
 1a2:	83 60       	ori	r24, 0x03	; 3
 1a4:	81 b9       	out	0x01, r24	; 1
		PORTA &= ~(1<<PORTA0);
		_delay_ms(1000);
		USART_SendMessage("apa");
		TWI_send_string(S_ADRESS, "Hue");
		if(TWI_command_flag())
			PORTA ^= (1<<PORTA0);
 1a6:	c1 e0       	ldi	r28, 0x01	; 1
	#else
		//round up by default
		__ticks_dc = (uint32_t)(ceil(fabs(__tmp)));
	#endif

	__builtin_avr_delay_cycles(__ticks_dc);
 1a8:	2f ef       	ldi	r18, 0xFF	; 255
 1aa:	89 e6       	ldi	r24, 0x69	; 105
 1ac:	98 e1       	ldi	r25, 0x18	; 24
 1ae:	21 50       	subi	r18, 0x01	; 1
 1b0:	80 40       	sbci	r24, 0x00	; 0
 1b2:	90 40       	sbci	r25, 0x00	; 0
 1b4:	e1 f7       	brne	.-8      	; 0x1ae <main+0x18>
 1b6:	00 c0       	rjmp	.+0      	; 0x1b8 <main+0x22>
 1b8:	00 00       	nop
	DDRA |= (1<<PORTA0 | 1<<PORTA1);
    while(1)
    {
		_delay_ms(500);
		//TWI_send_autonom_settings(C_ADRESS, 4);
        PORTA |= (1<<PORTA0);
 1ba:	10 9a       	sbi	0x02, 0	; 2
 1bc:	2f ef       	ldi	r18, 0xFF	; 255
 1be:	83 ed       	ldi	r24, 0xD3	; 211
 1c0:	90 e3       	ldi	r25, 0x30	; 48
 1c2:	21 50       	subi	r18, 0x01	; 1
 1c4:	80 40       	sbci	r24, 0x00	; 0
 1c6:	90 40       	sbci	r25, 0x00	; 0
 1c8:	e1 f7       	brne	.-8      	; 0x1c2 <main+0x2c>
 1ca:	00 c0       	rjmp	.+0      	; 0x1cc <main+0x36>
 1cc:	00 00       	nop
		_delay_ms(1000);
		//TWI_send_string(0x40, "I AM DEAD!");
		PORTA &= ~(1<<PORTA0);
 1ce:	10 98       	cbi	0x02, 0	; 2
 1d0:	2f ef       	ldi	r18, 0xFF	; 255
 1d2:	83 ed       	ldi	r24, 0xD3	; 211
 1d4:	90 e3       	ldi	r25, 0x30	; 48
 1d6:	21 50       	subi	r18, 0x01	; 1
 1d8:	80 40       	sbci	r24, 0x00	; 0
 1da:	90 40       	sbci	r25, 0x00	; 0
 1dc:	e1 f7       	brne	.-8      	; 0x1d6 <main+0x40>
 1de:	00 c0       	rjmp	.+0      	; 0x1e0 <main+0x4a>
 1e0:	00 00       	nop
		_delay_ms(1000);
		USART_SendMessage("apa");
 1e2:	88 e0       	ldi	r24, 0x08	; 8
 1e4:	91 e1       	ldi	r25, 0x11	; 17
 1e6:	60 d3       	rcall	.+1728   	; 0x8a8 <USART_SendMessage>
		TWI_send_string(S_ADRESS, "Hue");
 1e8:	6c e0       	ldi	r22, 0x0C	; 12
 1ea:	71 e1       	ldi	r23, 0x11	; 17
 1ec:	80 e4       	ldi	r24, 0x40	; 64
 1ee:	db d0       	rcall	.+438    	; 0x3a6 <TWI_send_string>
		if(TWI_command_flag())
 1f0:	20 d1       	rcall	.+576    	; 0x432 <TWI_command_flag>
 1f2:	88 23       	and	r24, r24
 1f4:	c9 f2       	breq	.-78     	; 0x1a8 <main+0x12>
			PORTA ^= (1<<PORTA0);
 1f6:	82 b1       	in	r24, 0x02	; 2
 1f8:	8c 27       	eor	r24, r28
 1fa:	82 b9       	out	0x02, r24	; 2
 1fc:	d5 cf       	rjmp	.-86     	; 0x1a8 <main+0x12>

000001fe <__vector_13>:
}

//---------------------------------------COUNTERS/TIMERS interrupt vectors-----------

ISR(TIMER1_COMPA_vect)
{
 1fe:	1f 92       	push	r1
 200:	0f 92       	push	r0
 202:	0f b6       	in	r0, 0x3f	; 63
 204:	0f 92       	push	r0
 206:	11 24       	eor	r1, r1
	TCNT1 = 0;
 208:	10 92 85 00 	sts	0x0085, r1
 20c:	10 92 84 00 	sts	0x0084, r1
}
 210:	0f 90       	pop	r0
 212:	0f be       	out	0x3f, r0	; 63
 214:	0f 90       	pop	r0
 216:	1f 90       	pop	r1
 218:	18 95       	reti

0000021a <__vector_9>:

ISR(TIMER2_COMPA_vect)
{
 21a:	1f 92       	push	r1
 21c:	0f 92       	push	r0
 21e:	0f b6       	in	r0, 0x3f	; 63
 220:	0f 92       	push	r0
 222:	11 24       	eor	r1, r1
	TCNT2 = 0;
 224:	10 92 b2 00 	sts	0x00B2, r1
}
 228:	0f 90       	pop	r0
 22a:	0f be       	out	0x3f, r0	; 63
 22c:	0f 90       	pop	r0
 22e:	1f 90       	pop	r1
 230:	18 95       	reti

00000232 <set_twi_reciever_enable>:
	{
		sweep_flag_ = false;
		return true;
	}
	return false;
}
 232:	85 e4       	ldi	r24, 0x45	; 69
 234:	80 93 bc 00 	sts	0x00BC, r24
 238:	08 95       	ret

0000023a <clear_int>:
 23a:	81 ec       	ldi	r24, 0xC1	; 193
 23c:	80 93 bc 00 	sts	0x00BC, r24
 240:	08 95       	ret

00000242 <start_bus>:
 242:	84 ea       	ldi	r24, 0xA4	; 164
 244:	80 93 bc 00 	sts	0x00BC, r24
 248:	08 95       	ret

0000024a <stop_bus>:
 24a:	85 ed       	ldi	r24, 0xD5	; 213
 24c:	80 93 bc 00 	sts	0x00BC, r24
 250:	08 95       	ret

00000252 <Error>:
 252:	80 91 b9 00 	lds	r24, 0x00B9
 256:	88 7f       	andi	r24, 0xF8	; 248
 258:	88 33       	cpi	r24, 0x38	; 56
 25a:	09 f0       	breq	.+2      	; 0x25e <Error+0xc>
 25c:	f6 cf       	rjmp	.-20     	; 0x24a <stop_bus>
 25e:	ed cf       	rjmp	.-38     	; 0x23a <clear_int>

00000260 <get_data>:
 260:	80 91 bb 00 	lds	r24, 0x00BB
 264:	08 95       	ret

00000266 <wait_for_bus>:
 266:	ec eb       	ldi	r30, 0xBC	; 188
 268:	f0 e0       	ldi	r31, 0x00	; 0
 26a:	80 81       	ld	r24, Z
 26c:	88 23       	and	r24, r24
 26e:	ec f7       	brge	.-6      	; 0x26a <wait_for_bus+0x4>
 270:	08 95       	ret

00000272 <send_data_and_wait>:
 272:	80 93 bb 00 	sts	0x00BB, r24
 276:	84 e8       	ldi	r24, 0x84	; 132
 278:	80 93 bc 00 	sts	0x00BC, r24
 27c:	f4 cf       	rjmp	.-24     	; 0x266 <wait_for_bus>

0000027e <stop_twi>:
 27e:	10 92 3b 13 	sts	0x133B, r1
 282:	10 92 3a 13 	sts	0x133A, r1
 286:	10 92 46 13 	sts	0x1346, r1
 28a:	10 92 45 13 	sts	0x1345, r1
 28e:	10 92 3f 13 	sts	0x133F, r1
 292:	10 92 3e 13 	sts	0x133E, r1
 296:	10 92 42 13 	sts	0x1342, r1
 29a:	10 92 41 13 	sts	0x1341, r1
 29e:	08 95       	ret

000002a0 <reset_TWI>:
 2a0:	ec eb       	ldi	r30, 0xBC	; 188
 2a2:	f0 e0       	ldi	r31, 0x00	; 0
 2a4:	80 81       	ld	r24, Z
 2a6:	80 6c       	ori	r24, 0xC0	; 192
 2a8:	80 83       	st	Z, r24
 2aa:	08 95       	ret

000002ac <get_sensor_from_bus>:
 2ac:	cf 93       	push	r28
 2ae:	df 93       	push	r29
 2b0:	c0 91 45 13 	lds	r28, 0x1345
 2b4:	d0 91 46 13 	lds	r29, 0x1346
 2b8:	c7 30       	cpi	r28, 0x07	; 7
 2ba:	d1 05       	cpc	r29, r1
 2bc:	91 f4       	brne	.+36     	; 0x2e2 <get_sensor_from_bus+0x36>
 2be:	ec e2       	ldi	r30, 0x2C	; 44
 2c0:	f2 e1       	ldi	r31, 0x12	; 18
 2c2:	a7 e4       	ldi	r26, 0x47	; 71
 2c4:	b3 e1       	ldi	r27, 0x13	; 19
 2c6:	83 e3       	ldi	r24, 0x33	; 51
 2c8:	92 e1       	ldi	r25, 0x12	; 18
 2ca:	21 91       	ld	r18, Z+
 2cc:	2d 93       	st	X+, r18
 2ce:	e8 17       	cp	r30, r24
 2d0:	f9 07       	cpc	r31, r25
 2d2:	d9 f7       	brne	.-10     	; 0x2ca <get_sensor_from_bus+0x1e>
 2d4:	c5 df       	rcall	.-118    	; 0x260 <get_data>
 2d6:	80 93 40 13 	sts	0x1340, r24
 2da:	81 e0       	ldi	r24, 0x01	; 1
 2dc:	80 93 23 12 	sts	0x1223, r24
 2e0:	0d c0       	rjmp	.+26     	; 0x2fc <get_sensor_from_bus+0x50>
 2e2:	be df       	rcall	.-132    	; 0x260 <get_data>
 2e4:	c4 5d       	subi	r28, 0xD4	; 212
 2e6:	dd 4e       	sbci	r29, 0xED	; 237
 2e8:	88 83       	st	Y, r24
 2ea:	80 91 45 13 	lds	r24, 0x1345
 2ee:	90 91 46 13 	lds	r25, 0x1346
 2f2:	01 96       	adiw	r24, 0x01	; 1
 2f4:	90 93 46 13 	sts	0x1346, r25
 2f8:	80 93 45 13 	sts	0x1345, r24
 2fc:	df 91       	pop	r29
 2fe:	cf 91       	pop	r28
 300:	08 95       	ret

00000302 <get_control_settings_from_bus>:
 302:	cf 93       	push	r28
 304:	df 93       	push	r29
 306:	c0 91 41 13 	lds	r28, 0x1341
 30a:	d0 91 42 13 	lds	r29, 0x1342
 30e:	a8 df       	rcall	.-176    	; 0x260 <get_data>
 310:	c9 5c       	subi	r28, 0xC9	; 201
 312:	dc 4e       	sbci	r29, 0xEC	; 236
 314:	88 83       	st	Y, r24
 316:	10 92 42 13 	sts	0x1342, r1
 31a:	10 92 41 13 	sts	0x1341, r1
 31e:	df 91       	pop	r29
 320:	cf 91       	pop	r28
 322:	08 95       	ret

00000324 <get_autonom_settings_from_bus>:
 324:	9d df       	rcall	.-198    	; 0x260 <get_data>
 326:	80 93 35 13 	sts	0x1335, r24
 32a:	08 95       	ret

0000032c <get_char_from_bus>:
 32c:	cf 93       	push	r28
 32e:	df 93       	push	r29
 330:	c0 91 3e 13 	lds	r28, 0x133E
 334:	d0 91 3f 13 	lds	r29, 0x133F
 338:	93 df       	rcall	.-218    	; 0x260 <get_data>
 33a:	ca 5c       	subi	r28, 0xCA	; 202
 33c:	dd 4e       	sbci	r29, 0xED	; 237
 33e:	88 83       	st	Y, r24
 340:	80 91 3e 13 	lds	r24, 0x133E
 344:	90 91 3f 13 	lds	r25, 0x133F
 348:	01 96       	adiw	r24, 0x01	; 1
 34a:	90 93 3f 13 	sts	0x133F, r25
 34e:	80 93 3e 13 	sts	0x133E, r24
 352:	90 93 29 12 	sts	0x1229, r25
 356:	80 93 28 12 	sts	0x1228, r24
 35a:	df 91       	pop	r29
 35c:	cf 91       	pop	r28
 35e:	08 95       	ret

00000360 <TWI_init>:
 360:	80 93 43 13 	sts	0x1343, r24
 364:	80 34       	cpi	r24, 0x40	; 64
 366:	79 f0       	breq	.+30     	; 0x386 <TWI_init+0x26>
 368:	80 38       	cpi	r24, 0x80	; 128
 36a:	19 f0       	breq	.+6      	; 0x372 <TWI_init+0x12>
 36c:	80 32       	cpi	r24, 0x20	; 32
 36e:	d1 f4       	brne	.+52     	; 0x3a4 <TWI_init+0x44>
 370:	12 c0       	rjmp	.+36     	; 0x396 <TWI_init+0x36>
 372:	83 e0       	ldi	r24, 0x03	; 3
 374:	88 b9       	out	0x08, r24	; 8
 376:	5d df       	rcall	.-326    	; 0x232 <set_twi_reciever_enable>
 378:	8f e3       	ldi	r24, 0x3F	; 63
 37a:	80 93 b8 00 	sts	0x00B8, r24
 37e:	81 e8       	ldi	r24, 0x81	; 129
 380:	80 93 ba 00 	sts	0x00BA, r24
 384:	08 95       	ret
 386:	8f e3       	ldi	r24, 0x3F	; 63
 388:	80 93 b8 00 	sts	0x00B8, r24
 38c:	52 df       	rcall	.-348    	; 0x232 <set_twi_reciever_enable>
 38e:	80 e4       	ldi	r24, 0x40	; 64
 390:	80 93 ba 00 	sts	0x00BA, r24
 394:	08 95       	ret
 396:	8f e3       	ldi	r24, 0x3F	; 63
 398:	80 93 b8 00 	sts	0x00B8, r24
 39c:	4a df       	rcall	.-364    	; 0x232 <set_twi_reciever_enable>
 39e:	81 e2       	ldi	r24, 0x21	; 33
 3a0:	80 93 ba 00 	sts	0x00BA, r24
 3a4:	08 95       	ret

000003a6 <TWI_send_string>:
 3a6:	ef 92       	push	r14
 3a8:	ff 92       	push	r15
 3aa:	0f 93       	push	r16
 3ac:	1f 93       	push	r17
 3ae:	cf 93       	push	r28
 3b0:	df 93       	push	r29
 3b2:	c8 2f       	mov	r28, r24
 3b4:	e6 2e       	mov	r14, r22
 3b6:	f7 2e       	mov	r15, r23
 3b8:	44 df       	rcall	.-376    	; 0x242 <start_bus>
 3ba:	55 df       	rcall	.-342    	; 0x266 <wait_for_bus>
 3bc:	90 91 b9 00 	lds	r25, 0x00B9
 3c0:	98 7f       	andi	r25, 0xF8	; 248
 3c2:	98 30       	cpi	r25, 0x08	; 8
 3c4:	19 f0       	breq	.+6      	; 0x3cc <TWI_send_string+0x26>
 3c6:	45 df       	rcall	.-374    	; 0x252 <Error>
 3c8:	80 e0       	ldi	r24, 0x00	; 0
 3ca:	2c c0       	rjmp	.+88     	; 0x424 <TWI_send_string+0x7e>
 3cc:	8c 2f       	mov	r24, r28
 3ce:	51 df       	rcall	.-350    	; 0x272 <send_data_and_wait>
 3d0:	80 91 b9 00 	lds	r24, 0x00B9
 3d4:	88 7f       	andi	r24, 0xF8	; 248
 3d6:	88 31       	cpi	r24, 0x18	; 24
 3d8:	19 f0       	breq	.+6      	; 0x3e0 <TWI_send_string+0x3a>
 3da:	3b df       	rcall	.-394    	; 0x252 <Error>
 3dc:	80 e0       	ldi	r24, 0x00	; 0
 3de:	22 c0       	rjmp	.+68     	; 0x424 <TWI_send_string+0x7e>
 3e0:	89 e1       	ldi	r24, 0x19	; 25
 3e2:	47 df       	rcall	.-370    	; 0x272 <send_data_and_wait>
 3e4:	80 91 b9 00 	lds	r24, 0x00B9
 3e8:	88 7f       	andi	r24, 0xF8	; 248
 3ea:	88 32       	cpi	r24, 0x28	; 40
 3ec:	29 f4       	brne	.+10     	; 0x3f8 <TWI_send_string+0x52>
 3ee:	0e 2d       	mov	r16, r14
 3f0:	1f 2d       	mov	r17, r15
 3f2:	c0 e0       	ldi	r28, 0x00	; 0
 3f4:	d0 e0       	ldi	r29, 0x00	; 0
 3f6:	08 c0       	rjmp	.+16     	; 0x408 <TWI_send_string+0x62>
 3f8:	2c df       	rcall	.-424    	; 0x252 <Error>
 3fa:	80 e0       	ldi	r24, 0x00	; 0
 3fc:	13 c0       	rjmp	.+38     	; 0x424 <TWI_send_string+0x7e>
 3fe:	f8 01       	movw	r30, r16
 400:	81 91       	ld	r24, Z+
 402:	8f 01       	movw	r16, r30
 404:	36 df       	rcall	.-404    	; 0x272 <send_data_and_wait>
 406:	21 96       	adiw	r28, 0x01	; 1
 408:	ee 2d       	mov	r30, r14
 40a:	ff 2d       	mov	r31, r15
 40c:	df 01       	movw	r26, r30
 40e:	0d 90       	ld	r0, X+
 410:	00 20       	and	r0, r0
 412:	e9 f7       	brne	.-6      	; 0x40e <TWI_send_string+0x68>
 414:	11 97       	sbiw	r26, 0x01	; 1
 416:	ae 1b       	sub	r26, r30
 418:	bf 0b       	sbc	r27, r31
 41a:	ca 17       	cp	r28, r26
 41c:	db 07       	cpc	r29, r27
 41e:	78 f3       	brcs	.-34     	; 0x3fe <TWI_send_string+0x58>
 420:	14 df       	rcall	.-472    	; 0x24a <stop_bus>
 422:	81 e0       	ldi	r24, 0x01	; 1
 424:	df 91       	pop	r29
 426:	cf 91       	pop	r28
 428:	1f 91       	pop	r17
 42a:	0f 91       	pop	r16
 42c:	ff 90       	pop	r15
 42e:	ef 90       	pop	r14
 430:	08 95       	ret

00000432 <TWI_command_flag>:
 432:	80 91 22 12 	lds	r24, 0x1222
 436:	88 23       	and	r24, r24
 438:	21 f0       	breq	.+8      	; 0x442 <TWI_command_flag+0x10>
 43a:	10 92 22 12 	sts	0x1222, r1
 43e:	81 e0       	ldi	r24, 0x01	; 1
 440:	08 95       	ret
 442:	80 e0       	ldi	r24, 0x00	; 0
 444:	08 95       	ret

00000446 <__vector_26>:

//TWI Interrupt vector MUHAHAHAHA
// ----------------------------------------------------------------------------- Communications
ISR(TWI_vect)
{
 446:	1f 92       	push	r1
 448:	0f 92       	push	r0
 44a:	0f b6       	in	r0, 0x3f	; 63
 44c:	0f 92       	push	r0
 44e:	11 24       	eor	r1, r1
 450:	0b b6       	in	r0, 0x3b	; 59
 452:	0f 92       	push	r0
 454:	2f 93       	push	r18
 456:	3f 93       	push	r19
 458:	4f 93       	push	r20
 45a:	5f 93       	push	r21
 45c:	6f 93       	push	r22
 45e:	7f 93       	push	r23
 460:	8f 93       	push	r24
 462:	9f 93       	push	r25
 464:	af 93       	push	r26
 466:	bf 93       	push	r27
 468:	cf 93       	push	r28
 46a:	df 93       	push	r29
 46c:	ef 93       	push	r30
 46e:	ff 93       	push	r31
	switch(my_adress)
 470:	80 91 43 13 	lds	r24, 0x1343
 474:	80 34       	cpi	r24, 0x40	; 64
 476:	09 f4       	brne	.+2      	; 0x47a <__vector_26+0x34>
 478:	57 c0       	rjmp	.+174    	; 0x528 <__vector_26+0xe2>
 47a:	80 38       	cpi	r24, 0x80	; 128
 47c:	21 f0       	breq	.+8      	; 0x486 <__vector_26+0x40>
 47e:	80 32       	cpi	r24, 0x20	; 32
 480:	09 f0       	breq	.+2      	; 0x484 <__vector_26+0x3e>
 482:	2b c1       	rjmp	.+598    	; 0x6da <__vector_26+0x294>
 484:	91 c0       	rjmp	.+290    	; 0x5a8 <__vector_26+0x162>
	{
		case(C_ADRESS):
		{
			if(CONTROL == SLAW || CONTROL == ARBIT_SLAW)
 486:	80 91 b9 00 	lds	r24, 0x00B9
 48a:	88 7f       	andi	r24, 0xF8	; 248
 48c:	80 36       	cpi	r24, 0x60	; 96
 48e:	29 f0       	breq	.+10     	; 0x49a <__vector_26+0x54>
 490:	80 91 b9 00 	lds	r24, 0x00B9
 494:	88 7f       	andi	r24, 0xF8	; 248
 496:	88 36       	cpi	r24, 0x68	; 104
 498:	21 f4       	brne	.+8      	; 0x4a2 <__vector_26+0x5c>
			{
				instruction = true;
 49a:	81 e0       	ldi	r24, 0x01	; 1
 49c:	80 93 36 13 	sts	0x1336, r24
 4a0:	41 c0       	rjmp	.+130    	; 0x524 <__vector_26+0xde>
				
			}
			else if(CONTROL == DATA_SLAW)
 4a2:	80 91 b9 00 	lds	r24, 0x00B9
 4a6:	88 7f       	andi	r24, 0xF8	; 248
 4a8:	80 38       	cpi	r24, 0x80	; 128
 4aa:	f1 f4       	brne	.+60     	; 0x4e8 <__vector_26+0xa2>
			{
				if(instruction)
 4ac:	80 91 36 13 	lds	r24, 0x1336
 4b0:	88 23       	and	r24, r24
 4b2:	41 f0       	breq	.+16     	; 0x4c4 <__vector_26+0x7e>
				{
					current_instruction = get_data();
 4b4:	d5 de       	rcall	.-598    	; 0x260 <get_data>
 4b6:	80 93 2a 12 	sts	0x122A, r24
 4ba:	10 92 2b 12 	sts	0x122B, r1
					instruction = false;
 4be:	10 92 36 13 	sts	0x1336, r1
 4c2:	30 c0       	rjmp	.+96     	; 0x524 <__vector_26+0xde>
				}
				else
				{
					switch(current_instruction)
 4c4:	80 91 2a 12 	lds	r24, 0x122A
 4c8:	90 91 2b 12 	lds	r25, 0x122B
 4cc:	85 30       	cpi	r24, 0x05	; 5
 4ce:	91 05       	cpc	r25, r1
 4d0:	39 f0       	breq	.+14     	; 0x4e0 <__vector_26+0x9a>
 4d2:	89 31       	cpi	r24, 0x19	; 25
 4d4:	91 05       	cpc	r25, r1
 4d6:	31 f0       	breq	.+12     	; 0x4e4 <__vector_26+0x9e>
 4d8:	01 97       	sbiw	r24, 0x01	; 1
 4da:	21 f5       	brne	.+72     	; 0x524 <__vector_26+0xde>
					{
						case(I_SETTINGS):
						{
							get_control_settings_from_bus();
 4dc:	12 df       	rcall	.-476    	; 0x302 <get_control_settings_from_bus>
							break;
 4de:	22 c0       	rjmp	.+68     	; 0x524 <__vector_26+0xde>
						}
						case(I_AUTONOM):
						{
							get_autonom_settings_from_bus();
 4e0:	21 df       	rcall	.-446    	; 0x324 <get_autonom_settings_from_bus>
							break;
 4e2:	20 c0       	rjmp	.+64     	; 0x524 <__vector_26+0xde>
						}
						case(I_STRING):
						{
							get_char_from_bus();
 4e4:	23 df       	rcall	.-442    	; 0x32c <get_char_from_bus>
							break;
 4e6:	1e c0       	rjmp	.+60     	; 0x524 <__vector_26+0xde>
						}
					}
				}
			}
			else if (CONTROL == DATA_GENERAL)
 4e8:	80 91 b9 00 	lds	r24, 0x00B9
 4ec:	88 7f       	andi	r24, 0xF8	; 248
 4ee:	80 39       	cpi	r24, 0x90	; 144
 4f0:	11 f4       	brne	.+4      	; 0x4f6 <__vector_26+0xb0>
			{
				get_sensor_from_bus();
 4f2:	dc de       	rcall	.-584    	; 0x2ac <get_sensor_from_bus>
 4f4:	17 c0       	rjmp	.+46     	; 0x524 <__vector_26+0xde>
			}
			else if (CONTROL == STOP)
 4f6:	80 91 b9 00 	lds	r24, 0x00B9
 4fa:	88 7f       	andi	r24, 0xF8	; 248
 4fc:	80 3a       	cpi	r24, 0xA0	; 160
 4fe:	91 f4       	brne	.+36     	; 0x524 <__vector_26+0xde>
			{
				stop_twi();
 500:	be de       	rcall	.-644    	; 0x27e <stop_twi>
				switch(current_instruction)
 502:	80 91 2a 12 	lds	r24, 0x122A
 506:	90 91 2b 12 	lds	r25, 0x122B
 50a:	81 30       	cpi	r24, 0x01	; 1
 50c:	91 05       	cpc	r25, r1
 50e:	19 f0       	breq	.+6      	; 0x516 <__vector_26+0xd0>
 510:	05 97       	sbiw	r24, 0x05	; 5
 512:	41 f4       	brne	.+16     	; 0x524 <__vector_26+0xde>
 514:	04 c0       	rjmp	.+8      	; 0x51e <__vector_26+0xd8>
				{
					case(I_SETTINGS):
					{
						control_settings_flag_ = true;
 516:	81 e0       	ldi	r24, 0x01	; 1
 518:	80 93 21 12 	sts	0x1221, r24
						break;
 51c:	03 c0       	rjmp	.+6      	; 0x524 <__vector_26+0xde>
					}
					case(I_AUTONOM):
					{
						autonom_settings_flag_ = true;
 51e:	81 e0       	ldi	r24, 0x01	; 1
 520:	80 93 20 12 	sts	0x1220, r24
						//Add message to buffer
						break;
					}
				}
			}
			reset_TWI();
 524:	bd de       	rcall	.-646    	; 0x2a0 <reset_TWI>
			break;
 526:	d9 c0       	rjmp	.+434    	; 0x6da <__vector_26+0x294>
		}
		// ----------------------------------------------------------------------------- Sensors
		case(S_ADRESS):
		{
			if(CONTROL == SLAW || CONTROL == ARBIT_SLAW)
 528:	80 91 b9 00 	lds	r24, 0x00B9
 52c:	88 7f       	andi	r24, 0xF8	; 248
 52e:	80 36       	cpi	r24, 0x60	; 96
 530:	29 f0       	breq	.+10     	; 0x53c <__vector_26+0xf6>
 532:	80 91 b9 00 	lds	r24, 0x00B9
 536:	88 7f       	andi	r24, 0xF8	; 248
 538:	88 36       	cpi	r24, 0x68	; 104
 53a:	21 f4       	brne	.+8      	; 0x544 <__vector_26+0xfe>
			{
				instruction = true;
 53c:	81 e0       	ldi	r24, 0x01	; 1
 53e:	80 93 36 13 	sts	0x1336, r24
 542:	30 c0       	rjmp	.+96     	; 0x5a4 <__vector_26+0x15e>
			}
			else if(CONTROL == DATA_SLAW)
 544:	80 91 b9 00 	lds	r24, 0x00B9
 548:	88 7f       	andi	r24, 0xF8	; 248
 54a:	80 38       	cpi	r24, 0x80	; 128
 54c:	e1 f4       	brne	.+56     	; 0x586 <__vector_26+0x140>
			{
				if(instruction)
 54e:	80 91 36 13 	lds	r24, 0x1336
 552:	88 23       	and	r24, r24
 554:	41 f0       	breq	.+16     	; 0x566 <__vector_26+0x120>
				{
					current_instruction = get_data();
 556:	84 de       	rcall	.-760    	; 0x260 <get_data>
 558:	80 93 2a 12 	sts	0x122A, r24
 55c:	10 92 2b 12 	sts	0x122B, r1
					instruction = false;
 560:	10 92 36 13 	sts	0x1336, r1
 564:	1f c0       	rjmp	.+62     	; 0x5a4 <__vector_26+0x15e>
				}
				else
				{
					switch(current_instruction)
 566:	80 91 2a 12 	lds	r24, 0x122A
 56a:	90 91 2b 12 	lds	r25, 0x122B
 56e:	82 30       	cpi	r24, 0x02	; 2
 570:	91 05       	cpc	r25, r1
 572:	19 f0       	breq	.+6      	; 0x57a <__vector_26+0x134>
 574:	49 97       	sbiw	r24, 0x19	; 25
 576:	b1 f4       	brne	.+44     	; 0x5a4 <__vector_26+0x15e>
 578:	04 c0       	rjmp	.+8      	; 0x582 <__vector_26+0x13c>
	}
}

void get_sweep_from_bus()
{
	sweep = get_data();
 57a:	72 de       	rcall	.-796    	; 0x260 <get_data>
 57c:	80 93 44 13 	sts	0x1344, r24
 580:	11 c0       	rjmp	.+34     	; 0x5a4 <__vector_26+0x15e>
							get_sweep_from_bus();
							break;
						}
						case(I_STRING):
						{
							get_char_from_bus();
 582:	d4 de       	rcall	.-600    	; 0x32c <get_char_from_bus>
							break;
 584:	0f c0       	rjmp	.+30     	; 0x5a4 <__vector_26+0x15e>
						}
					}
				}
			}
			else if (CONTROL == STOP)
 586:	80 91 b9 00 	lds	r24, 0x00B9
 58a:	88 7f       	andi	r24, 0xF8	; 248
 58c:	80 3a       	cpi	r24, 0xA0	; 160
 58e:	51 f4       	brne	.+20     	; 0x5a4 <__vector_26+0x15e>
			{
				stop_twi();
 590:	76 de       	rcall	.-788    	; 0x27e <stop_twi>
				switch(current_instruction)
 592:	80 91 2a 12 	lds	r24, 0x122A
 596:	90 91 2b 12 	lds	r25, 0x122B
 59a:	02 97       	sbiw	r24, 0x02	; 2
 59c:	19 f4       	brne	.+6      	; 0x5a4 <__vector_26+0x15e>
				{
					case(I_SWEEP):
					{
						sweep_flag_ = true;
 59e:	81 e0       	ldi	r24, 0x01	; 1
 5a0:	80 93 1e 12 	sts	0x121E, r24
						//Add message to buffer
						break;
					}
				}
			}
			reset_TWI();
 5a4:	7d de       	rcall	.-774    	; 0x2a0 <reset_TWI>
			break;
 5a6:	99 c0       	rjmp	.+306    	; 0x6da <__vector_26+0x294>
		}
		// ----------------------------------------------------------------------------- Steer
		case(ST_ADRESS):
		{
			if(CONTROL == SLAW || CONTROL == ARBIT_SLAW)
 5a8:	80 91 b9 00 	lds	r24, 0x00B9
 5ac:	88 7f       	andi	r24, 0xF8	; 248
 5ae:	80 36       	cpi	r24, 0x60	; 96
 5b0:	29 f0       	breq	.+10     	; 0x5bc <__vector_26+0x176>
 5b2:	80 91 b9 00 	lds	r24, 0x00B9
 5b6:	88 7f       	andi	r24, 0xF8	; 248
 5b8:	88 36       	cpi	r24, 0x68	; 104
 5ba:	21 f4       	brne	.+8      	; 0x5c4 <__vector_26+0x17e>
			{
				instruction = true;
 5bc:	81 e0       	ldi	r24, 0x01	; 1
 5be:	80 93 36 13 	sts	0x1336, r24
 5c2:	8a c0       	rjmp	.+276    	; 0x6d8 <__vector_26+0x292>
			}
			else if(CONTROL == DATA_SLAW)
 5c4:	80 91 b9 00 	lds	r24, 0x00B9
 5c8:	88 7f       	andi	r24, 0xF8	; 248
 5ca:	80 38       	cpi	r24, 0x80	; 128
 5cc:	09 f0       	breq	.+2      	; 0x5d0 <__vector_26+0x18a>
 5ce:	57 c0       	rjmp	.+174    	; 0x67e <__vector_26+0x238>
			{
				if(instruction)
 5d0:	80 91 36 13 	lds	r24, 0x1336
 5d4:	88 23       	and	r24, r24
 5d6:	41 f0       	breq	.+16     	; 0x5e8 <__vector_26+0x1a2>
				{
					current_instruction = get_data();
 5d8:	43 de       	rcall	.-890    	; 0x260 <get_data>
 5da:	80 93 2a 12 	sts	0x122A, r24
 5de:	10 92 2b 12 	sts	0x122B, r1
					instruction = false;
 5e2:	10 92 36 13 	sts	0x1336, r1
 5e6:	78 c0       	rjmp	.+240    	; 0x6d8 <__vector_26+0x292>
				}
				else
				{
					switch(current_instruction)
 5e8:	80 91 2a 12 	lds	r24, 0x122A
 5ec:	90 91 2b 12 	lds	r25, 0x122B
 5f0:	81 30       	cpi	r24, 0x01	; 1
 5f2:	91 05       	cpc	r25, r1
 5f4:	09 f4       	brne	.+2      	; 0x5f8 <__vector_26+0x1b2>
 5f6:	3f c0       	rjmp	.+126    	; 0x676 <__vector_26+0x230>
 5f8:	1c f4       	brge	.+6      	; 0x600 <__vector_26+0x1ba>
 5fa:	89 2b       	or	r24, r25
 5fc:	41 f0       	breq	.+16     	; 0x60e <__vector_26+0x1c8>
 5fe:	6c c0       	rjmp	.+216    	; 0x6d8 <__vector_26+0x292>
 600:	84 30       	cpi	r24, 0x04	; 4
 602:	91 05       	cpc	r25, r1
 604:	b1 f0       	breq	.+44     	; 0x632 <__vector_26+0x1ec>
 606:	05 97       	sbiw	r24, 0x05	; 5
 608:	09 f0       	breq	.+2      	; 0x60c <__vector_26+0x1c6>
 60a:	66 c0       	rjmp	.+204    	; 0x6d8 <__vector_26+0x292>
 60c:	36 c0       	rjmp	.+108    	; 0x67a <__vector_26+0x234>
	message_length = message_counter;
}

void get_command_from_bus()
{
	command[current_command] = get_data();
 60e:	c0 91 3a 13 	lds	r28, 0x133A
 612:	d0 91 3b 13 	lds	r29, 0x133B
 616:	24 de       	rcall	.-952    	; 0x260 <get_data>
 618:	cd 5c       	subi	r28, 0xCD	; 205
 61a:	dd 4e       	sbci	r29, 0xED	; 237
 61c:	88 83       	st	Y, r24
	current_command += 1;
 61e:	80 91 3a 13 	lds	r24, 0x133A
 622:	90 91 3b 13 	lds	r25, 0x133B
 626:	01 96       	adiw	r24, 0x01	; 1
 628:	90 93 3b 13 	sts	0x133B, r25
 62c:	80 93 3a 13 	sts	0x133A, r24
 630:	53 c0       	rjmp	.+166    	; 0x6d8 <__vector_26+0x292>
}

void get_elevation_from_bus()
{
	elevation += get_data();
 632:	16 de       	rcall	.-980    	; 0x260 <get_data>
 634:	20 91 3c 13 	lds	r18, 0x133C
 638:	30 91 3d 13 	lds	r19, 0x133D
 63c:	a9 01       	movw	r20, r18
 63e:	48 0f       	add	r20, r24
 640:	51 1d       	adc	r21, r1
 642:	ca 01       	movw	r24, r20
	if(elevation < 1)
 644:	18 16       	cp	r1, r24
 646:	19 06       	cpc	r1, r25
 648:	3c f0       	brlt	.+14     	; 0x658 <__vector_26+0x212>
		elevation = 1;
 64a:	81 e0       	ldi	r24, 0x01	; 1
 64c:	90 e0       	ldi	r25, 0x00	; 0
 64e:	90 93 3d 13 	sts	0x133D, r25
 652:	80 93 3c 13 	sts	0x133C, r24
 656:	40 c0       	rjmp	.+128    	; 0x6d8 <__vector_26+0x292>
	else if(elevation > 7) // 7 nivåer?!
 658:	48 30       	cpi	r20, 0x08	; 8
 65a:	51 05       	cpc	r21, r1
 65c:	2c f4       	brge	.+10     	; 0x668 <__vector_26+0x222>
	current_command += 1;
}

void get_elevation_from_bus()
{
	elevation += get_data();
 65e:	50 93 3d 13 	sts	0x133D, r21
 662:	40 93 3c 13 	sts	0x133C, r20
 666:	38 c0       	rjmp	.+112    	; 0x6d8 <__vector_26+0x292>
	if(elevation < 1)
		elevation = 1;
	else if(elevation > 7) // 7 nivåer?!
		elevation = 7;
 668:	87 e0       	ldi	r24, 0x07	; 7
 66a:	90 e0       	ldi	r25, 0x00	; 0
 66c:	90 93 3d 13 	sts	0x133D, r25
 670:	80 93 3c 13 	sts	0x133C, r24
 674:	31 c0       	rjmp	.+98     	; 0x6d8 <__vector_26+0x292>
							get_elevation_from_bus();
							break;
						}
						case(I_SETTINGS):
						{
							get_control_settings_from_bus();
 676:	45 de       	rcall	.-886    	; 0x302 <get_control_settings_from_bus>
							break;
 678:	2f c0       	rjmp	.+94     	; 0x6d8 <__vector_26+0x292>
						}
						case(I_AUTONOM):
						{
							get_autonom_settings_from_bus();
 67a:	54 de       	rcall	.-856    	; 0x324 <get_autonom_settings_from_bus>
							break;
 67c:	2d c0       	rjmp	.+90     	; 0x6d8 <__vector_26+0x292>
						}
					}
				}
			}
			else if (CONTROL == DATA_GENERAL)
 67e:	80 91 b9 00 	lds	r24, 0x00B9
 682:	88 7f       	andi	r24, 0xF8	; 248
 684:	80 39       	cpi	r24, 0x90	; 144
 686:	11 f4       	brne	.+4      	; 0x68c <__vector_26+0x246>
			{
				get_sensor_from_bus();
 688:	11 de       	rcall	.-990    	; 0x2ac <get_sensor_from_bus>
 68a:	26 c0       	rjmp	.+76     	; 0x6d8 <__vector_26+0x292>
			}
			else if (CONTROL == STOP)
 68c:	80 91 b9 00 	lds	r24, 0x00B9
 690:	88 7f       	andi	r24, 0xF8	; 248
 692:	80 3a       	cpi	r24, 0xA0	; 160
 694:	09 f5       	brne	.+66     	; 0x6d8 <__vector_26+0x292>
			{
				stop_twi();
 696:	f3 dd       	rcall	.-1050   	; 0x27e <stop_twi>
				switch(current_instruction)
 698:	80 91 2a 12 	lds	r24, 0x122A
 69c:	90 91 2b 12 	lds	r25, 0x122B
 6a0:	81 30       	cpi	r24, 0x01	; 1
 6a2:	91 05       	cpc	r25, r1
 6a4:	91 f0       	breq	.+36     	; 0x6ca <__vector_26+0x284>
 6a6:	1c f4       	brge	.+6      	; 0x6ae <__vector_26+0x268>
 6a8:	89 2b       	or	r24, r25
 6aa:	39 f0       	breq	.+14     	; 0x6ba <__vector_26+0x274>
 6ac:	15 c0       	rjmp	.+42     	; 0x6d8 <__vector_26+0x292>
 6ae:	84 30       	cpi	r24, 0x04	; 4
 6b0:	91 05       	cpc	r25, r1
 6b2:	39 f0       	breq	.+14     	; 0x6c2 <__vector_26+0x27c>
 6b4:	05 97       	sbiw	r24, 0x05	; 5
 6b6:	81 f4       	brne	.+32     	; 0x6d8 <__vector_26+0x292>
 6b8:	0c c0       	rjmp	.+24     	; 0x6d2 <__vector_26+0x28c>
				{
					case(I_COMMAND):
					{
						command_flag_ = true;
 6ba:	81 e0       	ldi	r24, 0x01	; 1
 6bc:	80 93 22 12 	sts	0x1222, r24
						break;
 6c0:	0b c0       	rjmp	.+22     	; 0x6d8 <__vector_26+0x292>
					}
					case(I_ELEVATION):
					{
						elevation_flag_ = true;
 6c2:	81 e0       	ldi	r24, 0x01	; 1
 6c4:	80 93 1f 12 	sts	0x121F, r24
						break;
 6c8:	07 c0       	rjmp	.+14     	; 0x6d8 <__vector_26+0x292>
					}
					case(I_SETTINGS):
					{
						control_settings_flag_ = true;
 6ca:	81 e0       	ldi	r24, 0x01	; 1
 6cc:	80 93 21 12 	sts	0x1221, r24
						break;
 6d0:	03 c0       	rjmp	.+6      	; 0x6d8 <__vector_26+0x292>
					}
					case(I_AUTONOM):
					{
						autonom_settings_flag_ = true;
 6d2:	81 e0       	ldi	r24, 0x01	; 1
 6d4:	80 93 20 12 	sts	0x1220, r24
						break;
					}
				}
			}
			reset_TWI();
 6d8:	e3 dd       	rcall	.-1082   	; 0x2a0 <reset_TWI>
			break;
		}
	}
 6da:	ff 91       	pop	r31
 6dc:	ef 91       	pop	r30
 6de:	df 91       	pop	r29
 6e0:	cf 91       	pop	r28
 6e2:	bf 91       	pop	r27
 6e4:	af 91       	pop	r26
 6e6:	9f 91       	pop	r25
 6e8:	8f 91       	pop	r24
 6ea:	7f 91       	pop	r23
 6ec:	6f 91       	pop	r22
 6ee:	5f 91       	pop	r21
 6f0:	4f 91       	pop	r20
 6f2:	3f 91       	pop	r19
 6f4:	2f 91       	pop	r18
 6f6:	0f 90       	pop	r0
 6f8:	0b be       	out	0x3b, r0	; 59
 6fa:	0f 90       	pop	r0
 6fc:	0f be       	out	0x3f, r0	; 63
 6fe:	0f 90       	pop	r0
 700:	1f 90       	pop	r1
 702:	18 95       	reti

00000704 <USART_init>:
{
	for(int i = 0; i < gRxBuffer[1]; i++)
	{
		gTxPayload[i] = gRxBuffer[i+2];
	}
	USART_SendPacket(gRxBuffer[0], gRxBuffer[1]);
 704:	10 92 c5 00 	sts	0x00C5, r1
 708:	87 e0       	ldi	r24, 0x07	; 7
 70a:	80 93 c4 00 	sts	0x00C4, r24
 70e:	88 e9       	ldi	r24, 0x98	; 152
 710:	80 93 c1 00 	sts	0x00C1, r24
 714:	86 e0       	ldi	r24, 0x06	; 6
 716:	80 93 c2 00 	sts	0x00C2, r24
 71a:	08 95       	ret

0000071c <USART_CheckTxReady>:
 71c:	80 91 c0 00 	lds	r24, 0x00C0
 720:	80 72       	andi	r24, 0x20	; 32
 722:	08 95       	ret

00000724 <USART_WriteByte>:
 724:	cf 93       	push	r28
 726:	c8 2f       	mov	r28, r24
 728:	f9 df       	rcall	.-14     	; 0x71c <USART_CheckTxReady>
 72a:	88 23       	and	r24, r24
 72c:	e9 f3       	breq	.-6      	; 0x728 <USART_WriteByte+0x4>
 72e:	c0 93 c6 00 	sts	0x00C6, r28
 732:	cf 91       	pop	r28
 734:	08 95       	ret

00000736 <USART_crc16>:
 736:	cf 92       	push	r12
 738:	df 92       	push	r13
 73a:	ef 92       	push	r14
 73c:	ff 92       	push	r15
 73e:	0f 93       	push	r16
 740:	1f 93       	push	r17
 742:	cf 93       	push	r28
 744:	df 93       	push	r29
 746:	66 23       	and	r22, r22
 748:	09 f4       	brne	.+2      	; 0x74c <USART_crc16+0x16>
 74a:	3e c0       	rjmp	.+124    	; 0x7c8 <USART_crc16+0x92>
 74c:	06 2f       	mov	r16, r22
 74e:	10 e0       	ldi	r17, 0x00	; 0
 750:	4f ef       	ldi	r20, 0xFF	; 255
 752:	5f ef       	ldi	r21, 0xFF	; 255
 754:	ee ef       	ldi	r30, 0xFE	; 254
 756:	ff ef       	ldi	r31, 0xFF	; 255
 758:	c6 2e       	mov	r12, r22
 75a:	d1 2c       	mov	r13, r1
 75c:	e8 2e       	mov	r14, r24
 75e:	f1 2c       	mov	r15, r1
 760:	c8 e0       	ldi	r28, 0x08	; 8
 762:	d0 e0       	ldi	r29, 0x00	; 0
 764:	ee 3f       	cpi	r30, 0xFE	; 254
 766:	6f ef       	ldi	r22, 0xFF	; 255
 768:	f6 07       	cpc	r31, r22
 76a:	19 f4       	brne	.+6      	; 0x772 <USART_crc16+0x3c>
 76c:	8e 2d       	mov	r24, r14
 76e:	9f 2d       	mov	r25, r15
 770:	30 c0       	rjmp	.+96     	; 0x7d2 <USART_crc16+0x9c>
 772:	ef 3f       	cpi	r30, 0xFF	; 255
 774:	8f ef       	ldi	r24, 0xFF	; 255
 776:	f8 07       	cpc	r31, r24
 778:	19 f4       	brne	.+6      	; 0x780 <USART_crc16+0x4a>
 77a:	8c 2d       	mov	r24, r12
 77c:	9d 2d       	mov	r25, r13
 77e:	29 c0       	rjmp	.+82     	; 0x7d2 <USART_crc16+0x9c>
 780:	df 01       	movw	r26, r30
 782:	ad 5a       	subi	r26, 0xAD	; 173
 784:	ba 4e       	sbci	r27, 0xEA	; 234
 786:	8c 91       	ld	r24, X
 788:	90 e0       	ldi	r25, 0x00	; 0
 78a:	23 c0       	rjmp	.+70     	; 0x7d2 <USART_crc16+0x9c>
 78c:	ba 01       	movw	r22, r20
 78e:	68 27       	eor	r22, r24
 790:	79 27       	eor	r23, r25
 792:	60 ff       	sbrs	r22, 0
 794:	07 c0       	rjmp	.+14     	; 0x7a4 <USART_crc16+0x6e>
 796:	56 95       	lsr	r21
 798:	47 95       	ror	r20
 79a:	68 e0       	ldi	r22, 0x08	; 8
 79c:	46 27       	eor	r20, r22
 79e:	64 e8       	ldi	r22, 0x84	; 132
 7a0:	56 27       	eor	r21, r22
 7a2:	02 c0       	rjmp	.+4      	; 0x7a8 <USART_crc16+0x72>
 7a4:	56 95       	lsr	r21
 7a6:	47 95       	ror	r20
 7a8:	96 95       	lsr	r25
 7aa:	87 95       	ror	r24
 7ac:	21 50       	subi	r18, 0x01	; 1
 7ae:	31 09       	sbc	r19, r1
 7b0:	69 f7       	brne	.-38     	; 0x78c <USART_crc16+0x56>
 7b2:	31 96       	adiw	r30, 0x01	; 1
 7b4:	e0 17       	cp	r30, r16
 7b6:	f1 07       	cpc	r31, r17
 7b8:	a9 f6       	brne	.-86     	; 0x764 <USART_crc16+0x2e>
 7ba:	9a 01       	movw	r18, r20
 7bc:	20 95       	com	r18
 7be:	30 95       	com	r19
 7c0:	32 27       	eor	r19, r18
 7c2:	23 27       	eor	r18, r19
 7c4:	32 27       	eor	r19, r18
 7c6:	02 c0       	rjmp	.+4      	; 0x7cc <USART_crc16+0x96>
 7c8:	20 e0       	ldi	r18, 0x00	; 0
 7ca:	30 e0       	ldi	r19, 0x00	; 0
 7cc:	82 2f       	mov	r24, r18
 7ce:	93 2f       	mov	r25, r19
 7d0:	02 c0       	rjmp	.+4      	; 0x7d6 <USART_crc16+0xa0>
 7d2:	9e 01       	movw	r18, r28
 7d4:	db cf       	rjmp	.-74     	; 0x78c <USART_crc16+0x56>
 7d6:	df 91       	pop	r29
 7d8:	cf 91       	pop	r28
 7da:	1f 91       	pop	r17
 7dc:	0f 91       	pop	r16
 7de:	ff 90       	pop	r15
 7e0:	ef 90       	pop	r14
 7e2:	df 90       	pop	r13
 7e4:	cf 90       	pop	r12
 7e6:	08 95       	ret

000007e8 <USART_SendPacket>:
 7e8:	0f 93       	push	r16
 7ea:	1f 93       	push	r17
 7ec:	cf 93       	push	r28
 7ee:	df 93       	push	r29
 7f0:	9e e7       	ldi	r25, 0x7E	; 126
 7f2:	90 93 52 16 	sts	0x1652, r25
 7f6:	80 93 53 16 	sts	0x1653, r24
 7fa:	60 93 54 16 	sts	0x1654, r22
 7fe:	26 2f       	mov	r18, r22
 800:	30 e0       	ldi	r19, 0x00	; 0
 802:	12 16       	cp	r1, r18
 804:	13 06       	cpc	r1, r19
 806:	4c f5       	brge	.+82     	; 0x85a <USART_SendPacket+0x72>
 808:	e3 e5       	ldi	r30, 0x53	; 83
 80a:	f5 e1       	ldi	r31, 0x15	; 21
 80c:	03 e0       	ldi	r16, 0x03	; 3
 80e:	10 e0       	ldi	r17, 0x00	; 0
 810:	c0 e0       	ldi	r28, 0x00	; 0
 812:	d0 e0       	ldi	r29, 0x00	; 0
 814:	7d e7       	ldi	r23, 0x7D	; 125
 816:	50 e2       	ldi	r21, 0x20	; 32
 818:	90 81       	ld	r25, Z
 81a:	49 2f       	mov	r20, r25
 81c:	4d 57       	subi	r20, 0x7D	; 125
 81e:	42 30       	cpi	r20, 0x02	; 2
 820:	80 f4       	brcc	.+32     	; 0x842 <USART_SendPacket+0x5a>
 822:	d8 01       	movw	r26, r16
 824:	ae 5a       	subi	r26, 0xAE	; 174
 826:	b9 4e       	sbci	r27, 0xE9	; 233
 828:	ac 0f       	add	r26, r28
 82a:	bd 1f       	adc	r27, r29
 82c:	7c 93       	st	X, r23
 82e:	0f 5f       	subi	r16, 0xFF	; 255
 830:	1f 4f       	sbci	r17, 0xFF	; 255
 832:	d8 01       	movw	r26, r16
 834:	ae 5a       	subi	r26, 0xAE	; 174
 836:	b9 4e       	sbci	r27, 0xE9	; 233
 838:	ac 0f       	add	r26, r28
 83a:	bd 1f       	adc	r27, r29
 83c:	95 27       	eor	r25, r21
 83e:	9c 93       	st	X, r25
 840:	06 c0       	rjmp	.+12     	; 0x84e <USART_SendPacket+0x66>
 842:	d8 01       	movw	r26, r16
 844:	ae 5a       	subi	r26, 0xAE	; 174
 846:	b9 4e       	sbci	r27, 0xE9	; 233
 848:	ac 0f       	add	r26, r28
 84a:	bd 1f       	adc	r27, r29
 84c:	9c 93       	st	X, r25
 84e:	21 96       	adiw	r28, 0x01	; 1
 850:	31 96       	adiw	r30, 0x01	; 1
 852:	c2 17       	cp	r28, r18
 854:	d3 07       	cpc	r29, r19
 856:	01 f7       	brne	.-64     	; 0x818 <USART_SendPacket+0x30>
 858:	04 c0       	rjmp	.+8      	; 0x862 <USART_SendPacket+0x7a>
 85a:	03 e0       	ldi	r16, 0x03	; 3
 85c:	10 e0       	ldi	r17, 0x00	; 0
 85e:	c0 e0       	ldi	r28, 0x00	; 0
 860:	d0 e0       	ldi	r29, 0x00	; 0
 862:	69 df       	rcall	.-302    	; 0x736 <USART_crc16>
 864:	f8 01       	movw	r30, r16
 866:	ee 5a       	subi	r30, 0xAE	; 174
 868:	f9 4e       	sbci	r31, 0xE9	; 233
 86a:	ec 0f       	add	r30, r28
 86c:	fd 1f       	adc	r31, r29
 86e:	90 83       	st	Z, r25
 870:	81 83       	std	Z+1, r24	; 0x01
 872:	22 96       	adiw	r28, 0x02	; 2
 874:	0c 0f       	add	r16, r28
 876:	1d 1f       	adc	r17, r29
 878:	f8 01       	movw	r30, r16
 87a:	ee 5a       	subi	r30, 0xAE	; 174
 87c:	f9 4e       	sbci	r31, 0xE9	; 233
 87e:	8e e7       	ldi	r24, 0x7E	; 126
 880:	80 83       	st	Z, r24
 882:	c8 01       	movw	r24, r16
 884:	01 96       	adiw	r24, 0x01	; 1
 886:	18 16       	cp	r1, r24
 888:	19 06       	cpc	r1, r25
 88a:	4c f4       	brge	.+18     	; 0x89e <USART_SendPacket+0xb6>
 88c:	c2 e5       	ldi	r28, 0x52	; 82
 88e:	d6 e1       	ldi	r29, 0x16	; 22
 890:	0d 5a       	subi	r16, 0xAD	; 173
 892:	19 4e       	sbci	r17, 0xE9	; 233
 894:	89 91       	ld	r24, Y+
 896:	46 df       	rcall	.-372    	; 0x724 <USART_WriteByte>
 898:	c0 17       	cp	r28, r16
 89a:	d1 07       	cpc	r29, r17
 89c:	d9 f7       	brne	.-10     	; 0x894 <USART_SendPacket+0xac>
 89e:	df 91       	pop	r29
 8a0:	cf 91       	pop	r28
 8a2:	1f 91       	pop	r17
 8a4:	0f 91       	pop	r16
 8a6:	08 95       	ret

000008a8 <USART_SendMessage>:
 8a8:	cf 93       	push	r28
 8aa:	df 93       	push	r29
 8ac:	c8 2f       	mov	r28, r24
 8ae:	d9 2f       	mov	r29, r25
 8b0:	43 e5       	ldi	r20, 0x53	; 83
 8b2:	55 e1       	ldi	r21, 0x15	; 21
 8b4:	20 e0       	ldi	r18, 0x00	; 0
 8b6:	30 e0       	ldi	r19, 0x00	; 0
 8b8:	06 c0       	rjmp	.+12     	; 0x8c6 <USART_SendMessage+0x1e>
 8ba:	69 91       	ld	r22, Y+
 8bc:	fa 01       	movw	r30, r20
 8be:	61 93       	st	Z+, r22
 8c0:	af 01       	movw	r20, r30
 8c2:	2f 5f       	subi	r18, 0xFF	; 255
 8c4:	3f 4f       	sbci	r19, 0xFF	; 255
 8c6:	e8 2f       	mov	r30, r24
 8c8:	f9 2f       	mov	r31, r25
 8ca:	df 01       	movw	r26, r30
 8cc:	0d 90       	ld	r0, X+
 8ce:	00 20       	and	r0, r0
 8d0:	e9 f7       	brne	.-6      	; 0x8cc <USART_SendMessage+0x24>
 8d2:	11 97       	sbiw	r26, 0x01	; 1
 8d4:	bd 01       	movw	r22, r26
 8d6:	6e 1b       	sub	r22, r30
 8d8:	7f 0b       	sbc	r23, r31
 8da:	26 17       	cp	r18, r22
 8dc:	37 07       	cpc	r19, r23
 8de:	68 f3       	brcs	.-38     	; 0x8ba <USART_SendMessage+0x12>
 8e0:	8d e4       	ldi	r24, 0x4D	; 77
 8e2:	82 df       	rcall	.-252    	; 0x7e8 <USART_SendPacket>
 8e4:	df 91       	pop	r29
 8e6:	cf 91       	pop	r28
 8e8:	08 95       	ret

000008ea <__vector_20>:
}


ISR (USART0_RX_vect)
{
 8ea:	1f 92       	push	r1
 8ec:	0f 92       	push	r0
 8ee:	0f b6       	in	r0, 0x3f	; 63
 8f0:	0f 92       	push	r0
 8f2:	11 24       	eor	r1, r1
 8f4:	0b b6       	in	r0, 0x3b	; 59
 8f6:	0f 92       	push	r0
 8f8:	ef 92       	push	r14
 8fa:	ff 92       	push	r15
 8fc:	0f 93       	push	r16
 8fe:	1f 93       	push	r17
 900:	2f 93       	push	r18
 902:	3f 93       	push	r19
 904:	4f 93       	push	r20
 906:	5f 93       	push	r21
 908:	6f 93       	push	r22
 90a:	7f 93       	push	r23
 90c:	8f 93       	push	r24
 90e:	9f 93       	push	r25
 910:	af 93       	push	r26
 912:	bf 93       	push	r27
 914:	cf 93       	push	r28
 916:	df 93       	push	r29
 918:	ef 93       	push	r30
 91a:	ff 93       	push	r31
	uint8_t data;
	data = UDR0; // read data from buffer TODO: add check for overflow
 91c:	20 91 c6 00 	lds	r18, 0x00C6
	
	
	
	if(data == 0x7e)
 920:	2e 37       	cpi	r18, 0x7E	; 126
 922:	09 f0       	breq	.+2      	; 0x926 <__vector_20+0x3c>
 924:	3e c0       	rjmp	.+124    	; 0x9a2 <__vector_20+0xb8>
	{
		if(gRxBufferIndex >= 4 || gRxBufferIndex == gRxBuffer[1] + 4) //TODO: add crc check
 926:	80 91 26 12 	lds	r24, 0x1226
 92a:	90 91 27 12 	lds	r25, 0x1227
 92e:	84 30       	cpi	r24, 0x04	; 4
 930:	91 05       	cpc	r25, r1
 932:	40 f4       	brcc	.+16     	; 0x944 <__vector_20+0x5a>
 934:	20 91 4f 13 	lds	r18, 0x134F
 938:	30 e0       	ldi	r19, 0x00	; 0
 93a:	2c 5f       	subi	r18, 0xFC	; 252
 93c:	3f 4f       	sbci	r19, 0xFF	; 255
 93e:	82 17       	cp	r24, r18
 940:	93 07       	cpc	r25, r19
 942:	51 f5       	brne	.+84     	; 0x998 <__vector_20+0xae>
		{
			if(gInvertNextFlag)
 944:	80 91 24 12 	lds	r24, 0x1224
 948:	90 91 25 12 	lds	r25, 0x1225
 94c:	89 2b       	or	r24, r25
 94e:	21 f0       	breq	.+8      	; 0x958 <__vector_20+0x6e>
			{
				data = (1<<5)^data;
				gInvertNextFlag = 0;
 950:	10 92 25 12 	sts	0x1225, r1
 954:	10 92 24 12 	sts	0x1224, r1
 958:	0e e4       	ldi	r16, 0x4E	; 78
 95a:	13 e1       	ldi	r17, 0x13	; 19
			}
			
			//USART_Bounce();
			
			// Add packet (no crc) to fifo-buffer to cue it for decoding
			for(int i = 0; i < gRxBuffer[1] + 2; ++i)
 95c:	c0 e0       	ldi	r28, 0x00	; 0
 95e:	d0 e0       	ldi	r29, 0x00	; 0
 960:	0f 2e       	mov	r0, r31
 962:	ff e4       	ldi	r31, 0x4F	; 79
 964:	ef 2e       	mov	r14, r31
 966:	f3 e1       	ldi	r31, 0x13	; 19
 968:	ff 2e       	mov	r15, r31
 96a:	f0 2d       	mov	r31, r0
			{
				if(FifoWrite(gRxFIFO, gRxBuffer[i]))
 96c:	f8 01       	movw	r30, r16
 96e:	61 91       	ld	r22, Z+
 970:	8f 01       	movw	r16, r30
 972:	80 91 00 01 	lds	r24, 0x0100
 976:	90 91 01 01 	lds	r25, 0x0101
 97a:	ed db       	rcall	.-2086   	; 0x156 <FifoWrite>
 97c:	88 23       	and	r24, r24
 97e:	21 f0       	breq	.+8      	; 0x988 <__vector_20+0x9e>
				{
					TWI_send_string(S_ADRESS,"U_FIFO-full");
 980:	61 e1       	ldi	r22, 0x11	; 17
 982:	72 e1       	ldi	r23, 0x12	; 18
 984:	80 e4       	ldi	r24, 0x40	; 64
 986:	0f dd       	rcall	.-1506   	; 0x3a6 <TWI_send_string>
			}
			
			//USART_Bounce();
			
			// Add packet (no crc) to fifo-buffer to cue it for decoding
			for(int i = 0; i < gRxBuffer[1] + 2; ++i)
 988:	21 96       	adiw	r28, 0x01	; 1
 98a:	f7 01       	movw	r30, r14
 98c:	80 81       	ld	r24, Z
 98e:	90 e0       	ldi	r25, 0x00	; 0
 990:	02 96       	adiw	r24, 0x02	; 2
 992:	c8 17       	cp	r28, r24
 994:	d9 07       	cpc	r29, r25
 996:	54 f3       	brlt	.-44     	; 0x96c <__vector_20+0x82>
					TWI_send_string(S_ADRESS,"U_FIFO-full");
				}
			}
		}
		
		gRxBufferIndex = 0; // always reset buffer index when frame delimiter (0x7e) is read
 998:	10 92 27 12 	sts	0x1227, r1
 99c:	10 92 26 12 	sts	0x1226, r1
 9a0:	16 c0       	rjmp	.+44     	; 0x9ce <__vector_20+0xe4>
		
	}else if(data == 0x7d)
 9a2:	2d 37       	cpi	r18, 0x7D	; 125
 9a4:	39 f4       	brne	.+14     	; 0x9b4 <__vector_20+0xca>
	{
		gInvertNextFlag = 1;
 9a6:	81 e0       	ldi	r24, 0x01	; 1
 9a8:	90 e0       	ldi	r25, 0x00	; 0
 9aa:	90 93 25 12 	sts	0x1225, r25
 9ae:	80 93 24 12 	sts	0x1224, r24
 9b2:	0d c0       	rjmp	.+26     	; 0x9ce <__vector_20+0xe4>
	}else
	{
		gRxBuffer[gRxBufferIndex] = data;
 9b4:	80 91 26 12 	lds	r24, 0x1226
 9b8:	90 91 27 12 	lds	r25, 0x1227
 9bc:	fc 01       	movw	r30, r24
 9be:	e2 5b       	subi	r30, 0xB2	; 178
 9c0:	fc 4e       	sbci	r31, 0xEC	; 236
 9c2:	20 83       	st	Z, r18
		++gRxBufferIndex;
 9c4:	01 96       	adiw	r24, 0x01	; 1
 9c6:	90 93 27 12 	sts	0x1227, r25
 9ca:	80 93 26 12 	sts	0x1226, r24
	}
	
	
}
 9ce:	ff 91       	pop	r31
 9d0:	ef 91       	pop	r30
 9d2:	df 91       	pop	r29
 9d4:	cf 91       	pop	r28
 9d6:	bf 91       	pop	r27
 9d8:	af 91       	pop	r26
 9da:	9f 91       	pop	r25
 9dc:	8f 91       	pop	r24
 9de:	7f 91       	pop	r23
 9e0:	6f 91       	pop	r22
 9e2:	5f 91       	pop	r21
 9e4:	4f 91       	pop	r20
 9e6:	3f 91       	pop	r19
 9e8:	2f 91       	pop	r18
 9ea:	1f 91       	pop	r17
 9ec:	0f 91       	pop	r16
 9ee:	ff 90       	pop	r15
 9f0:	ef 90       	pop	r14
 9f2:	0f 90       	pop	r0
 9f4:	0b be       	out	0x3b, r0	; 59
 9f6:	0f 90       	pop	r0
 9f8:	0f be       	out	0x3f, r0	; 63
 9fa:	0f 90       	pop	r0
 9fc:	1f 90       	pop	r1
 9fe:	18 95       	reti

00000a00 <__fixunssfsi>:
 a00:	70 d0       	rcall	.+224    	; 0xae2 <__fp_splitA>
 a02:	88 f0       	brcs	.+34     	; 0xa26 <__fixunssfsi+0x26>
 a04:	9f 57       	subi	r25, 0x7F	; 127
 a06:	90 f0       	brcs	.+36     	; 0xa2c <__fixunssfsi+0x2c>
 a08:	b9 2f       	mov	r27, r25
 a0a:	99 27       	eor	r25, r25
 a0c:	b7 51       	subi	r27, 0x17	; 23
 a0e:	a0 f0       	brcs	.+40     	; 0xa38 <__fixunssfsi+0x38>
 a10:	d1 f0       	breq	.+52     	; 0xa46 <__fixunssfsi+0x46>
 a12:	66 0f       	add	r22, r22
 a14:	77 1f       	adc	r23, r23
 a16:	88 1f       	adc	r24, r24
 a18:	99 1f       	adc	r25, r25
 a1a:	1a f0       	brmi	.+6      	; 0xa22 <__fixunssfsi+0x22>
 a1c:	ba 95       	dec	r27
 a1e:	c9 f7       	brne	.-14     	; 0xa12 <__fixunssfsi+0x12>
 a20:	12 c0       	rjmp	.+36     	; 0xa46 <__fixunssfsi+0x46>
 a22:	b1 30       	cpi	r27, 0x01	; 1
 a24:	81 f0       	breq	.+32     	; 0xa46 <__fixunssfsi+0x46>
 a26:	77 d0       	rcall	.+238    	; 0xb16 <__fp_zero>
 a28:	b1 e0       	ldi	r27, 0x01	; 1
 a2a:	08 95       	ret
 a2c:	74 c0       	rjmp	.+232    	; 0xb16 <__fp_zero>
 a2e:	67 2f       	mov	r22, r23
 a30:	78 2f       	mov	r23, r24
 a32:	88 27       	eor	r24, r24
 a34:	b8 5f       	subi	r27, 0xF8	; 248
 a36:	39 f0       	breq	.+14     	; 0xa46 <__fixunssfsi+0x46>
 a38:	b9 3f       	cpi	r27, 0xF9	; 249
 a3a:	cc f3       	brlt	.-14     	; 0xa2e <__fixunssfsi+0x2e>
 a3c:	86 95       	lsr	r24
 a3e:	77 95       	ror	r23
 a40:	67 95       	ror	r22
 a42:	b3 95       	inc	r27
 a44:	d9 f7       	brne	.-10     	; 0xa3c <__fixunssfsi+0x3c>
 a46:	3e f4       	brtc	.+14     	; 0xa56 <__fixunssfsi+0x56>
 a48:	90 95       	com	r25
 a4a:	80 95       	com	r24
 a4c:	70 95       	com	r23
 a4e:	61 95       	neg	r22
 a50:	7f 4f       	sbci	r23, 0xFF	; 255
 a52:	8f 4f       	sbci	r24, 0xFF	; 255
 a54:	9f 4f       	sbci	r25, 0xFF	; 255
 a56:	08 95       	ret

00000a58 <__floatunsisf>:
 a58:	e8 94       	clt
 a5a:	09 c0       	rjmp	.+18     	; 0xa6e <__floatsisf+0x12>

00000a5c <__floatsisf>:
 a5c:	97 fb       	bst	r25, 7
 a5e:	3e f4       	brtc	.+14     	; 0xa6e <__floatsisf+0x12>
 a60:	90 95       	com	r25
 a62:	80 95       	com	r24
 a64:	70 95       	com	r23
 a66:	61 95       	neg	r22
 a68:	7f 4f       	sbci	r23, 0xFF	; 255
 a6a:	8f 4f       	sbci	r24, 0xFF	; 255
 a6c:	9f 4f       	sbci	r25, 0xFF	; 255
 a6e:	99 23       	and	r25, r25
 a70:	a9 f0       	breq	.+42     	; 0xa9c <__floatsisf+0x40>
 a72:	f9 2f       	mov	r31, r25
 a74:	96 e9       	ldi	r25, 0x96	; 150
 a76:	bb 27       	eor	r27, r27
 a78:	93 95       	inc	r25
 a7a:	f6 95       	lsr	r31
 a7c:	87 95       	ror	r24
 a7e:	77 95       	ror	r23
 a80:	67 95       	ror	r22
 a82:	b7 95       	ror	r27
 a84:	f1 11       	cpse	r31, r1
 a86:	f8 cf       	rjmp	.-16     	; 0xa78 <__floatsisf+0x1c>
 a88:	fa f4       	brpl	.+62     	; 0xac8 <__floatsisf+0x6c>
 a8a:	bb 0f       	add	r27, r27
 a8c:	11 f4       	brne	.+4      	; 0xa92 <__floatsisf+0x36>
 a8e:	60 ff       	sbrs	r22, 0
 a90:	1b c0       	rjmp	.+54     	; 0xac8 <__floatsisf+0x6c>
 a92:	6f 5f       	subi	r22, 0xFF	; 255
 a94:	7f 4f       	sbci	r23, 0xFF	; 255
 a96:	8f 4f       	sbci	r24, 0xFF	; 255
 a98:	9f 4f       	sbci	r25, 0xFF	; 255
 a9a:	16 c0       	rjmp	.+44     	; 0xac8 <__floatsisf+0x6c>
 a9c:	88 23       	and	r24, r24
 a9e:	11 f0       	breq	.+4      	; 0xaa4 <__floatsisf+0x48>
 aa0:	96 e9       	ldi	r25, 0x96	; 150
 aa2:	11 c0       	rjmp	.+34     	; 0xac6 <__floatsisf+0x6a>
 aa4:	77 23       	and	r23, r23
 aa6:	21 f0       	breq	.+8      	; 0xab0 <__floatsisf+0x54>
 aa8:	9e e8       	ldi	r25, 0x8E	; 142
 aaa:	87 2f       	mov	r24, r23
 aac:	76 2f       	mov	r23, r22
 aae:	05 c0       	rjmp	.+10     	; 0xaba <__floatsisf+0x5e>
 ab0:	66 23       	and	r22, r22
 ab2:	71 f0       	breq	.+28     	; 0xad0 <__floatsisf+0x74>
 ab4:	96 e8       	ldi	r25, 0x86	; 134
 ab6:	86 2f       	mov	r24, r22
 ab8:	70 e0       	ldi	r23, 0x00	; 0
 aba:	60 e0       	ldi	r22, 0x00	; 0
 abc:	2a f0       	brmi	.+10     	; 0xac8 <__floatsisf+0x6c>
 abe:	9a 95       	dec	r25
 ac0:	66 0f       	add	r22, r22
 ac2:	77 1f       	adc	r23, r23
 ac4:	88 1f       	adc	r24, r24
 ac6:	da f7       	brpl	.-10     	; 0xabe <__floatsisf+0x62>
 ac8:	88 0f       	add	r24, r24
 aca:	96 95       	lsr	r25
 acc:	87 95       	ror	r24
 ace:	97 f9       	bld	r25, 7
 ad0:	08 95       	ret

00000ad2 <__fp_split3>:
 ad2:	57 fd       	sbrc	r21, 7
 ad4:	90 58       	subi	r25, 0x80	; 128
 ad6:	44 0f       	add	r20, r20
 ad8:	55 1f       	adc	r21, r21
 ada:	59 f0       	breq	.+22     	; 0xaf2 <__fp_splitA+0x10>
 adc:	5f 3f       	cpi	r21, 0xFF	; 255
 ade:	71 f0       	breq	.+28     	; 0xafc <__fp_splitA+0x1a>
 ae0:	47 95       	ror	r20

00000ae2 <__fp_splitA>:
 ae2:	88 0f       	add	r24, r24
 ae4:	97 fb       	bst	r25, 7
 ae6:	99 1f       	adc	r25, r25
 ae8:	61 f0       	breq	.+24     	; 0xb02 <__fp_splitA+0x20>
 aea:	9f 3f       	cpi	r25, 0xFF	; 255
 aec:	79 f0       	breq	.+30     	; 0xb0c <__fp_splitA+0x2a>
 aee:	87 95       	ror	r24
 af0:	08 95       	ret
 af2:	12 16       	cp	r1, r18
 af4:	13 06       	cpc	r1, r19
 af6:	14 06       	cpc	r1, r20
 af8:	55 1f       	adc	r21, r21
 afa:	f2 cf       	rjmp	.-28     	; 0xae0 <__fp_split3+0xe>
 afc:	46 95       	lsr	r20
 afe:	f1 df       	rcall	.-30     	; 0xae2 <__fp_splitA>
 b00:	08 c0       	rjmp	.+16     	; 0xb12 <__fp_splitA+0x30>
 b02:	16 16       	cp	r1, r22
 b04:	17 06       	cpc	r1, r23
 b06:	18 06       	cpc	r1, r24
 b08:	99 1f       	adc	r25, r25
 b0a:	f1 cf       	rjmp	.-30     	; 0xaee <__fp_splitA+0xc>
 b0c:	86 95       	lsr	r24
 b0e:	71 05       	cpc	r23, r1
 b10:	61 05       	cpc	r22, r1
 b12:	08 94       	sec
 b14:	08 95       	ret

00000b16 <__fp_zero>:
 b16:	e8 94       	clt

00000b18 <__fp_szero>:
 b18:	bb 27       	eor	r27, r27
 b1a:	66 27       	eor	r22, r22
 b1c:	77 27       	eor	r23, r23
 b1e:	cb 01       	movw	r24, r22
 b20:	97 f9       	bld	r25, 7
 b22:	08 95       	ret

00000b24 <__mulsf3>:
 b24:	0b d0       	rcall	.+22     	; 0xb3c <__mulsf3x>
 b26:	78 c0       	rjmp	.+240    	; 0xc18 <__fp_round>
 b28:	69 d0       	rcall	.+210    	; 0xbfc <__fp_pscA>
 b2a:	28 f0       	brcs	.+10     	; 0xb36 <__mulsf3+0x12>
 b2c:	6e d0       	rcall	.+220    	; 0xc0a <__fp_pscB>
 b2e:	18 f0       	brcs	.+6      	; 0xb36 <__mulsf3+0x12>
 b30:	95 23       	and	r25, r21
 b32:	09 f0       	breq	.+2      	; 0xb36 <__mulsf3+0x12>
 b34:	5a c0       	rjmp	.+180    	; 0xbea <__fp_inf>
 b36:	5f c0       	rjmp	.+190    	; 0xbf6 <__fp_nan>
 b38:	11 24       	eor	r1, r1
 b3a:	ee cf       	rjmp	.-36     	; 0xb18 <__fp_szero>

00000b3c <__mulsf3x>:
 b3c:	ca df       	rcall	.-108    	; 0xad2 <__fp_split3>
 b3e:	a0 f3       	brcs	.-24     	; 0xb28 <__mulsf3+0x4>

00000b40 <__mulsf3_pse>:
 b40:	95 9f       	mul	r25, r21
 b42:	d1 f3       	breq	.-12     	; 0xb38 <__mulsf3+0x14>
 b44:	95 0f       	add	r25, r21
 b46:	50 e0       	ldi	r21, 0x00	; 0
 b48:	55 1f       	adc	r21, r21
 b4a:	62 9f       	mul	r22, r18
 b4c:	f0 01       	movw	r30, r0
 b4e:	72 9f       	mul	r23, r18
 b50:	bb 27       	eor	r27, r27
 b52:	f0 0d       	add	r31, r0
 b54:	b1 1d       	adc	r27, r1
 b56:	63 9f       	mul	r22, r19
 b58:	aa 27       	eor	r26, r26
 b5a:	f0 0d       	add	r31, r0
 b5c:	b1 1d       	adc	r27, r1
 b5e:	aa 1f       	adc	r26, r26
 b60:	64 9f       	mul	r22, r20
 b62:	66 27       	eor	r22, r22
 b64:	b0 0d       	add	r27, r0
 b66:	a1 1d       	adc	r26, r1
 b68:	66 1f       	adc	r22, r22
 b6a:	82 9f       	mul	r24, r18
 b6c:	22 27       	eor	r18, r18
 b6e:	b0 0d       	add	r27, r0
 b70:	a1 1d       	adc	r26, r1
 b72:	62 1f       	adc	r22, r18
 b74:	73 9f       	mul	r23, r19
 b76:	b0 0d       	add	r27, r0
 b78:	a1 1d       	adc	r26, r1
 b7a:	62 1f       	adc	r22, r18
 b7c:	83 9f       	mul	r24, r19
 b7e:	a0 0d       	add	r26, r0
 b80:	61 1d       	adc	r22, r1
 b82:	22 1f       	adc	r18, r18
 b84:	74 9f       	mul	r23, r20
 b86:	33 27       	eor	r19, r19
 b88:	a0 0d       	add	r26, r0
 b8a:	61 1d       	adc	r22, r1
 b8c:	23 1f       	adc	r18, r19
 b8e:	84 9f       	mul	r24, r20
 b90:	60 0d       	add	r22, r0
 b92:	21 1d       	adc	r18, r1
 b94:	82 2f       	mov	r24, r18
 b96:	76 2f       	mov	r23, r22
 b98:	6a 2f       	mov	r22, r26
 b9a:	11 24       	eor	r1, r1
 b9c:	9f 57       	subi	r25, 0x7F	; 127
 b9e:	50 40       	sbci	r21, 0x00	; 0
 ba0:	8a f0       	brmi	.+34     	; 0xbc4 <__mulsf3_pse+0x84>
 ba2:	e1 f0       	breq	.+56     	; 0xbdc <__mulsf3_pse+0x9c>
 ba4:	88 23       	and	r24, r24
 ba6:	4a f0       	brmi	.+18     	; 0xbba <__mulsf3_pse+0x7a>
 ba8:	ee 0f       	add	r30, r30
 baa:	ff 1f       	adc	r31, r31
 bac:	bb 1f       	adc	r27, r27
 bae:	66 1f       	adc	r22, r22
 bb0:	77 1f       	adc	r23, r23
 bb2:	88 1f       	adc	r24, r24
 bb4:	91 50       	subi	r25, 0x01	; 1
 bb6:	50 40       	sbci	r21, 0x00	; 0
 bb8:	a9 f7       	brne	.-22     	; 0xba4 <__mulsf3_pse+0x64>
 bba:	9e 3f       	cpi	r25, 0xFE	; 254
 bbc:	51 05       	cpc	r21, r1
 bbe:	70 f0       	brcs	.+28     	; 0xbdc <__mulsf3_pse+0x9c>
 bc0:	14 c0       	rjmp	.+40     	; 0xbea <__fp_inf>
 bc2:	aa cf       	rjmp	.-172    	; 0xb18 <__fp_szero>
 bc4:	5f 3f       	cpi	r21, 0xFF	; 255
 bc6:	ec f3       	brlt	.-6      	; 0xbc2 <__mulsf3_pse+0x82>
 bc8:	98 3e       	cpi	r25, 0xE8	; 232
 bca:	dc f3       	brlt	.-10     	; 0xbc2 <__mulsf3_pse+0x82>
 bcc:	86 95       	lsr	r24
 bce:	77 95       	ror	r23
 bd0:	67 95       	ror	r22
 bd2:	b7 95       	ror	r27
 bd4:	f7 95       	ror	r31
 bd6:	e7 95       	ror	r30
 bd8:	9f 5f       	subi	r25, 0xFF	; 255
 bda:	c1 f7       	brne	.-16     	; 0xbcc <__mulsf3_pse+0x8c>
 bdc:	fe 2b       	or	r31, r30
 bde:	88 0f       	add	r24, r24
 be0:	91 1d       	adc	r25, r1
 be2:	96 95       	lsr	r25
 be4:	87 95       	ror	r24
 be6:	97 f9       	bld	r25, 7
 be8:	08 95       	ret

00000bea <__fp_inf>:
 bea:	97 f9       	bld	r25, 7
 bec:	9f 67       	ori	r25, 0x7F	; 127
 bee:	80 e8       	ldi	r24, 0x80	; 128
 bf0:	70 e0       	ldi	r23, 0x00	; 0
 bf2:	60 e0       	ldi	r22, 0x00	; 0
 bf4:	08 95       	ret

00000bf6 <__fp_nan>:
 bf6:	9f ef       	ldi	r25, 0xFF	; 255
 bf8:	80 ec       	ldi	r24, 0xC0	; 192
 bfa:	08 95       	ret

00000bfc <__fp_pscA>:
 bfc:	00 24       	eor	r0, r0
 bfe:	0a 94       	dec	r0
 c00:	16 16       	cp	r1, r22
 c02:	17 06       	cpc	r1, r23
 c04:	18 06       	cpc	r1, r24
 c06:	09 06       	cpc	r0, r25
 c08:	08 95       	ret

00000c0a <__fp_pscB>:
 c0a:	00 24       	eor	r0, r0
 c0c:	0a 94       	dec	r0
 c0e:	12 16       	cp	r1, r18
 c10:	13 06       	cpc	r1, r19
 c12:	14 06       	cpc	r1, r20
 c14:	05 06       	cpc	r0, r21
 c16:	08 95       	ret

00000c18 <__fp_round>:
 c18:	09 2e       	mov	r0, r25
 c1a:	03 94       	inc	r0
 c1c:	00 0c       	add	r0, r0
 c1e:	11 f4       	brne	.+4      	; 0xc24 <__fp_round+0xc>
 c20:	88 23       	and	r24, r24
 c22:	52 f0       	brmi	.+20     	; 0xc38 <__fp_round+0x20>
 c24:	bb 0f       	add	r27, r27
 c26:	40 f4       	brcc	.+16     	; 0xc38 <__fp_round+0x20>
 c28:	bf 2b       	or	r27, r31
 c2a:	11 f4       	brne	.+4      	; 0xc30 <__fp_round+0x18>
 c2c:	60 ff       	sbrs	r22, 0
 c2e:	04 c0       	rjmp	.+8      	; 0xc38 <__fp_round+0x20>
 c30:	6f 5f       	subi	r22, 0xFF	; 255
 c32:	7f 4f       	sbci	r23, 0xFF	; 255
 c34:	8f 4f       	sbci	r24, 0xFF	; 255
 c36:	9f 4f       	sbci	r25, 0xFF	; 255
 c38:	08 95       	ret

00000c3a <_exit>:
 c3a:	f8 94       	cli

00000c3c <__stop_program>:
 c3c:	ff cf       	rjmp	.-2      	; 0xc3c <__stop_program>
