
kommunikationsmodulen.elf:     file format elf32-avr

Sections:
Idx Name          Size      VMA       LMA       File off  Algn
  0 .data         0000211e  00800100  000011ee  00001282  2**0
                  CONTENTS, ALLOC, LOAD, DATA
  1 .text         000011ee  00000000  00000000  00000094  2**1
                  CONTENTS, ALLOC, LOAD, READONLY, CODE
  2 .bss          0000063f  0080221e  0080221e  000033a0  2**0
                  ALLOC
  3 .stab         00001674  00000000  00000000  000033a0  2**2
                  CONTENTS, READONLY, DEBUGGING
  4 .stabstr      00000598  00000000  00000000  00004a14  2**0
                  CONTENTS, READONLY, DEBUGGING
  5 .comment      0000002f  00000000  00000000  00004fac  2**0
                  CONTENTS, READONLY
  6 .debug_aranges 000002a0  00000000  00000000  00004fdb  2**0
                  CONTENTS, READONLY, DEBUGGING
  7 .debug_info   00002138  00000000  00000000  0000527b  2**0
                  CONTENTS, READONLY, DEBUGGING
  8 .debug_abbrev 00000938  00000000  00000000  000073b3  2**0
                  CONTENTS, READONLY, DEBUGGING
  9 .debug_line   00001867  00000000  00000000  00007ceb  2**0
                  CONTENTS, READONLY, DEBUGGING
 10 .debug_frame  000007ec  00000000  00000000  00009554  2**2
                  CONTENTS, READONLY, DEBUGGING
 11 .debug_str    000007fd  00000000  00000000  00009d40  2**0
                  CONTENTS, READONLY, DEBUGGING
 12 .debug_loc    0000181c  00000000  00000000  0000a53d  2**0
                  CONTENTS, READONLY, DEBUGGING
 13 .debug_ranges 00000298  00000000  00000000  0000bd59  2**0
                  CONTENTS, READONLY, DEBUGGING

Disassembly of section .text:

00000000 <__vectors>:
       0:	45 c0       	rjmp	.+138    	; 0x8c <__ctors_end>
       2:	00 00       	nop
       4:	61 c0       	rjmp	.+194    	; 0xc8 <__bad_interrupt>
       6:	00 00       	nop
       8:	5f c0       	rjmp	.+190    	; 0xc8 <__bad_interrupt>
       a:	00 00       	nop
       c:	5d c0       	rjmp	.+186    	; 0xc8 <__bad_interrupt>
       e:	00 00       	nop
      10:	5b c0       	rjmp	.+182    	; 0xc8 <__bad_interrupt>
      12:	00 00       	nop
      14:	59 c0       	rjmp	.+178    	; 0xc8 <__bad_interrupt>
      16:	00 00       	nop
      18:	57 c0       	rjmp	.+174    	; 0xc8 <__bad_interrupt>
      1a:	00 00       	nop
      1c:	55 c0       	rjmp	.+170    	; 0xc8 <__bad_interrupt>
      1e:	00 00       	nop
      20:	53 c0       	rjmp	.+166    	; 0xc8 <__bad_interrupt>
      22:	00 00       	nop
      24:	31 c1       	rjmp	.+610    	; 0x288 <__vector_9>
      26:	00 00       	nop
      28:	4f c0       	rjmp	.+158    	; 0xc8 <__bad_interrupt>
      2a:	00 00       	nop
      2c:	4d c0       	rjmp	.+154    	; 0xc8 <__bad_interrupt>
      2e:	00 00       	nop
      30:	4b c0       	rjmp	.+150    	; 0xc8 <__bad_interrupt>
      32:	00 00       	nop
      34:	fe c0       	rjmp	.+508    	; 0x232 <__vector_13>
      36:	00 00       	nop
      38:	47 c0       	rjmp	.+142    	; 0xc8 <__bad_interrupt>
      3a:	00 00       	nop
      3c:	45 c0       	rjmp	.+138    	; 0xc8 <__bad_interrupt>
      3e:	00 00       	nop
      40:	43 c0       	rjmp	.+134    	; 0xc8 <__bad_interrupt>
      42:	00 00       	nop
      44:	41 c0       	rjmp	.+130    	; 0xc8 <__bad_interrupt>
      46:	00 00       	nop
      48:	3f c0       	rjmp	.+126    	; 0xc8 <__bad_interrupt>
      4a:	00 00       	nop
      4c:	3d c0       	rjmp	.+122    	; 0xc8 <__bad_interrupt>
      4e:	00 00       	nop
      50:	23 c7       	rjmp	.+3654   	; 0xe98 <__vector_20>
      52:	00 00       	nop
      54:	39 c0       	rjmp	.+114    	; 0xc8 <__bad_interrupt>
      56:	00 00       	nop
      58:	37 c0       	rjmp	.+110    	; 0xc8 <__bad_interrupt>
      5a:	00 00       	nop
      5c:	35 c0       	rjmp	.+106    	; 0xc8 <__bad_interrupt>
      5e:	00 00       	nop
      60:	33 c0       	rjmp	.+102    	; 0xc8 <__bad_interrupt>
      62:	00 00       	nop
      64:	31 c0       	rjmp	.+98     	; 0xc8 <__bad_interrupt>
      66:	00 00       	nop
      68:	77 c3       	rjmp	.+1774   	; 0x758 <__vector_26>
      6a:	00 00       	nop
      6c:	2d c0       	rjmp	.+90     	; 0xc8 <__bad_interrupt>
      6e:	00 00       	nop
      70:	2b c0       	rjmp	.+86     	; 0xc8 <__bad_interrupt>
      72:	00 00       	nop
      74:	29 c0       	rjmp	.+82     	; 0xc8 <__bad_interrupt>
      76:	00 00       	nop
      78:	27 c0       	rjmp	.+78     	; 0xc8 <__bad_interrupt>
      7a:	00 00       	nop
      7c:	25 c0       	rjmp	.+74     	; 0xc8 <__bad_interrupt>
      7e:	00 00       	nop
      80:	23 c0       	rjmp	.+70     	; 0xc8 <__bad_interrupt>
      82:	00 00       	nop
      84:	21 c0       	rjmp	.+66     	; 0xc8 <__bad_interrupt>
      86:	00 00       	nop
      88:	1f c0       	rjmp	.+62     	; 0xc8 <__bad_interrupt>
	...

0000008c <__ctors_end>:
      8c:	11 24       	eor	r1, r1
      8e:	1f be       	out	0x3f, r1	; 63
      90:	cf ef       	ldi	r28, 0xFF	; 255
      92:	d0 e4       	ldi	r29, 0x40	; 64
      94:	de bf       	out	0x3e, r29	; 62
      96:	cd bf       	out	0x3d, r28	; 61

00000098 <__do_copy_data>:
      98:	12 e2       	ldi	r17, 0x22	; 34
      9a:	a0 e0       	ldi	r26, 0x00	; 0
      9c:	b1 e0       	ldi	r27, 0x01	; 1
      9e:	ee ee       	ldi	r30, 0xEE	; 238
      a0:	f1 e1       	ldi	r31, 0x11	; 17
      a2:	00 e0       	ldi	r16, 0x00	; 0
      a4:	0b bf       	out	0x3b, r16	; 59
      a6:	02 c0       	rjmp	.+4      	; 0xac <__do_copy_data+0x14>
      a8:	07 90       	elpm	r0, Z+
      aa:	0d 92       	st	X+, r0
      ac:	ae 31       	cpi	r26, 0x1E	; 30
      ae:	b1 07       	cpc	r27, r17
      b0:	d9 f7       	brne	.-10     	; 0xa8 <__do_copy_data+0x10>

000000b2 <__do_clear_bss>:
      b2:	28 e2       	ldi	r18, 0x28	; 40
      b4:	ae e1       	ldi	r26, 0x1E	; 30
      b6:	b2 e2       	ldi	r27, 0x22	; 34
      b8:	01 c0       	rjmp	.+2      	; 0xbc <.do_clear_bss_start>

000000ba <.do_clear_bss_loop>:
      ba:	1d 92       	st	X+, r1

000000bc <.do_clear_bss_start>:
      bc:	ad 35       	cpi	r26, 0x5D	; 93
      be:	b2 07       	cpc	r27, r18
      c0:	e1 f7       	brne	.-8      	; 0xba <.do_clear_bss_loop>
      c2:	94 d0       	rcall	.+296    	; 0x1ec <main>
      c4:	0c 94 f5 08 	jmp	0x11ea	; 0x11ea <_exit>

000000c8 <__bad_interrupt>:
      c8:	9b cf       	rjmp	.-202    	; 0x0 <__vectors>

000000ca <set_counter_1>:
	TCNT2 = 0;
}

void set_counter_1(uint16_t delay)
{
	delay = 18.000 * delay;
      ca:	bc 01       	movw	r22, r24
      cc:	80 e0       	ldi	r24, 0x00	; 0
      ce:	90 e0       	ldi	r25, 0x00	; 0
      d0:	9b d7       	rcall	.+3894   	; 0x1008 <__floatunsisf>
      d2:	20 e0       	ldi	r18, 0x00	; 0
      d4:	30 e0       	ldi	r19, 0x00	; 0
      d6:	40 e9       	ldi	r20, 0x90	; 144
      d8:	51 e4       	ldi	r21, 0x41	; 65
      da:	fc d7       	rcall	.+4088   	; 0x10d4 <__mulsf3>
      dc:	69 d7       	rcall	.+3794   	; 0xfb0 <__fixunssfsi>
	OCR1A = delay;
      de:	70 93 89 00 	sts	0x0089, r23
      e2:	60 93 88 00 	sts	0x0088, r22
      e6:	08 95       	ret

000000e8 <set_counter_2>:
}

void set_counter_2(uint16_t delay)
{
	delay = 18.000 * delay;
      e8:	bc 01       	movw	r22, r24
      ea:	80 e0       	ldi	r24, 0x00	; 0
      ec:	90 e0       	ldi	r25, 0x00	; 0
      ee:	8c d7       	rcall	.+3864   	; 0x1008 <__floatunsisf>
      f0:	20 e0       	ldi	r18, 0x00	; 0
      f2:	30 e0       	ldi	r19, 0x00	; 0
      f4:	40 e9       	ldi	r20, 0x90	; 144
      f6:	51 e4       	ldi	r21, 0x41	; 65
      f8:	ed d7       	rcall	.+4058   	; 0x10d4 <__mulsf3>
      fa:	5a d7       	rcall	.+3764   	; 0xfb0 <__fixunssfsi>
	OCR1A = delay;
      fc:	70 93 89 00 	sts	0x0089, r23
     100:	60 93 88 00 	sts	0x0088, r22
     104:	08 95       	ret

00000106 <init_counters>:

//---------------------------------------COUNTERS/TIMERS-----------
void init_counters()
{
	// WGMn3:0 = 4 (OCRnA) or 12 (OCRn), where top value is read from.
	TCCR1B |= 0b00000101; // clock 1, prescaler 1024
     106:	e1 e8       	ldi	r30, 0x81	; 129
     108:	f0 e0       	ldi	r31, 0x00	; 0
     10a:	80 81       	ld	r24, Z
     10c:	85 60       	ori	r24, 0x05	; 5
     10e:	80 83       	st	Z, r24
	TCCR2B |= 0b00000101; // clock 2, prescaler 1024
     110:	e1 eb       	ldi	r30, 0xB1	; 177
     112:	f0 e0       	ldi	r31, 0x00	; 0
     114:	80 81       	ld	r24, Z
     116:	85 60       	ori	r24, 0x05	; 5
     118:	80 83       	st	Z, r24
	
	// standardvalue for interrupt is 1000ms
	set_counter_1(1000);
     11a:	88 ee       	ldi	r24, 0xE8	; 232
     11c:	93 e0       	ldi	r25, 0x03	; 3
     11e:	d5 df       	rcall	.-86     	; 0xca <set_counter_1>
	set_counter_2(1000);
     120:	88 ee       	ldi	r24, 0xE8	; 232
     122:	93 e0       	ldi	r25, 0x03	; 3
     124:	e1 df       	rcall	.-62     	; 0xe8 <set_counter_2>
	
	TIMSK1 |= 0b00000010; // Enable interrupts when OCF1A, in TIFR1, is set.
     126:	ef e6       	ldi	r30, 0x6F	; 111
     128:	f0 e0       	ldi	r31, 0x00	; 0
     12a:	80 81       	ld	r24, Z
     12c:	82 60       	ori	r24, 0x02	; 2
     12e:	80 83       	st	Z, r24
	TIMSK2 |= 0b00000010; // Enable interrupts when OCF2A, in TIFR2, is set.
     130:	e0 e7       	ldi	r30, 0x70	; 112
     132:	f0 e0       	ldi	r31, 0x00	; 0
     134:	80 81       	ld	r24, Z
     136:	82 60       	ori	r24, 0x02	; 2
     138:	80 83       	st	Z, r24
	// OCF1A (or ICFn) Flag, in TIFR1, can be used to generate interrupts.
	TCNT1 = 0;
     13a:	10 92 85 00 	sts	0x0085, r1
     13e:	10 92 84 00 	sts	0x0084, r1
	TCNT2 = 0;
     142:	10 92 b2 00 	sts	0x00B2, r1
     146:	08 95       	ret

00000148 <FifoDataLength>:

#include <avr/io.h>
#include "fifo.h"

uint8_t FifoDataLength (struct fifo *fifo)
{
     148:	fc 01       	movw	r30, r24
	return (fifo->write - fifo->read) & (fifo->size -1);
     14a:	90 81       	ld	r25, Z
     14c:	91 50       	subi	r25, 0x01	; 1
     14e:	84 81       	ldd	r24, Z+4	; 0x04
     150:	22 81       	ldd	r18, Z+2	; 0x02
     152:	82 1b       	sub	r24, r18
};
     154:	89 23       	and	r24, r25
     156:	08 95       	ret

00000158 <FifoWrite>:

uint8_t FifoWrite (struct fifo *fifo, unsigned char data)
{
     158:	1f 93       	push	r17
     15a:	cf 93       	push	r28
     15c:	df 93       	push	r29
     15e:	ec 01       	movw	r28, r24
     160:	16 2f       	mov	r17, r22
	// fifo full : error
	if (FifoDataLength(fifo) == (fifo->size - 1))
     162:	f2 df       	rcall	.-28     	; 0x148 <FifoDataLength>
     164:	28 81       	ld	r18, Y
     166:	39 81       	ldd	r19, Y+1	; 0x01
     168:	21 50       	subi	r18, 0x01	; 1
     16a:	31 09       	sbc	r19, r1
     16c:	90 e0       	ldi	r25, 0x00	; 0
     16e:	82 17       	cp	r24, r18
     170:	93 07       	cpc	r25, r19
     172:	69 f0       	breq	.+26     	; 0x18e <FifoWrite+0x36>
	{
		return 1;
	}
	// write data & increment write pointer
	fifo->buffer[fifo->write] = data;
     174:	8c 81       	ldd	r24, Y+4	; 0x04
     176:	9d 81       	ldd	r25, Y+5	; 0x05
     178:	fe 01       	movw	r30, r28
     17a:	e8 0f       	add	r30, r24
     17c:	f9 1f       	adc	r31, r25
     17e:	16 83       	std	Z+6, r17	; 0x06
	fifo->write = (fifo->write + 1) & (fifo->size - 1);
     180:	01 96       	adiw	r24, 0x01	; 1
     182:	28 23       	and	r18, r24
     184:	39 23       	and	r19, r25
     186:	3d 83       	std	Y+5, r19	; 0x05
     188:	2c 83       	std	Y+4, r18	; 0x04
	return 0;
     18a:	80 e0       	ldi	r24, 0x00	; 0
     18c:	01 c0       	rjmp	.+2      	; 0x190 <FifoWrite+0x38>
uint8_t FifoWrite (struct fifo *fifo, unsigned char data)
{
	// fifo full : error
	if (FifoDataLength(fifo) == (fifo->size - 1))
	{
		return 1;
     18e:	81 e0       	ldi	r24, 0x01	; 1
	}
	// write data & increment write pointer
	fifo->buffer[fifo->write] = data;
	fifo->write = (fifo->write + 1) & (fifo->size - 1);
	return 0;
};
     190:	df 91       	pop	r29
     192:	cf 91       	pop	r28
     194:	1f 91       	pop	r17
     196:	08 95       	ret

00000198 <FifoRead>:


uint8_t FifoRead (struct fifo *fifo, unsigned char *data)
{
     198:	0f 93       	push	r16
     19a:	1f 93       	push	r17
     19c:	cf 93       	push	r28
     19e:	df 93       	push	r29
     1a0:	ec 01       	movw	r28, r24
     1a2:	8b 01       	movw	r16, r22
	// fifo empty : error
	if (FifoDataLength(fifo) == 0)
     1a4:	d1 df       	rcall	.-94     	; 0x148 <FifoDataLength>
     1a6:	88 23       	and	r24, r24
     1a8:	a1 f0       	breq	.+40     	; 0x1d2 <FifoRead+0x3a>
	{
		return 1;
	}
	// read data & increment read pointer
	*data = fifo->buffer[fifo->read];
     1aa:	ea 81       	ldd	r30, Y+2	; 0x02
     1ac:	fb 81       	ldd	r31, Y+3	; 0x03
     1ae:	ec 0f       	add	r30, r28
     1b0:	fd 1f       	adc	r31, r29
     1b2:	86 81       	ldd	r24, Z+6	; 0x06
     1b4:	f8 01       	movw	r30, r16
     1b6:	80 83       	st	Z, r24
	fifo->read = (fifo->read + 1) & (fifo->size - 1);
     1b8:	28 81       	ld	r18, Y
     1ba:	39 81       	ldd	r19, Y+1	; 0x01
     1bc:	21 50       	subi	r18, 0x01	; 1
     1be:	31 09       	sbc	r19, r1
     1c0:	8a 81       	ldd	r24, Y+2	; 0x02
     1c2:	9b 81       	ldd	r25, Y+3	; 0x03
     1c4:	01 96       	adiw	r24, 0x01	; 1
     1c6:	82 23       	and	r24, r18
     1c8:	93 23       	and	r25, r19
     1ca:	9b 83       	std	Y+3, r25	; 0x03
     1cc:	8a 83       	std	Y+2, r24	; 0x02
	return 0;
     1ce:	80 e0       	ldi	r24, 0x00	; 0
     1d0:	01 c0       	rjmp	.+2      	; 0x1d4 <FifoRead+0x3c>
uint8_t FifoRead (struct fifo *fifo, unsigned char *data)
{
	// fifo empty : error
	if (FifoDataLength(fifo) == 0)
	{
		return 1;
     1d2:	81 e0       	ldi	r24, 0x01	; 1
	}
	// read data & increment read pointer
	*data = fifo->buffer[fifo->read];
	fifo->read = (fifo->read + 1) & (fifo->size - 1);
	return 0;
     1d4:	df 91       	pop	r29
     1d6:	cf 91       	pop	r28
     1d8:	1f 91       	pop	r17
     1da:	0f 91       	pop	r16
     1dc:	08 95       	ret

000001de <init>:
// --  END MAIN --


void init()
{
	DDRA |= (1<<PORTA0|1<<PORTA1); //set status diodes to outputs
     1de:	81 b1       	in	r24, 0x01	; 1
     1e0:	83 60       	ori	r24, 0x03	; 3
     1e2:	81 b9       	out	0x01, r24	; 1
	USART_init();
     1e4:	41 d4       	rcall	.+2178   	; 0xa68 <USART_init>
	TWI_init(C_ADRESS);
     1e6:	80 e8       	ldi	r24, 0x80	; 128
     1e8:	f2 d0       	rcall	.+484    	; 0x3ce <TWI_init>
	init_counters();
     1ea:	8d cf       	rjmp	.-230    	; 0x106 <init_counters>

000001ec <main>:

// -- MAIN --

int main(void)
{
	init();
     1ec:	f8 df       	rcall	.-16     	; 0x1de <init>
	sei();
     1ee:	78 94       	sei
	#else
		//round up by default
		__ticks_dc = (uint32_t)(ceil(fabs(__tmp)));
	#endif

	__builtin_avr_delay_cycles(__ticks_dc);
     1f0:	2f ef       	ldi	r18, 0xFF	; 255
     1f2:	8f e1       	ldi	r24, 0x1F	; 31
     1f4:	9c e1       	ldi	r25, 0x1C	; 28
     1f6:	21 50       	subi	r18, 0x01	; 1
     1f8:	80 40       	sbci	r24, 0x00	; 0
     1fa:	90 40       	sbci	r25, 0x00	; 0
     1fc:	e1 f7       	brne	.-8      	; 0x1f6 <main+0xa>
     1fe:	00 c0       	rjmp	.+0      	; 0x200 <main+0x14>
     200:	00 00       	nop
	_delay_ms(500);
	while(1)
	{
		PORTA ^= (1<<PORTA0);
     202:	c1 e0       	ldi	r28, 0x01	; 1
		USART_DecodeRxFIFO();
		USART_SendSensors();
		
		_delay_ms(1000);
		if(TWI_send_status(ST_ADRESS))
			PORTA ^= (1<<PORTA1);
     204:	d2 e0       	ldi	r29, 0x02	; 2
	init();
	sei();
	_delay_ms(500);
	while(1)
	{
		PORTA ^= (1<<PORTA0);
     206:	82 b1       	in	r24, 0x02	; 2
     208:	8c 27       	eor	r24, r28
     20a:	82 b9       	out	0x02, r24	; 2
		
		
		USART_DecodeRxFIFO();
     20c:	17 d6       	rcall	.+3118   	; 0xe3c <USART_DecodeRxFIFO>
		USART_SendSensors();
     20e:	2d d5       	rcall	.+2650   	; 0xc6a <USART_SendSensors>
     210:	2f ef       	ldi	r18, 0xFF	; 255
     212:	8f e3       	ldi	r24, 0x3F	; 63
     214:	98 e3       	ldi	r25, 0x38	; 56
     216:	21 50       	subi	r18, 0x01	; 1
     218:	80 40       	sbci	r24, 0x00	; 0
     21a:	90 40       	sbci	r25, 0x00	; 0
     21c:	e1 f7       	brne	.-8      	; 0x216 <main+0x2a>
     21e:	00 c0       	rjmp	.+0      	; 0x220 <main+0x34>
     220:	00 00       	nop
		
		_delay_ms(1000);
		if(TWI_send_status(ST_ADRESS))
     222:	80 e2       	ldi	r24, 0x20	; 32
     224:	f7 d0       	rcall	.+494    	; 0x414 <TWI_send_status>
     226:	88 23       	and	r24, r24
     228:	71 f3       	breq	.-36     	; 0x206 <main+0x1a>
			PORTA ^= (1<<PORTA1);
     22a:	82 b1       	in	r24, 0x02	; 2
     22c:	8d 27       	eor	r24, r29
     22e:	82 b9       	out	0x02, r24	; 2
     230:	ea cf       	rjmp	.-44     	; 0x206 <main+0x1a>

00000232 <__vector_13>:
}

//Interrupt vectors

ISR(TIMER1_COMPA_vect)
{
     232:	1f 92       	push	r1
     234:	0f 92       	push	r0
     236:	0f b6       	in	r0, 0x3f	; 63
     238:	0f 92       	push	r0
     23a:	11 24       	eor	r1, r1
     23c:	0b b6       	in	r0, 0x3b	; 59
     23e:	0f 92       	push	r0
     240:	2f 93       	push	r18
     242:	3f 93       	push	r19
     244:	4f 93       	push	r20
     246:	5f 93       	push	r21
     248:	6f 93       	push	r22
     24a:	7f 93       	push	r23
     24c:	8f 93       	push	r24
     24e:	9f 93       	push	r25
     250:	af 93       	push	r26
     252:	bf 93       	push	r27
     254:	ef 93       	push	r30
     256:	ff 93       	push	r31
	decode_message_TwiFIFO();
     258:	d5 d1       	rcall	.+938    	; 0x604 <decode_message_TwiFIFO>
	TCNT1 = 0;
     25a:	10 92 85 00 	sts	0x0085, r1
     25e:	10 92 84 00 	sts	0x0084, r1
}
     262:	ff 91       	pop	r31
     264:	ef 91       	pop	r30
     266:	bf 91       	pop	r27
     268:	af 91       	pop	r26
     26a:	9f 91       	pop	r25
     26c:	8f 91       	pop	r24
     26e:	7f 91       	pop	r23
     270:	6f 91       	pop	r22
     272:	5f 91       	pop	r21
     274:	4f 91       	pop	r20
     276:	3f 91       	pop	r19
     278:	2f 91       	pop	r18
     27a:	0f 90       	pop	r0
     27c:	0b be       	out	0x3b, r0	; 59
     27e:	0f 90       	pop	r0
     280:	0f be       	out	0x3f, r0	; 63
     282:	0f 90       	pop	r0
     284:	1f 90       	pop	r1
     286:	18 95       	reti

00000288 <__vector_9>:

ISR(TIMER2_COMPA_vect)
{
     288:	1f 92       	push	r1
     28a:	0f 92       	push	r0
     28c:	0f b6       	in	r0, 0x3f	; 63
     28e:	0f 92       	push	r0
     290:	11 24       	eor	r1, r1
	TCNT2 = 0;
     292:	10 92 b2 00 	sts	0x00B2, r1
     296:	0f 90       	pop	r0
     298:	0f be       	out	0x3f, r0	; 63
     29a:	0f 90       	pop	r0
     29c:	1f 90       	pop	r1
     29e:	18 95       	reti

000002a0 <set_twi_reciever_enable>:
	{
		sweep_flag_ = false;
		return true;
	}
	return false;
}
     2a0:	85 e4       	ldi	r24, 0x45	; 69
     2a2:	80 93 bc 00 	sts	0x00BC, r24
     2a6:	08 95       	ret

000002a8 <clear_int>:
     2a8:	81 ec       	ldi	r24, 0xC1	; 193
     2aa:	80 93 bc 00 	sts	0x00BC, r24
     2ae:	08 95       	ret

000002b0 <start_bus>:
     2b0:	84 ea       	ldi	r24, 0xA4	; 164
     2b2:	80 93 bc 00 	sts	0x00BC, r24
     2b6:	08 95       	ret

000002b8 <stop_bus>:
     2b8:	85 ed       	ldi	r24, 0xD5	; 213
     2ba:	80 93 bc 00 	sts	0x00BC, r24
     2be:	08 95       	ret

000002c0 <Error>:
     2c0:	80 91 b9 00 	lds	r24, 0x00B9
     2c4:	88 7f       	andi	r24, 0xF8	; 248
     2c6:	88 33       	cpi	r24, 0x38	; 56
     2c8:	09 f0       	breq	.+2      	; 0x2cc <Error+0xc>
     2ca:	f6 cf       	rjmp	.-20     	; 0x2b8 <stop_bus>
     2cc:	ed cf       	rjmp	.-38     	; 0x2a8 <clear_int>

000002ce <get_data>:
     2ce:	80 91 bb 00 	lds	r24, 0x00BB
     2d2:	08 95       	ret

000002d4 <wait_for_bus>:
     2d4:	ec eb       	ldi	r30, 0xBC	; 188
     2d6:	f0 e0       	ldi	r31, 0x00	; 0
     2d8:	80 81       	ld	r24, Z
     2da:	88 23       	and	r24, r24
     2dc:	ec f7       	brge	.-6      	; 0x2d8 <wait_for_bus+0x4>
     2de:	08 95       	ret

000002e0 <send_data_and_wait>:
     2e0:	80 93 bb 00 	sts	0x00BB, r24
     2e4:	84 e8       	ldi	r24, 0x84	; 132
     2e6:	80 93 bc 00 	sts	0x00BC, r24
     2ea:	f4 cf       	rjmp	.-24     	; 0x2d4 <wait_for_bus>

000002ec <stop_twi>:
     2ec:	10 92 3d 23 	sts	0x233D, r1
     2f0:	10 92 3c 23 	sts	0x233C, r1
     2f4:	10 92 48 23 	sts	0x2348, r1
     2f8:	10 92 47 23 	sts	0x2347, r1
     2fc:	10 92 41 23 	sts	0x2341, r1
     300:	10 92 40 23 	sts	0x2340, r1
     304:	10 92 44 23 	sts	0x2344, r1
     308:	10 92 43 23 	sts	0x2343, r1
     30c:	08 95       	ret

0000030e <reset_TWI>:
     30e:	ec eb       	ldi	r30, 0xBC	; 188
     310:	f0 e0       	ldi	r31, 0x00	; 0
     312:	80 81       	ld	r24, Z
     314:	80 6c       	ori	r24, 0xC0	; 192
     316:	80 83       	st	Z, r24
     318:	08 95       	ret

0000031a <get_sensor_from_bus>:
     31a:	cf 93       	push	r28
     31c:	df 93       	push	r29
     31e:	c0 91 47 23 	lds	r28, 0x2347
     322:	d0 91 48 23 	lds	r29, 0x2348
     326:	c7 30       	cpi	r28, 0x07	; 7
     328:	d1 05       	cpc	r29, r1
     32a:	91 f4       	brne	.+36     	; 0x350 <get_sensor_from_bus+0x36>
     32c:	ee e2       	ldi	r30, 0x2E	; 46
     32e:	f2 e2       	ldi	r31, 0x22	; 34
     330:	ad e4       	ldi	r26, 0x4D	; 77
     332:	b3 e2       	ldi	r27, 0x23	; 35
     334:	85 e3       	ldi	r24, 0x35	; 53
     336:	92 e2       	ldi	r25, 0x22	; 34
     338:	21 91       	ld	r18, Z+
     33a:	2d 93       	st	X+, r18
     33c:	e8 17       	cp	r30, r24
     33e:	f9 07       	cpc	r31, r25
     340:	d9 f7       	brne	.-10     	; 0x338 <get_sensor_from_bus+0x1e>
     342:	c5 df       	rcall	.-118    	; 0x2ce <get_data>
     344:	80 93 42 23 	sts	0x2342, r24
     348:	81 e0       	ldi	r24, 0x01	; 1
     34a:	80 93 23 22 	sts	0x2223, r24
     34e:	0d c0       	rjmp	.+26     	; 0x36a <get_sensor_from_bus+0x50>
     350:	be df       	rcall	.-132    	; 0x2ce <get_data>
     352:	c2 5d       	subi	r28, 0xD2	; 210
     354:	dd 4d       	sbci	r29, 0xDD	; 221
     356:	88 83       	st	Y, r24
     358:	80 91 47 23 	lds	r24, 0x2347
     35c:	90 91 48 23 	lds	r25, 0x2348
     360:	01 96       	adiw	r24, 0x01	; 1
     362:	90 93 48 23 	sts	0x2348, r25
     366:	80 93 47 23 	sts	0x2347, r24
     36a:	df 91       	pop	r29
     36c:	cf 91       	pop	r28
     36e:	08 95       	ret

00000370 <get_control_settings_from_bus>:
     370:	cf 93       	push	r28
     372:	df 93       	push	r29
     374:	c0 91 43 23 	lds	r28, 0x2343
     378:	d0 91 44 23 	lds	r29, 0x2344
     37c:	a8 df       	rcall	.-176    	; 0x2ce <get_data>
     37e:	c7 5c       	subi	r28, 0xC7	; 199
     380:	dc 4d       	sbci	r29, 0xDC	; 220
     382:	88 83       	st	Y, r24
     384:	10 92 44 23 	sts	0x2344, r1
     388:	10 92 43 23 	sts	0x2343, r1
     38c:	df 91       	pop	r29
     38e:	cf 91       	pop	r28
     390:	08 95       	ret

00000392 <get_autonom_settings_from_bus>:
     392:	9d df       	rcall	.-198    	; 0x2ce <get_data>
     394:	80 93 37 23 	sts	0x2337, r24
     398:	08 95       	ret

0000039a <get_char_from_bus>:
     39a:	cf 93       	push	r28
     39c:	df 93       	push	r29
     39e:	c0 91 40 23 	lds	r28, 0x2340
     3a2:	d0 91 41 23 	lds	r29, 0x2341
     3a6:	93 df       	rcall	.-218    	; 0x2ce <get_data>
     3a8:	c8 5c       	subi	r28, 0xC8	; 200
     3aa:	dd 4d       	sbci	r29, 0xDD	; 221
     3ac:	88 83       	st	Y, r24
     3ae:	80 91 40 23 	lds	r24, 0x2340
     3b2:	90 91 41 23 	lds	r25, 0x2341
     3b6:	01 96       	adiw	r24, 0x01	; 1
     3b8:	90 93 41 23 	sts	0x2341, r25
     3bc:	80 93 40 23 	sts	0x2340, r24
     3c0:	90 93 29 22 	sts	0x2229, r25
     3c4:	80 93 28 22 	sts	0x2228, r24
     3c8:	df 91       	pop	r29
     3ca:	cf 91       	pop	r28
     3cc:	08 95       	ret

000003ce <TWI_init>:
     3ce:	80 93 45 23 	sts	0x2345, r24
     3d2:	80 34       	cpi	r24, 0x40	; 64
     3d4:	79 f0       	breq	.+30     	; 0x3f4 <TWI_init+0x26>
     3d6:	80 38       	cpi	r24, 0x80	; 128
     3d8:	19 f0       	breq	.+6      	; 0x3e0 <TWI_init+0x12>
     3da:	80 32       	cpi	r24, 0x20	; 32
     3dc:	d1 f4       	brne	.+52     	; 0x412 <TWI_init+0x44>
     3de:	12 c0       	rjmp	.+36     	; 0x404 <TWI_init+0x36>
     3e0:	83 e0       	ldi	r24, 0x03	; 3
     3e2:	88 b9       	out	0x08, r24	; 8
     3e4:	5d df       	rcall	.-326    	; 0x2a0 <set_twi_reciever_enable>
     3e6:	8f e3       	ldi	r24, 0x3F	; 63
     3e8:	80 93 b8 00 	sts	0x00B8, r24
     3ec:	81 e8       	ldi	r24, 0x81	; 129
     3ee:	80 93 ba 00 	sts	0x00BA, r24
     3f2:	08 95       	ret
     3f4:	8f e3       	ldi	r24, 0x3F	; 63
     3f6:	80 93 b8 00 	sts	0x00B8, r24
     3fa:	52 df       	rcall	.-348    	; 0x2a0 <set_twi_reciever_enable>
     3fc:	80 e4       	ldi	r24, 0x40	; 64
     3fe:	80 93 ba 00 	sts	0x00BA, r24
     402:	08 95       	ret
     404:	8f e3       	ldi	r24, 0x3F	; 63
     406:	80 93 b8 00 	sts	0x00B8, r24
     40a:	4a df       	rcall	.-364    	; 0x2a0 <set_twi_reciever_enable>
     40c:	81 e2       	ldi	r24, 0x21	; 33
     40e:	80 93 ba 00 	sts	0x00BA, r24
     412:	08 95       	ret

00000414 <TWI_send_status>:
     414:	cf 93       	push	r28
     416:	c8 2f       	mov	r28, r24
     418:	4b df       	rcall	.-362    	; 0x2b0 <start_bus>
     41a:	5c df       	rcall	.-328    	; 0x2d4 <wait_for_bus>
     41c:	90 91 b9 00 	lds	r25, 0x00B9
     420:	98 7f       	andi	r25, 0xF8	; 248
     422:	98 30       	cpi	r25, 0x08	; 8
     424:	19 f0       	breq	.+6      	; 0x42c <TWI_send_status+0x18>
     426:	4c df       	rcall	.-360    	; 0x2c0 <Error>
     428:	80 e0       	ldi	r24, 0x00	; 0
     42a:	16 c0       	rjmp	.+44     	; 0x458 <TWI_send_status+0x44>
     42c:	8c 2f       	mov	r24, r28
     42e:	58 df       	rcall	.-336    	; 0x2e0 <send_data_and_wait>
     430:	80 91 b9 00 	lds	r24, 0x00B9
     434:	88 7f       	andi	r24, 0xF8	; 248
     436:	88 31       	cpi	r24, 0x18	; 24
     438:	19 f0       	breq	.+6      	; 0x440 <TWI_send_status+0x2c>
     43a:	42 df       	rcall	.-380    	; 0x2c0 <Error>
     43c:	80 e0       	ldi	r24, 0x00	; 0
     43e:	0c c0       	rjmp	.+24     	; 0x458 <TWI_send_status+0x44>
     440:	83 e0       	ldi	r24, 0x03	; 3
     442:	4e df       	rcall	.-356    	; 0x2e0 <send_data_and_wait>
     444:	80 91 b9 00 	lds	r24, 0x00B9
     448:	88 7f       	andi	r24, 0xF8	; 248
     44a:	88 33       	cpi	r24, 0x38	; 56
     44c:	19 f4       	brne	.+6      	; 0x454 <TWI_send_status+0x40>
     44e:	2c df       	rcall	.-424    	; 0x2a8 <clear_int>
     450:	81 e0       	ldi	r24, 0x01	; 1
     452:	02 c0       	rjmp	.+4      	; 0x458 <TWI_send_status+0x44>
     454:	31 df       	rcall	.-414    	; 0x2b8 <stop_bus>
     456:	81 e0       	ldi	r24, 0x01	; 1
     458:	cf 91       	pop	r28
     45a:	08 95       	ret

0000045c <TWI_send_command>:
     45c:	1f 93       	push	r17
     45e:	cf 93       	push	r28
     460:	df 93       	push	r29
     462:	c8 2f       	mov	r28, r24
     464:	d6 2f       	mov	r29, r22
     466:	14 2f       	mov	r17, r20
     468:	23 df       	rcall	.-442    	; 0x2b0 <start_bus>
     46a:	34 df       	rcall	.-408    	; 0x2d4 <wait_for_bus>
     46c:	90 91 b9 00 	lds	r25, 0x00B9
     470:	98 7f       	andi	r25, 0xF8	; 248
     472:	98 30       	cpi	r25, 0x08	; 8
     474:	19 f0       	breq	.+6      	; 0x47c <TWI_send_command+0x20>
     476:	24 df       	rcall	.-440    	; 0x2c0 <Error>
     478:	80 e0       	ldi	r24, 0x00	; 0
     47a:	34 c0       	rjmp	.+104    	; 0x4e4 <TWI_send_command+0x88>
     47c:	80 e2       	ldi	r24, 0x20	; 32
     47e:	30 df       	rcall	.-416    	; 0x2e0 <send_data_and_wait>
     480:	80 91 b9 00 	lds	r24, 0x00B9
     484:	88 7f       	andi	r24, 0xF8	; 248
     486:	88 31       	cpi	r24, 0x18	; 24
     488:	19 f0       	breq	.+6      	; 0x490 <TWI_send_command+0x34>
     48a:	1a df       	rcall	.-460    	; 0x2c0 <Error>
     48c:	80 e0       	ldi	r24, 0x00	; 0
     48e:	2a c0       	rjmp	.+84     	; 0x4e4 <TWI_send_command+0x88>
     490:	80 e0       	ldi	r24, 0x00	; 0
     492:	26 df       	rcall	.-436    	; 0x2e0 <send_data_and_wait>
     494:	80 91 b9 00 	lds	r24, 0x00B9
     498:	88 7f       	andi	r24, 0xF8	; 248
     49a:	88 32       	cpi	r24, 0x28	; 40
     49c:	19 f0       	breq	.+6      	; 0x4a4 <TWI_send_command+0x48>
     49e:	10 df       	rcall	.-480    	; 0x2c0 <Error>
     4a0:	80 e0       	ldi	r24, 0x00	; 0
     4a2:	20 c0       	rjmp	.+64     	; 0x4e4 <TWI_send_command+0x88>
     4a4:	8c 2f       	mov	r24, r28
     4a6:	1c df       	rcall	.-456    	; 0x2e0 <send_data_and_wait>
     4a8:	80 91 b9 00 	lds	r24, 0x00B9
     4ac:	88 7f       	andi	r24, 0xF8	; 248
     4ae:	88 32       	cpi	r24, 0x28	; 40
     4b0:	19 f0       	breq	.+6      	; 0x4b8 <TWI_send_command+0x5c>
     4b2:	06 df       	rcall	.-500    	; 0x2c0 <Error>
     4b4:	80 e0       	ldi	r24, 0x00	; 0
     4b6:	16 c0       	rjmp	.+44     	; 0x4e4 <TWI_send_command+0x88>
     4b8:	8d 2f       	mov	r24, r29
     4ba:	12 df       	rcall	.-476    	; 0x2e0 <send_data_and_wait>
     4bc:	80 91 b9 00 	lds	r24, 0x00B9
     4c0:	88 7f       	andi	r24, 0xF8	; 248
     4c2:	88 32       	cpi	r24, 0x28	; 40
     4c4:	19 f0       	breq	.+6      	; 0x4cc <TWI_send_command+0x70>
     4c6:	fc de       	rcall	.-520    	; 0x2c0 <Error>
     4c8:	80 e0       	ldi	r24, 0x00	; 0
     4ca:	0c c0       	rjmp	.+24     	; 0x4e4 <TWI_send_command+0x88>
     4cc:	81 2f       	mov	r24, r17
     4ce:	08 df       	rcall	.-496    	; 0x2e0 <send_data_and_wait>
     4d0:	80 91 b9 00 	lds	r24, 0x00B9
     4d4:	88 7f       	andi	r24, 0xF8	; 248
     4d6:	88 32       	cpi	r24, 0x28	; 40
     4d8:	19 f0       	breq	.+6      	; 0x4e0 <TWI_send_command+0x84>
     4da:	f2 de       	rcall	.-540    	; 0x2c0 <Error>
     4dc:	80 e0       	ldi	r24, 0x00	; 0
     4de:	02 c0       	rjmp	.+4      	; 0x4e4 <TWI_send_command+0x88>
     4e0:	eb de       	rcall	.-554    	; 0x2b8 <stop_bus>
     4e2:	81 e0       	ldi	r24, 0x01	; 1
     4e4:	df 91       	pop	r29
     4e6:	cf 91       	pop	r28
     4e8:	1f 91       	pop	r17
     4ea:	08 95       	ret

000004ec <TWI_send_string>:
     4ec:	ef 92       	push	r14
     4ee:	ff 92       	push	r15
     4f0:	0f 93       	push	r16
     4f2:	1f 93       	push	r17
     4f4:	cf 93       	push	r28
     4f6:	df 93       	push	r29
     4f8:	c8 2f       	mov	r28, r24
     4fa:	e6 2e       	mov	r14, r22
     4fc:	f7 2e       	mov	r15, r23
     4fe:	d8 de       	rcall	.-592    	; 0x2b0 <start_bus>
     500:	e9 de       	rcall	.-558    	; 0x2d4 <wait_for_bus>
     502:	90 91 b9 00 	lds	r25, 0x00B9
     506:	98 7f       	andi	r25, 0xF8	; 248
     508:	98 30       	cpi	r25, 0x08	; 8
     50a:	19 f0       	breq	.+6      	; 0x512 <TWI_send_string+0x26>
     50c:	d9 de       	rcall	.-590    	; 0x2c0 <Error>
     50e:	80 e0       	ldi	r24, 0x00	; 0
     510:	2c c0       	rjmp	.+88     	; 0x56a <TWI_send_string+0x7e>
     512:	8c 2f       	mov	r24, r28
     514:	e5 de       	rcall	.-566    	; 0x2e0 <send_data_and_wait>
     516:	80 91 b9 00 	lds	r24, 0x00B9
     51a:	88 7f       	andi	r24, 0xF8	; 248
     51c:	88 31       	cpi	r24, 0x18	; 24
     51e:	19 f0       	breq	.+6      	; 0x526 <TWI_send_string+0x3a>
     520:	cf de       	rcall	.-610    	; 0x2c0 <Error>
     522:	80 e0       	ldi	r24, 0x00	; 0
     524:	22 c0       	rjmp	.+68     	; 0x56a <TWI_send_string+0x7e>
     526:	89 e1       	ldi	r24, 0x19	; 25
     528:	db de       	rcall	.-586    	; 0x2e0 <send_data_and_wait>
     52a:	80 91 b9 00 	lds	r24, 0x00B9
     52e:	88 7f       	andi	r24, 0xF8	; 248
     530:	88 32       	cpi	r24, 0x28	; 40
     532:	29 f4       	brne	.+10     	; 0x53e <TWI_send_string+0x52>
     534:	0e 2d       	mov	r16, r14
     536:	1f 2d       	mov	r17, r15
     538:	c0 e0       	ldi	r28, 0x00	; 0
     53a:	d0 e0       	ldi	r29, 0x00	; 0
     53c:	08 c0       	rjmp	.+16     	; 0x54e <TWI_send_string+0x62>
     53e:	c0 de       	rcall	.-640    	; 0x2c0 <Error>
     540:	80 e0       	ldi	r24, 0x00	; 0
     542:	13 c0       	rjmp	.+38     	; 0x56a <TWI_send_string+0x7e>
     544:	f8 01       	movw	r30, r16
     546:	81 91       	ld	r24, Z+
     548:	8f 01       	movw	r16, r30
     54a:	ca de       	rcall	.-620    	; 0x2e0 <send_data_and_wait>
     54c:	21 96       	adiw	r28, 0x01	; 1
     54e:	ee 2d       	mov	r30, r14
     550:	ff 2d       	mov	r31, r15
     552:	df 01       	movw	r26, r30
     554:	0d 90       	ld	r0, X+
     556:	00 20       	and	r0, r0
     558:	e9 f7       	brne	.-6      	; 0x554 <TWI_send_string+0x68>
     55a:	11 97       	sbiw	r26, 0x01	; 1
     55c:	ae 1b       	sub	r26, r30
     55e:	bf 0b       	sbc	r27, r31
     560:	ca 17       	cp	r28, r26
     562:	db 07       	cpc	r29, r27
     564:	78 f3       	brcs	.-34     	; 0x544 <TWI_send_string+0x58>
     566:	a8 de       	rcall	.-688    	; 0x2b8 <stop_bus>
     568:	81 e0       	ldi	r24, 0x01	; 1
     56a:	df 91       	pop	r29
     56c:	cf 91       	pop	r28
     56e:	1f 91       	pop	r17
     570:	0f 91       	pop	r16
     572:	ff 90       	pop	r15
     574:	ef 90       	pop	r14
     576:	08 95       	ret

00000578 <TWI_send_string_fixed_length>:
     578:	ef 92       	push	r14
     57a:	ff 92       	push	r15
     57c:	0f 93       	push	r16
     57e:	1f 93       	push	r17
     580:	cf 93       	push	r28
     582:	df 93       	push	r29
     584:	c8 2f       	mov	r28, r24
     586:	e6 2e       	mov	r14, r22
     588:	f7 2e       	mov	r15, r23
     58a:	8a 01       	movw	r16, r20
     58c:	91 de       	rcall	.-734    	; 0x2b0 <start_bus>
     58e:	a2 de       	rcall	.-700    	; 0x2d4 <wait_for_bus>
     590:	90 91 b9 00 	lds	r25, 0x00B9
     594:	98 7f       	andi	r25, 0xF8	; 248
     596:	98 30       	cpi	r25, 0x08	; 8
     598:	19 f0       	breq	.+6      	; 0x5a0 <TWI_send_string_fixed_length+0x28>
     59a:	92 de       	rcall	.-732    	; 0x2c0 <Error>
     59c:	80 e0       	ldi	r24, 0x00	; 0
     59e:	23 c0       	rjmp	.+70     	; 0x5e6 <TWI_send_string_fixed_length+0x6e>
     5a0:	8c 2f       	mov	r24, r28
     5a2:	9e de       	rcall	.-708    	; 0x2e0 <send_data_and_wait>
     5a4:	80 91 b9 00 	lds	r24, 0x00B9
     5a8:	88 7f       	andi	r24, 0xF8	; 248
     5aa:	88 31       	cpi	r24, 0x18	; 24
     5ac:	19 f0       	breq	.+6      	; 0x5b4 <TWI_send_string_fixed_length+0x3c>
     5ae:	88 de       	rcall	.-752    	; 0x2c0 <Error>
     5b0:	80 e0       	ldi	r24, 0x00	; 0
     5b2:	19 c0       	rjmp	.+50     	; 0x5e6 <TWI_send_string_fixed_length+0x6e>
     5b4:	89 e1       	ldi	r24, 0x19	; 25
     5b6:	94 de       	rcall	.-728    	; 0x2e0 <send_data_and_wait>
     5b8:	80 91 b9 00 	lds	r24, 0x00B9
     5bc:	88 7f       	andi	r24, 0xF8	; 248
     5be:	88 32       	cpi	r24, 0x28	; 40
     5c0:	21 f4       	brne	.+8      	; 0x5ca <TWI_send_string_fixed_length+0x52>
     5c2:	10 16       	cp	r1, r16
     5c4:	11 06       	cpc	r1, r17
     5c6:	24 f0       	brlt	.+8      	; 0x5d0 <TWI_send_string_fixed_length+0x58>
     5c8:	0c c0       	rjmp	.+24     	; 0x5e2 <TWI_send_string_fixed_length+0x6a>
     5ca:	7a de       	rcall	.-780    	; 0x2c0 <Error>
     5cc:	80 e0       	ldi	r24, 0x00	; 0
     5ce:	0b c0       	rjmp	.+22     	; 0x5e6 <TWI_send_string_fixed_length+0x6e>
     5d0:	ce 2d       	mov	r28, r14
     5d2:	df 2d       	mov	r29, r15
     5d4:	0c 0f       	add	r16, r28
     5d6:	1d 1f       	adc	r17, r29
     5d8:	89 91       	ld	r24, Y+
     5da:	82 de       	rcall	.-764    	; 0x2e0 <send_data_and_wait>
     5dc:	c0 17       	cp	r28, r16
     5de:	d1 07       	cpc	r29, r17
     5e0:	d9 f7       	brne	.-10     	; 0x5d8 <TWI_send_string_fixed_length+0x60>
     5e2:	6a de       	rcall	.-812    	; 0x2b8 <stop_bus>
     5e4:	81 e0       	ldi	r24, 0x01	; 1
     5e6:	df 91       	pop	r29
     5e8:	cf 91       	pop	r28
     5ea:	1f 91       	pop	r17
     5ec:	0f 91       	pop	r16
     5ee:	ff 90       	pop	r15
     5f0:	ef 90       	pop	r14
     5f2:	08 95       	ret

000005f4 <TWI_get_sensor>:
     5f4:	83 5b       	subi	r24, 0xB3	; 179
     5f6:	9c 4d       	sbci	r25, 0xDC	; 220
     5f8:	fc 01       	movw	r30, r24
     5fa:	80 81       	ld	r24, Z
     5fc:	08 95       	ret

000005fe <TWI_get_servo>:
     5fe:	80 91 42 23 	lds	r24, 0x2342
     602:	08 95       	ret

00000604 <decode_message_TwiFIFO>:

//------------------------------------------------------------------------------FIFO

uint8_t decode_message_TwiFIFO()
{
     604:	8f 92       	push	r8
     606:	9f 92       	push	r9
     608:	af 92       	push	r10
     60a:	bf 92       	push	r11
     60c:	cf 92       	push	r12
     60e:	df 92       	push	r13
     610:	ef 92       	push	r14
     612:	ff 92       	push	r15
     614:	0f 93       	push	r16
     616:	1f 93       	push	r17
     618:	cf 93       	push	r28
     61a:	df 93       	push	r29
     61c:	cd b7       	in	r28, 0x3d	; 61
     61e:	de b7       	in	r29, 0x3e	; 62
	// TODO: send to relevant party... the display for now
	
	USART_SendMessage(msg);
	
	return 0;
}
     620:	ad b6       	in	r10, 0x3d	; 61
     622:	be b6       	in	r11, 0x3e	; 62
{
	
	uint8_t *len = 0;
	uint8_t *character = 0;
	
	if(FifoRead(gTwiFIFO, len))
     624:	60 e0       	ldi	r22, 0x00	; 0
     626:	70 e0       	ldi	r23, 0x00	; 0
     628:	80 91 00 01 	lds	r24, 0x0100
     62c:	90 91 01 01 	lds	r25, 0x0101
     630:	b3 dd       	rcall	.-1178   	; 0x198 <FifoRead>
     632:	81 11       	cpse	r24, r1
     634:	3b c0       	rjmp	.+118    	; 0x6ac <decode_message_TwiFIFO+0xa8>
	{
		return 1; // error
	}
	
	int length = *len; // I don't know why I can't use *len directly... but it took me 4h to figure out that you can't do it....
     636:	c0 90 00 00 	lds	r12, 0x0000
     63a:	d1 2c       	mov	r13, r1
	
	//NOTE: there has to be a better way of doing this...
	int ifzero = 0;
	if(length == 0) ifzero = 1;
	char msg[length-1+ifzero];
     63c:	96 01       	movw	r18, r12
     63e:	21 50       	subi	r18, 0x01	; 1
     640:	31 09       	sbc	r19, r1
	
	int length = *len; // I don't know why I can't use *len directly... but it took me 4h to figure out that you can't do it....
	
	//NOTE: there has to be a better way of doing this...
	int ifzero = 0;
	if(length == 0) ifzero = 1;
     642:	81 e0       	ldi	r24, 0x01	; 1
     644:	90 e0       	ldi	r25, 0x00	; 0
     646:	c1 14       	cp	r12, r1
     648:	d1 04       	cpc	r13, r1
     64a:	11 f0       	breq	.+4      	; 0x650 <decode_message_TwiFIFO+0x4c>
     64c:	80 e0       	ldi	r24, 0x00	; 0
     64e:	90 e0       	ldi	r25, 0x00	; 0
	char msg[length-1+ifzero];
     650:	82 0f       	add	r24, r18
     652:	93 1f       	adc	r25, r19
     654:	2d b7       	in	r18, 0x3d	; 61
     656:	3e b7       	in	r19, 0x3e	; 62
     658:	28 1b       	sub	r18, r24
     65a:	39 0b       	sbc	r19, r25
     65c:	0f b6       	in	r0, 0x3f	; 63
     65e:	f8 94       	cli
     660:	3e bf       	out	0x3e, r19	; 62
     662:	0f be       	out	0x3f, r0	; 63
     664:	2d bf       	out	0x3d, r18	; 61
     666:	2f 5f       	subi	r18, 0xFF	; 255
     668:	3f 4f       	sbci	r19, 0xFF	; 255
     66a:	82 2e       	mov	r8, r18
     66c:	93 2e       	mov	r9, r19

	for(int i = 0; i < length; ++i)
     66e:	1c 14       	cp	r1, r12
     670:	1d 04       	cpc	r1, r13
     672:	bc f4       	brge	.+46     	; 0x6a2 <decode_message_TwiFIFO+0x9e>
     674:	e2 2e       	mov	r14, r18
     676:	f3 2e       	mov	r15, r19
     678:	00 e0       	ldi	r16, 0x00	; 0
     67a:	10 e0       	ldi	r17, 0x00	; 0
	{
		if(FifoRead(gTwiFIFO, character))
     67c:	60 e0       	ldi	r22, 0x00	; 0
     67e:	70 e0       	ldi	r23, 0x00	; 0
     680:	80 91 00 01 	lds	r24, 0x0100
     684:	90 91 01 01 	lds	r25, 0x0101
     688:	87 dd       	rcall	.-1266   	; 0x198 <FifoRead>
     68a:	81 11       	cpse	r24, r1
     68c:	11 c0       	rjmp	.+34     	; 0x6b0 <decode_message_TwiFIFO+0xac>
		{
			//Light lamp?
			return 1; // error
		}

		msg[i] = *character;
     68e:	20 91 00 00 	lds	r18, 0x0000
     692:	f7 01       	movw	r30, r14
     694:	21 93       	st	Z+, r18
     696:	7f 01       	movw	r14, r30
	//NOTE: there has to be a better way of doing this...
	int ifzero = 0;
	if(length == 0) ifzero = 1;
	char msg[length-1+ifzero];

	for(int i = 0; i < length; ++i)
     698:	0f 5f       	subi	r16, 0xFF	; 255
     69a:	1f 4f       	sbci	r17, 0xFF	; 255
     69c:	0c 15       	cp	r16, r12
     69e:	1d 05       	cpc	r17, r13
     6a0:	6c f3       	brlt	.-38     	; 0x67c <decode_message_TwiFIFO+0x78>
	}
	
	
	// TODO: send to relevant party... the display for now
	
	USART_SendMessage(msg);
     6a2:	88 2d       	mov	r24, r8
     6a4:	99 2d       	mov	r25, r9
     6a6:	b2 d2       	rcall	.+1380   	; 0xc0c <USART_SendMessage>
	
	return 0;
     6a8:	80 e0       	ldi	r24, 0x00	; 0
     6aa:	03 c0       	rjmp	.+6      	; 0x6b2 <decode_message_TwiFIFO+0xae>
	uint8_t *len = 0;
	uint8_t *character = 0;
	
	if(FifoRead(gTwiFIFO, len))
	{
		return 1; // error
     6ac:	81 e0       	ldi	r24, 0x01	; 1
     6ae:	01 c0       	rjmp	.+2      	; 0x6b2 <decode_message_TwiFIFO+0xae>
	for(int i = 0; i < length; ++i)
	{
		if(FifoRead(gTwiFIFO, character))
		{
			//Light lamp?
			return 1; // error
     6b0:	81 e0       	ldi	r24, 0x01	; 1
	// TODO: send to relevant party... the display for now
	
	USART_SendMessage(msg);
	
	return 0;
}
     6b2:	0f b6       	in	r0, 0x3f	; 63
     6b4:	f8 94       	cli
     6b6:	be be       	out	0x3e, r11	; 62
     6b8:	0f be       	out	0x3f, r0	; 63
     6ba:	ad be       	out	0x3d, r10	; 61
     6bc:	df 91       	pop	r29
     6be:	cf 91       	pop	r28
     6c0:	1f 91       	pop	r17
     6c2:	0f 91       	pop	r16
     6c4:	ff 90       	pop	r15
     6c6:	ef 90       	pop	r14
     6c8:	df 90       	pop	r13
     6ca:	cf 90       	pop	r12
     6cc:	bf 90       	pop	r11
     6ce:	af 90       	pop	r10
     6d0:	9f 90       	pop	r9
     6d2:	8f 90       	pop	r8
     6d4:	08 95       	ret

000006d6 <write_to_TwiFIFO>:

uint8_t write_to_TwiFIFO(char msg[])
{
     6d6:	ef 92       	push	r14
     6d8:	ff 92       	push	r15
     6da:	0f 93       	push	r16
     6dc:	1f 93       	push	r17
     6de:	cf 93       	push	r28
     6e0:	df 93       	push	r29
     6e2:	e8 2e       	mov	r14, r24
     6e4:	f9 2e       	mov	r15, r25
	if(FifoWrite(gTwiFIFO, (unsigned char)strlen(msg)))
     6e6:	e8 2f       	mov	r30, r24
     6e8:	f9 2f       	mov	r31, r25
     6ea:	df 01       	movw	r26, r30
     6ec:	0d 90       	ld	r0, X+
     6ee:	00 20       	and	r0, r0
     6f0:	e9 f7       	brne	.-6      	; 0x6ec <write_to_TwiFIFO+0x16>
     6f2:	11 97       	sbiw	r26, 0x01	; 1
     6f4:	bd 01       	movw	r22, r26
     6f6:	6e 1b       	sub	r22, r30
     6f8:	7f 0b       	sbc	r23, r31
     6fa:	80 91 00 01 	lds	r24, 0x0100
     6fe:	90 91 01 01 	lds	r25, 0x0101
     702:	2a dd       	rcall	.-1452   	; 0x158 <FifoWrite>
     704:	81 11       	cpse	r24, r1
     706:	1e c0       	rjmp	.+60     	; 0x744 <write_to_TwiFIFO+0x6e>
     708:	0e 2d       	mov	r16, r14
     70a:	1f 2d       	mov	r17, r15
     70c:	c0 e0       	ldi	r28, 0x00	; 0
     70e:	d0 e0       	ldi	r29, 0x00	; 0
     710:	0b c0       	rjmp	.+22     	; 0x728 <write_to_TwiFIFO+0x52>
		return 1;
	}
	
	for(int i = 0; i < strlen(msg); ++i)
	{
		if(FifoWrite(gTwiFIFO, msg[i]))
     712:	f8 01       	movw	r30, r16
     714:	61 91       	ld	r22, Z+
     716:	8f 01       	movw	r16, r30
     718:	80 91 00 01 	lds	r24, 0x0100
     71c:	90 91 01 01 	lds	r25, 0x0101
     720:	1b dd       	rcall	.-1482   	; 0x158 <FifoWrite>
     722:	81 11       	cpse	r24, r1
     724:	11 c0       	rjmp	.+34     	; 0x748 <write_to_TwiFIFO+0x72>
	{
		//Light lamp?
		return 1;
	}
	
	for(int i = 0; i < strlen(msg); ++i)
     726:	21 96       	adiw	r28, 0x01	; 1
     728:	ee 2d       	mov	r30, r14
     72a:	ff 2d       	mov	r31, r15
     72c:	df 01       	movw	r26, r30
     72e:	0d 90       	ld	r0, X+
     730:	00 20       	and	r0, r0
     732:	e9 f7       	brne	.-6      	; 0x72e <write_to_TwiFIFO+0x58>
     734:	11 97       	sbiw	r26, 0x01	; 1
     736:	ae 1b       	sub	r26, r30
     738:	bf 0b       	sbc	r27, r31
     73a:	ca 17       	cp	r28, r26
     73c:	db 07       	cpc	r29, r27
     73e:	48 f3       	brcs	.-46     	; 0x712 <write_to_TwiFIFO+0x3c>
			//Light lamp?
			return 1;
		}
	}
	
	return 0;
     740:	80 e0       	ldi	r24, 0x00	; 0
     742:	03 c0       	rjmp	.+6      	; 0x74a <write_to_TwiFIFO+0x74>
uint8_t write_to_TwiFIFO(char msg[])
{
	if(FifoWrite(gTwiFIFO, (unsigned char)strlen(msg)))
	{
		//Light lamp?
		return 1;
     744:	81 e0       	ldi	r24, 0x01	; 1
     746:	01 c0       	rjmp	.+2      	; 0x74a <write_to_TwiFIFO+0x74>
	for(int i = 0; i < strlen(msg); ++i)
	{
		if(FifoWrite(gTwiFIFO, msg[i]))
		{
			//Light lamp?
			return 1;
     748:	81 e0       	ldi	r24, 0x01	; 1
		}
	}
	
	return 0;
}
     74a:	df 91       	pop	r29
     74c:	cf 91       	pop	r28
     74e:	1f 91       	pop	r17
     750:	0f 91       	pop	r16
     752:	ff 90       	pop	r15
     754:	ef 90       	pop	r14
     756:	08 95       	ret

00000758 <__vector_26>:

//TWI Interrupt vector MUHAHAHAHA
// ----------------------------------------------------------------------------- Communications
ISR(TWI_vect)
{
     758:	1f 92       	push	r1
     75a:	0f 92       	push	r0
     75c:	0f b6       	in	r0, 0x3f	; 63
     75e:	0f 92       	push	r0
     760:	11 24       	eor	r1, r1
     762:	0b b6       	in	r0, 0x3b	; 59
     764:	0f 92       	push	r0
     766:	2f 93       	push	r18
     768:	3f 93       	push	r19
     76a:	4f 93       	push	r20
     76c:	5f 93       	push	r21
     76e:	6f 93       	push	r22
     770:	7f 93       	push	r23
     772:	8f 93       	push	r24
     774:	9f 93       	push	r25
     776:	af 93       	push	r26
     778:	bf 93       	push	r27
     77a:	cf 93       	push	r28
     77c:	df 93       	push	r29
     77e:	ef 93       	push	r30
     780:	ff 93       	push	r31
	switch(my_adress)
     782:	80 91 45 23 	lds	r24, 0x2345
     786:	85 30       	cpi	r24, 0x05	; 5
     788:	09 f4       	brne	.+2      	; 0x78c <__vector_26+0x34>
     78a:	54 c1       	rjmp	.+680    	; 0xa34 <__vector_26+0x2dc>
     78c:	48 f4       	brcc	.+18     	; 0x7a0 <__vector_26+0x48>
     78e:	81 30       	cpi	r24, 0x01	; 1
     790:	09 f4       	brne	.+2      	; 0x794 <__vector_26+0x3c>
     792:	4c c1       	rjmp	.+664    	; 0xa2c <__vector_26+0x2d4>
     794:	08 f4       	brcc	.+2      	; 0x798 <__vector_26+0x40>
     796:	42 c1       	rjmp	.+644    	; 0xa1c <__vector_26+0x2c4>
     798:	84 30       	cpi	r24, 0x04	; 4
     79a:	09 f0       	breq	.+2      	; 0x79e <__vector_26+0x46>
     79c:	50 c1       	rjmp	.+672    	; 0xa3e <__vector_26+0x2e6>
     79e:	42 c1       	rjmp	.+644    	; 0xa24 <__vector_26+0x2cc>
     7a0:	80 34       	cpi	r24, 0x40	; 64
     7a2:	09 f4       	brne	.+2      	; 0x7a6 <__vector_26+0x4e>
     7a4:	83 c0       	rjmp	.+262    	; 0x8ac <__vector_26+0x154>
     7a6:	80 38       	cpi	r24, 0x80	; 128
     7a8:	21 f0       	breq	.+8      	; 0x7b2 <__vector_26+0x5a>
     7aa:	80 32       	cpi	r24, 0x20	; 32
     7ac:	09 f0       	breq	.+2      	; 0x7b0 <__vector_26+0x58>
     7ae:	47 c1       	rjmp	.+654    	; 0xa3e <__vector_26+0x2e6>
     7b0:	bd c0       	rjmp	.+378    	; 0x92c <__vector_26+0x1d4>
	{
		case(C_ADRESS):
		{
			if(CONTROL == SLAW || CONTROL == ARBIT_SLAW)
     7b2:	80 91 b9 00 	lds	r24, 0x00B9
     7b6:	88 7f       	andi	r24, 0xF8	; 248
     7b8:	80 36       	cpi	r24, 0x60	; 96
     7ba:	29 f0       	breq	.+10     	; 0x7c6 <__vector_26+0x6e>
     7bc:	80 91 b9 00 	lds	r24, 0x00B9
     7c0:	88 7f       	andi	r24, 0xF8	; 248
     7c2:	88 36       	cpi	r24, 0x68	; 104
     7c4:	21 f4       	brne	.+8      	; 0x7ce <__vector_26+0x76>
			{
				instruction = true;
     7c6:	81 e0       	ldi	r24, 0x01	; 1
     7c8:	80 93 38 23 	sts	0x2338, r24
     7cc:	6d c0       	rjmp	.+218    	; 0x8a8 <__vector_26+0x150>
				
			}
			else if(CONTROL == DATA_SLAW)
     7ce:	80 91 b9 00 	lds	r24, 0x00B9
     7d2:	88 7f       	andi	r24, 0xF8	; 248
     7d4:	80 38       	cpi	r24, 0x80	; 128
     7d6:	b9 f5       	brne	.+110    	; 0x846 <__vector_26+0xee>
			{
				if(instruction)
     7d8:	80 91 38 23 	lds	r24, 0x2338
     7dc:	88 23       	and	r24, r24
     7de:	41 f0       	breq	.+16     	; 0x7f0 <__vector_26+0x98>
				{
					current_instruction = get_data();
     7e0:	76 dd       	rcall	.-1300   	; 0x2ce <get_data>
     7e2:	80 93 2c 22 	sts	0x222C, r24
     7e6:	10 92 2d 22 	sts	0x222D, r1
					instruction = false;
     7ea:	10 92 38 23 	sts	0x2338, r1
     7ee:	5c c0       	rjmp	.+184    	; 0x8a8 <__vector_26+0x150>
				}
				else
				{
					switch(current_instruction)
     7f0:	80 91 2c 22 	lds	r24, 0x222C
     7f4:	90 91 2d 22 	lds	r25, 0x222D
     7f8:	85 30       	cpi	r24, 0x05	; 5
     7fa:	91 05       	cpc	r25, r1
     7fc:	71 f0       	breq	.+28     	; 0x81a <__vector_26+0xc2>
     7fe:	24 f4       	brge	.+8      	; 0x808 <__vector_26+0xb0>
     800:	01 97       	sbiw	r24, 0x01	; 1
     802:	09 f0       	breq	.+2      	; 0x806 <__vector_26+0xae>
     804:	51 c0       	rjmp	.+162    	; 0x8a8 <__vector_26+0x150>
     806:	07 c0       	rjmp	.+14     	; 0x816 <__vector_26+0xbe>
     808:	86 30       	cpi	r24, 0x06	; 6
     80a:	91 05       	cpc	r25, r1
     80c:	51 f0       	breq	.+20     	; 0x822 <__vector_26+0xca>
     80e:	49 97       	sbiw	r24, 0x19	; 25
     810:	09 f0       	breq	.+2      	; 0x814 <__vector_26+0xbc>
     812:	4a c0       	rjmp	.+148    	; 0x8a8 <__vector_26+0x150>
     814:	04 c0       	rjmp	.+8      	; 0x81e <__vector_26+0xc6>
					{
						case(I_SETTINGS):
						{
							get_control_settings_from_bus();
     816:	ac dd       	rcall	.-1192   	; 0x370 <get_control_settings_from_bus>
							break;
     818:	47 c0       	rjmp	.+142    	; 0x8a8 <__vector_26+0x150>
						}
						case(I_AUTONOM):
						{
							get_autonom_settings_from_bus();
     81a:	bb dd       	rcall	.-1162   	; 0x392 <get_autonom_settings_from_bus>
							break;
     81c:	45 c0       	rjmp	.+138    	; 0x8a8 <__vector_26+0x150>
						}
						case(I_STRING):
						{
							get_char_from_bus();
     81e:	bd dd       	rcall	.-1158   	; 0x39a <get_char_from_bus>
							break;
     820:	43 c0       	rjmp	.+134    	; 0x8a8 <__vector_26+0x150>
						}
						case(I_FLOAT):
						{
							float_message[float_counter] = get_data();
     822:	c0 91 2a 22 	lds	r28, 0x222A
     826:	d0 91 2b 22 	lds	r29, 0x222B
     82a:	51 dd       	rcall	.-1374   	; 0x2ce <get_data>
     82c:	c7 5b       	subi	r28, 0xB7	; 183
     82e:	dc 4d       	sbci	r29, 0xDC	; 220
     830:	88 83       	st	Y, r24
							float_counter += 1;
     832:	80 91 2a 22 	lds	r24, 0x222A
     836:	90 91 2b 22 	lds	r25, 0x222B
     83a:	01 96       	adiw	r24, 0x01	; 1
     83c:	90 93 2b 22 	sts	0x222B, r25
     840:	80 93 2a 22 	sts	0x222A, r24
							break;
     844:	31 c0       	rjmp	.+98     	; 0x8a8 <__vector_26+0x150>
						}
					}
				}
			}
			else if (CONTROL == DATA_GENERAL)
     846:	80 91 b9 00 	lds	r24, 0x00B9
     84a:	88 7f       	andi	r24, 0xF8	; 248
     84c:	80 39       	cpi	r24, 0x90	; 144
     84e:	11 f4       	brne	.+4      	; 0x854 <__vector_26+0xfc>
			{
				get_sensor_from_bus();
     850:	64 dd       	rcall	.-1336   	; 0x31a <get_sensor_from_bus>
     852:	2a c0       	rjmp	.+84     	; 0x8a8 <__vector_26+0x150>
			}
			else if (CONTROL == STOP)
     854:	80 91 b9 00 	lds	r24, 0x00B9
     858:	88 7f       	andi	r24, 0xF8	; 248
     85a:	80 3a       	cpi	r24, 0xA0	; 160
     85c:	29 f5       	brne	.+74     	; 0x8a8 <__vector_26+0x150>
			{
				stop_twi();
     85e:	46 dd       	rcall	.-1396   	; 0x2ec <stop_twi>
				switch(current_instruction)
     860:	80 91 2c 22 	lds	r24, 0x222C
     864:	90 91 2d 22 	lds	r25, 0x222D
     868:	85 30       	cpi	r24, 0x05	; 5
     86a:	91 05       	cpc	r25, r1
     86c:	71 f0       	breq	.+28     	; 0x88a <__vector_26+0x132>
     86e:	1c f4       	brge	.+6      	; 0x876 <__vector_26+0x11e>
     870:	01 97       	sbiw	r24, 0x01	; 1
     872:	d1 f4       	brne	.+52     	; 0x8a8 <__vector_26+0x150>
     874:	06 c0       	rjmp	.+12     	; 0x882 <__vector_26+0x12a>
     876:	86 30       	cpi	r24, 0x06	; 6
     878:	91 05       	cpc	r25, r1
     87a:	79 f0       	breq	.+30     	; 0x89a <__vector_26+0x142>
     87c:	49 97       	sbiw	r24, 0x19	; 25
     87e:	a1 f4       	brne	.+40     	; 0x8a8 <__vector_26+0x150>
     880:	08 c0       	rjmp	.+16     	; 0x892 <__vector_26+0x13a>
				{
					case(I_SETTINGS):
					{
						control_settings_flag_ = true;
     882:	81 e0       	ldi	r24, 0x01	; 1
     884:	80 93 21 22 	sts	0x2221, r24
						break;
     888:	0f c0       	rjmp	.+30     	; 0x8a8 <__vector_26+0x150>
					}
					case(I_AUTONOM):
					{
						autonom_settings_flag_ = true;
     88a:	81 e0       	ldi	r24, 0x01	; 1
     88c:	80 93 20 22 	sts	0x2220, r24
						break;
     890:	0b c0       	rjmp	.+22     	; 0x8a8 <__vector_26+0x150>
					}
					case(I_STRING):
					{
						write_to_TwiFIFO(message);
     892:	88 e3       	ldi	r24, 0x38	; 56
     894:	92 e2       	ldi	r25, 0x22	; 34
     896:	1f df       	rcall	.-450    	; 0x6d6 <write_to_TwiFIFO>
						break;
     898:	07 c0       	rjmp	.+14     	; 0x8a8 <__vector_26+0x150>
					}
					case(I_FLOAT):
					{
						USART_SendValue(float_message);
     89a:	89 e4       	ldi	r24, 0x49	; 73
     89c:	93 e2       	ldi	r25, 0x23	; 35
     89e:	d7 d1       	rcall	.+942    	; 0xc4e <USART_SendValue>
						float_counter = 0;
     8a0:	10 92 2b 22 	sts	0x222B, r1
     8a4:	10 92 2a 22 	sts	0x222A, r1
						break;
					}
				}
			}
			reset_TWI();
     8a8:	32 dd       	rcall	.-1436   	; 0x30e <reset_TWI>
			break;
     8aa:	c9 c0       	rjmp	.+402    	; 0xa3e <__vector_26+0x2e6>
		}
		// ----------------------------------------------------------------------------- Sensors
		case(S_ADRESS):
		{
			if(CONTROL == SLAW || CONTROL == ARBIT_SLAW)
     8ac:	80 91 b9 00 	lds	r24, 0x00B9
     8b0:	88 7f       	andi	r24, 0xF8	; 248
     8b2:	80 36       	cpi	r24, 0x60	; 96
     8b4:	29 f0       	breq	.+10     	; 0x8c0 <__vector_26+0x168>
     8b6:	80 91 b9 00 	lds	r24, 0x00B9
     8ba:	88 7f       	andi	r24, 0xF8	; 248
     8bc:	88 36       	cpi	r24, 0x68	; 104
     8be:	21 f4       	brne	.+8      	; 0x8c8 <__vector_26+0x170>
			{
				instruction = true;
     8c0:	81 e0       	ldi	r24, 0x01	; 1
     8c2:	80 93 38 23 	sts	0x2338, r24
     8c6:	30 c0       	rjmp	.+96     	; 0x928 <__vector_26+0x1d0>
			}
			else if(CONTROL == DATA_SLAW)
     8c8:	80 91 b9 00 	lds	r24, 0x00B9
     8cc:	88 7f       	andi	r24, 0xF8	; 248
     8ce:	80 38       	cpi	r24, 0x80	; 128
     8d0:	e1 f4       	brne	.+56     	; 0x90a <__vector_26+0x1b2>
			{
				if(instruction)
     8d2:	80 91 38 23 	lds	r24, 0x2338
     8d6:	88 23       	and	r24, r24
     8d8:	41 f0       	breq	.+16     	; 0x8ea <__vector_26+0x192>
				{
					current_instruction = get_data();
     8da:	f9 dc       	rcall	.-1550   	; 0x2ce <get_data>
     8dc:	80 93 2c 22 	sts	0x222C, r24
     8e0:	10 92 2d 22 	sts	0x222D, r1
					instruction = false;
     8e4:	10 92 38 23 	sts	0x2338, r1
     8e8:	1f c0       	rjmp	.+62     	; 0x928 <__vector_26+0x1d0>
				}
				else
				{
					switch(current_instruction)
     8ea:	80 91 2c 22 	lds	r24, 0x222C
     8ee:	90 91 2d 22 	lds	r25, 0x222D
     8f2:	82 30       	cpi	r24, 0x02	; 2
     8f4:	91 05       	cpc	r25, r1
     8f6:	19 f0       	breq	.+6      	; 0x8fe <__vector_26+0x1a6>
     8f8:	49 97       	sbiw	r24, 0x19	; 25
     8fa:	b1 f4       	brne	.+44     	; 0x928 <__vector_26+0x1d0>
     8fc:	04 c0       	rjmp	.+8      	; 0x906 <__vector_26+0x1ae>
	}
}

void get_sweep_from_bus()
{
	sweep = get_data();
     8fe:	e7 dc       	rcall	.-1586   	; 0x2ce <get_data>
     900:	80 93 46 23 	sts	0x2346, r24
     904:	11 c0       	rjmp	.+34     	; 0x928 <__vector_26+0x1d0>
							get_sweep_from_bus();
							break;
						}
						case(I_STRING):
						{
							get_char_from_bus();
     906:	49 dd       	rcall	.-1390   	; 0x39a <get_char_from_bus>
							break;
     908:	0f c0       	rjmp	.+30     	; 0x928 <__vector_26+0x1d0>
						}
					}
				}
			}
			else if (CONTROL == STOP)
     90a:	80 91 b9 00 	lds	r24, 0x00B9
     90e:	88 7f       	andi	r24, 0xF8	; 248
     910:	80 3a       	cpi	r24, 0xA0	; 160
     912:	51 f4       	brne	.+20     	; 0x928 <__vector_26+0x1d0>
			{
				stop_twi();
     914:	eb dc       	rcall	.-1578   	; 0x2ec <stop_twi>
				switch(current_instruction)
     916:	80 91 2c 22 	lds	r24, 0x222C
     91a:	90 91 2d 22 	lds	r25, 0x222D
     91e:	02 97       	sbiw	r24, 0x02	; 2
     920:	19 f4       	brne	.+6      	; 0x928 <__vector_26+0x1d0>
				{
					case(I_SWEEP):
					{
						sweep_flag_ = true;
     922:	81 e0       	ldi	r24, 0x01	; 1
     924:	80 93 1e 22 	sts	0x221E, r24
						//Add message to buffer
						break;
					}
				}
			}
			reset_TWI();
     928:	f2 dc       	rcall	.-1564   	; 0x30e <reset_TWI>
			break;
     92a:	89 c0       	rjmp	.+274    	; 0xa3e <__vector_26+0x2e6>
		}
		// ----------------------------------------------------------------------------- Steer
		case(ST_ADRESS):
		{
			if(CONTROL == SLAW || CONTROL == ARBIT_SLAW)
     92c:	80 91 b9 00 	lds	r24, 0x00B9
     930:	88 7f       	andi	r24, 0xF8	; 248
     932:	80 36       	cpi	r24, 0x60	; 96
     934:	29 f0       	breq	.+10     	; 0x940 <__vector_26+0x1e8>
     936:	80 91 b9 00 	lds	r24, 0x00B9
     93a:	88 7f       	andi	r24, 0xF8	; 248
     93c:	88 36       	cpi	r24, 0x68	; 104
     93e:	21 f4       	brne	.+8      	; 0x948 <__vector_26+0x1f0>
			{
				instruction = true;
     940:	81 e0       	ldi	r24, 0x01	; 1
     942:	80 93 38 23 	sts	0x2338, r24
     946:	7a c0       	rjmp	.+244    	; 0xa3c <__vector_26+0x2e4>
			}
			else if(CONTROL == DATA_SLAW)
     948:	80 91 b9 00 	lds	r24, 0x00B9
     94c:	88 7f       	andi	r24, 0xF8	; 248
     94e:	80 38       	cpi	r24, 0x80	; 128
     950:	09 f0       	breq	.+2      	; 0x954 <__vector_26+0x1fc>
     952:	57 c0       	rjmp	.+174    	; 0xa02 <__vector_26+0x2aa>
			{
				if(instruction)
     954:	80 91 38 23 	lds	r24, 0x2338
     958:	88 23       	and	r24, r24
     95a:	41 f0       	breq	.+16     	; 0x96c <__vector_26+0x214>
				{
					current_instruction = get_data();
     95c:	b8 dc       	rcall	.-1680   	; 0x2ce <get_data>
     95e:	80 93 2c 22 	sts	0x222C, r24
     962:	10 92 2d 22 	sts	0x222D, r1
					instruction = false;
     966:	10 92 38 23 	sts	0x2338, r1
     96a:	68 c0       	rjmp	.+208    	; 0xa3c <__vector_26+0x2e4>
				}
				else
				{
					switch(current_instruction)
     96c:	80 91 2c 22 	lds	r24, 0x222C
     970:	90 91 2d 22 	lds	r25, 0x222D
     974:	81 30       	cpi	r24, 0x01	; 1
     976:	91 05       	cpc	r25, r1
     978:	09 f4       	brne	.+2      	; 0x97c <__vector_26+0x224>
     97a:	3f c0       	rjmp	.+126    	; 0x9fa <__vector_26+0x2a2>
     97c:	1c f4       	brge	.+6      	; 0x984 <__vector_26+0x22c>
     97e:	89 2b       	or	r24, r25
     980:	41 f0       	breq	.+16     	; 0x992 <__vector_26+0x23a>
     982:	5c c0       	rjmp	.+184    	; 0xa3c <__vector_26+0x2e4>
     984:	84 30       	cpi	r24, 0x04	; 4
     986:	91 05       	cpc	r25, r1
     988:	b1 f0       	breq	.+44     	; 0x9b6 <__vector_26+0x25e>
     98a:	05 97       	sbiw	r24, 0x05	; 5
     98c:	09 f0       	breq	.+2      	; 0x990 <__vector_26+0x238>
     98e:	56 c0       	rjmp	.+172    	; 0xa3c <__vector_26+0x2e4>
     990:	36 c0       	rjmp	.+108    	; 0x9fe <__vector_26+0x2a6>
	message_length = message_counter;
}

void get_command_from_bus()
{
	command[current_command] = get_data();
     992:	c0 91 3c 23 	lds	r28, 0x233C
     996:	d0 91 3d 23 	lds	r29, 0x233D
     99a:	99 dc       	rcall	.-1742   	; 0x2ce <get_data>
     99c:	cb 5c       	subi	r28, 0xCB	; 203
     99e:	dd 4d       	sbci	r29, 0xDD	; 221
     9a0:	88 83       	st	Y, r24
	current_command += 1;
     9a2:	80 91 3c 23 	lds	r24, 0x233C
     9a6:	90 91 3d 23 	lds	r25, 0x233D
     9aa:	01 96       	adiw	r24, 0x01	; 1
     9ac:	90 93 3d 23 	sts	0x233D, r25
     9b0:	80 93 3c 23 	sts	0x233C, r24
     9b4:	43 c0       	rjmp	.+134    	; 0xa3c <__vector_26+0x2e4>
}

void get_elevation_from_bus()
{
	elevation += get_data();
     9b6:	8b dc       	rcall	.-1770   	; 0x2ce <get_data>
     9b8:	20 91 3e 23 	lds	r18, 0x233E
     9bc:	30 91 3f 23 	lds	r19, 0x233F
     9c0:	a9 01       	movw	r20, r18
     9c2:	48 0f       	add	r20, r24
     9c4:	51 1d       	adc	r21, r1
     9c6:	ca 01       	movw	r24, r20
	if(elevation < 1)
     9c8:	18 16       	cp	r1, r24
     9ca:	19 06       	cpc	r1, r25
     9cc:	3c f0       	brlt	.+14     	; 0x9dc <__vector_26+0x284>
		elevation = 1;
     9ce:	81 e0       	ldi	r24, 0x01	; 1
     9d0:	90 e0       	ldi	r25, 0x00	; 0
     9d2:	90 93 3f 23 	sts	0x233F, r25
     9d6:	80 93 3e 23 	sts	0x233E, r24
     9da:	30 c0       	rjmp	.+96     	; 0xa3c <__vector_26+0x2e4>
	else if(elevation > 7) // 7 niver?!
     9dc:	48 30       	cpi	r20, 0x08	; 8
     9de:	51 05       	cpc	r21, r1
     9e0:	2c f4       	brge	.+10     	; 0x9ec <__vector_26+0x294>
	current_command += 1;
}

void get_elevation_from_bus()
{
	elevation += get_data();
     9e2:	50 93 3f 23 	sts	0x233F, r21
     9e6:	40 93 3e 23 	sts	0x233E, r20
     9ea:	28 c0       	rjmp	.+80     	; 0xa3c <__vector_26+0x2e4>
	if(elevation < 1)
		elevation = 1;
	else if(elevation > 7) // 7 niver?!
		elevation = 7;
     9ec:	87 e0       	ldi	r24, 0x07	; 7
     9ee:	90 e0       	ldi	r25, 0x00	; 0
     9f0:	90 93 3f 23 	sts	0x233F, r25
     9f4:	80 93 3e 23 	sts	0x233E, r24
     9f8:	21 c0       	rjmp	.+66     	; 0xa3c <__vector_26+0x2e4>
							get_elevation_from_bus();
							break;
						}
						case(I_SETTINGS):
						{
							get_control_settings_from_bus();
     9fa:	ba dc       	rcall	.-1676   	; 0x370 <get_control_settings_from_bus>
							break;
     9fc:	1f c0       	rjmp	.+62     	; 0xa3c <__vector_26+0x2e4>
						}
						case(I_AUTONOM):
						{
							get_autonom_settings_from_bus();
     9fe:	c9 dc       	rcall	.-1646   	; 0x392 <get_autonom_settings_from_bus>
							break;
     a00:	1d c0       	rjmp	.+58     	; 0xa3c <__vector_26+0x2e4>
						}
					}
				}
			}
			else if (CONTROL == DATA_GENERAL)
     a02:	80 91 b9 00 	lds	r24, 0x00B9
     a06:	88 7f       	andi	r24, 0xF8	; 248
     a08:	80 39       	cpi	r24, 0x90	; 144
     a0a:	11 f4       	brne	.+4      	; 0xa10 <__vector_26+0x2b8>
			{
				get_sensor_from_bus();
     a0c:	86 dc       	rcall	.-1780   	; 0x31a <get_sensor_from_bus>
     a0e:	16 c0       	rjmp	.+44     	; 0xa3c <__vector_26+0x2e4>
			}
			else if (CONTROL == STOP)
     a10:	80 91 b9 00 	lds	r24, 0x00B9
     a14:	88 7f       	andi	r24, 0xF8	; 248
     a16:	80 3a       	cpi	r24, 0xA0	; 160
     a18:	89 f4       	brne	.+34     	; 0xa3c <__vector_26+0x2e4>
			{
				stop_twi();
     a1a:	68 dc       	rcall	.-1840   	; 0x2ec <stop_twi>
				case(I_COMMAND):
				{
					command_flag_ = true;
     a1c:	81 e0       	ldi	r24, 0x01	; 1
     a1e:	80 93 22 22 	sts	0x2222, r24
					break;
     a22:	0d c0       	rjmp	.+26     	; 0xa3e <__vector_26+0x2e6>
				}
				case(I_ELEVATION):
				{
					elevation_flag_ = true;
     a24:	81 e0       	ldi	r24, 0x01	; 1
     a26:	80 93 1f 22 	sts	0x221F, r24
					break;
     a2a:	09 c0       	rjmp	.+18     	; 0xa3e <__vector_26+0x2e6>
				}
				case(I_SETTINGS):
				{
					control_settings_flag_ = true;
     a2c:	81 e0       	ldi	r24, 0x01	; 1
     a2e:	80 93 21 22 	sts	0x2221, r24
					break;
     a32:	05 c0       	rjmp	.+10     	; 0xa3e <__vector_26+0x2e6>
				}
				case(I_AUTONOM):
				{
					autonom_settings_flag_ = true;
     a34:	81 e0       	ldi	r24, 0x01	; 1
     a36:	80 93 20 22 	sts	0x2220, r24
					break;
     a3a:	01 c0       	rjmp	.+2      	; 0xa3e <__vector_26+0x2e6>
				}
			}
			reset_TWI();
     a3c:	68 dc       	rcall	.-1840   	; 0x30e <reset_TWI>
			break;
		}
	}
     a3e:	ff 91       	pop	r31
     a40:	ef 91       	pop	r30
     a42:	df 91       	pop	r29
     a44:	cf 91       	pop	r28
     a46:	bf 91       	pop	r27
     a48:	af 91       	pop	r26
     a4a:	9f 91       	pop	r25
     a4c:	8f 91       	pop	r24
     a4e:	7f 91       	pop	r23
     a50:	6f 91       	pop	r22
     a52:	5f 91       	pop	r21
     a54:	4f 91       	pop	r20
     a56:	3f 91       	pop	r19
     a58:	2f 91       	pop	r18
     a5a:	0f 90       	pop	r0
     a5c:	0b be       	out	0x3b, r0	; 59
     a5e:	0f 90       	pop	r0
     a60:	0f be       	out	0x3f, r0	; 63
     a62:	0f 90       	pop	r0
     a64:	1f 90       	pop	r1
     a66:	18 95       	reti

00000a68 <USART_init>:
uint8_t USART_ReadByte()
{
	// NOTE: check if data is available before calling this function. Should probably be implemented w. interrupt.
	return UDR0;

}
     a68:	10 92 c5 00 	sts	0x00C5, r1
     a6c:	89 e0       	ldi	r24, 0x09	; 9
     a6e:	80 93 c4 00 	sts	0x00C4, r24
     a72:	88 e9       	ldi	r24, 0x98	; 152
     a74:	80 93 c1 00 	sts	0x00C1, r24
     a78:	86 e0       	ldi	r24, 0x06	; 6
     a7a:	80 93 c2 00 	sts	0x00C2, r24
     a7e:	08 95       	ret

00000a80 <USART_CheckTxReady>:
     a80:	80 91 c0 00 	lds	r24, 0x00C0
     a84:	80 72       	andi	r24, 0x20	; 32
     a86:	08 95       	ret

00000a88 <USART_WriteByte>:
     a88:	cf 93       	push	r28
     a8a:	c8 2f       	mov	r28, r24
     a8c:	f9 df       	rcall	.-14     	; 0xa80 <USART_CheckTxReady>
     a8e:	88 23       	and	r24, r24
     a90:	e9 f3       	breq	.-6      	; 0xa8c <USART_WriteByte+0x4>
     a92:	c0 93 c6 00 	sts	0x00C6, r28
     a96:	cf 91       	pop	r28
     a98:	08 95       	ret

00000a9a <USART_crc16>:


// calculate crc for packet
uint16_t USART_crc16(uint8_t tag, uint8_t length)
{
     a9a:	cf 92       	push	r12
     a9c:	df 92       	push	r13
     a9e:	ef 92       	push	r14
     aa0:	ff 92       	push	r15
     aa2:	0f 93       	push	r16
     aa4:	1f 93       	push	r17
     aa6:	cf 93       	push	r28
     aa8:	df 93       	push	r29
	uint16_t data, i;
	unsigned int crc; // maybe use uint16_t here
	
	crc = 0xffff;
	
	if (length == 0)
     aaa:	66 23       	and	r22, r22
     aac:	09 f4       	brne	.+2      	; 0xab0 <USART_crc16+0x16>
     aae:	3e c0       	rjmp	.+124    	; 0xb2c <USART_crc16+0x92>
	return (~crc);
	
	for(count = -2; count < length ; ++count)
     ab0:	06 2f       	mov	r16, r22
     ab2:	10 e0       	ldi	r17, 0x00	; 0
     ab4:	4f ef       	ldi	r20, 0xFF	; 255
     ab6:	5f ef       	ldi	r21, 0xFF	; 255
     ab8:	ee ef       	ldi	r30, 0xFE	; 254
     aba:	ff ef       	ldi	r31, 0xFF	; 255
		if(count == -2)
		{
			data = tag;
		}else if(count == -1)
		{
			data = length;
     abc:	c6 2e       	mov	r12, r22
     abe:	d1 2c       	mov	r13, r1
	
	for(count = -2; count < length ; ++count)
	{
		if(count == -2)
		{
			data = tag;
     ac0:	e8 2e       	mov	r14, r24
     ac2:	f1 2c       	mov	r15, r1
	crc = 0xffff;
	
	if (length == 0)
	return (~crc);
	
	for(count = -2; count < length ; ++count)
     ac4:	c8 e0       	ldi	r28, 0x08	; 8
     ac6:	d0 e0       	ldi	r29, 0x00	; 0
	{
		if(count == -2)
     ac8:	ee 3f       	cpi	r30, 0xFE	; 254
     aca:	6f ef       	ldi	r22, 0xFF	; 255
     acc:	f6 07       	cpc	r31, r22
     ace:	19 f4       	brne	.+6      	; 0xad6 <USART_crc16+0x3c>
		{
			data = tag;
     ad0:	8e 2d       	mov	r24, r14
     ad2:	9f 2d       	mov	r25, r15
     ad4:	30 c0       	rjmp	.+96     	; 0xb36 <USART_crc16+0x9c>
		}else if(count == -1)
     ad6:	ef 3f       	cpi	r30, 0xFF	; 255
     ad8:	8f ef       	ldi	r24, 0xFF	; 255
     ada:	f8 07       	cpc	r31, r24
     adc:	19 f4       	brne	.+6      	; 0xae4 <USART_crc16+0x4a>
		{
			data = length;
     ade:	8c 2d       	mov	r24, r12
     ae0:	9d 2d       	mov	r25, r13
     ae2:	29 c0       	rjmp	.+82     	; 0xb36 <USART_crc16+0x9c>

}


// calculate crc for packet
uint16_t USART_crc16(uint8_t tag, uint8_t length)
     ae4:	df 01       	movw	r26, r30
     ae6:	a7 5a       	subi	r26, 0xA7	; 167
     ae8:	ba 4d       	sbci	r27, 0xDA	; 218
		}else if(count == -1)
		{
			data = length;
		}else
		{
			data = gTxPayload[count];
     aea:	8c 91       	ld	r24, X
     aec:	90 e0       	ldi	r25, 0x00	; 0
     aee:	23 c0       	rjmp	.+70     	; 0xb36 <USART_crc16+0x9c>
		}
		
		for (i = 0; i < 8; ++i)
		{
			if ((crc & 0x0001) ^ (data & 0x0001))
     af0:	ba 01       	movw	r22, r20
     af2:	68 27       	eor	r22, r24
     af4:	79 27       	eor	r23, r25
     af6:	60 ff       	sbrs	r22, 0
     af8:	07 c0       	rjmp	.+14     	; 0xb08 <USART_crc16+0x6e>
			{
				crc = (crc >> 1) ^ POLY;
     afa:	56 95       	lsr	r21
     afc:	47 95       	ror	r20
     afe:	68 e0       	ldi	r22, 0x08	; 8
     b00:	46 27       	eor	r20, r22
     b02:	64 e8       	ldi	r22, 0x84	; 132
     b04:	56 27       	eor	r21, r22
     b06:	02 c0       	rjmp	.+4      	; 0xb0c <USART_crc16+0x72>
			}else
			{
				crc >>= 1;
     b08:	56 95       	lsr	r21
     b0a:	47 95       	ror	r20
			}
			
			data >>= 1;
     b0c:	96 95       	lsr	r25
     b0e:	87 95       	ror	r24
     b10:	21 50       	subi	r18, 0x01	; 1
     b12:	31 09       	sbc	r19, r1
		}else
		{
			data = gTxPayload[count];
		}
		
		for (i = 0; i < 8; ++i)
     b14:	69 f7       	brne	.-38     	; 0xaf0 <USART_crc16+0x56>
	crc = 0xffff;
	
	if (length == 0)
	return (~crc);
	
	for(count = -2; count < length ; ++count)
     b16:	31 96       	adiw	r30, 0x01	; 1
     b18:	e0 17       	cp	r30, r16
     b1a:	f1 07       	cpc	r31, r17
     b1c:	a9 f6       	brne	.-86     	; 0xac8 <USART_crc16+0x2e>
			
			data >>= 1;
		}
	}
	
	crc = ~crc;
     b1e:	9a 01       	movw	r18, r20
     b20:	20 95       	com	r18
     b22:	30 95       	com	r19
	
	data = crc;
	crc = (crc << 8 | (data >> 8 & 0xff));
     b24:	32 27       	eor	r19, r18
     b26:	23 27       	eor	r18, r19
     b28:	32 27       	eor	r19, r18
	
	return (crc);
     b2a:	02 c0       	rjmp	.+4      	; 0xb30 <USART_crc16+0x96>
	unsigned int crc; // maybe use uint16_t here
	
	crc = 0xffff;
	
	if (length == 0)
	return (~crc);
     b2c:	20 e0       	ldi	r18, 0x00	; 0
     b2e:	30 e0       	ldi	r19, 0x00	; 0
     b30:	82 2f       	mov	r24, r18
     b32:	93 2f       	mov	r25, r19
     b34:	02 c0       	rjmp	.+4      	; 0xb3a <USART_crc16+0xa0>
	
	for(count = -2; count < length ; ++count)
     b36:	9e 01       	movw	r18, r28
     b38:	db cf       	rjmp	.-74     	; 0xaf0 <USART_crc16+0x56>
	
	data = crc;
	crc = (crc << 8 | (data >> 8 & 0xff));
	
	return (crc);
}
     b3a:	df 91       	pop	r29
     b3c:	cf 91       	pop	r28
     b3e:	1f 91       	pop	r17
     b40:	0f 91       	pop	r16
     b42:	ff 90       	pop	r15
     b44:	ef 90       	pop	r14
     b46:	df 90       	pop	r13
     b48:	cf 90       	pop	r12
     b4a:	08 95       	ret

00000b4c <USART_SendPacket>:

void USART_SendPacket(char tag, uint8_t length)
{
     b4c:	0f 93       	push	r16
     b4e:	1f 93       	push	r17
     b50:	cf 93       	push	r28
     b52:	df 93       	push	r29
	int count, offset, buffersize;
	uint16_t crc;
	
	// put start of packet into transmit buffer
	gTxBuffer[0] = 0x7e; // frame delimiter
     b54:	9e e7       	ldi	r25, 0x7E	; 126
     b56:	90 93 58 26 	sts	0x2658, r25
	gTxBuffer[1] = tag;
     b5a:	80 93 59 26 	sts	0x2659, r24
	gTxBuffer[2] = length;
     b5e:	60 93 5a 26 	sts	0x265A, r22
	
	// payload
	
	offset = 3;
	
	for(count = 0; count < length; ++count)
     b62:	26 2f       	mov	r18, r22
     b64:	30 e0       	ldi	r19, 0x00	; 0
     b66:	12 16       	cp	r1, r18
     b68:	13 06       	cpc	r1, r19
     b6a:	4c f5       	brge	.+82     	; 0xbbe <USART_SendPacket+0x72>
     b6c:	e9 e5       	ldi	r30, 0x59	; 89
     b6e:	f5 e2       	ldi	r31, 0x25	; 37
	gTxBuffer[1] = tag;
	gTxBuffer[2] = length;
	
	// payload
	
	offset = 3;
     b70:	03 e0       	ldi	r16, 0x03	; 3
     b72:	10 e0       	ldi	r17, 0x00	; 0
	
	for(count = 0; count < length; ++count)
     b74:	c0 e0       	ldi	r28, 0x00	; 0
     b76:	d0 e0       	ldi	r29, 0x00	; 0
	{
		if(gTxPayload[count] == 0x7e || gTxPayload[count] == 0x7d) // if frame delimiter or escape octet occurs in data
		{
			gTxBuffer[count + offset] = 0x7d; // add the escape octet
     b78:	7d e7       	ldi	r23, 0x7D	; 125
			offset++;
			gTxBuffer[count + offset] = (1<<5)^gTxPayload[count]; // invert bit 5 in data
     b7a:	50 e2       	ldi	r21, 0x20	; 32
	
	offset = 3;
	
	for(count = 0; count < length; ++count)
	{
		if(gTxPayload[count] == 0x7e || gTxPayload[count] == 0x7d) // if frame delimiter or escape octet occurs in data
     b7c:	90 81       	ld	r25, Z
     b7e:	49 2f       	mov	r20, r25
     b80:	4d 57       	subi	r20, 0x7D	; 125
     b82:	42 30       	cpi	r20, 0x02	; 2
     b84:	80 f4       	brcc	.+32     	; 0xba6 <USART_SendPacket+0x5a>
		{
			gTxBuffer[count + offset] = 0x7d; // add the escape octet
     b86:	d8 01       	movw	r26, r16
     b88:	a8 5a       	subi	r26, 0xA8	; 168
     b8a:	b9 4d       	sbci	r27, 0xD9	; 217
     b8c:	ac 0f       	add	r26, r28
     b8e:	bd 1f       	adc	r27, r29
     b90:	7c 93       	st	X, r23
			offset++;
     b92:	0f 5f       	subi	r16, 0xFF	; 255
     b94:	1f 4f       	sbci	r17, 0xFF	; 255
			gTxBuffer[count + offset] = (1<<5)^gTxPayload[count]; // invert bit 5 in data
     b96:	d8 01       	movw	r26, r16
     b98:	a8 5a       	subi	r26, 0xA8	; 168
     b9a:	b9 4d       	sbci	r27, 0xD9	; 217
     b9c:	ac 0f       	add	r26, r28
     b9e:	bd 1f       	adc	r27, r29
     ba0:	95 27       	eor	r25, r21
     ba2:	9c 93       	st	X, r25
     ba4:	06 c0       	rjmp	.+12     	; 0xbb2 <USART_SendPacket+0x66>
		}else
		{
			gTxBuffer[count + offset] = gTxPayload[count];
     ba6:	d8 01       	movw	r26, r16
     ba8:	a8 5a       	subi	r26, 0xA8	; 168
     baa:	b9 4d       	sbci	r27, 0xD9	; 217
     bac:	ac 0f       	add	r26, r28
     bae:	bd 1f       	adc	r27, r29
     bb0:	9c 93       	st	X, r25
	
	// payload
	
	offset = 3;
	
	for(count = 0; count < length; ++count)
     bb2:	21 96       	adiw	r28, 0x01	; 1
     bb4:	31 96       	adiw	r30, 0x01	; 1
     bb6:	c2 17       	cp	r28, r18
     bb8:	d3 07       	cpc	r29, r19
     bba:	01 f7       	brne	.-64     	; 0xb7c <USART_SendPacket+0x30>
     bbc:	04 c0       	rjmp	.+8      	; 0xbc6 <USART_SendPacket+0x7a>
	gTxBuffer[1] = tag;
	gTxBuffer[2] = length;
	
	// payload
	
	offset = 3;
     bbe:	03 e0       	ldi	r16, 0x03	; 3
     bc0:	10 e0       	ldi	r17, 0x00	; 0
	
	for(count = 0; count < length; ++count)
     bc2:	c0 e0       	ldi	r28, 0x00	; 0
     bc4:	d0 e0       	ldi	r29, 0x00	; 0
		{
			gTxBuffer[count + offset] = gTxPayload[count];
		}
	}
	
	crc = USART_crc16(tag, length);
     bc6:	69 df       	rcall	.-302    	; 0xa9a <USART_crc16>
	
	gTxBuffer[count+offset] = (uint8_t)(crc >> 8);
     bc8:	f8 01       	movw	r30, r16
     bca:	e8 5a       	subi	r30, 0xA8	; 168
     bcc:	f9 4d       	sbci	r31, 0xD9	; 217
     bce:	ec 0f       	add	r30, r28
     bd0:	fd 1f       	adc	r31, r29
     bd2:	90 83       	st	Z, r25
	++count;
	gTxBuffer[count + offset] = (uint8_t)(crc);
     bd4:	81 83       	std	Z+1, r24	; 0x01
	++count;
     bd6:	22 96       	adiw	r28, 0x02	; 2
	
	
	gTxBuffer[count+offset] = 0x7e;
     bd8:	0c 0f       	add	r16, r28
     bda:	1d 1f       	adc	r17, r29
     bdc:	f8 01       	movw	r30, r16
     bde:	e8 5a       	subi	r30, 0xA8	; 168
     be0:	f9 4d       	sbci	r31, 0xD9	; 217
     be2:	8e e7       	ldi	r24, 0x7E	; 126
     be4:	80 83       	st	Z, r24
	
	buffersize = count + offset;
	
	for(count = 0; count < buffersize + 1; ++count)
     be6:	c8 01       	movw	r24, r16
     be8:	01 96       	adiw	r24, 0x01	; 1
     bea:	18 16       	cp	r1, r24
     bec:	19 06       	cpc	r1, r25
     bee:	4c f4       	brge	.+18     	; 0xc02 <USART_SendPacket+0xb6>
     bf0:	c8 e5       	ldi	r28, 0x58	; 88
     bf2:	d6 e2       	ldi	r29, 0x26	; 38
	crc = (crc << 8 | (data >> 8 & 0xff));
	
	return (crc);
}

void USART_SendPacket(char tag, uint8_t length)
     bf4:	07 5a       	subi	r16, 0xA7	; 167
     bf6:	19 4d       	sbci	r17, 0xD9	; 217
	
	buffersize = count + offset;
	
	for(count = 0; count < buffersize + 1; ++count)
	{
		USART_WriteByte(gTxBuffer[count]);
     bf8:	89 91       	ld	r24, Y+
     bfa:	46 df       	rcall	.-372    	; 0xa88 <USART_WriteByte>
	
	gTxBuffer[count+offset] = 0x7e;
	
	buffersize = count + offset;
	
	for(count = 0; count < buffersize + 1; ++count)
     bfc:	c0 17       	cp	r28, r16
     bfe:	d1 07       	cpc	r29, r17
     c00:	d9 f7       	brne	.-10     	; 0xbf8 <USART_SendPacket+0xac>
	{
		USART_WriteByte(gTxBuffer[count]);
	}
}
     c02:	df 91       	pop	r29
     c04:	cf 91       	pop	r28
     c06:	1f 91       	pop	r17
     c08:	0f 91       	pop	r16
     c0a:	08 95       	ret

00000c0c <USART_SendMessage>:

void USART_SendMessage(char msg[])
{
     c0c:	cf 93       	push	r28
     c0e:	df 93       	push	r29
     c10:	c8 2f       	mov	r28, r24
     c12:	d9 2f       	mov	r29, r25
     c14:	49 e5       	ldi	r20, 0x59	; 89
     c16:	55 e2       	ldi	r21, 0x25	; 37
	for(int i = 0; i < strlen(msg); ++i )
     c18:	20 e0       	ldi	r18, 0x00	; 0
     c1a:	30 e0       	ldi	r19, 0x00	; 0
     c1c:	06 c0       	rjmp	.+12     	; 0xc2a <USART_SendMessage+0x1e>
	{
		gTxPayload[i] = msg[i];
     c1e:	69 91       	ld	r22, Y+
     c20:	fa 01       	movw	r30, r20
     c22:	61 93       	st	Z+, r22
     c24:	af 01       	movw	r20, r30
	}
}

void USART_SendMessage(char msg[])
{
	for(int i = 0; i < strlen(msg); ++i )
     c26:	2f 5f       	subi	r18, 0xFF	; 255
     c28:	3f 4f       	sbci	r19, 0xFF	; 255
     c2a:	e8 2f       	mov	r30, r24
     c2c:	f9 2f       	mov	r31, r25
     c2e:	df 01       	movw	r26, r30
     c30:	0d 90       	ld	r0, X+
     c32:	00 20       	and	r0, r0
     c34:	e9 f7       	brne	.-6      	; 0xc30 <USART_SendMessage+0x24>
     c36:	11 97       	sbiw	r26, 0x01	; 1
     c38:	bd 01       	movw	r22, r26
     c3a:	6e 1b       	sub	r22, r30
     c3c:	7f 0b       	sbc	r23, r31
     c3e:	26 17       	cp	r18, r22
     c40:	37 07       	cpc	r19, r23
     c42:	68 f3       	brcs	.-38     	; 0xc1e <USART_SendMessage+0x12>
	{
		gTxPayload[i] = msg[i];
	}
	
	USART_SendPacket('M', strlen(msg));
     c44:	8d e4       	ldi	r24, 0x4D	; 77
     c46:	82 df       	rcall	.-252    	; 0xb4c <USART_SendPacket>
}
     c48:	df 91       	pop	r29
     c4a:	cf 91       	pop	r28
     c4c:	08 95       	ret

00000c4e <USART_SendValue>:

void USART_SendValue(uint8_t msg[])
{
     c4e:	a8 2f       	mov	r26, r24
     c50:	b9 2f       	mov	r27, r25
     c52:	e9 e5       	ldi	r30, 0x59	; 89
     c54:	f5 e2       	ldi	r31, 0x25	; 37
	}
	
	USART_SendPacket('M', strlen(msg));
}

void USART_SendValue(uint8_t msg[])
     c56:	8d e5       	ldi	r24, 0x5D	; 93
     c58:	95 e2       	ldi	r25, 0x25	; 37
{
	for(int i = 0; i < 4; ++i )
	{
		gTxPayload[i] = msg[i];
     c5a:	2d 91       	ld	r18, X+
     c5c:	21 93       	st	Z+, r18
	USART_SendPacket('M', strlen(msg));
}

void USART_SendValue(uint8_t msg[])
{
	for(int i = 0; i < 4; ++i )
     c5e:	e8 17       	cp	r30, r24
     c60:	f9 07       	cpc	r31, r25
     c62:	d9 f7       	brne	.-10     	; 0xc5a <USART_SendValue+0xc>
	{
		gTxPayload[i] = msg[i];
	}
	
	USART_SendPacket('V', 4);
     c64:	64 e0       	ldi	r22, 0x04	; 4
     c66:	86 e5       	ldi	r24, 0x56	; 86
     c68:	71 cf       	rjmp	.-286    	; 0xb4c <USART_SendPacket>

00000c6a <USART_SendSensors>:
}

void USART_SendSensors()
{
     c6a:	0f 93       	push	r16
     c6c:	1f 93       	push	r17
     c6e:	cf 93       	push	r28
     c70:	df 93       	push	r29
     c72:	09 e5       	ldi	r16, 0x59	; 89
     c74:	15 e2       	ldi	r17, 0x25	; 37
	for(int i = 0; i < 7; i++)
     c76:	c0 e0       	ldi	r28, 0x00	; 0
     c78:	d0 e0       	ldi	r29, 0x00	; 0
	{
		gTxPayload[i] = TWI_get_sensor(i);
     c7a:	ce 01       	movw	r24, r28
     c7c:	bb dc       	rcall	.-1674   	; 0x5f4 <TWI_get_sensor>
     c7e:	f8 01       	movw	r30, r16
     c80:	81 93       	st	Z+, r24
     c82:	8f 01       	movw	r16, r30
	USART_SendPacket('V', 4);
}

void USART_SendSensors()
{
	for(int i = 0; i < 7; i++)
     c84:	21 96       	adiw	r28, 0x01	; 1
     c86:	c7 30       	cpi	r28, 0x07	; 7
     c88:	d1 05       	cpc	r29, r1
     c8a:	b9 f7       	brne	.-18     	; 0xc7a <USART_SendSensors+0x10>
		gTxPayload[i] = TWI_get_sensor(i);
	}
	
	//UL sensor
	
	gTxPayload[7] = 254;
     c8c:	8e ef       	ldi	r24, 0xFE	; 254
     c8e:	80 93 60 25 	sts	0x2560, r24
	gTxPayload[8] = TWI_get_servo();
     c92:	b5 dc       	rcall	.-1686   	; 0x5fe <TWI_get_servo>
     c94:	80 93 61 25 	sts	0x2561, r24
	
	USART_SendPacket('S', 9);
     c98:	69 e0       	ldi	r22, 0x09	; 9
     c9a:	83 e5       	ldi	r24, 0x53	; 83
     c9c:	57 df       	rcall	.-338    	; 0xb4c <USART_SendPacket>
}
     c9e:	df 91       	pop	r29
     ca0:	cf 91       	pop	r28
     ca2:	1f 91       	pop	r17
     ca4:	0f 91       	pop	r16
     ca6:	08 95       	ret

00000ca8 <USART_DecodeMessageRxFIFO>:

uint8_t USART_DecodeMessageRxFIFO()
{
     ca8:	8f 92       	push	r8
     caa:	9f 92       	push	r9
     cac:	af 92       	push	r10
     cae:	bf 92       	push	r11
     cb0:	cf 92       	push	r12
     cb2:	df 92       	push	r13
     cb4:	ef 92       	push	r14
     cb6:	ff 92       	push	r15
     cb8:	0f 93       	push	r16
     cba:	1f 93       	push	r17
     cbc:	cf 93       	push	r28
     cbe:	df 93       	push	r29
     cc0:	cd b7       	in	r28, 0x3d	; 61
     cc2:	de b7       	in	r29, 0x3e	; 62
	
	// TODO: send to relevant party... the display for now
	TWI_send_string_fixed_length(S_ADRESS, msg, length);
	
	return 0;
}
     cc4:	ad b6       	in	r10, 0x3d	; 61
     cc6:	be b6       	in	r11, 0x3e	; 62
{
	
	uint8_t *len = 0;
	uint8_t *character = 0;
	
	if(FifoRead(gRxFIFO, len))
     cc8:	60 e0       	ldi	r22, 0x00	; 0
     cca:	70 e0       	ldi	r23, 0x00	; 0
     ccc:	80 91 08 11 	lds	r24, 0x1108
     cd0:	90 91 09 11 	lds	r25, 0x1109
     cd4:	61 da       	rcall	.-2878   	; 0x198 <FifoRead>
     cd6:	88 23       	and	r24, r24
     cd8:	31 f0       	breq	.+12     	; 0xce6 <USART_DecodeMessageRxFIFO+0x3e>
	{
		TWI_send_string(S_ADRESS, "RxFIFO MESSAGE ERROR: LEN MISSING");
     cda:	60 e1       	ldi	r22, 0x10	; 16
     cdc:	71 e2       	ldi	r23, 0x21	; 33
     cde:	80 e4       	ldi	r24, 0x40	; 64
     ce0:	05 dc       	rcall	.-2038   	; 0x4ec <TWI_send_string>
		return 1; // error
     ce2:	81 e0       	ldi	r24, 0x01	; 1
     ce4:	43 c0       	rjmp	.+134    	; 0xd6c <USART_DecodeMessageRxFIFO+0xc4>
	}
	
	int length = *len; // I don't know why I can't use *len directly... but it took me 4h to figure out that you can't do it....
     ce6:	c0 90 00 00 	lds	r12, 0x0000
     cea:	d1 2c       	mov	r13, r1
	
	//NOTE: there has to be a better way of doing this...
	int ifzero = 0;
	if(length == 0) ifzero = 1;
	uint8_t msg[length-1+ifzero];
     cec:	96 01       	movw	r18, r12
     cee:	21 50       	subi	r18, 0x01	; 1
     cf0:	31 09       	sbc	r19, r1
	
	int length = *len; // I don't know why I can't use *len directly... but it took me 4h to figure out that you can't do it....
	
	//NOTE: there has to be a better way of doing this...
	int ifzero = 0;
	if(length == 0) ifzero = 1;
     cf2:	81 e0       	ldi	r24, 0x01	; 1
     cf4:	90 e0       	ldi	r25, 0x00	; 0
     cf6:	c1 14       	cp	r12, r1
     cf8:	d1 04       	cpc	r13, r1
     cfa:	11 f0       	breq	.+4      	; 0xd00 <USART_DecodeMessageRxFIFO+0x58>
     cfc:	80 e0       	ldi	r24, 0x00	; 0
     cfe:	90 e0       	ldi	r25, 0x00	; 0
	uint8_t msg[length-1+ifzero];
     d00:	82 0f       	add	r24, r18
     d02:	93 1f       	adc	r25, r19
     d04:	2d b7       	in	r18, 0x3d	; 61
     d06:	3e b7       	in	r19, 0x3e	; 62
     d08:	28 1b       	sub	r18, r24
     d0a:	39 0b       	sbc	r19, r25
     d0c:	0f b6       	in	r0, 0x3f	; 63
     d0e:	f8 94       	cli
     d10:	3e bf       	out	0x3e, r19	; 62
     d12:	0f be       	out	0x3f, r0	; 63
     d14:	2d bf       	out	0x3d, r18	; 61
     d16:	8d b7       	in	r24, 0x3d	; 61
     d18:	9e b7       	in	r25, 0x3e	; 62
     d1a:	01 96       	adiw	r24, 0x01	; 1
     d1c:	88 2e       	mov	r8, r24
     d1e:	99 2e       	mov	r9, r25

	for(int i = 0; i < length; ++i)
     d20:	1c 14       	cp	r1, r12
     d22:	1d 04       	cpc	r1, r13
     d24:	ec f4       	brge	.+58     	; 0xd60 <USART_DecodeMessageRxFIFO+0xb8>
     d26:	e8 2e       	mov	r14, r24
     d28:	f9 2e       	mov	r15, r25
     d2a:	00 e0       	ldi	r16, 0x00	; 0
     d2c:	10 e0       	ldi	r17, 0x00	; 0
	{
		if(FifoRead(gRxFIFO, character))
     d2e:	60 e0       	ldi	r22, 0x00	; 0
     d30:	70 e0       	ldi	r23, 0x00	; 0
     d32:	80 91 08 11 	lds	r24, 0x1108
     d36:	90 91 09 11 	lds	r25, 0x1109
     d3a:	2e da       	rcall	.-2980   	; 0x198 <FifoRead>
     d3c:	88 23       	and	r24, r24
     d3e:	31 f0       	breq	.+12     	; 0xd4c <USART_DecodeMessageRxFIFO+0xa4>
		{
			TWI_send_string(S_ADRESS, "RxFIFO MESSAGE ERROR: DATA MISSING");
     d40:	62 e3       	ldi	r22, 0x32	; 50
     d42:	71 e2       	ldi	r23, 0x21	; 33
     d44:	80 e4       	ldi	r24, 0x40	; 64
     d46:	d2 db       	rcall	.-2140   	; 0x4ec <TWI_send_string>
			return 1; // error
     d48:	81 e0       	ldi	r24, 0x01	; 1
     d4a:	10 c0       	rjmp	.+32     	; 0xd6c <USART_DecodeMessageRxFIFO+0xc4>
		}

		msg[i] = *character;
     d4c:	80 91 00 00 	lds	r24, 0x0000
     d50:	f7 01       	movw	r30, r14
     d52:	81 93       	st	Z+, r24
     d54:	7f 01       	movw	r14, r30
	//NOTE: there has to be a better way of doing this...
	int ifzero = 0;
	if(length == 0) ifzero = 1;
	uint8_t msg[length-1+ifzero];

	for(int i = 0; i < length; ++i)
     d56:	0f 5f       	subi	r16, 0xFF	; 255
     d58:	1f 4f       	sbci	r17, 0xFF	; 255
     d5a:	0c 15       	cp	r16, r12
     d5c:	1d 05       	cpc	r17, r13
     d5e:	3c f3       	brlt	.-50     	; 0xd2e <USART_DecodeMessageRxFIFO+0x86>
		msg[i] = *character;
	}
	
	
	// TODO: send to relevant party... the display for now
	TWI_send_string_fixed_length(S_ADRESS, msg, length);
     d60:	a6 01       	movw	r20, r12
     d62:	68 2d       	mov	r22, r8
     d64:	79 2d       	mov	r23, r9
     d66:	80 e4       	ldi	r24, 0x40	; 64
     d68:	07 dc       	rcall	.-2034   	; 0x578 <TWI_send_string_fixed_length>
	
	return 0;
     d6a:	80 e0       	ldi	r24, 0x00	; 0
}
     d6c:	0f b6       	in	r0, 0x3f	; 63
     d6e:	f8 94       	cli
     d70:	be be       	out	0x3e, r11	; 62
     d72:	0f be       	out	0x3f, r0	; 63
     d74:	ad be       	out	0x3d, r10	; 61
     d76:	df 91       	pop	r29
     d78:	cf 91       	pop	r28
     d7a:	1f 91       	pop	r17
     d7c:	0f 91       	pop	r16
     d7e:	ff 90       	pop	r15
     d80:	ef 90       	pop	r14
     d82:	df 90       	pop	r13
     d84:	cf 90       	pop	r12
     d86:	bf 90       	pop	r11
     d88:	af 90       	pop	r10
     d8a:	9f 90       	pop	r9
     d8c:	8f 90       	pop	r8
     d8e:	08 95       	ret

00000d90 <USART_DecodeCommandRxFIFO>:

uint8_t USART_DecodeCommandRxFIFO()
{
     d90:	cf 93       	push	r28
     d92:	df 93       	push	r29
	uint8_t *len = 0;
	uint8_t *data = 0;
	
	if(FifoRead(gRxFIFO, len))
     d94:	60 e0       	ldi	r22, 0x00	; 0
     d96:	70 e0       	ldi	r23, 0x00	; 0
     d98:	80 91 08 11 	lds	r24, 0x1108
     d9c:	90 91 09 11 	lds	r25, 0x1109
     da0:	fb d9       	rcall	.-3082   	; 0x198 <FifoRead>
     da2:	88 23       	and	r24, r24
     da4:	31 f0       	breq	.+12     	; 0xdb2 <USART_DecodeCommandRxFIFO+0x22>
	{
		TWI_send_string(S_ADRESS, "RxFIFO COMMAND ERROR: LEN MISSING");
     da6:	65 e5       	ldi	r22, 0x55	; 85
     da8:	71 e2       	ldi	r23, 0x21	; 33
     daa:	80 e4       	ldi	r24, 0x40	; 64
     dac:	9f db       	rcall	.-2242   	; 0x4ec <TWI_send_string>
		return 1; // error
     dae:	81 e0       	ldi	r24, 0x01	; 1
     db0:	42 c0       	rjmp	.+132    	; 0xe36 <USART_DecodeCommandRxFIFO+0xa6>
	}
	
	int length = *len;
	uint8_t direction, rotation, speed;
	
	if(length == 3)
     db2:	80 91 00 00 	lds	r24, 0x0000
     db6:	83 30       	cpi	r24, 0x03	; 3
     db8:	09 f0       	breq	.+2      	; 0xdbc <USART_DecodeCommandRxFIFO+0x2c>
     dba:	38 c0       	rjmp	.+112    	; 0xe2c <USART_DecodeCommandRxFIFO+0x9c>
	{
		
			if(FifoRead(gRxFIFO, data))
     dbc:	60 e0       	ldi	r22, 0x00	; 0
     dbe:	70 e0       	ldi	r23, 0x00	; 0
     dc0:	80 91 08 11 	lds	r24, 0x1108
     dc4:	90 91 09 11 	lds	r25, 0x1109
     dc8:	e7 d9       	rcall	.-3122   	; 0x198 <FifoRead>
     dca:	88 23       	and	r24, r24
     dcc:	31 f0       	breq	.+12     	; 0xdda <USART_DecodeCommandRxFIFO+0x4a>
			{
				TWI_send_string(S_ADRESS, "RxFIFO COMMAND ERROR: DIRECTION MISSING");
     dce:	67 e7       	ldi	r22, 0x77	; 119
     dd0:	71 e2       	ldi	r23, 0x21	; 33
     dd2:	80 e4       	ldi	r24, 0x40	; 64
     dd4:	8b db       	rcall	.-2282   	; 0x4ec <TWI_send_string>
				return 1; // error
     dd6:	81 e0       	ldi	r24, 0x01	; 1
     dd8:	2e c0       	rjmp	.+92     	; 0xe36 <USART_DecodeCommandRxFIFO+0xa6>
			}
			direction = *data;
     dda:	c0 91 00 00 	lds	r28, 0x0000
			
			if(FifoRead(gRxFIFO, data))
     dde:	60 e0       	ldi	r22, 0x00	; 0
     de0:	70 e0       	ldi	r23, 0x00	; 0
     de2:	80 91 08 11 	lds	r24, 0x1108
     de6:	90 91 09 11 	lds	r25, 0x1109
     dea:	d6 d9       	rcall	.-3156   	; 0x198 <FifoRead>
     dec:	88 23       	and	r24, r24
     dee:	31 f0       	breq	.+12     	; 0xdfc <USART_DecodeCommandRxFIFO+0x6c>
			{
				TWI_send_string(S_ADRESS, "RxFIFO COMMAND ERROR: ROTATION MISSING");
     df0:	6f e9       	ldi	r22, 0x9F	; 159
     df2:	71 e2       	ldi	r23, 0x21	; 33
     df4:	80 e4       	ldi	r24, 0x40	; 64
     df6:	7a db       	rcall	.-2316   	; 0x4ec <TWI_send_string>
				return 1; // error
     df8:	81 e0       	ldi	r24, 0x01	; 1
     dfa:	1d c0       	rjmp	.+58     	; 0xe36 <USART_DecodeCommandRxFIFO+0xa6>
			}
			
			rotation = *data;
     dfc:	d0 91 00 00 	lds	r29, 0x0000
			
			if(FifoRead(gRxFIFO, data))
     e00:	60 e0       	ldi	r22, 0x00	; 0
     e02:	70 e0       	ldi	r23, 0x00	; 0
     e04:	80 91 08 11 	lds	r24, 0x1108
     e08:	90 91 09 11 	lds	r25, 0x1109
     e0c:	c5 d9       	rcall	.-3190   	; 0x198 <FifoRead>
     e0e:	88 23       	and	r24, r24
     e10:	31 f0       	breq	.+12     	; 0xe1e <USART_DecodeCommandRxFIFO+0x8e>
			{
				TWI_send_string(S_ADRESS, "RxFIFO COMMAND ERROR: SPEED MISSING");
     e12:	66 ec       	ldi	r22, 0xC6	; 198
     e14:	71 e2       	ldi	r23, 0x21	; 33
     e16:	80 e4       	ldi	r24, 0x40	; 64
     e18:	69 db       	rcall	.-2350   	; 0x4ec <TWI_send_string>
				return 1; // error
     e1a:	81 e0       	ldi	r24, 0x01	; 1
     e1c:	0c c0       	rjmp	.+24     	; 0xe36 <USART_DecodeCommandRxFIFO+0xa6>
			}
			
			speed = *data;
		
		TWI_send_command(direction, rotation, speed);
     e1e:	40 91 00 00 	lds	r20, 0x0000
     e22:	6d 2f       	mov	r22, r29
     e24:	8c 2f       	mov	r24, r28
     e26:	1a db       	rcall	.-2508   	; 0x45c <TWI_send_command>
	{
		TWI_send_string(S_ADRESS, "RxFIFO COMMAND ERROR: INCORRECT LENGTH");
		return 1;
	}

	return 0;
     e28:	80 e0       	ldi	r24, 0x00	; 0
     e2a:	05 c0       	rjmp	.+10     	; 0xe36 <USART_DecodeCommandRxFIFO+0xa6>
		
		TWI_send_command(direction, rotation, speed);

	}else
	{
		TWI_send_string(S_ADRESS, "RxFIFO COMMAND ERROR: INCORRECT LENGTH");
     e2c:	6a ee       	ldi	r22, 0xEA	; 234
     e2e:	71 e2       	ldi	r23, 0x21	; 33
     e30:	80 e4       	ldi	r24, 0x40	; 64
     e32:	5c db       	rcall	.-2376   	; 0x4ec <TWI_send_string>
		return 1;
     e34:	81 e0       	ldi	r24, 0x01	; 1
	}

	return 0;
	
}
     e36:	df 91       	pop	r29
     e38:	cf 91       	pop	r28
     e3a:	08 95       	ret

00000e3c <USART_DecodeRxFIFO>:

void USART_DecodeRxFIFO()
{
	uint8_t *tag = 0;
	
	while(!(FifoRead(gRxFIFO, tag))) // if the buffer is NOT empty
     e3c:	0d c0       	rjmp	.+26     	; 0xe58 <USART_DecodeRxFIFO+0x1c>
	{
		switch(*tag){
     e3e:	80 91 00 00 	lds	r24, 0x0000
     e42:	83 34       	cpi	r24, 0x43	; 67
     e44:	31 f0       	breq	.+12     	; 0xe52 <USART_DecodeRxFIFO+0x16>
     e46:	8d 34       	cpi	r24, 0x4D	; 77
     e48:	39 f4       	brne	.+14     	; 0xe58 <USART_DecodeRxFIFO+0x1c>
			case('M'): // if 'tag' is 'M'
			{
				if(USART_DecodeMessageRxFIFO()) // if decoding failed
     e4a:	2e df       	rcall	.-420    	; 0xca8 <USART_DecodeMessageRxFIFO>
     e4c:	88 23       	and	r24, r24
     e4e:	21 f0       	breq	.+8      	; 0xe58 <USART_DecodeRxFIFO+0x1c>
     e50:	08 95       	ret
				
				break;
			}
			case('C'): // 
			{
				if(USART_DecodeCommandRxFIFO())
     e52:	9e df       	rcall	.-196    	; 0xd90 <USART_DecodeCommandRxFIFO>
     e54:	81 11       	cpse	r24, r1
     e56:	09 c0       	rjmp	.+18     	; 0xe6a <USART_DecodeRxFIFO+0x2e>

void USART_DecodeRxFIFO()
{
	uint8_t *tag = 0;
	
	while(!(FifoRead(gRxFIFO, tag))) // if the buffer is NOT empty
     e58:	60 e0       	ldi	r22, 0x00	; 0
     e5a:	70 e0       	ldi	r23, 0x00	; 0
     e5c:	80 91 08 11 	lds	r24, 0x1108
     e60:	90 91 09 11 	lds	r25, 0x1109
     e64:	99 d9       	rcall	.-3278   	; 0x198 <FifoRead>
     e66:	88 23       	and	r24, r24
     e68:	51 f3       	breq	.-44     	; 0xe3e <USART_DecodeRxFIFO+0x2>
     e6a:	08 95       	ret

00000e6c <USART_Bounce>:



void USART_Bounce()
{
	for(int i = 0; i < gRxBuffer[1]; i++)
     e6c:	60 91 55 23 	lds	r22, 0x2355
     e70:	26 2f       	mov	r18, r22
     e72:	30 e0       	ldi	r19, 0x00	; 0
     e74:	12 16       	cp	r1, r18
     e76:	13 06       	cpc	r1, r19
     e78:	64 f4       	brge	.+24     	; 0xe92 <USART_Bounce+0x26>
     e7a:	a6 e5       	ldi	r26, 0x56	; 86
     e7c:	b3 e2       	ldi	r27, 0x23	; 35
     e7e:	e9 e5       	ldi	r30, 0x59	; 89
     e80:	f5 e2       	ldi	r31, 0x25	; 37
     e82:	80 e0       	ldi	r24, 0x00	; 0
     e84:	90 e0       	ldi	r25, 0x00	; 0
	{
		gTxPayload[i] = gRxBuffer[i+2];
     e86:	4d 91       	ld	r20, X+
     e88:	41 93       	st	Z+, r20



void USART_Bounce()
{
	for(int i = 0; i < gRxBuffer[1]; i++)
     e8a:	01 96       	adiw	r24, 0x01	; 1
     e8c:	82 17       	cp	r24, r18
     e8e:	93 07       	cpc	r25, r19
     e90:	d4 f3       	brlt	.-12     	; 0xe86 <USART_Bounce+0x1a>
	{
		gTxPayload[i] = gRxBuffer[i+2];
	}
	USART_SendPacket(gRxBuffer[0], gRxBuffer[1]);
     e92:	80 91 54 23 	lds	r24, 0x2354
     e96:	5a ce       	rjmp	.-844    	; 0xb4c <USART_SendPacket>

00000e98 <__vector_20>:
}


ISR (USART0_RX_vect)
{
     e98:	1f 92       	push	r1
     e9a:	0f 92       	push	r0
     e9c:	0f b6       	in	r0, 0x3f	; 63
     e9e:	0f 92       	push	r0
     ea0:	11 24       	eor	r1, r1
     ea2:	0b b6       	in	r0, 0x3b	; 59
     ea4:	0f 92       	push	r0
     ea6:	ef 92       	push	r14
     ea8:	ff 92       	push	r15
     eaa:	0f 93       	push	r16
     eac:	1f 93       	push	r17
     eae:	2f 93       	push	r18
     eb0:	3f 93       	push	r19
     eb2:	4f 93       	push	r20
     eb4:	5f 93       	push	r21
     eb6:	6f 93       	push	r22
     eb8:	7f 93       	push	r23
     eba:	8f 93       	push	r24
     ebc:	9f 93       	push	r25
     ebe:	af 93       	push	r26
     ec0:	bf 93       	push	r27
     ec2:	cf 93       	push	r28
     ec4:	df 93       	push	r29
     ec6:	ef 93       	push	r30
     ec8:	ff 93       	push	r31
	uint8_t data;
	data = UDR0; // read data from buffer TODO: add check for overflow
     eca:	20 91 c6 00 	lds	r18, 0x00C6
	
	
	
	if(data == 0x7e)
     ece:	2e 37       	cpi	r18, 0x7E	; 126
     ed0:	09 f0       	breq	.+2      	; 0xed4 <__vector_20+0x3c>
     ed2:	3f c0       	rjmp	.+126    	; 0xf52 <__vector_20+0xba>
	{
		if(gRxBufferIndex >= 4 || gRxBufferIndex == gRxBuffer[1] + 4) //TODO: add crc check
     ed4:	80 91 26 22 	lds	r24, 0x2226
     ed8:	90 91 27 22 	lds	r25, 0x2227
     edc:	84 30       	cpi	r24, 0x04	; 4
     ede:	91 05       	cpc	r25, r1
     ee0:	40 f4       	brcc	.+16     	; 0xef2 <__vector_20+0x5a>
     ee2:	20 91 55 23 	lds	r18, 0x2355
     ee6:	30 e0       	ldi	r19, 0x00	; 0
     ee8:	2c 5f       	subi	r18, 0xFC	; 252
     eea:	3f 4f       	sbci	r19, 0xFF	; 255
     eec:	82 17       	cp	r24, r18
     eee:	93 07       	cpc	r25, r19
     ef0:	59 f5       	brne	.+86     	; 0xf48 <__vector_20+0xb0>
		{
			if(gInvertNextFlag)
     ef2:	80 91 24 22 	lds	r24, 0x2224
     ef6:	90 91 25 22 	lds	r25, 0x2225
     efa:	89 2b       	or	r24, r25
     efc:	21 f0       	breq	.+8      	; 0xf06 <__vector_20+0x6e>
			{
				data = (1<<5)^data;
				gInvertNextFlag = 0;
     efe:	10 92 25 22 	sts	0x2225, r1
     f02:	10 92 24 22 	sts	0x2224, r1
			}
			
			USART_Bounce();
     f06:	b2 df       	rcall	.-156    	; 0xe6c <USART_Bounce>
     f08:	04 e5       	ldi	r16, 0x54	; 84
     f0a:	13 e2       	ldi	r17, 0x23	; 35
			
			// Add packet (no crc) to fifo-buffer to cue it for decoding
			for(int i = 0; i < gRxBuffer[1] + 2; ++i)
     f0c:	c0 e0       	ldi	r28, 0x00	; 0
     f0e:	d0 e0       	ldi	r29, 0x00	; 0
     f10:	0f 2e       	mov	r0, r31
     f12:	f5 e5       	ldi	r31, 0x55	; 85
     f14:	ef 2e       	mov	r14, r31
     f16:	f3 e2       	ldi	r31, 0x23	; 35
     f18:	ff 2e       	mov	r15, r31
     f1a:	f0 2d       	mov	r31, r0
			{
				if(FifoWrite(gRxFIFO, gRxBuffer[i]))
     f1c:	f8 01       	movw	r30, r16
     f1e:	61 91       	ld	r22, Z+
     f20:	8f 01       	movw	r16, r30
     f22:	80 91 08 11 	lds	r24, 0x1108
     f26:	90 91 09 11 	lds	r25, 0x1109
     f2a:	16 d9       	rcall	.-3540   	; 0x158 <FifoWrite>
     f2c:	88 23       	and	r24, r24
     f2e:	21 f0       	breq	.+8      	; 0xf38 <__vector_20+0xa0>
				{
					TWI_send_string(S_ADRESS,"U_FIFO-full");
     f30:	61 e1       	ldi	r22, 0x11	; 17
     f32:	72 e2       	ldi	r23, 0x22	; 34
     f34:	80 e4       	ldi	r24, 0x40	; 64
     f36:	da da       	rcall	.-2636   	; 0x4ec <TWI_send_string>
			}
			
			USART_Bounce();
			
			// Add packet (no crc) to fifo-buffer to cue it for decoding
			for(int i = 0; i < gRxBuffer[1] + 2; ++i)
     f38:	21 96       	adiw	r28, 0x01	; 1
     f3a:	f7 01       	movw	r30, r14
     f3c:	80 81       	ld	r24, Z
     f3e:	90 e0       	ldi	r25, 0x00	; 0
     f40:	02 96       	adiw	r24, 0x02	; 2
     f42:	c8 17       	cp	r28, r24
     f44:	d9 07       	cpc	r29, r25
     f46:	54 f3       	brlt	.-44     	; 0xf1c <__vector_20+0x84>
					TWI_send_string(S_ADRESS,"U_FIFO-full");
				}
			}
		}
		
		gRxBufferIndex = 0; // always reset buffer index when frame delimiter (0x7e) is read
     f48:	10 92 27 22 	sts	0x2227, r1
     f4c:	10 92 26 22 	sts	0x2226, r1
     f50:	16 c0       	rjmp	.+44     	; 0xf7e <__vector_20+0xe6>
		
	}else if(data == 0x7d)
     f52:	2d 37       	cpi	r18, 0x7D	; 125
     f54:	39 f4       	brne	.+14     	; 0xf64 <__vector_20+0xcc>
	{
		gInvertNextFlag = 1;
     f56:	81 e0       	ldi	r24, 0x01	; 1
     f58:	90 e0       	ldi	r25, 0x00	; 0
     f5a:	90 93 25 22 	sts	0x2225, r25
     f5e:	80 93 24 22 	sts	0x2224, r24
     f62:	0d c0       	rjmp	.+26     	; 0xf7e <__vector_20+0xe6>
	}else
	{
		gRxBuffer[gRxBufferIndex] = data;
     f64:	80 91 26 22 	lds	r24, 0x2226
     f68:	90 91 27 22 	lds	r25, 0x2227
     f6c:	fc 01       	movw	r30, r24
     f6e:	ec 5a       	subi	r30, 0xAC	; 172
     f70:	fc 4d       	sbci	r31, 0xDC	; 220
     f72:	20 83       	st	Z, r18
		++gRxBufferIndex;
     f74:	01 96       	adiw	r24, 0x01	; 1
     f76:	90 93 27 22 	sts	0x2227, r25
     f7a:	80 93 26 22 	sts	0x2226, r24
	}
	
	
}
     f7e:	ff 91       	pop	r31
     f80:	ef 91       	pop	r30
     f82:	df 91       	pop	r29
     f84:	cf 91       	pop	r28
     f86:	bf 91       	pop	r27
     f88:	af 91       	pop	r26
     f8a:	9f 91       	pop	r25
     f8c:	8f 91       	pop	r24
     f8e:	7f 91       	pop	r23
     f90:	6f 91       	pop	r22
     f92:	5f 91       	pop	r21
     f94:	4f 91       	pop	r20
     f96:	3f 91       	pop	r19
     f98:	2f 91       	pop	r18
     f9a:	1f 91       	pop	r17
     f9c:	0f 91       	pop	r16
     f9e:	ff 90       	pop	r15
     fa0:	ef 90       	pop	r14
     fa2:	0f 90       	pop	r0
     fa4:	0b be       	out	0x3b, r0	; 59
     fa6:	0f 90       	pop	r0
     fa8:	0f be       	out	0x3f, r0	; 63
     faa:	0f 90       	pop	r0
     fac:	1f 90       	pop	r1
     fae:	18 95       	reti

00000fb0 <__fixunssfsi>:
     fb0:	70 d0       	rcall	.+224    	; 0x1092 <__fp_splitA>
     fb2:	88 f0       	brcs	.+34     	; 0xfd6 <__fixunssfsi+0x26>
     fb4:	9f 57       	subi	r25, 0x7F	; 127
     fb6:	90 f0       	brcs	.+36     	; 0xfdc <__fixunssfsi+0x2c>
     fb8:	b9 2f       	mov	r27, r25
     fba:	99 27       	eor	r25, r25
     fbc:	b7 51       	subi	r27, 0x17	; 23
     fbe:	a0 f0       	brcs	.+40     	; 0xfe8 <__fixunssfsi+0x38>
     fc0:	d1 f0       	breq	.+52     	; 0xff6 <__fixunssfsi+0x46>
     fc2:	66 0f       	add	r22, r22
     fc4:	77 1f       	adc	r23, r23
     fc6:	88 1f       	adc	r24, r24
     fc8:	99 1f       	adc	r25, r25
     fca:	1a f0       	brmi	.+6      	; 0xfd2 <__fixunssfsi+0x22>
     fcc:	ba 95       	dec	r27
     fce:	c9 f7       	brne	.-14     	; 0xfc2 <__fixunssfsi+0x12>
     fd0:	12 c0       	rjmp	.+36     	; 0xff6 <__fixunssfsi+0x46>
     fd2:	b1 30       	cpi	r27, 0x01	; 1
     fd4:	81 f0       	breq	.+32     	; 0xff6 <__fixunssfsi+0x46>
     fd6:	77 d0       	rcall	.+238    	; 0x10c6 <__fp_zero>
     fd8:	b1 e0       	ldi	r27, 0x01	; 1
     fda:	08 95       	ret
     fdc:	74 c0       	rjmp	.+232    	; 0x10c6 <__fp_zero>
     fde:	67 2f       	mov	r22, r23
     fe0:	78 2f       	mov	r23, r24
     fe2:	88 27       	eor	r24, r24
     fe4:	b8 5f       	subi	r27, 0xF8	; 248
     fe6:	39 f0       	breq	.+14     	; 0xff6 <__fixunssfsi+0x46>
     fe8:	b9 3f       	cpi	r27, 0xF9	; 249
     fea:	cc f3       	brlt	.-14     	; 0xfde <__fixunssfsi+0x2e>
     fec:	86 95       	lsr	r24
     fee:	77 95       	ror	r23
     ff0:	67 95       	ror	r22
     ff2:	b3 95       	inc	r27
     ff4:	d9 f7       	brne	.-10     	; 0xfec <__fixunssfsi+0x3c>
     ff6:	3e f4       	brtc	.+14     	; 0x1006 <__fixunssfsi+0x56>
     ff8:	90 95       	com	r25
     ffa:	80 95       	com	r24
     ffc:	70 95       	com	r23
     ffe:	61 95       	neg	r22
    1000:	7f 4f       	sbci	r23, 0xFF	; 255
    1002:	8f 4f       	sbci	r24, 0xFF	; 255
    1004:	9f 4f       	sbci	r25, 0xFF	; 255
    1006:	08 95       	ret

00001008 <__floatunsisf>:
    1008:	e8 94       	clt
    100a:	09 c0       	rjmp	.+18     	; 0x101e <__floatsisf+0x12>

0000100c <__floatsisf>:
    100c:	97 fb       	bst	r25, 7
    100e:	3e f4       	brtc	.+14     	; 0x101e <__floatsisf+0x12>
    1010:	90 95       	com	r25
    1012:	80 95       	com	r24
    1014:	70 95       	com	r23
    1016:	61 95       	neg	r22
    1018:	7f 4f       	sbci	r23, 0xFF	; 255
    101a:	8f 4f       	sbci	r24, 0xFF	; 255
    101c:	9f 4f       	sbci	r25, 0xFF	; 255
    101e:	99 23       	and	r25, r25
    1020:	a9 f0       	breq	.+42     	; 0x104c <__floatsisf+0x40>
    1022:	f9 2f       	mov	r31, r25
    1024:	96 e9       	ldi	r25, 0x96	; 150
    1026:	bb 27       	eor	r27, r27
    1028:	93 95       	inc	r25
    102a:	f6 95       	lsr	r31
    102c:	87 95       	ror	r24
    102e:	77 95       	ror	r23
    1030:	67 95       	ror	r22
    1032:	b7 95       	ror	r27
    1034:	f1 11       	cpse	r31, r1
    1036:	f8 cf       	rjmp	.-16     	; 0x1028 <__floatsisf+0x1c>
    1038:	fa f4       	brpl	.+62     	; 0x1078 <__floatsisf+0x6c>
    103a:	bb 0f       	add	r27, r27
    103c:	11 f4       	brne	.+4      	; 0x1042 <__floatsisf+0x36>
    103e:	60 ff       	sbrs	r22, 0
    1040:	1b c0       	rjmp	.+54     	; 0x1078 <__floatsisf+0x6c>
    1042:	6f 5f       	subi	r22, 0xFF	; 255
    1044:	7f 4f       	sbci	r23, 0xFF	; 255
    1046:	8f 4f       	sbci	r24, 0xFF	; 255
    1048:	9f 4f       	sbci	r25, 0xFF	; 255
    104a:	16 c0       	rjmp	.+44     	; 0x1078 <__floatsisf+0x6c>
    104c:	88 23       	and	r24, r24
    104e:	11 f0       	breq	.+4      	; 0x1054 <__floatsisf+0x48>
    1050:	96 e9       	ldi	r25, 0x96	; 150
    1052:	11 c0       	rjmp	.+34     	; 0x1076 <__floatsisf+0x6a>
    1054:	77 23       	and	r23, r23
    1056:	21 f0       	breq	.+8      	; 0x1060 <__floatsisf+0x54>
    1058:	9e e8       	ldi	r25, 0x8E	; 142
    105a:	87 2f       	mov	r24, r23
    105c:	76 2f       	mov	r23, r22
    105e:	05 c0       	rjmp	.+10     	; 0x106a <__floatsisf+0x5e>
    1060:	66 23       	and	r22, r22
    1062:	71 f0       	breq	.+28     	; 0x1080 <__floatsisf+0x74>
    1064:	96 e8       	ldi	r25, 0x86	; 134
    1066:	86 2f       	mov	r24, r22
    1068:	70 e0       	ldi	r23, 0x00	; 0
    106a:	60 e0       	ldi	r22, 0x00	; 0
    106c:	2a f0       	brmi	.+10     	; 0x1078 <__floatsisf+0x6c>
    106e:	9a 95       	dec	r25
    1070:	66 0f       	add	r22, r22
    1072:	77 1f       	adc	r23, r23
    1074:	88 1f       	adc	r24, r24
    1076:	da f7       	brpl	.-10     	; 0x106e <__floatsisf+0x62>
    1078:	88 0f       	add	r24, r24
    107a:	96 95       	lsr	r25
    107c:	87 95       	ror	r24
    107e:	97 f9       	bld	r25, 7
    1080:	08 95       	ret

00001082 <__fp_split3>:
    1082:	57 fd       	sbrc	r21, 7
    1084:	90 58       	subi	r25, 0x80	; 128
    1086:	44 0f       	add	r20, r20
    1088:	55 1f       	adc	r21, r21
    108a:	59 f0       	breq	.+22     	; 0x10a2 <__fp_splitA+0x10>
    108c:	5f 3f       	cpi	r21, 0xFF	; 255
    108e:	71 f0       	breq	.+28     	; 0x10ac <__fp_splitA+0x1a>
    1090:	47 95       	ror	r20

00001092 <__fp_splitA>:
    1092:	88 0f       	add	r24, r24
    1094:	97 fb       	bst	r25, 7
    1096:	99 1f       	adc	r25, r25
    1098:	61 f0       	breq	.+24     	; 0x10b2 <__fp_splitA+0x20>
    109a:	9f 3f       	cpi	r25, 0xFF	; 255
    109c:	79 f0       	breq	.+30     	; 0x10bc <__fp_splitA+0x2a>
    109e:	87 95       	ror	r24
    10a0:	08 95       	ret
    10a2:	12 16       	cp	r1, r18
    10a4:	13 06       	cpc	r1, r19
    10a6:	14 06       	cpc	r1, r20
    10a8:	55 1f       	adc	r21, r21
    10aa:	f2 cf       	rjmp	.-28     	; 0x1090 <__fp_split3+0xe>
    10ac:	46 95       	lsr	r20
    10ae:	f1 df       	rcall	.-30     	; 0x1092 <__fp_splitA>
    10b0:	08 c0       	rjmp	.+16     	; 0x10c2 <__fp_splitA+0x30>
    10b2:	16 16       	cp	r1, r22
    10b4:	17 06       	cpc	r1, r23
    10b6:	18 06       	cpc	r1, r24
    10b8:	99 1f       	adc	r25, r25
    10ba:	f1 cf       	rjmp	.-30     	; 0x109e <__fp_splitA+0xc>
    10bc:	86 95       	lsr	r24
    10be:	71 05       	cpc	r23, r1
    10c0:	61 05       	cpc	r22, r1
    10c2:	08 94       	sec
    10c4:	08 95       	ret

000010c6 <__fp_zero>:
    10c6:	e8 94       	clt

000010c8 <__fp_szero>:
    10c8:	bb 27       	eor	r27, r27
    10ca:	66 27       	eor	r22, r22
    10cc:	77 27       	eor	r23, r23
    10ce:	cb 01       	movw	r24, r22
    10d0:	97 f9       	bld	r25, 7
    10d2:	08 95       	ret

000010d4 <__mulsf3>:
    10d4:	0b d0       	rcall	.+22     	; 0x10ec <__mulsf3x>
    10d6:	78 c0       	rjmp	.+240    	; 0x11c8 <__fp_round>
    10d8:	69 d0       	rcall	.+210    	; 0x11ac <__fp_pscA>
    10da:	28 f0       	brcs	.+10     	; 0x10e6 <__mulsf3+0x12>
    10dc:	6e d0       	rcall	.+220    	; 0x11ba <__fp_pscB>
    10de:	18 f0       	brcs	.+6      	; 0x10e6 <__mulsf3+0x12>
    10e0:	95 23       	and	r25, r21
    10e2:	09 f0       	breq	.+2      	; 0x10e6 <__mulsf3+0x12>
    10e4:	5a c0       	rjmp	.+180    	; 0x119a <__fp_inf>
    10e6:	5f c0       	rjmp	.+190    	; 0x11a6 <__fp_nan>
    10e8:	11 24       	eor	r1, r1
    10ea:	ee cf       	rjmp	.-36     	; 0x10c8 <__fp_szero>

000010ec <__mulsf3x>:
    10ec:	ca df       	rcall	.-108    	; 0x1082 <__fp_split3>
    10ee:	a0 f3       	brcs	.-24     	; 0x10d8 <__mulsf3+0x4>

000010f0 <__mulsf3_pse>:
    10f0:	95 9f       	mul	r25, r21
    10f2:	d1 f3       	breq	.-12     	; 0x10e8 <__mulsf3+0x14>
    10f4:	95 0f       	add	r25, r21
    10f6:	50 e0       	ldi	r21, 0x00	; 0
    10f8:	55 1f       	adc	r21, r21
    10fa:	62 9f       	mul	r22, r18
    10fc:	f0 01       	movw	r30, r0
    10fe:	72 9f       	mul	r23, r18
    1100:	bb 27       	eor	r27, r27
    1102:	f0 0d       	add	r31, r0
    1104:	b1 1d       	adc	r27, r1
    1106:	63 9f       	mul	r22, r19
    1108:	aa 27       	eor	r26, r26
    110a:	f0 0d       	add	r31, r0
    110c:	b1 1d       	adc	r27, r1
    110e:	aa 1f       	adc	r26, r26
    1110:	64 9f       	mul	r22, r20
    1112:	66 27       	eor	r22, r22
    1114:	b0 0d       	add	r27, r0
    1116:	a1 1d       	adc	r26, r1
    1118:	66 1f       	adc	r22, r22
    111a:	82 9f       	mul	r24, r18
    111c:	22 27       	eor	r18, r18
    111e:	b0 0d       	add	r27, r0
    1120:	a1 1d       	adc	r26, r1
    1122:	62 1f       	adc	r22, r18
    1124:	73 9f       	mul	r23, r19
    1126:	b0 0d       	add	r27, r0
    1128:	a1 1d       	adc	r26, r1
    112a:	62 1f       	adc	r22, r18
    112c:	83 9f       	mul	r24, r19
    112e:	a0 0d       	add	r26, r0
    1130:	61 1d       	adc	r22, r1
    1132:	22 1f       	adc	r18, r18
    1134:	74 9f       	mul	r23, r20
    1136:	33 27       	eor	r19, r19
    1138:	a0 0d       	add	r26, r0
    113a:	61 1d       	adc	r22, r1
    113c:	23 1f       	adc	r18, r19
    113e:	84 9f       	mul	r24, r20
    1140:	60 0d       	add	r22, r0
    1142:	21 1d       	adc	r18, r1
    1144:	82 2f       	mov	r24, r18
    1146:	76 2f       	mov	r23, r22
    1148:	6a 2f       	mov	r22, r26
    114a:	11 24       	eor	r1, r1
    114c:	9f 57       	subi	r25, 0x7F	; 127
    114e:	50 40       	sbci	r21, 0x00	; 0
    1150:	8a f0       	brmi	.+34     	; 0x1174 <__mulsf3_pse+0x84>
    1152:	e1 f0       	breq	.+56     	; 0x118c <__mulsf3_pse+0x9c>
    1154:	88 23       	and	r24, r24
    1156:	4a f0       	brmi	.+18     	; 0x116a <__mulsf3_pse+0x7a>
    1158:	ee 0f       	add	r30, r30
    115a:	ff 1f       	adc	r31, r31
    115c:	bb 1f       	adc	r27, r27
    115e:	66 1f       	adc	r22, r22
    1160:	77 1f       	adc	r23, r23
    1162:	88 1f       	adc	r24, r24
    1164:	91 50       	subi	r25, 0x01	; 1
    1166:	50 40       	sbci	r21, 0x00	; 0
    1168:	a9 f7       	brne	.-22     	; 0x1154 <__mulsf3_pse+0x64>
    116a:	9e 3f       	cpi	r25, 0xFE	; 254
    116c:	51 05       	cpc	r21, r1
    116e:	70 f0       	brcs	.+28     	; 0x118c <__mulsf3_pse+0x9c>
    1170:	14 c0       	rjmp	.+40     	; 0x119a <__fp_inf>
    1172:	aa cf       	rjmp	.-172    	; 0x10c8 <__fp_szero>
    1174:	5f 3f       	cpi	r21, 0xFF	; 255
    1176:	ec f3       	brlt	.-6      	; 0x1172 <__mulsf3_pse+0x82>
    1178:	98 3e       	cpi	r25, 0xE8	; 232
    117a:	dc f3       	brlt	.-10     	; 0x1172 <__mulsf3_pse+0x82>
    117c:	86 95       	lsr	r24
    117e:	77 95       	ror	r23
    1180:	67 95       	ror	r22
    1182:	b7 95       	ror	r27
    1184:	f7 95       	ror	r31
    1186:	e7 95       	ror	r30
    1188:	9f 5f       	subi	r25, 0xFF	; 255
    118a:	c1 f7       	brne	.-16     	; 0x117c <__mulsf3_pse+0x8c>
    118c:	fe 2b       	or	r31, r30
    118e:	88 0f       	add	r24, r24
    1190:	91 1d       	adc	r25, r1
    1192:	96 95       	lsr	r25
    1194:	87 95       	ror	r24
    1196:	97 f9       	bld	r25, 7
    1198:	08 95       	ret

0000119a <__fp_inf>:
    119a:	97 f9       	bld	r25, 7
    119c:	9f 67       	ori	r25, 0x7F	; 127
    119e:	80 e8       	ldi	r24, 0x80	; 128
    11a0:	70 e0       	ldi	r23, 0x00	; 0
    11a2:	60 e0       	ldi	r22, 0x00	; 0
    11a4:	08 95       	ret

000011a6 <__fp_nan>:
    11a6:	9f ef       	ldi	r25, 0xFF	; 255
    11a8:	80 ec       	ldi	r24, 0xC0	; 192
    11aa:	08 95       	ret

000011ac <__fp_pscA>:
    11ac:	00 24       	eor	r0, r0
    11ae:	0a 94       	dec	r0
    11b0:	16 16       	cp	r1, r22
    11b2:	17 06       	cpc	r1, r23
    11b4:	18 06       	cpc	r1, r24
    11b6:	09 06       	cpc	r0, r25
    11b8:	08 95       	ret

000011ba <__fp_pscB>:
    11ba:	00 24       	eor	r0, r0
    11bc:	0a 94       	dec	r0
    11be:	12 16       	cp	r1, r18
    11c0:	13 06       	cpc	r1, r19
    11c2:	14 06       	cpc	r1, r20
    11c4:	05 06       	cpc	r0, r21
    11c6:	08 95       	ret

000011c8 <__fp_round>:
    11c8:	09 2e       	mov	r0, r25
    11ca:	03 94       	inc	r0
    11cc:	00 0c       	add	r0, r0
    11ce:	11 f4       	brne	.+4      	; 0x11d4 <__fp_round+0xc>
    11d0:	88 23       	and	r24, r24
    11d2:	52 f0       	brmi	.+20     	; 0x11e8 <__fp_round+0x20>
    11d4:	bb 0f       	add	r27, r27
    11d6:	40 f4       	brcc	.+16     	; 0x11e8 <__fp_round+0x20>
    11d8:	bf 2b       	or	r27, r31
    11da:	11 f4       	brne	.+4      	; 0x11e0 <__fp_round+0x18>
    11dc:	60 ff       	sbrs	r22, 0
    11de:	04 c0       	rjmp	.+8      	; 0x11e8 <__fp_round+0x20>
    11e0:	6f 5f       	subi	r22, 0xFF	; 255
    11e2:	7f 4f       	sbci	r23, 0xFF	; 255
    11e4:	8f 4f       	sbci	r24, 0xFF	; 255
    11e6:	9f 4f       	sbci	r25, 0xFF	; 255
    11e8:	08 95       	ret

000011ea <_exit>:
    11ea:	f8 94       	cli

000011ec <__stop_program>:
    11ec:	ff cf       	rjmp	.-2      	; 0x11ec <__stop_program>
