
kommunikationsmodulen.elf:     file format elf32-avr

Sections:
Idx Name          Size      VMA       LMA       File off  Algn
  0 .data         00002218  00800100  0000157a  0000160e  2**0
                  CONTENTS, ALLOC, LOAD, DATA
  1 .text         0000157a  00000000  00000000  00000094  2**1
                  CONTENTS, ALLOC, LOAD, READONLY, CODE
  2 .bss          00000651  00802318  00802318  00003826  2**0
                  ALLOC
  3 .stab         00001674  00000000  00000000  00003828  2**2
                  CONTENTS, READONLY, DEBUGGING
  4 .stabstr      00000598  00000000  00000000  00004e9c  2**0
                  CONTENTS, READONLY, DEBUGGING
  5 .comment      0000002f  00000000  00000000  00005434  2**0
                  CONTENTS, READONLY
  6 .debug_aranges 000002c0  00000000  00000000  00005463  2**0
                  CONTENTS, READONLY, DEBUGGING
  7 .debug_info   0000266b  00000000  00000000  00005723  2**0
                  CONTENTS, READONLY, DEBUGGING
  8 .debug_abbrev 0000095b  00000000  00000000  00007d8e  2**0
                  CONTENTS, READONLY, DEBUGGING
  9 .debug_line   00001b0a  00000000  00000000  000086e9  2**0
                  CONTENTS, READONLY, DEBUGGING
 10 .debug_frame  00000838  00000000  00000000  0000a1f4  2**2
                  CONTENTS, READONLY, DEBUGGING
 11 .debug_str    000008c3  00000000  00000000  0000aa2c  2**0
                  CONTENTS, READONLY, DEBUGGING
 12 .debug_loc    00001ab4  00000000  00000000  0000b2ef  2**0
                  CONTENTS, READONLY, DEBUGGING
 13 .debug_ranges 000002e8  00000000  00000000  0000cda3  2**0
                  CONTENTS, READONLY, DEBUGGING

Disassembly of section .text:

00000000 <__vectors>:
       0:	45 c0       	rjmp	.+138    	; 0x8c <__ctors_end>
       2:	00 00       	nop
       4:	61 c0       	rjmp	.+194    	; 0xc8 <__bad_interrupt>
       6:	00 00       	nop
       8:	5f c0       	rjmp	.+190    	; 0xc8 <__bad_interrupt>
       a:	00 00       	nop
       c:	5d c0       	rjmp	.+186    	; 0xc8 <__bad_interrupt>
       e:	00 00       	nop
      10:	5b c0       	rjmp	.+182    	; 0xc8 <__bad_interrupt>
      12:	00 00       	nop
      14:	59 c0       	rjmp	.+178    	; 0xc8 <__bad_interrupt>
      16:	00 00       	nop
      18:	57 c0       	rjmp	.+174    	; 0xc8 <__bad_interrupt>
      1a:	00 00       	nop
      1c:	55 c0       	rjmp	.+170    	; 0xc8 <__bad_interrupt>
      1e:	00 00       	nop
      20:	53 c0       	rjmp	.+166    	; 0xc8 <__bad_interrupt>
      22:	00 00       	nop
      24:	51 c0       	rjmp	.+162    	; 0xc8 <__bad_interrupt>
      26:	00 00       	nop
      28:	4f c0       	rjmp	.+158    	; 0xc8 <__bad_interrupt>
      2a:	00 00       	nop
      2c:	4d c0       	rjmp	.+154    	; 0xc8 <__bad_interrupt>
      2e:	00 00       	nop
      30:	4b c0       	rjmp	.+150    	; 0xc8 <__bad_interrupt>
      32:	00 00       	nop
      34:	ff c0       	rjmp	.+510    	; 0x234 <__vector_13>
      36:	00 00       	nop
      38:	47 c0       	rjmp	.+142    	; 0xc8 <__bad_interrupt>
      3a:	00 00       	nop
      3c:	45 c0       	rjmp	.+138    	; 0xc8 <__bad_interrupt>
      3e:	00 00       	nop
      40:	43 c0       	rjmp	.+134    	; 0xc8 <__bad_interrupt>
      42:	00 00       	nop
      44:	41 c0       	rjmp	.+130    	; 0xc8 <__bad_interrupt>
      46:	00 00       	nop
      48:	3f c0       	rjmp	.+126    	; 0xc8 <__bad_interrupt>
      4a:	00 00       	nop
      4c:	3d c0       	rjmp	.+122    	; 0xc8 <__bad_interrupt>
      4e:	00 00       	nop
      50:	0c 94 13 09 	jmp	0x1226	; 0x1226 <__vector_20>
      54:	39 c0       	rjmp	.+114    	; 0xc8 <__bad_interrupt>
      56:	00 00       	nop
      58:	37 c0       	rjmp	.+110    	; 0xc8 <__bad_interrupt>
      5a:	00 00       	nop
      5c:	35 c0       	rjmp	.+106    	; 0xc8 <__bad_interrupt>
      5e:	00 00       	nop
      60:	33 c0       	rjmp	.+102    	; 0xc8 <__bad_interrupt>
      62:	00 00       	nop
      64:	31 c0       	rjmp	.+98     	; 0xc8 <__bad_interrupt>
      66:	00 00       	nop
      68:	10 c4       	rjmp	.+2080   	; 0x88a <__vector_26>
      6a:	00 00       	nop
      6c:	2d c0       	rjmp	.+90     	; 0xc8 <__bad_interrupt>
      6e:	00 00       	nop
      70:	2b c0       	rjmp	.+86     	; 0xc8 <__bad_interrupt>
      72:	00 00       	nop
      74:	29 c0       	rjmp	.+82     	; 0xc8 <__bad_interrupt>
      76:	00 00       	nop
      78:	27 c0       	rjmp	.+78     	; 0xc8 <__bad_interrupt>
      7a:	00 00       	nop
      7c:	25 c0       	rjmp	.+74     	; 0xc8 <__bad_interrupt>
      7e:	00 00       	nop
      80:	e7 c0       	rjmp	.+462    	; 0x250 <__vector_32>
      82:	00 00       	nop
      84:	21 c0       	rjmp	.+66     	; 0xc8 <__bad_interrupt>
      86:	00 00       	nop
      88:	1f c0       	rjmp	.+62     	; 0xc8 <__bad_interrupt>
	...

0000008c <__ctors_end>:
      8c:	11 24       	eor	r1, r1
      8e:	1f be       	out	0x3f, r1	; 63
      90:	cf ef       	ldi	r28, 0xFF	; 255
      92:	d0 e4       	ldi	r29, 0x40	; 64
      94:	de bf       	out	0x3e, r29	; 62
      96:	cd bf       	out	0x3d, r28	; 61

00000098 <__do_copy_data>:
      98:	13 e2       	ldi	r17, 0x23	; 35
      9a:	a0 e0       	ldi	r26, 0x00	; 0
      9c:	b1 e0       	ldi	r27, 0x01	; 1
      9e:	ea e7       	ldi	r30, 0x7A	; 122
      a0:	f5 e1       	ldi	r31, 0x15	; 21
      a2:	00 e0       	ldi	r16, 0x00	; 0
      a4:	0b bf       	out	0x3b, r16	; 59
      a6:	02 c0       	rjmp	.+4      	; 0xac <__do_copy_data+0x14>
      a8:	07 90       	elpm	r0, Z+
      aa:	0d 92       	st	X+, r0
      ac:	a8 31       	cpi	r26, 0x18	; 24
      ae:	b1 07       	cpc	r27, r17
      b0:	d9 f7       	brne	.-10     	; 0xa8 <__do_copy_data+0x10>

000000b2 <__do_clear_bss>:
      b2:	29 e2       	ldi	r18, 0x29	; 41
      b4:	a8 e1       	ldi	r26, 0x18	; 24
      b6:	b3 e2       	ldi	r27, 0x23	; 35
      b8:	01 c0       	rjmp	.+2      	; 0xbc <.do_clear_bss_start>

000000ba <.do_clear_bss_loop>:
      ba:	1d 92       	st	X+, r1

000000bc <.do_clear_bss_start>:
      bc:	a9 36       	cpi	r26, 0x69	; 105
      be:	b2 07       	cpc	r27, r18
      c0:	e1 f7       	brne	.-8      	; 0xba <.do_clear_bss_loop>
      c2:	a2 d0       	rcall	.+324    	; 0x208 <main>
      c4:	0c 94 bb 0a 	jmp	0x1576	; 0x1576 <_exit>

000000c8 <__bad_interrupt>:
      c8:	9b cf       	rjmp	.-202    	; 0x0 <__vectors>

000000ca <set_counter_1>:
	TCNT3 = 0;
}

void set_counter_1(uint16_t delay)
{
	delay = 18.000 * delay;
      ca:	bc 01       	movw	r22, r24
      cc:	80 e0       	ldi	r24, 0x00	; 0
      ce:	90 e0       	ldi	r25, 0x00	; 0
      d0:	0e 94 ca 09 	call	0x1394	; 0x1394 <__floatunsisf>
      d4:	20 e0       	ldi	r18, 0x00	; 0
      d6:	30 e0       	ldi	r19, 0x00	; 0
      d8:	40 e9       	ldi	r20, 0x90	; 144
      da:	51 e4       	ldi	r21, 0x41	; 65
      dc:	0e 94 30 0a 	call	0x1460	; 0x1460 <__mulsf3>
      e0:	0e 94 9e 09 	call	0x133c	; 0x133c <__fixunssfsi>
	OCR1A = delay;
      e4:	70 93 89 00 	sts	0x0089, r23
      e8:	60 93 88 00 	sts	0x0088, r22
      ec:	08 95       	ret

000000ee <set_counter_2>:
}

void set_counter_2(uint16_t delay)
{
	delay = 18.000 * delay;
      ee:	bc 01       	movw	r22, r24
      f0:	80 e0       	ldi	r24, 0x00	; 0
      f2:	90 e0       	ldi	r25, 0x00	; 0
      f4:	0e 94 ca 09 	call	0x1394	; 0x1394 <__floatunsisf>
      f8:	20 e0       	ldi	r18, 0x00	; 0
      fa:	30 e0       	ldi	r19, 0x00	; 0
      fc:	40 e9       	ldi	r20, 0x90	; 144
      fe:	51 e4       	ldi	r21, 0x41	; 65
     100:	0e 94 30 0a 	call	0x1460	; 0x1460 <__mulsf3>
     104:	0e 94 9e 09 	call	0x133c	; 0x133c <__fixunssfsi>
	OCR3A = delay;
     108:	70 93 99 00 	sts	0x0099, r23
     10c:	60 93 98 00 	sts	0x0098, r22
     110:	08 95       	ret

00000112 <init_counters>:

//---------------------------------------COUNTERS/TIMERS-----------
void init_counters()
{
	// WGMn3:0 = 4 (OCRnA) or 12 (OCRn), where top value is read from.
	TCCR1B |= 0b00000101; // clock 1, prescaler 1024
     112:	e1 e8       	ldi	r30, 0x81	; 129
     114:	f0 e0       	ldi	r31, 0x00	; 0
     116:	80 81       	ld	r24, Z
     118:	85 60       	ori	r24, 0x05	; 5
     11a:	80 83       	st	Z, r24
	TCCR3B |= 0b00000101; // clock 2, prescaler 1024
     11c:	e1 e9       	ldi	r30, 0x91	; 145
     11e:	f0 e0       	ldi	r31, 0x00	; 0
     120:	80 81       	ld	r24, Z
     122:	85 60       	ori	r24, 0x05	; 5
     124:	80 83       	st	Z, r24
	
	// standardvalue for interrupt is 1000ms
	set_counter_1(1000);
     126:	88 ee       	ldi	r24, 0xE8	; 232
     128:	93 e0       	ldi	r25, 0x03	; 3
     12a:	cf df       	rcall	.-98     	; 0xca <set_counter_1>
	set_counter_2(1000);
     12c:	88 ee       	ldi	r24, 0xE8	; 232
     12e:	93 e0       	ldi	r25, 0x03	; 3
     130:	de df       	rcall	.-68     	; 0xee <set_counter_2>
	
	TIMSK1 |= 0b00000010; // Enable interrupts when OCF1A, in TIFR1, is set.
     132:	ef e6       	ldi	r30, 0x6F	; 111
     134:	f0 e0       	ldi	r31, 0x00	; 0
     136:	80 81       	ld	r24, Z
     138:	82 60       	ori	r24, 0x02	; 2
     13a:	80 83       	st	Z, r24
	TIMSK3 |= 0b00000010; // Enable interrupts when OCF2A, in TIFR2, is set.
     13c:	e1 e7       	ldi	r30, 0x71	; 113
     13e:	f0 e0       	ldi	r31, 0x00	; 0
     140:	80 81       	ld	r24, Z
     142:	82 60       	ori	r24, 0x02	; 2
     144:	80 83       	st	Z, r24
	// OCF1A (or ICFn) Flag, in TIFR1, can be used to generate interrupts.
	TCNT1 = 0;
     146:	10 92 85 00 	sts	0x0085, r1
     14a:	10 92 84 00 	sts	0x0084, r1
	TCNT3 = 0;
     14e:	10 92 95 00 	sts	0x0095, r1
     152:	10 92 94 00 	sts	0x0094, r1
     156:	08 95       	ret

00000158 <FifoDataLength>:

#include <avr/io.h>
#include "fifo.h"

uint8_t FifoDataLength (struct fifo *fifo)
{
     158:	fc 01       	movw	r30, r24
	return (fifo->write - fifo->read) & (fifo->size -1);
     15a:	90 81       	ld	r25, Z
     15c:	91 50       	subi	r25, 0x01	; 1
     15e:	84 81       	ldd	r24, Z+4	; 0x04
     160:	22 81       	ldd	r18, Z+2	; 0x02
     162:	82 1b       	sub	r24, r18
};
     164:	89 23       	and	r24, r25
     166:	08 95       	ret

00000168 <FifoWrite>:

uint8_t FifoWrite (struct fifo *fifo, unsigned char data)
{
     168:	1f 93       	push	r17
     16a:	cf 93       	push	r28
     16c:	df 93       	push	r29
     16e:	ec 01       	movw	r28, r24
     170:	16 2f       	mov	r17, r22
	// fifo full : error
	if (FifoDataLength(fifo) == (fifo->size - 1))
     172:	f2 df       	rcall	.-28     	; 0x158 <FifoDataLength>
     174:	28 81       	ld	r18, Y
     176:	39 81       	ldd	r19, Y+1	; 0x01
     178:	21 50       	subi	r18, 0x01	; 1
     17a:	31 09       	sbc	r19, r1
     17c:	90 e0       	ldi	r25, 0x00	; 0
     17e:	82 17       	cp	r24, r18
     180:	93 07       	cpc	r25, r19
     182:	69 f0       	breq	.+26     	; 0x19e <FifoWrite+0x36>
	{
		return 1;
	}
	// write data & increment write pointer
	fifo->buffer[fifo->write] = data;
     184:	8c 81       	ldd	r24, Y+4	; 0x04
     186:	9d 81       	ldd	r25, Y+5	; 0x05
     188:	fe 01       	movw	r30, r28
     18a:	e8 0f       	add	r30, r24
     18c:	f9 1f       	adc	r31, r25
     18e:	16 83       	std	Z+6, r17	; 0x06
	fifo->write = (fifo->write + 1) & (fifo->size - 1);
     190:	01 96       	adiw	r24, 0x01	; 1
     192:	28 23       	and	r18, r24
     194:	39 23       	and	r19, r25
     196:	3d 83       	std	Y+5, r19	; 0x05
     198:	2c 83       	std	Y+4, r18	; 0x04
	return 0;
     19a:	80 e0       	ldi	r24, 0x00	; 0
     19c:	01 c0       	rjmp	.+2      	; 0x1a0 <FifoWrite+0x38>
uint8_t FifoWrite (struct fifo *fifo, unsigned char data)
{
	// fifo full : error
	if (FifoDataLength(fifo) == (fifo->size - 1))
	{
		return 1;
     19e:	81 e0       	ldi	r24, 0x01	; 1
	}
	// write data & increment write pointer
	fifo->buffer[fifo->write] = data;
	fifo->write = (fifo->write + 1) & (fifo->size - 1);
	return 0;
};
     1a0:	df 91       	pop	r29
     1a2:	cf 91       	pop	r28
     1a4:	1f 91       	pop	r17
     1a6:	08 95       	ret

000001a8 <FifoRead>:


uint8_t FifoRead (struct fifo *fifo, unsigned char *data)
{
     1a8:	0f 93       	push	r16
     1aa:	1f 93       	push	r17
     1ac:	cf 93       	push	r28
     1ae:	df 93       	push	r29
     1b0:	ec 01       	movw	r28, r24
     1b2:	8b 01       	movw	r16, r22
	// fifo empty : error
	if (FifoDataLength(fifo) == 0)
     1b4:	d1 df       	rcall	.-94     	; 0x158 <FifoDataLength>
     1b6:	88 23       	and	r24, r24
     1b8:	a1 f0       	breq	.+40     	; 0x1e2 <FifoRead+0x3a>
	{
		return 1;
	}
	// read data & increment read pointer
	*data = fifo->buffer[fifo->read];
     1ba:	ea 81       	ldd	r30, Y+2	; 0x02
     1bc:	fb 81       	ldd	r31, Y+3	; 0x03
     1be:	ec 0f       	add	r30, r28
     1c0:	fd 1f       	adc	r31, r29
     1c2:	86 81       	ldd	r24, Z+6	; 0x06
     1c4:	f8 01       	movw	r30, r16
     1c6:	80 83       	st	Z, r24
	fifo->read = (fifo->read + 1) & (fifo->size - 1);
     1c8:	28 81       	ld	r18, Y
     1ca:	39 81       	ldd	r19, Y+1	; 0x01
     1cc:	21 50       	subi	r18, 0x01	; 1
     1ce:	31 09       	sbc	r19, r1
     1d0:	8a 81       	ldd	r24, Y+2	; 0x02
     1d2:	9b 81       	ldd	r25, Y+3	; 0x03
     1d4:	01 96       	adiw	r24, 0x01	; 1
     1d6:	82 23       	and	r24, r18
     1d8:	93 23       	and	r25, r19
     1da:	9b 83       	std	Y+3, r25	; 0x03
     1dc:	8a 83       	std	Y+2, r24	; 0x02
	return 0;
     1de:	80 e0       	ldi	r24, 0x00	; 0
     1e0:	01 c0       	rjmp	.+2      	; 0x1e4 <FifoRead+0x3c>
uint8_t FifoRead (struct fifo *fifo, unsigned char *data)
{
	// fifo empty : error
	if (FifoDataLength(fifo) == 0)
	{
		return 1;
     1e2:	81 e0       	ldi	r24, 0x01	; 1
	}
	// read data & increment read pointer
	*data = fifo->buffer[fifo->read];
	fifo->read = (fifo->read + 1) & (fifo->size - 1);
	return 0;
     1e4:	df 91       	pop	r29
     1e6:	cf 91       	pop	r28
     1e8:	1f 91       	pop	r17
     1ea:	0f 91       	pop	r16
     1ec:	08 95       	ret

000001ee <init>:
// --  END MAIN --


void init()
{
	LED_INIT;
     1ee:	81 b1       	in	r24, 0x01	; 1
     1f0:	83 60       	ori	r24, 0x03	; 3
     1f2:	81 b9       	out	0x01, r24	; 1
     1f4:	87 b1       	in	r24, 0x07	; 7
     1f6:	80 6c       	ori	r24, 0xC0	; 192
     1f8:	87 b9       	out	0x07, r24	; 7
	USART_init();
     1fa:	03 d5       	rcall	.+2566   	; 0xc02 <USART_init>
	TWI_init(C_ADDRESS);
     1fc:	80 e8       	ldi	r24, 0x80	; 128
     1fe:	f4 d0       	rcall	.+488    	; 0x3e8 <TWI_init>
	init_counters();
     200:	88 df       	rcall	.-240    	; 0x112 <init_counters>
	set_counter_2(2000);
     202:	80 ed       	ldi	r24, 0xD0	; 208
     204:	97 e0       	ldi	r25, 0x07	; 7
     206:	73 cf       	rjmp	.-282    	; 0xee <set_counter_2>

00000208 <main>:

// -- MAIN --

int main(void)
{
	init();
     208:	f2 df       	rcall	.-28     	; 0x1ee <init>
	sei();
     20a:	78 94       	sei
	#else
		//round up by default
		__ticks_dc = (uint32_t)(ceil(fabs(__tmp)));
	#endif

	__builtin_avr_delay_cycles(__ticks_dc);
     20c:	2f ef       	ldi	r18, 0xFF	; 255
     20e:	8f e1       	ldi	r24, 0x1F	; 31
     210:	9c e1       	ldi	r25, 0x1C	; 28
     212:	21 50       	subi	r18, 0x01	; 1
     214:	80 40       	sbci	r24, 0x00	; 0
     216:	90 40       	sbci	r25, 0x00	; 0
     218:	e1 f7       	brne	.-8      	; 0x212 <main+0xa>
     21a:	00 c0       	rjmp	.+0      	; 0x21c <main+0x14>
     21c:	00 00       	nop
	_delay_ms(500);
	while(1)
	{
		//PORTA ^= (1<<PORTA0);
		
		USART_decode_rx_fifo();
     21e:	d0 d7       	rcall	.+4000   	; 0x11c0 <USART_decode_rx_fifo>
		if(TWI_sensor_flag())
     220:	7f d2       	rcall	.+1278   	; 0x720 <TWI_sensor_flag>
     222:	81 11       	cpse	r24, r1
		{
			USART_send_sensors();
     224:	ef d5       	rcall	.+3038   	; 0xe04 <USART_send_sensors>
		}
		if(TWI_autonom_settings_flag())
     226:	86 d2       	rcall	.+1292   	; 0x734 <TWI_autonom_settings_flag>
     228:	88 23       	and	r24, r24
     22a:	11 f0       	breq	.+4      	; 0x230 <main+0x28>
		{
			USART_send_autonom(TWI_get_autonom_settings());
     22c:	76 d2       	rcall	.+1260   	; 0x71a <TWI_get_autonom_settings>
     22e:	09 d6       	rcall	.+3090   	; 0xe42 <USART_send_autonom>
		}
		decode_message_TwiFIFO();
     230:	8b d2       	rcall	.+1302   	; 0x748 <decode_message_TwiFIFO>
		
		// TODO: put this on timer
		//if(TWI_send_status(ST_ADRESS))
			//LED1_TOGGLE;
		//TWI_send_string(S_ADDRESS, "Hejsan lulzi!");
	}
     232:	f5 cf       	rjmp	.-22     	; 0x21e <main+0x16>

00000234 <__vector_13>:
}

//Interrupt vectors

ISR(TIMER1_COMPA_vect)
{
     234:	1f 92       	push	r1
     236:	0f 92       	push	r0
     238:	0f b6       	in	r0, 0x3f	; 63
     23a:	0f 92       	push	r0
     23c:	11 24       	eor	r1, r1
	TCNT1 = 0;
     23e:	10 92 85 00 	sts	0x0085, r1
     242:	10 92 84 00 	sts	0x0084, r1
}
     246:	0f 90       	pop	r0
     248:	0f be       	out	0x3f, r0	; 63
     24a:	0f 90       	pop	r0
     24c:	1f 90       	pop	r1
     24e:	18 95       	reti

00000250 <__vector_32>:

ISR(TIMER3_COMPA_vect)
{
     250:	1f 92       	push	r1
     252:	0f 92       	push	r0
     254:	0f b6       	in	r0, 0x3f	; 63
     256:	0f 92       	push	r0
     258:	11 24       	eor	r1, r1
	TCNT3 = 0;
     25a:	10 92 95 00 	sts	0x0095, r1
     25e:	10 92 94 00 	sts	0x0094, r1
     262:	0f 90       	pop	r0
     264:	0f be       	out	0x3f, r0	; 63
     266:	0f 90       	pop	r0
     268:	1f 90       	pop	r1
     26a:	18 95       	reti

0000026c <set_twi_reciever_enable>:
	{
		sweepFlag_ = 0;
		return 1;
	}
	return 0;
}
     26c:	85 e4       	ldi	r24, 0x45	; 69
     26e:	80 93 bc 00 	sts	0x00BC, r24
     272:	08 95       	ret

00000274 <clear_int>:
     274:	81 ec       	ldi	r24, 0xC1	; 193
     276:	80 93 bc 00 	sts	0x00BC, r24
     27a:	08 95       	ret

0000027c <start_bus>:
     27c:	84 ea       	ldi	r24, 0xA4	; 164
     27e:	80 93 bc 00 	sts	0x00BC, r24
     282:	08 95       	ret

00000284 <stop_bus>:
     284:	85 ed       	ldi	r24, 0xD5	; 213
     286:	80 93 bc 00 	sts	0x00BC, r24
     28a:	08 95       	ret

0000028c <Error>:
     28c:	80 91 b9 00 	lds	r24, 0x00B9
     290:	88 7f       	andi	r24, 0xF8	; 248
     292:	88 33       	cpi	r24, 0x38	; 56
     294:	09 f0       	breq	.+2      	; 0x298 <Error+0xc>
     296:	f6 cf       	rjmp	.-20     	; 0x284 <stop_bus>
     298:	ed cf       	rjmp	.-38     	; 0x274 <clear_int>

0000029a <get_data>:
     29a:	80 91 bb 00 	lds	r24, 0x00BB
     29e:	08 95       	ret

000002a0 <wait_for_bus>:
     2a0:	ec eb       	ldi	r30, 0xBC	; 188
     2a2:	f0 e0       	ldi	r31, 0x00	; 0
     2a4:	80 81       	ld	r24, Z
     2a6:	88 23       	and	r24, r24
     2a8:	ec f7       	brge	.-6      	; 0x2a4 <wait_for_bus+0x4>
     2aa:	08 95       	ret

000002ac <send_data_and_wait>:
     2ac:	80 93 bb 00 	sts	0x00BB, r24
     2b0:	84 e8       	ldi	r24, 0x84	; 132
     2b2:	80 93 bc 00 	sts	0x00BC, r24
     2b6:	f4 cf       	rjmp	.-24     	; 0x2a0 <wait_for_bus>

000002b8 <stop_twi>:
     2b8:	10 92 35 24 	sts	0x2435, r1
     2bc:	10 92 34 24 	sts	0x2434, r1
     2c0:	10 92 3f 24 	sts	0x243F, r1
     2c4:	10 92 3e 24 	sts	0x243E, r1
     2c8:	10 92 2a 24 	sts	0x242A, r1
     2cc:	10 92 29 24 	sts	0x2429, r1
     2d0:	10 92 2f 24 	sts	0x242F, r1
     2d4:	10 92 2e 24 	sts	0x242E, r1
     2d8:	10 92 32 24 	sts	0x2432, r1
     2dc:	10 92 31 24 	sts	0x2431, r1
     2e0:	08 95       	ret

000002e2 <reset_TWI>:
     2e2:	ec eb       	ldi	r30, 0xBC	; 188
     2e4:	f0 e0       	ldi	r31, 0x00	; 0
     2e6:	80 81       	ld	r24, Z
     2e8:	80 6c       	ori	r24, 0xC0	; 192
     2ea:	80 83       	st	Z, r24
     2ec:	08 95       	ret

000002ee <get_sensor_from_bus>:
     2ee:	0f 93       	push	r16
     2f0:	1f 93       	push	r17
     2f2:	cf 93       	push	r28
     2f4:	df 93       	push	r29
     2f6:	80 91 3e 24 	lds	r24, 0x243E
     2fa:	90 91 3f 24 	lds	r25, 0x243F
     2fe:	88 30       	cpi	r24, 0x08	; 8
     300:	91 05       	cpc	r25, r1
     302:	a1 f4       	brne	.+40     	; 0x32c <get_sensor_from_bus+0x3e>
     304:	e0 e4       	ldi	r30, 0x40	; 64
     306:	f4 e2       	ldi	r31, 0x24	; 36
     308:	a0 e5       	ldi	r26, 0x50	; 80
     30a:	b4 e2       	ldi	r27, 0x24	; 36
     30c:	20 e5       	ldi	r18, 0x50	; 80
     30e:	34 e2       	ldi	r19, 0x24	; 36
     310:	81 91       	ld	r24, Z+
     312:	91 91       	ld	r25, Z+
     314:	8d 93       	st	X+, r24
     316:	9d 93       	st	X+, r25
     318:	e2 17       	cp	r30, r18
     31a:	f3 07       	cpc	r31, r19
     31c:	c9 f7       	brne	.-14     	; 0x310 <get_sensor_from_bus+0x22>
     31e:	bd df       	rcall	.-134    	; 0x29a <get_data>
     320:	80 93 38 24 	sts	0x2438, r24
     324:	81 e0       	ldi	r24, 0x01	; 1
     326:	80 93 1d 23 	sts	0x231D, r24
     32a:	2a c0       	rjmp	.+84     	; 0x380 <get_sensor_from_bus+0x92>
     32c:	20 91 08 11 	lds	r18, 0x1108
     330:	22 23       	and	r18, r18
     332:	71 f0       	breq	.+28     	; 0x350 <get_sensor_from_bus+0x62>
     334:	b2 df       	rcall	.-156    	; 0x29a <get_data>
     336:	e0 91 3e 24 	lds	r30, 0x243E
     33a:	f0 91 3f 24 	lds	r31, 0x243F
     33e:	ee 0f       	add	r30, r30
     340:	ff 1f       	adc	r31, r31
     342:	e0 5c       	subi	r30, 0xC0	; 192
     344:	fb 4d       	sbci	r31, 0xDB	; 219
     346:	10 82       	st	Z, r1
     348:	81 83       	std	Z+1, r24	; 0x01
     34a:	10 92 08 11 	sts	0x1108, r1
     34e:	18 c0       	rjmp	.+48     	; 0x380 <get_sensor_from_bus+0x92>
     350:	ec 01       	movw	r28, r24
     352:	cc 0f       	add	r28, r28
     354:	dd 1f       	adc	r29, r29
     356:	c0 5c       	subi	r28, 0xC0	; 192
     358:	db 4d       	sbci	r29, 0xDB	; 219
     35a:	08 81       	ld	r16, Y
     35c:	19 81       	ldd	r17, Y+1	; 0x01
     35e:	9d df       	rcall	.-198    	; 0x29a <get_data>
     360:	08 0f       	add	r16, r24
     362:	11 1d       	adc	r17, r1
     364:	19 83       	std	Y+1, r17	; 0x01
     366:	08 83       	st	Y, r16
     368:	81 e0       	ldi	r24, 0x01	; 1
     36a:	80 93 08 11 	sts	0x1108, r24
     36e:	80 91 3e 24 	lds	r24, 0x243E
     372:	90 91 3f 24 	lds	r25, 0x243F
     376:	01 96       	adiw	r24, 0x01	; 1
     378:	90 93 3f 24 	sts	0x243F, r25
     37c:	80 93 3e 24 	sts	0x243E, r24
     380:	df 91       	pop	r29
     382:	cf 91       	pop	r28
     384:	1f 91       	pop	r17
     386:	0f 91       	pop	r16
     388:	08 95       	ret

0000038a <get_control_settings_from_bus>:
     38a:	cf 93       	push	r28
     38c:	df 93       	push	r29
     38e:	c0 91 2e 24 	lds	r28, 0x242E
     392:	d0 91 2f 24 	lds	r29, 0x242F
     396:	81 df       	rcall	.-254    	; 0x29a <get_data>
     398:	c5 5d       	subi	r28, 0xD5	; 213
     39a:	db 4d       	sbci	r29, 0xDB	; 219
     39c:	88 83       	st	Y, r24
     39e:	10 92 2f 24 	sts	0x242F, r1
     3a2:	10 92 2e 24 	sts	0x242E, r1
     3a6:	df 91       	pop	r29
     3a8:	cf 91       	pop	r28
     3aa:	08 95       	ret

000003ac <get_autonom_settings_from_bus>:
     3ac:	76 df       	rcall	.-276    	; 0x29a <get_data>
     3ae:	80 93 29 23 	sts	0x2329, r24
     3b2:	08 95       	ret

000003b4 <get_char_from_bus>:
     3b4:	cf 93       	push	r28
     3b6:	df 93       	push	r29
     3b8:	c0 91 29 24 	lds	r28, 0x2429
     3bc:	d0 91 2a 24 	lds	r29, 0x242A
     3c0:	6c df       	rcall	.-296    	; 0x29a <get_data>
     3c2:	c6 5d       	subi	r28, 0xD6	; 214
     3c4:	dc 4d       	sbci	r29, 0xDC	; 220
     3c6:	88 83       	st	Y, r24
     3c8:	80 91 29 24 	lds	r24, 0x2429
     3cc:	90 91 2a 24 	lds	r25, 0x242A
     3d0:	01 96       	adiw	r24, 0x01	; 1
     3d2:	90 93 2a 24 	sts	0x242A, r25
     3d6:	80 93 29 24 	sts	0x2429, r24
     3da:	90 93 3a 24 	sts	0x243A, r25
     3de:	80 93 39 24 	sts	0x2439, r24
     3e2:	df 91       	pop	r29
     3e4:	cf 91       	pop	r28
     3e6:	08 95       	ret

000003e8 <TWI_init>:
     3e8:	80 93 30 24 	sts	0x2430, r24
     3ec:	80 34       	cpi	r24, 0x40	; 64
     3ee:	79 f0       	breq	.+30     	; 0x40e <TWI_init+0x26>
     3f0:	80 38       	cpi	r24, 0x80	; 128
     3f2:	19 f0       	breq	.+6      	; 0x3fa <TWI_init+0x12>
     3f4:	80 32       	cpi	r24, 0x20	; 32
     3f6:	d1 f4       	brne	.+52     	; 0x42c <TWI_init+0x44>
     3f8:	12 c0       	rjmp	.+36     	; 0x41e <TWI_init+0x36>
     3fa:	83 e0       	ldi	r24, 0x03	; 3
     3fc:	88 b9       	out	0x08, r24	; 8
     3fe:	36 df       	rcall	.-404    	; 0x26c <set_twi_reciever_enable>
     400:	8f e3       	ldi	r24, 0x3F	; 63
     402:	80 93 b8 00 	sts	0x00B8, r24
     406:	81 e8       	ldi	r24, 0x81	; 129
     408:	80 93 ba 00 	sts	0x00BA, r24
     40c:	08 95       	ret
     40e:	8f e3       	ldi	r24, 0x3F	; 63
     410:	80 93 b8 00 	sts	0x00B8, r24
     414:	2b df       	rcall	.-426    	; 0x26c <set_twi_reciever_enable>
     416:	80 e4       	ldi	r24, 0x40	; 64
     418:	80 93 ba 00 	sts	0x00BA, r24
     41c:	08 95       	ret
     41e:	8f e3       	ldi	r24, 0x3F	; 63
     420:	80 93 b8 00 	sts	0x00B8, r24
     424:	23 df       	rcall	.-442    	; 0x26c <set_twi_reciever_enable>
     426:	81 e2       	ldi	r24, 0x21	; 33
     428:	80 93 ba 00 	sts	0x00BA, r24
     42c:	08 95       	ret

0000042e <TWI_send_parameters>:
     42e:	cf 92       	push	r12
     430:	df 92       	push	r13
     432:	ef 92       	push	r14
     434:	ff 92       	push	r15
     436:	0f 93       	push	r16
     438:	1f 93       	push	r17
     43a:	cf 93       	push	r28
     43c:	df 93       	push	r29
     43e:	c8 2f       	mov	r28, r24
     440:	e6 2e       	mov	r14, r22
     442:	d4 2e       	mov	r13, r20
     444:	d5 2f       	mov	r29, r21
     446:	1a df       	rcall	.-460    	; 0x27c <start_bus>
     448:	2b df       	rcall	.-426    	; 0x2a0 <wait_for_bus>
     44a:	90 91 b9 00 	lds	r25, 0x00B9
     44e:	98 7f       	andi	r25, 0xF8	; 248
     450:	98 30       	cpi	r25, 0x08	; 8
     452:	19 f0       	breq	.+6      	; 0x45a <TWI_send_parameters+0x2c>
     454:	1b df       	rcall	.-458    	; 0x28c <Error>
     456:	80 e0       	ldi	r24, 0x00	; 0
     458:	39 c0       	rjmp	.+114    	; 0x4cc <TWI_send_parameters+0x9e>
     45a:	8c 2f       	mov	r24, r28
     45c:	27 df       	rcall	.-434    	; 0x2ac <send_data_and_wait>
     45e:	80 91 b9 00 	lds	r24, 0x00B9
     462:	88 7f       	andi	r24, 0xF8	; 248
     464:	88 31       	cpi	r24, 0x18	; 24
     466:	19 f0       	breq	.+6      	; 0x46e <TWI_send_parameters+0x40>
     468:	11 df       	rcall	.-478    	; 0x28c <Error>
     46a:	80 e0       	ldi	r24, 0x00	; 0
     46c:	2f c0       	rjmp	.+94     	; 0x4cc <TWI_send_parameters+0x9e>
     46e:	81 e0       	ldi	r24, 0x01	; 1
     470:	1d df       	rcall	.-454    	; 0x2ac <send_data_and_wait>
     472:	80 91 b9 00 	lds	r24, 0x00B9
     476:	88 7f       	andi	r24, 0xF8	; 248
     478:	88 32       	cpi	r24, 0x28	; 40
     47a:	51 f4       	brne	.+20     	; 0x490 <TWI_send_parameters+0x62>
     47c:	f1 2c       	mov	r15, r1
     47e:	1e 14       	cp	r1, r14
     480:	1f 04       	cpc	r1, r15
     482:	14 f5       	brge	.+68     	; 0x4c8 <TWI_send_parameters+0x9a>
     484:	80 91 b9 00 	lds	r24, 0x00B9
     488:	88 7f       	andi	r24, 0xF8	; 248
     48a:	88 31       	cpi	r24, 0x18	; 24
     48c:	61 f0       	breq	.+24     	; 0x4a6 <TWI_send_parameters+0x78>
     48e:	08 c0       	rjmp	.+16     	; 0x4a0 <TWI_send_parameters+0x72>
     490:	fd de       	rcall	.-518    	; 0x28c <Error>
     492:	80 e0       	ldi	r24, 0x00	; 0
     494:	1b c0       	rjmp	.+54     	; 0x4cc <TWI_send_parameters+0x9e>
     496:	f6 01       	movw	r30, r12
     498:	80 81       	ld	r24, Z
     49a:	88 7f       	andi	r24, 0xF8	; 248
     49c:	88 31       	cpi	r24, 0x18	; 24
     49e:	61 f0       	breq	.+24     	; 0x4b8 <TWI_send_parameters+0x8a>
     4a0:	f5 de       	rcall	.-534    	; 0x28c <Error>
     4a2:	80 e0       	ldi	r24, 0x00	; 0
     4a4:	13 c0       	rjmp	.+38     	; 0x4cc <TWI_send_parameters+0x9e>
     4a6:	0d 2d       	mov	r16, r13
     4a8:	1d 2f       	mov	r17, r29
     4aa:	c0 e0       	ldi	r28, 0x00	; 0
     4ac:	d0 e0       	ldi	r29, 0x00	; 0
     4ae:	0f 2e       	mov	r0, r31
     4b0:	f9 eb       	ldi	r31, 0xB9	; 185
     4b2:	cf 2e       	mov	r12, r31
     4b4:	d1 2c       	mov	r13, r1
     4b6:	f0 2d       	mov	r31, r0
     4b8:	f8 01       	movw	r30, r16
     4ba:	81 91       	ld	r24, Z+
     4bc:	8f 01       	movw	r16, r30
     4be:	f6 de       	rcall	.-532    	; 0x2ac <send_data_and_wait>
     4c0:	21 96       	adiw	r28, 0x01	; 1
     4c2:	ce 15       	cp	r28, r14
     4c4:	df 05       	cpc	r29, r15
     4c6:	3c f3       	brlt	.-50     	; 0x496 <TWI_send_parameters+0x68>
     4c8:	dd de       	rcall	.-582    	; 0x284 <stop_bus>
     4ca:	81 e0       	ldi	r24, 0x01	; 1
     4cc:	df 91       	pop	r29
     4ce:	cf 91       	pop	r28
     4d0:	1f 91       	pop	r17
     4d2:	0f 91       	pop	r16
     4d4:	ff 90       	pop	r15
     4d6:	ef 90       	pop	r14
     4d8:	df 90       	pop	r13
     4da:	cf 90       	pop	r12
     4dc:	08 95       	ret

000004de <TWI_send_autonom_settings>:
     4de:	cf 93       	push	r28
     4e0:	df 93       	push	r29
     4e2:	c8 2f       	mov	r28, r24
     4e4:	d6 2f       	mov	r29, r22
     4e6:	ca de       	rcall	.-620    	; 0x27c <start_bus>
     4e8:	db de       	rcall	.-586    	; 0x2a0 <wait_for_bus>
     4ea:	90 91 b9 00 	lds	r25, 0x00B9
     4ee:	98 7f       	andi	r25, 0xF8	; 248
     4f0:	98 30       	cpi	r25, 0x08	; 8
     4f2:	19 f0       	breq	.+6      	; 0x4fa <TWI_send_autonom_settings+0x1c>
     4f4:	cb de       	rcall	.-618    	; 0x28c <Error>
     4f6:	80 e0       	ldi	r24, 0x00	; 0
     4f8:	20 c0       	rjmp	.+64     	; 0x53a <TWI_send_autonom_settings+0x5c>
     4fa:	8c 2f       	mov	r24, r28
     4fc:	d7 de       	rcall	.-594    	; 0x2ac <send_data_and_wait>
     4fe:	80 91 b9 00 	lds	r24, 0x00B9
     502:	88 7f       	andi	r24, 0xF8	; 248
     504:	88 31       	cpi	r24, 0x18	; 24
     506:	19 f0       	breq	.+6      	; 0x50e <TWI_send_autonom_settings+0x30>
     508:	c1 de       	rcall	.-638    	; 0x28c <Error>
     50a:	80 e0       	ldi	r24, 0x00	; 0
     50c:	16 c0       	rjmp	.+44     	; 0x53a <TWI_send_autonom_settings+0x5c>
     50e:	85 e0       	ldi	r24, 0x05	; 5
     510:	cd de       	rcall	.-614    	; 0x2ac <send_data_and_wait>
     512:	80 91 b9 00 	lds	r24, 0x00B9
     516:	88 7f       	andi	r24, 0xF8	; 248
     518:	88 32       	cpi	r24, 0x28	; 40
     51a:	19 f0       	breq	.+6      	; 0x522 <TWI_send_autonom_settings+0x44>
     51c:	b7 de       	rcall	.-658    	; 0x28c <Error>
     51e:	80 e0       	ldi	r24, 0x00	; 0
     520:	0c c0       	rjmp	.+24     	; 0x53a <TWI_send_autonom_settings+0x5c>
     522:	8d 2f       	mov	r24, r29
     524:	c3 de       	rcall	.-634    	; 0x2ac <send_data_and_wait>
     526:	80 91 b9 00 	lds	r24, 0x00B9
     52a:	88 7f       	andi	r24, 0xF8	; 248
     52c:	88 32       	cpi	r24, 0x28	; 40
     52e:	19 f0       	breq	.+6      	; 0x536 <TWI_send_autonom_settings+0x58>
     530:	ad de       	rcall	.-678    	; 0x28c <Error>
     532:	80 e0       	ldi	r24, 0x00	; 0
     534:	02 c0       	rjmp	.+4      	; 0x53a <TWI_send_autonom_settings+0x5c>
     536:	a6 de       	rcall	.-692    	; 0x284 <stop_bus>
     538:	81 e0       	ldi	r24, 0x01	; 1
     53a:	df 91       	pop	r29
     53c:	cf 91       	pop	r28
     53e:	08 95       	ret

00000540 <TWI_send_command>:
     540:	1f 93       	push	r17
     542:	cf 93       	push	r28
     544:	df 93       	push	r29
     546:	c8 2f       	mov	r28, r24
     548:	d6 2f       	mov	r29, r22
     54a:	14 2f       	mov	r17, r20
     54c:	97 de       	rcall	.-722    	; 0x27c <start_bus>
     54e:	a8 de       	rcall	.-688    	; 0x2a0 <wait_for_bus>
     550:	90 91 b9 00 	lds	r25, 0x00B9
     554:	98 7f       	andi	r25, 0xF8	; 248
     556:	98 30       	cpi	r25, 0x08	; 8
     558:	19 f0       	breq	.+6      	; 0x560 <TWI_send_command+0x20>
     55a:	98 de       	rcall	.-720    	; 0x28c <Error>
     55c:	80 e0       	ldi	r24, 0x00	; 0
     55e:	34 c0       	rjmp	.+104    	; 0x5c8 <TWI_send_command+0x88>
     560:	80 e2       	ldi	r24, 0x20	; 32
     562:	a4 de       	rcall	.-696    	; 0x2ac <send_data_and_wait>
     564:	80 91 b9 00 	lds	r24, 0x00B9
     568:	88 7f       	andi	r24, 0xF8	; 248
     56a:	88 31       	cpi	r24, 0x18	; 24
     56c:	19 f0       	breq	.+6      	; 0x574 <TWI_send_command+0x34>
     56e:	8e de       	rcall	.-740    	; 0x28c <Error>
     570:	80 e0       	ldi	r24, 0x00	; 0
     572:	2a c0       	rjmp	.+84     	; 0x5c8 <TWI_send_command+0x88>
     574:	80 e0       	ldi	r24, 0x00	; 0
     576:	9a de       	rcall	.-716    	; 0x2ac <send_data_and_wait>
     578:	80 91 b9 00 	lds	r24, 0x00B9
     57c:	88 7f       	andi	r24, 0xF8	; 248
     57e:	88 32       	cpi	r24, 0x28	; 40
     580:	19 f0       	breq	.+6      	; 0x588 <TWI_send_command+0x48>
     582:	84 de       	rcall	.-760    	; 0x28c <Error>
     584:	80 e0       	ldi	r24, 0x00	; 0
     586:	20 c0       	rjmp	.+64     	; 0x5c8 <TWI_send_command+0x88>
     588:	8c 2f       	mov	r24, r28
     58a:	90 de       	rcall	.-736    	; 0x2ac <send_data_and_wait>
     58c:	80 91 b9 00 	lds	r24, 0x00B9
     590:	88 7f       	andi	r24, 0xF8	; 248
     592:	88 32       	cpi	r24, 0x28	; 40
     594:	19 f0       	breq	.+6      	; 0x59c <TWI_send_command+0x5c>
     596:	7a de       	rcall	.-780    	; 0x28c <Error>
     598:	80 e0       	ldi	r24, 0x00	; 0
     59a:	16 c0       	rjmp	.+44     	; 0x5c8 <TWI_send_command+0x88>
     59c:	8d 2f       	mov	r24, r29
     59e:	86 de       	rcall	.-756    	; 0x2ac <send_data_and_wait>
     5a0:	80 91 b9 00 	lds	r24, 0x00B9
     5a4:	88 7f       	andi	r24, 0xF8	; 248
     5a6:	88 32       	cpi	r24, 0x28	; 40
     5a8:	19 f0       	breq	.+6      	; 0x5b0 <TWI_send_command+0x70>
     5aa:	70 de       	rcall	.-800    	; 0x28c <Error>
     5ac:	80 e0       	ldi	r24, 0x00	; 0
     5ae:	0c c0       	rjmp	.+24     	; 0x5c8 <TWI_send_command+0x88>
     5b0:	81 2f       	mov	r24, r17
     5b2:	7c de       	rcall	.-776    	; 0x2ac <send_data_and_wait>
     5b4:	80 91 b9 00 	lds	r24, 0x00B9
     5b8:	88 7f       	andi	r24, 0xF8	; 248
     5ba:	88 32       	cpi	r24, 0x28	; 40
     5bc:	19 f0       	breq	.+6      	; 0x5c4 <TWI_send_command+0x84>
     5be:	66 de       	rcall	.-820    	; 0x28c <Error>
     5c0:	80 e0       	ldi	r24, 0x00	; 0
     5c2:	02 c0       	rjmp	.+4      	; 0x5c8 <TWI_send_command+0x88>
     5c4:	5f de       	rcall	.-834    	; 0x284 <stop_bus>
     5c6:	81 e0       	ldi	r24, 0x01	; 1
     5c8:	df 91       	pop	r29
     5ca:	cf 91       	pop	r28
     5cc:	1f 91       	pop	r17
     5ce:	08 95       	ret

000005d0 <TWI_send_elevation>:
     5d0:	cf 93       	push	r28
     5d2:	c8 2f       	mov	r28, r24
     5d4:	53 de       	rcall	.-858    	; 0x27c <start_bus>
     5d6:	64 de       	rcall	.-824    	; 0x2a0 <wait_for_bus>
     5d8:	90 91 b9 00 	lds	r25, 0x00B9
     5dc:	98 7f       	andi	r25, 0xF8	; 248
     5de:	98 30       	cpi	r25, 0x08	; 8
     5e0:	19 f0       	breq	.+6      	; 0x5e8 <TWI_send_elevation+0x18>
     5e2:	54 de       	rcall	.-856    	; 0x28c <Error>
     5e4:	80 e0       	ldi	r24, 0x00	; 0
     5e6:	20 c0       	rjmp	.+64     	; 0x628 <TWI_send_elevation+0x58>
     5e8:	80 e2       	ldi	r24, 0x20	; 32
     5ea:	60 de       	rcall	.-832    	; 0x2ac <send_data_and_wait>
     5ec:	80 91 b9 00 	lds	r24, 0x00B9
     5f0:	88 7f       	andi	r24, 0xF8	; 248
     5f2:	88 31       	cpi	r24, 0x18	; 24
     5f4:	19 f0       	breq	.+6      	; 0x5fc <TWI_send_elevation+0x2c>
     5f6:	4a de       	rcall	.-876    	; 0x28c <Error>
     5f8:	80 e0       	ldi	r24, 0x00	; 0
     5fa:	16 c0       	rjmp	.+44     	; 0x628 <TWI_send_elevation+0x58>
     5fc:	84 e0       	ldi	r24, 0x04	; 4
     5fe:	56 de       	rcall	.-852    	; 0x2ac <send_data_and_wait>
     600:	80 91 b9 00 	lds	r24, 0x00B9
     604:	88 7f       	andi	r24, 0xF8	; 248
     606:	88 32       	cpi	r24, 0x28	; 40
     608:	19 f0       	breq	.+6      	; 0x610 <TWI_send_elevation+0x40>
     60a:	40 de       	rcall	.-896    	; 0x28c <Error>
     60c:	80 e0       	ldi	r24, 0x00	; 0
     60e:	0c c0       	rjmp	.+24     	; 0x628 <TWI_send_elevation+0x58>
     610:	8c 2f       	mov	r24, r28
     612:	4c de       	rcall	.-872    	; 0x2ac <send_data_and_wait>
     614:	80 91 b9 00 	lds	r24, 0x00B9
     618:	88 7f       	andi	r24, 0xF8	; 248
     61a:	88 32       	cpi	r24, 0x28	; 40
     61c:	19 f0       	breq	.+6      	; 0x624 <TWI_send_elevation+0x54>
     61e:	36 de       	rcall	.-916    	; 0x28c <Error>
     620:	80 e0       	ldi	r24, 0x00	; 0
     622:	02 c0       	rjmp	.+4      	; 0x628 <TWI_send_elevation+0x58>
     624:	2f de       	rcall	.-930    	; 0x284 <stop_bus>
     626:	81 e0       	ldi	r24, 0x01	; 1
     628:	cf 91       	pop	r28
     62a:	08 95       	ret

0000062c <TWI_send_string_fixed_length>:
     62c:	ef 92       	push	r14
     62e:	ff 92       	push	r15
     630:	0f 93       	push	r16
     632:	1f 93       	push	r17
     634:	cf 93       	push	r28
     636:	df 93       	push	r29
     638:	c8 2f       	mov	r28, r24
     63a:	e6 2e       	mov	r14, r22
     63c:	f7 2e       	mov	r15, r23
     63e:	8a 01       	movw	r16, r20
     640:	1d de       	rcall	.-966    	; 0x27c <start_bus>
     642:	2e de       	rcall	.-932    	; 0x2a0 <wait_for_bus>
     644:	90 91 b9 00 	lds	r25, 0x00B9
     648:	98 7f       	andi	r25, 0xF8	; 248
     64a:	98 30       	cpi	r25, 0x08	; 8
     64c:	19 f0       	breq	.+6      	; 0x654 <TWI_send_string_fixed_length+0x28>
     64e:	1e de       	rcall	.-964    	; 0x28c <Error>
     650:	80 e0       	ldi	r24, 0x00	; 0
     652:	23 c0       	rjmp	.+70     	; 0x69a <TWI_send_string_fixed_length+0x6e>
     654:	8c 2f       	mov	r24, r28
     656:	2a de       	rcall	.-940    	; 0x2ac <send_data_and_wait>
     658:	80 91 b9 00 	lds	r24, 0x00B9
     65c:	88 7f       	andi	r24, 0xF8	; 248
     65e:	88 31       	cpi	r24, 0x18	; 24
     660:	19 f0       	breq	.+6      	; 0x668 <TWI_send_string_fixed_length+0x3c>
     662:	14 de       	rcall	.-984    	; 0x28c <Error>
     664:	80 e0       	ldi	r24, 0x00	; 0
     666:	19 c0       	rjmp	.+50     	; 0x69a <TWI_send_string_fixed_length+0x6e>
     668:	89 e1       	ldi	r24, 0x19	; 25
     66a:	20 de       	rcall	.-960    	; 0x2ac <send_data_and_wait>
     66c:	80 91 b9 00 	lds	r24, 0x00B9
     670:	88 7f       	andi	r24, 0xF8	; 248
     672:	88 32       	cpi	r24, 0x28	; 40
     674:	21 f4       	brne	.+8      	; 0x67e <TWI_send_string_fixed_length+0x52>
     676:	10 16       	cp	r1, r16
     678:	11 06       	cpc	r1, r17
     67a:	24 f0       	brlt	.+8      	; 0x684 <TWI_send_string_fixed_length+0x58>
     67c:	0c c0       	rjmp	.+24     	; 0x696 <TWI_send_string_fixed_length+0x6a>
     67e:	06 de       	rcall	.-1012   	; 0x28c <Error>
     680:	80 e0       	ldi	r24, 0x00	; 0
     682:	0b c0       	rjmp	.+22     	; 0x69a <TWI_send_string_fixed_length+0x6e>
     684:	ce 2d       	mov	r28, r14
     686:	df 2d       	mov	r29, r15
     688:	0c 0f       	add	r16, r28
     68a:	1d 1f       	adc	r17, r29
     68c:	89 91       	ld	r24, Y+
     68e:	0e de       	rcall	.-996    	; 0x2ac <send_data_and_wait>
     690:	c0 17       	cp	r28, r16
     692:	d1 07       	cpc	r29, r17
     694:	d9 f7       	brne	.-10     	; 0x68c <TWI_send_string_fixed_length+0x60>
     696:	f6 dd       	rcall	.-1044   	; 0x284 <stop_bus>
     698:	81 e0       	ldi	r24, 0x01	; 1
     69a:	df 91       	pop	r29
     69c:	cf 91       	pop	r28
     69e:	1f 91       	pop	r17
     6a0:	0f 91       	pop	r16
     6a2:	ff 90       	pop	r15
     6a4:	ef 90       	pop	r14
     6a6:	08 95       	ret

000006a8 <TWI_send_status_settings>:
     6a8:	cf 93       	push	r28
     6aa:	df 93       	push	r29
     6ac:	c8 2f       	mov	r28, r24
     6ae:	d6 2f       	mov	r29, r22
     6b0:	e5 dd       	rcall	.-1078   	; 0x27c <start_bus>
     6b2:	f6 dd       	rcall	.-1044   	; 0x2a0 <wait_for_bus>
     6b4:	90 91 b9 00 	lds	r25, 0x00B9
     6b8:	98 7f       	andi	r25, 0xF8	; 248
     6ba:	98 30       	cpi	r25, 0x08	; 8
     6bc:	19 f0       	breq	.+6      	; 0x6c4 <TWI_send_status_settings+0x1c>
     6be:	e6 dd       	rcall	.-1076   	; 0x28c <Error>
     6c0:	80 e0       	ldi	r24, 0x00	; 0
     6c2:	20 c0       	rjmp	.+64     	; 0x704 <TWI_send_status_settings+0x5c>
     6c4:	8c 2f       	mov	r24, r28
     6c6:	f2 dd       	rcall	.-1052   	; 0x2ac <send_data_and_wait>
     6c8:	80 91 b9 00 	lds	r24, 0x00B9
     6cc:	88 7f       	andi	r24, 0xF8	; 248
     6ce:	88 31       	cpi	r24, 0x18	; 24
     6d0:	19 f0       	breq	.+6      	; 0x6d8 <TWI_send_status_settings+0x30>
     6d2:	dc dd       	rcall	.-1096   	; 0x28c <Error>
     6d4:	80 e0       	ldi	r24, 0x00	; 0
     6d6:	16 c0       	rjmp	.+44     	; 0x704 <TWI_send_status_settings+0x5c>
     6d8:	87 e0       	ldi	r24, 0x07	; 7
     6da:	e8 dd       	rcall	.-1072   	; 0x2ac <send_data_and_wait>
     6dc:	80 91 b9 00 	lds	r24, 0x00B9
     6e0:	88 7f       	andi	r24, 0xF8	; 248
     6e2:	88 32       	cpi	r24, 0x28	; 40
     6e4:	19 f0       	breq	.+6      	; 0x6ec <TWI_send_status_settings+0x44>
     6e6:	d2 dd       	rcall	.-1116   	; 0x28c <Error>
     6e8:	80 e0       	ldi	r24, 0x00	; 0
     6ea:	0c c0       	rjmp	.+24     	; 0x704 <TWI_send_status_settings+0x5c>
     6ec:	8d 2f       	mov	r24, r29
     6ee:	de dd       	rcall	.-1092   	; 0x2ac <send_data_and_wait>
     6f0:	80 91 b9 00 	lds	r24, 0x00B9
     6f4:	88 7f       	andi	r24, 0xF8	; 248
     6f6:	88 32       	cpi	r24, 0x28	; 40
     6f8:	19 f0       	breq	.+6      	; 0x700 <TWI_send_status_settings+0x58>
     6fa:	c8 dd       	rcall	.-1136   	; 0x28c <Error>
     6fc:	80 e0       	ldi	r24, 0x00	; 0
     6fe:	02 c0       	rjmp	.+4      	; 0x704 <TWI_send_status_settings+0x5c>
     700:	c1 dd       	rcall	.-1150   	; 0x284 <stop_bus>
     702:	81 e0       	ldi	r24, 0x01	; 1
     704:	df 91       	pop	r29
     706:	cf 91       	pop	r28
     708:	08 95       	ret

0000070a <TWI_get_sensor>:
     70a:	88 0f       	add	r24, r24
     70c:	99 1f       	adc	r25, r25
     70e:	fc 01       	movw	r30, r24
     710:	e0 5b       	subi	r30, 0xB0	; 176
     712:	fb 4d       	sbci	r31, 0xDB	; 219
     714:	80 81       	ld	r24, Z
     716:	91 81       	ldd	r25, Z+1	; 0x01
     718:	08 95       	ret

0000071a <TWI_get_autonom_settings>:
     71a:	80 91 29 23 	lds	r24, 0x2329
     71e:	08 95       	ret

00000720 <TWI_sensor_flag>:
     720:	80 91 1d 23 	lds	r24, 0x231D
     724:	88 23       	and	r24, r24
     726:	21 f0       	breq	.+8      	; 0x730 <TWI_sensor_flag+0x10>
     728:	10 92 1d 23 	sts	0x231D, r1
     72c:	81 e0       	ldi	r24, 0x01	; 1
     72e:	08 95       	ret
     730:	80 e0       	ldi	r24, 0x00	; 0
     732:	08 95       	ret

00000734 <TWI_autonom_settings_flag>:
     734:	80 91 1a 23 	lds	r24, 0x231A
     738:	88 23       	and	r24, r24
     73a:	21 f0       	breq	.+8      	; 0x744 <TWI_autonom_settings_flag+0x10>
     73c:	10 92 1a 23 	sts	0x231A, r1
     740:	81 e0       	ldi	r24, 0x01	; 1
     742:	08 95       	ret
     744:	80 e0       	ldi	r24, 0x00	; 0
     746:	08 95       	ret

00000748 <decode_message_TwiFIFO>:

//--------------------------FIFO------------------------------------------

uint8_t decode_message_TwiFIFO()
{
     748:	8f 92       	push	r8
     74a:	9f 92       	push	r9
     74c:	af 92       	push	r10
     74e:	bf 92       	push	r11
     750:	cf 92       	push	r12
     752:	df 92       	push	r13
     754:	ef 92       	push	r14
     756:	ff 92       	push	r15
     758:	0f 93       	push	r16
     75a:	1f 93       	push	r17
     75c:	cf 93       	push	r28
     75e:	df 93       	push	r29
     760:	cd b7       	in	r28, 0x3d	; 61
     762:	de b7       	in	r29, 0x3e	; 62
	}
	
	USART_send_message(msg);
	
	return 0;
}
     764:	ad b6       	in	r10, 0x3d	; 61
     766:	be b6       	in	r11, 0x3e	; 62
{
	
	uint8_t *len = 0;
	uint8_t *character = 0;
	
	if(FifoRead(gTwiFIFO, len))
     768:	60 e0       	ldi	r22, 0x00	; 0
     76a:	70 e0       	ldi	r23, 0x00	; 0
     76c:	80 91 00 01 	lds	r24, 0x0100
     770:	90 91 01 01 	lds	r25, 0x0101
     774:	19 dd       	rcall	.-1486   	; 0x1a8 <FifoRead>
     776:	81 11       	cpse	r24, r1
     778:	3b c0       	rjmp	.+118    	; 0x7f0 <decode_message_TwiFIFO+0xa8>
	{
		//No new messages
		return 1; // error
	}
	
	int length = *len; // I don't know why I can't use *len directly... but it took me 4h to figure out that you can't do it....
     77a:	c0 90 00 00 	lds	r12, 0x0000
     77e:	d1 2c       	mov	r13, r1
	
	//NOTE: there has to be a better way of doing this...
	int ifzero = 0;
	if(length == 0) ifzero = 1;
	char msg[length-1+ifzero];
     780:	96 01       	movw	r18, r12
     782:	21 50       	subi	r18, 0x01	; 1
     784:	31 09       	sbc	r19, r1
	
	int length = *len; // I don't know why I can't use *len directly... but it took me 4h to figure out that you can't do it....
	
	//NOTE: there has to be a better way of doing this...
	int ifzero = 0;
	if(length == 0) ifzero = 1;
     786:	81 e0       	ldi	r24, 0x01	; 1
     788:	90 e0       	ldi	r25, 0x00	; 0
     78a:	c1 14       	cp	r12, r1
     78c:	d1 04       	cpc	r13, r1
     78e:	11 f0       	breq	.+4      	; 0x794 <decode_message_TwiFIFO+0x4c>
     790:	80 e0       	ldi	r24, 0x00	; 0
     792:	90 e0       	ldi	r25, 0x00	; 0
	char msg[length-1+ifzero];
     794:	82 0f       	add	r24, r18
     796:	93 1f       	adc	r25, r19
     798:	2d b7       	in	r18, 0x3d	; 61
     79a:	3e b7       	in	r19, 0x3e	; 62
     79c:	28 1b       	sub	r18, r24
     79e:	39 0b       	sbc	r19, r25
     7a0:	0f b6       	in	r0, 0x3f	; 63
     7a2:	f8 94       	cli
     7a4:	3e bf       	out	0x3e, r19	; 62
     7a6:	0f be       	out	0x3f, r0	; 63
     7a8:	2d bf       	out	0x3d, r18	; 61
     7aa:	2f 5f       	subi	r18, 0xFF	; 255
     7ac:	3f 4f       	sbci	r19, 0xFF	; 255
     7ae:	82 2e       	mov	r8, r18
     7b0:	93 2e       	mov	r9, r19

	for(int i = 0; i < length; ++i)
     7b2:	1c 14       	cp	r1, r12
     7b4:	1d 04       	cpc	r1, r13
     7b6:	bc f4       	brge	.+46     	; 0x7e6 <decode_message_TwiFIFO+0x9e>
     7b8:	e2 2e       	mov	r14, r18
     7ba:	f3 2e       	mov	r15, r19
     7bc:	00 e0       	ldi	r16, 0x00	; 0
     7be:	10 e0       	ldi	r17, 0x00	; 0
	{
		if(FifoRead(gTwiFIFO, character))
     7c0:	60 e0       	ldi	r22, 0x00	; 0
     7c2:	70 e0       	ldi	r23, 0x00	; 0
     7c4:	80 91 00 01 	lds	r24, 0x0100
     7c8:	90 91 01 01 	lds	r25, 0x0101
     7cc:	ed dc       	rcall	.-1574   	; 0x1a8 <FifoRead>
     7ce:	81 11       	cpse	r24, r1
     7d0:	11 c0       	rjmp	.+34     	; 0x7f4 <decode_message_TwiFIFO+0xac>
		{
			//Wrong length!?
			return 1; // error
		}

		msg[i] = *character;
     7d2:	20 91 00 00 	lds	r18, 0x0000
     7d6:	f7 01       	movw	r30, r14
     7d8:	21 93       	st	Z+, r18
     7da:	7f 01       	movw	r14, r30
	//NOTE: there has to be a better way of doing this...
	int ifzero = 0;
	if(length == 0) ifzero = 1;
	char msg[length-1+ifzero];

	for(int i = 0; i < length; ++i)
     7dc:	0f 5f       	subi	r16, 0xFF	; 255
     7de:	1f 4f       	sbci	r17, 0xFF	; 255
     7e0:	0c 15       	cp	r16, r12
     7e2:	1d 05       	cpc	r17, r13
     7e4:	6c f3       	brlt	.-38     	; 0x7c0 <decode_message_TwiFIFO+0x78>
		}

		msg[i] = *character;
	}
	
	USART_send_message(msg);
     7e6:	88 2d       	mov	r24, r8
     7e8:	99 2d       	mov	r25, r9
     7ea:	dd d2       	rcall	.+1466   	; 0xda6 <USART_send_message>
	
	return 0;
     7ec:	80 e0       	ldi	r24, 0x00	; 0
     7ee:	03 c0       	rjmp	.+6      	; 0x7f6 <decode_message_TwiFIFO+0xae>
	uint8_t *character = 0;
	
	if(FifoRead(gTwiFIFO, len))
	{
		//No new messages
		return 1; // error
     7f0:	81 e0       	ldi	r24, 0x01	; 1
     7f2:	01 c0       	rjmp	.+2      	; 0x7f6 <decode_message_TwiFIFO+0xae>
	for(int i = 0; i < length; ++i)
	{
		if(FifoRead(gTwiFIFO, character))
		{
			//Wrong length!?
			return 1; // error
     7f4:	81 e0       	ldi	r24, 0x01	; 1
	}
	
	USART_send_message(msg);
	
	return 0;
}
     7f6:	0f b6       	in	r0, 0x3f	; 63
     7f8:	f8 94       	cli
     7fa:	be be       	out	0x3e, r11	; 62
     7fc:	0f be       	out	0x3f, r0	; 63
     7fe:	ad be       	out	0x3d, r10	; 61
     800:	df 91       	pop	r29
     802:	cf 91       	pop	r28
     804:	1f 91       	pop	r17
     806:	0f 91       	pop	r16
     808:	ff 90       	pop	r15
     80a:	ef 90       	pop	r14
     80c:	df 90       	pop	r13
     80e:	cf 90       	pop	r12
     810:	bf 90       	pop	r11
     812:	af 90       	pop	r10
     814:	9f 90       	pop	r9
     816:	8f 90       	pop	r8
     818:	08 95       	ret

0000081a <write_to_TwiFIFO>:

uint8_t write_to_TwiFIFO(char msg[])
{
     81a:	0f 93       	push	r16
     81c:	1f 93       	push	r17
     81e:	cf 93       	push	r28
     820:	df 93       	push	r29
     822:	d8 2f       	mov	r29, r24
     824:	c9 2f       	mov	r28, r25
	if(FifoWrite(gTwiFIFO, (unsigned char)messageLength))
     826:	60 91 39 24 	lds	r22, 0x2439
     82a:	80 91 00 01 	lds	r24, 0x0100
     82e:	90 91 01 01 	lds	r25, 0x0101
     832:	9a dc       	rcall	.-1740   	; 0x168 <FifoWrite>
     834:	81 11       	cpse	r24, r1
     836:	1f c0       	rjmp	.+62     	; 0x876 <write_to_TwiFIFO+0x5c>
	{
		//Can't add length!?
		return 1;
	}
	
	for(int i = 0; i < messageLength; ++i)
     838:	20 91 39 24 	lds	r18, 0x2439
     83c:	30 91 3a 24 	lds	r19, 0x243A
     840:	12 16       	cp	r1, r18
     842:	13 06       	cpc	r1, r19
     844:	d4 f4       	brge	.+52     	; 0x87a <write_to_TwiFIFO+0x60>
     846:	0d 2f       	mov	r16, r29
     848:	1c 2f       	mov	r17, r28
     84a:	c0 e0       	ldi	r28, 0x00	; 0
     84c:	d0 e0       	ldi	r29, 0x00	; 0
	{
		if(FifoWrite(gTwiFIFO, msg[i]))
     84e:	f8 01       	movw	r30, r16
     850:	61 91       	ld	r22, Z+
     852:	8f 01       	movw	r16, r30
     854:	80 91 00 01 	lds	r24, 0x0100
     858:	90 91 01 01 	lds	r25, 0x0101
     85c:	85 dc       	rcall	.-1782   	; 0x168 <FifoWrite>
     85e:	81 11       	cpse	r24, r1
     860:	0e c0       	rjmp	.+28     	; 0x87e <write_to_TwiFIFO+0x64>
	{
		//Can't add length!?
		return 1;
	}
	
	for(int i = 0; i < messageLength; ++i)
     862:	21 96       	adiw	r28, 0x01	; 1
     864:	80 91 39 24 	lds	r24, 0x2439
     868:	90 91 3a 24 	lds	r25, 0x243A
     86c:	c8 17       	cp	r28, r24
     86e:	d9 07       	cpc	r29, r25
     870:	74 f3       	brlt	.-36     	; 0x84e <write_to_TwiFIFO+0x34>
			//Can't add chars!?
			return 1;
		}
	}
	
	return 0;
     872:	80 e0       	ldi	r24, 0x00	; 0
     874:	05 c0       	rjmp	.+10     	; 0x880 <write_to_TwiFIFO+0x66>
uint8_t write_to_TwiFIFO(char msg[])
{
	if(FifoWrite(gTwiFIFO, (unsigned char)messageLength))
	{
		//Can't add length!?
		return 1;
     876:	81 e0       	ldi	r24, 0x01	; 1
     878:	03 c0       	rjmp	.+6      	; 0x880 <write_to_TwiFIFO+0x66>
			//Can't add chars!?
			return 1;
		}
	}
	
	return 0;
     87a:	80 e0       	ldi	r24, 0x00	; 0
     87c:	01 c0       	rjmp	.+2      	; 0x880 <write_to_TwiFIFO+0x66>
	for(int i = 0; i < messageLength; ++i)
	{
		if(FifoWrite(gTwiFIFO, msg[i]))
		{
			//Can't add chars!?
			return 1;
     87e:	81 e0       	ldi	r24, 0x01	; 1
		}
	}
	
	return 0;
}
     880:	df 91       	pop	r29
     882:	cf 91       	pop	r28
     884:	1f 91       	pop	r17
     886:	0f 91       	pop	r16
     888:	08 95       	ret

0000088a <__vector_26>:

//TWI Interrupt vector MUHAHAHAHA
// ----------------------------------------------------------------------------- Communications
ISR(TWI_vect)
{
     88a:	1f 92       	push	r1
     88c:	0f 92       	push	r0
     88e:	0f b6       	in	r0, 0x3f	; 63
     890:	0f 92       	push	r0
     892:	11 24       	eor	r1, r1
     894:	0b b6       	in	r0, 0x3b	; 59
     896:	0f 92       	push	r0
     898:	2f 93       	push	r18
     89a:	3f 93       	push	r19
     89c:	4f 93       	push	r20
     89e:	5f 93       	push	r21
     8a0:	6f 93       	push	r22
     8a2:	7f 93       	push	r23
     8a4:	8f 93       	push	r24
     8a6:	9f 93       	push	r25
     8a8:	af 93       	push	r26
     8aa:	bf 93       	push	r27
     8ac:	cf 93       	push	r28
     8ae:	df 93       	push	r29
     8b0:	ef 93       	push	r30
     8b2:	ff 93       	push	r31
	switch(myAdress)
     8b4:	80 91 30 24 	lds	r24, 0x2430
     8b8:	80 34       	cpi	r24, 0x40	; 64
     8ba:	09 f4       	brne	.+2      	; 0x8be <__vector_26+0x34>
     8bc:	90 c0       	rjmp	.+288    	; 0x9de <__vector_26+0x154>
     8be:	80 38       	cpi	r24, 0x80	; 128
     8c0:	21 f0       	breq	.+8      	; 0x8ca <__vector_26+0x40>
     8c2:	80 32       	cpi	r24, 0x20	; 32
     8c4:	09 f0       	breq	.+2      	; 0x8c8 <__vector_26+0x3e>
     8c6:	88 c1       	rjmp	.+784    	; 0xbd8 <__vector_26+0x34e>
     8c8:	d2 c0       	rjmp	.+420    	; 0xa6e <__vector_26+0x1e4>
	{
		case(C_ADDRESS):
		{
			if(CONTROL == SLAW || CONTROL == ARBIT_SLAW)
     8ca:	80 91 b9 00 	lds	r24, 0x00B9
     8ce:	88 7f       	andi	r24, 0xF8	; 248
     8d0:	80 36       	cpi	r24, 0x60	; 96
     8d2:	29 f0       	breq	.+10     	; 0x8de <__vector_26+0x54>
     8d4:	80 91 b9 00 	lds	r24, 0x00B9
     8d8:	88 7f       	andi	r24, 0xF8	; 248
     8da:	88 36       	cpi	r24, 0x68	; 104
     8dc:	21 f4       	brne	.+8      	; 0x8e6 <__vector_26+0x5c>
			{
				instruction = 1;
     8de:	81 e0       	ldi	r24, 0x01	; 1
     8e0:	80 93 33 24 	sts	0x2433, r24
     8e4:	7a c0       	rjmp	.+244    	; 0x9da <__vector_26+0x150>
			}
			else if(CONTROL == GENERAL || CONTROL == ARBIT_GENERAL)
     8e6:	80 91 b9 00 	lds	r24, 0x00B9
     8ea:	88 7f       	andi	r24, 0xF8	; 248
     8ec:	80 37       	cpi	r24, 0x70	; 112
     8ee:	29 f0       	breq	.+10     	; 0x8fa <__vector_26+0x70>
     8f0:	80 91 b9 00 	lds	r24, 0x00B9
     8f4:	88 7f       	andi	r24, 0xF8	; 248
     8f6:	88 37       	cpi	r24, 0x78	; 120
     8f8:	39 f4       	brne	.+14     	; 0x908 <__vector_26+0x7e>
			{
				currentInstruction = 255;
     8fa:	8f ef       	ldi	r24, 0xFF	; 255
     8fc:	90 e0       	ldi	r25, 0x00	; 0
     8fe:	90 93 3d 24 	sts	0x243D, r25
     902:	80 93 3c 24 	sts	0x243C, r24
     906:	69 c0       	rjmp	.+210    	; 0x9da <__vector_26+0x150>
			}
			else if(CONTROL == DATA_SLAW)
     908:	80 91 b9 00 	lds	r24, 0x00B9
     90c:	88 7f       	andi	r24, 0xF8	; 248
     90e:	80 38       	cpi	r24, 0x80	; 128
     910:	b9 f5       	brne	.+110    	; 0x980 <__vector_26+0xf6>
			{
				if(instruction)
     912:	80 91 33 24 	lds	r24, 0x2433
     916:	88 23       	and	r24, r24
     918:	41 f0       	breq	.+16     	; 0x92a <__vector_26+0xa0>
				{
					currentInstruction = get_data();
     91a:	bf dc       	rcall	.-1666   	; 0x29a <get_data>
     91c:	80 93 3c 24 	sts	0x243C, r24
     920:	10 92 3d 24 	sts	0x243D, r1
					instruction = 0;
     924:	10 92 33 24 	sts	0x2433, r1
     928:	58 c0       	rjmp	.+176    	; 0x9da <__vector_26+0x150>
				}
				else
				{
					switch(currentInstruction)
     92a:	80 91 3c 24 	lds	r24, 0x243C
     92e:	90 91 3d 24 	lds	r25, 0x243D
     932:	85 30       	cpi	r24, 0x05	; 5
     934:	91 05       	cpc	r25, r1
     936:	71 f0       	breq	.+28     	; 0x954 <__vector_26+0xca>
     938:	24 f4       	brge	.+8      	; 0x942 <__vector_26+0xb8>
     93a:	01 97       	sbiw	r24, 0x01	; 1
     93c:	09 f0       	breq	.+2      	; 0x940 <__vector_26+0xb6>
     93e:	4d c0       	rjmp	.+154    	; 0x9da <__vector_26+0x150>
     940:	07 c0       	rjmp	.+14     	; 0x950 <__vector_26+0xc6>
     942:	86 30       	cpi	r24, 0x06	; 6
     944:	91 05       	cpc	r25, r1
     946:	51 f0       	breq	.+20     	; 0x95c <__vector_26+0xd2>
     948:	49 97       	sbiw	r24, 0x19	; 25
     94a:	09 f0       	breq	.+2      	; 0x94e <__vector_26+0xc4>
     94c:	46 c0       	rjmp	.+140    	; 0x9da <__vector_26+0x150>
     94e:	04 c0       	rjmp	.+8      	; 0x958 <__vector_26+0xce>
					{
						case(I_SETTINGS):
						{
							get_control_settings_from_bus();
     950:	1c dd       	rcall	.-1480   	; 0x38a <get_control_settings_from_bus>
							break;
     952:	43 c0       	rjmp	.+134    	; 0x9da <__vector_26+0x150>
						}
						case(I_AUTONOM):
						{
							get_autonom_settings_from_bus();
     954:	2b dd       	rcall	.-1450   	; 0x3ac <get_autonom_settings_from_bus>
							break;
     956:	41 c0       	rjmp	.+130    	; 0x9da <__vector_26+0x150>
						}
						case(I_STRING):
						{
							get_char_from_bus();
     958:	2d dd       	rcall	.-1446   	; 0x3b4 <get_char_from_bus>
							break;
     95a:	3f c0       	rjmp	.+126    	; 0x9da <__vector_26+0x150>
	currentCommand += 1;
}

void get_float_from_bus()
{
	floatMessage[floatCounter] = get_data();
     95c:	c0 91 31 24 	lds	r28, 0x2431
     960:	d0 91 32 24 	lds	r29, 0x2432
     964:	9a dc       	rcall	.-1740   	; 0x29a <get_data>
     966:	ce 5d       	subi	r28, 0xDE	; 222
     968:	dc 4d       	sbci	r29, 0xDC	; 220
     96a:	88 83       	st	Y, r24
	floatCounter += 1;
     96c:	80 91 31 24 	lds	r24, 0x2431
     970:	90 91 32 24 	lds	r25, 0x2432
     974:	01 96       	adiw	r24, 0x01	; 1
     976:	90 93 32 24 	sts	0x2432, r25
     97a:	80 93 31 24 	sts	0x2431, r24
     97e:	2d c0       	rjmp	.+90     	; 0x9da <__vector_26+0x150>
							break;
						}
					}
				}
			}
			else if (CONTROL == DATA_GENERAL)
     980:	80 91 b9 00 	lds	r24, 0x00B9
     984:	88 7f       	andi	r24, 0xF8	; 248
     986:	80 39       	cpi	r24, 0x90	; 144
     988:	11 f4       	brne	.+4      	; 0x98e <__vector_26+0x104>
			{
				get_sensor_from_bus();
     98a:	b1 dc       	rcall	.-1694   	; 0x2ee <get_sensor_from_bus>
     98c:	26 c0       	rjmp	.+76     	; 0x9da <__vector_26+0x150>
			}
			else if (CONTROL == STOP)
     98e:	80 91 b9 00 	lds	r24, 0x00B9
     992:	88 7f       	andi	r24, 0xF8	; 248
     994:	80 3a       	cpi	r24, 0xA0	; 160
     996:	09 f5       	brne	.+66     	; 0x9da <__vector_26+0x150>
			{
				stop_twi();
     998:	8f dc       	rcall	.-1762   	; 0x2b8 <stop_twi>
				switch(currentInstruction)
     99a:	80 91 3c 24 	lds	r24, 0x243C
     99e:	90 91 3d 24 	lds	r25, 0x243D
     9a2:	85 30       	cpi	r24, 0x05	; 5
     9a4:	91 05       	cpc	r25, r1
     9a6:	71 f0       	breq	.+28     	; 0x9c4 <__vector_26+0x13a>
     9a8:	1c f4       	brge	.+6      	; 0x9b0 <__vector_26+0x126>
     9aa:	01 97       	sbiw	r24, 0x01	; 1
     9ac:	b1 f4       	brne	.+44     	; 0x9da <__vector_26+0x150>
     9ae:	06 c0       	rjmp	.+12     	; 0x9bc <__vector_26+0x132>
     9b0:	86 30       	cpi	r24, 0x06	; 6
     9b2:	91 05       	cpc	r25, r1
     9b4:	79 f0       	breq	.+30     	; 0x9d4 <__vector_26+0x14a>
     9b6:	49 97       	sbiw	r24, 0x19	; 25
     9b8:	81 f4       	brne	.+32     	; 0x9da <__vector_26+0x150>
     9ba:	08 c0       	rjmp	.+16     	; 0x9cc <__vector_26+0x142>
				{
					case(I_SETTINGS):
					{
						controlSettingsFlag_ = 1;
     9bc:	81 e0       	ldi	r24, 0x01	; 1
     9be:	80 93 1b 23 	sts	0x231B, r24
						break;
     9c2:	0b c0       	rjmp	.+22     	; 0x9da <__vector_26+0x150>
					}
					case(I_AUTONOM):
					{
						autonomSettingsFlag_ = 1;
     9c4:	81 e0       	ldi	r24, 0x01	; 1
     9c6:	80 93 1a 23 	sts	0x231A, r24
						break;
     9ca:	07 c0       	rjmp	.+14     	; 0x9da <__vector_26+0x150>
					}
					case(I_STRING):
					{
						write_to_TwiFIFO(message);
     9cc:	8a e2       	ldi	r24, 0x2A	; 42
     9ce:	93 e2       	ldi	r25, 0x23	; 35
     9d0:	24 df       	rcall	.-440    	; 0x81a <write_to_TwiFIFO>
						break;
     9d2:	03 c0       	rjmp	.+6      	; 0x9da <__vector_26+0x150>
					}
					case(I_FLOAT):
					{
						USART_send_value(floatMessage);
     9d4:	82 e2       	ldi	r24, 0x22	; 34
     9d6:	93 e2       	ldi	r25, 0x23	; 35
     9d8:	07 d2       	rcall	.+1038   	; 0xde8 <USART_send_value>
						break;
					}
				}
			}
			reset_TWI();
     9da:	83 dc       	rcall	.-1786   	; 0x2e2 <reset_TWI>
			break;
     9dc:	fd c0       	rjmp	.+506    	; 0xbd8 <__vector_26+0x34e>
		}
		// ----------------------------------------------------------------------------- Sensors
		case(S_ADDRESS):
		{
			if(CONTROL == SLAW || CONTROL == ARBIT_SLAW)
     9de:	80 91 b9 00 	lds	r24, 0x00B9
     9e2:	88 7f       	andi	r24, 0xF8	; 248
     9e4:	80 36       	cpi	r24, 0x60	; 96
     9e6:	29 f0       	breq	.+10     	; 0x9f2 <__vector_26+0x168>
     9e8:	80 91 b9 00 	lds	r24, 0x00B9
     9ec:	88 7f       	andi	r24, 0xF8	; 248
     9ee:	88 36       	cpi	r24, 0x68	; 104
     9f0:	21 f4       	brne	.+8      	; 0x9fa <__vector_26+0x170>
			{
				instruction = 1;
     9f2:	81 e0       	ldi	r24, 0x01	; 1
     9f4:	80 93 33 24 	sts	0x2433, r24
     9f8:	38 c0       	rjmp	.+112    	; 0xa6a <__vector_26+0x1e0>
			}
			else if(CONTROL == DATA_SLAW)
     9fa:	80 91 b9 00 	lds	r24, 0x00B9
     9fe:	88 7f       	andi	r24, 0xF8	; 248
     a00:	80 38       	cpi	r24, 0x80	; 128
     a02:	e1 f4       	brne	.+56     	; 0xa3c <__vector_26+0x1b2>
			{
				if(instruction)
     a04:	80 91 33 24 	lds	r24, 0x2433
     a08:	88 23       	and	r24, r24
     a0a:	41 f0       	breq	.+16     	; 0xa1c <__vector_26+0x192>
				{
					currentInstruction = get_data();
     a0c:	46 dc       	rcall	.-1908   	; 0x29a <get_data>
     a0e:	80 93 3c 24 	sts	0x243C, r24
     a12:	10 92 3d 24 	sts	0x243D, r1
					instruction = 0;
     a16:	10 92 33 24 	sts	0x2433, r1
     a1a:	27 c0       	rjmp	.+78     	; 0xa6a <__vector_26+0x1e0>
				}
				else
				{
					switch(currentInstruction)
     a1c:	80 91 3c 24 	lds	r24, 0x243C
     a20:	90 91 3d 24 	lds	r25, 0x243D
     a24:	82 30       	cpi	r24, 0x02	; 2
     a26:	91 05       	cpc	r25, r1
     a28:	19 f0       	breq	.+6      	; 0xa30 <__vector_26+0x1a6>
     a2a:	49 97       	sbiw	r24, 0x19	; 25
     a2c:	f1 f4       	brne	.+60     	; 0xa6a <__vector_26+0x1e0>
     a2e:	04 c0       	rjmp	.+8      	; 0xa38 <__vector_26+0x1ae>
	}
}

void get_sweep_from_bus()
{
	sweep = get_data();
     a30:	34 dc       	rcall	.-1944   	; 0x29a <get_data>
     a32:	80 93 3b 24 	sts	0x243B, r24
     a36:	19 c0       	rjmp	.+50     	; 0xa6a <__vector_26+0x1e0>
							get_sweep_from_bus();
							break;
						}
						case(I_STRING):
						{
							get_char_from_bus();
     a38:	bd dc       	rcall	.-1670   	; 0x3b4 <get_char_from_bus>
							break;
     a3a:	17 c0       	rjmp	.+46     	; 0xa6a <__vector_26+0x1e0>
						}
					}
				}
			}
			else if (CONTROL == STOP)
     a3c:	80 91 b9 00 	lds	r24, 0x00B9
     a40:	88 7f       	andi	r24, 0xF8	; 248
     a42:	80 3a       	cpi	r24, 0xA0	; 160
     a44:	91 f4       	brne	.+36     	; 0xa6a <__vector_26+0x1e0>
			{
				stop_twi();
     a46:	38 dc       	rcall	.-1936   	; 0x2b8 <stop_twi>
				switch(currentInstruction)
     a48:	80 91 3c 24 	lds	r24, 0x243C
     a4c:	90 91 3d 24 	lds	r25, 0x243D
     a50:	82 30       	cpi	r24, 0x02	; 2
     a52:	91 05       	cpc	r25, r1
     a54:	19 f0       	breq	.+6      	; 0xa5c <__vector_26+0x1d2>
     a56:	49 97       	sbiw	r24, 0x19	; 25
     a58:	41 f4       	brne	.+16     	; 0xa6a <__vector_26+0x1e0>
     a5a:	04 c0       	rjmp	.+8      	; 0xa64 <__vector_26+0x1da>
				{
					case(I_SWEEP):
					{
						sweepFlag_ = 1;
     a5c:	81 e0       	ldi	r24, 0x01	; 1
     a5e:	80 93 18 23 	sts	0x2318, r24
						break;
     a62:	03 c0       	rjmp	.+6      	; 0xa6a <__vector_26+0x1e0>
					}
					case(I_STRING):
					{
						write_to_TwiFIFO(message);
     a64:	8a e2       	ldi	r24, 0x2A	; 42
     a66:	93 e2       	ldi	r25, 0x23	; 35
     a68:	d8 de       	rcall	.-592    	; 0x81a <write_to_TwiFIFO>
						break;
					}
				}
			}
			reset_TWI();
     a6a:	3b dc       	rcall	.-1930   	; 0x2e2 <reset_TWI>
			break;
     a6c:	b5 c0       	rjmp	.+362    	; 0xbd8 <__vector_26+0x34e>
		}
		// ----------------------------------------------------------------------------- Steer
		case(ST_ADDRESS):
		{
			if(CONTROL == SLAW || CONTROL == ARBIT_SLAW)
     a6e:	80 91 b9 00 	lds	r24, 0x00B9
     a72:	88 7f       	andi	r24, 0xF8	; 248
     a74:	80 36       	cpi	r24, 0x60	; 96
     a76:	29 f0       	breq	.+10     	; 0xa82 <__vector_26+0x1f8>
     a78:	80 91 b9 00 	lds	r24, 0x00B9
     a7c:	88 7f       	andi	r24, 0xF8	; 248
     a7e:	88 36       	cpi	r24, 0x68	; 104
     a80:	21 f4       	brne	.+8      	; 0xa8a <__vector_26+0x200>
			{
				instruction = 1;
     a82:	81 e0       	ldi	r24, 0x01	; 1
     a84:	80 93 33 24 	sts	0x2433, r24
     a88:	a6 c0       	rjmp	.+332    	; 0xbd6 <__vector_26+0x34c>
			}
			else if(CONTROL == GENERAL || CONTROL == ARBIT_GENERAL)
     a8a:	80 91 b9 00 	lds	r24, 0x00B9
     a8e:	88 7f       	andi	r24, 0xF8	; 248
     a90:	80 37       	cpi	r24, 0x70	; 112
     a92:	29 f0       	breq	.+10     	; 0xa9e <__vector_26+0x214>
     a94:	80 91 b9 00 	lds	r24, 0x00B9
     a98:	88 7f       	andi	r24, 0xF8	; 248
     a9a:	88 37       	cpi	r24, 0x78	; 120
     a9c:	39 f4       	brne	.+14     	; 0xaac <__vector_26+0x222>
			{
				currentInstruction = 255;
     a9e:	8f ef       	ldi	r24, 0xFF	; 255
     aa0:	90 e0       	ldi	r25, 0x00	; 0
     aa2:	90 93 3d 24 	sts	0x243D, r25
     aa6:	80 93 3c 24 	sts	0x243C, r24
     aaa:	95 c0       	rjmp	.+298    	; 0xbd6 <__vector_26+0x34c>
			}
			else if(CONTROL == DATA_SLAW)
     aac:	80 91 b9 00 	lds	r24, 0x00B9
     ab0:	88 7f       	andi	r24, 0xF8	; 248
     ab2:	80 38       	cpi	r24, 0x80	; 128
     ab4:	09 f0       	breq	.+2      	; 0xab8 <__vector_26+0x22e>
     ab6:	62 c0       	rjmp	.+196    	; 0xb7c <__vector_26+0x2f2>
			{
				if(instruction)
     ab8:	80 91 33 24 	lds	r24, 0x2433
     abc:	88 23       	and	r24, r24
     abe:	41 f0       	breq	.+16     	; 0xad0 <__vector_26+0x246>
				{
					currentInstruction = get_data();
     ac0:	ec db       	rcall	.-2088   	; 0x29a <get_data>
     ac2:	80 93 3c 24 	sts	0x243C, r24
     ac6:	10 92 3d 24 	sts	0x243D, r1
					instruction = 0;
     aca:	10 92 33 24 	sts	0x2433, r1
     ace:	83 c0       	rjmp	.+262    	; 0xbd6 <__vector_26+0x34c>
				}
				else
				{
					switch(currentInstruction)
     ad0:	80 91 3c 24 	lds	r24, 0x243C
     ad4:	90 91 3d 24 	lds	r25, 0x243D
     ad8:	81 30       	cpi	r24, 0x01	; 1
     ada:	91 05       	cpc	r25, r1
     adc:	09 f4       	brne	.+2      	; 0xae0 <__vector_26+0x256>
     ade:	4a c0       	rjmp	.+148    	; 0xb74 <__vector_26+0x2ea>
     ae0:	1c f4       	brge	.+6      	; 0xae8 <__vector_26+0x25e>
     ae2:	89 2b       	or	r24, r25
     ae4:	41 f0       	breq	.+16     	; 0xaf6 <__vector_26+0x26c>
     ae6:	77 c0       	rjmp	.+238    	; 0xbd6 <__vector_26+0x34c>
     ae8:	84 30       	cpi	r24, 0x04	; 4
     aea:	91 05       	cpc	r25, r1
     aec:	b1 f0       	breq	.+44     	; 0xb1a <__vector_26+0x290>
     aee:	05 97       	sbiw	r24, 0x05	; 5
     af0:	09 f0       	breq	.+2      	; 0xaf4 <__vector_26+0x26a>
     af2:	71 c0       	rjmp	.+226    	; 0xbd6 <__vector_26+0x34c>
     af4:	41 c0       	rjmp	.+130    	; 0xb78 <__vector_26+0x2ee>
	messageLength = messageCounter;
}

void get_command_from_bus()
{
	command[currentCommand] = get_data();
     af6:	c0 91 34 24 	lds	r28, 0x2434
     afa:	d0 91 35 24 	lds	r29, 0x2435
     afe:	cd db       	rcall	.-2150   	; 0x29a <get_data>
     b00:	ca 5d       	subi	r28, 0xDA	; 218
     b02:	dc 4d       	sbci	r29, 0xDC	; 220
     b04:	88 83       	st	Y, r24
	currentCommand += 1;
     b06:	80 91 34 24 	lds	r24, 0x2434
     b0a:	90 91 35 24 	lds	r25, 0x2435
     b0e:	01 96       	adiw	r24, 0x01	; 1
     b10:	90 93 35 24 	sts	0x2435, r25
     b14:	80 93 34 24 	sts	0x2434, r24
     b18:	5e c0       	rjmp	.+188    	; 0xbd6 <__vector_26+0x34c>
	floatCounter += 1;
}

void get_elevation_from_bus()
{
	int ele = get_data();
     b1a:	bf db       	rcall	.-2178   	; 0x29a <get_data>
	if(ele == 0)
     b1c:	81 11       	cpse	r24, r1
     b1e:	0a c0       	rjmp	.+20     	; 0xb34 <__vector_26+0x2aa>
	{
		elevation -= 1;
     b20:	80 91 36 24 	lds	r24, 0x2436
     b24:	90 91 37 24 	lds	r25, 0x2437
     b28:	01 97       	sbiw	r24, 0x01	; 1
     b2a:	90 93 37 24 	sts	0x2437, r25
     b2e:	80 93 36 24 	sts	0x2436, r24
     b32:	09 c0       	rjmp	.+18     	; 0xb46 <__vector_26+0x2bc>
	}
	else
	{
		elevation += 1;
     b34:	80 91 36 24 	lds	r24, 0x2436
     b38:	90 91 37 24 	lds	r25, 0x2437
     b3c:	01 96       	adiw	r24, 0x01	; 1
     b3e:	90 93 37 24 	sts	0x2437, r25
     b42:	80 93 36 24 	sts	0x2436, r24
	}
	if(elevation < 1)
     b46:	80 91 36 24 	lds	r24, 0x2436
     b4a:	90 91 37 24 	lds	r25, 0x2437
     b4e:	18 16       	cp	r1, r24
     b50:	19 06       	cpc	r1, r25
     b52:	3c f0       	brlt	.+14     	; 0xb62 <__vector_26+0x2d8>
	elevation = 1;
     b54:	81 e0       	ldi	r24, 0x01	; 1
     b56:	90 e0       	ldi	r25, 0x00	; 0
     b58:	90 93 37 24 	sts	0x2437, r25
     b5c:	80 93 36 24 	sts	0x2436, r24
     b60:	3a c0       	rjmp	.+116    	; 0xbd6 <__vector_26+0x34c>
	else if(elevation > 7) // 7 niver?!
     b62:	08 97       	sbiw	r24, 0x08	; 8
     b64:	c4 f1       	brlt	.+112    	; 0xbd6 <__vector_26+0x34c>
	elevation = 7;
     b66:	87 e0       	ldi	r24, 0x07	; 7
     b68:	90 e0       	ldi	r25, 0x00	; 0
     b6a:	90 93 37 24 	sts	0x2437, r25
     b6e:	80 93 36 24 	sts	0x2436, r24
     b72:	31 c0       	rjmp	.+98     	; 0xbd6 <__vector_26+0x34c>
							get_elevation_from_bus();
							break;
						}
						case(I_SETTINGS):
						{
							get_control_settings_from_bus();
     b74:	0a dc       	rcall	.-2028   	; 0x38a <get_control_settings_from_bus>
							break;
     b76:	2f c0       	rjmp	.+94     	; 0xbd6 <__vector_26+0x34c>
						}
						case(I_AUTONOM):
						{
							get_autonom_settings_from_bus();
     b78:	19 dc       	rcall	.-1998   	; 0x3ac <get_autonom_settings_from_bus>
							break;
     b7a:	2d c0       	rjmp	.+90     	; 0xbd6 <__vector_26+0x34c>
						}
					}
				}
			}
			else if (CONTROL == DATA_GENERAL)
     b7c:	80 91 b9 00 	lds	r24, 0x00B9
     b80:	88 7f       	andi	r24, 0xF8	; 248
     b82:	80 39       	cpi	r24, 0x90	; 144
     b84:	11 f4       	brne	.+4      	; 0xb8a <__vector_26+0x300>
			{
				get_sensor_from_bus();
     b86:	b3 db       	rcall	.-2202   	; 0x2ee <get_sensor_from_bus>
     b88:	26 c0       	rjmp	.+76     	; 0xbd6 <__vector_26+0x34c>
			}
			else if (CONTROL == STOP)
     b8a:	80 91 b9 00 	lds	r24, 0x00B9
     b8e:	88 7f       	andi	r24, 0xF8	; 248
     b90:	80 3a       	cpi	r24, 0xA0	; 160
     b92:	09 f5       	brne	.+66     	; 0xbd6 <__vector_26+0x34c>
			{
				stop_twi();
     b94:	91 db       	rcall	.-2270   	; 0x2b8 <stop_twi>
				switch(currentInstruction)
     b96:	80 91 3c 24 	lds	r24, 0x243C
     b9a:	90 91 3d 24 	lds	r25, 0x243D
     b9e:	81 30       	cpi	r24, 0x01	; 1
     ba0:	91 05       	cpc	r25, r1
     ba2:	91 f0       	breq	.+36     	; 0xbc8 <__vector_26+0x33e>
     ba4:	1c f4       	brge	.+6      	; 0xbac <__vector_26+0x322>
     ba6:	89 2b       	or	r24, r25
     ba8:	39 f0       	breq	.+14     	; 0xbb8 <__vector_26+0x32e>
     baa:	15 c0       	rjmp	.+42     	; 0xbd6 <__vector_26+0x34c>
     bac:	84 30       	cpi	r24, 0x04	; 4
     bae:	91 05       	cpc	r25, r1
     bb0:	39 f0       	breq	.+14     	; 0xbc0 <__vector_26+0x336>
     bb2:	05 97       	sbiw	r24, 0x05	; 5
     bb4:	81 f4       	brne	.+32     	; 0xbd6 <__vector_26+0x34c>
     bb6:	0c c0       	rjmp	.+24     	; 0xbd0 <__vector_26+0x346>
				{
					case(I_COMMAND):
					{
						commandFlag_ = 1;
     bb8:	81 e0       	ldi	r24, 0x01	; 1
     bba:	80 93 1c 23 	sts	0x231C, r24
						break;
     bbe:	0b c0       	rjmp	.+22     	; 0xbd6 <__vector_26+0x34c>
					}
					case(I_ELEVATION):
					{
						elevationFlag_ = 1;
     bc0:	81 e0       	ldi	r24, 0x01	; 1
     bc2:	80 93 19 23 	sts	0x2319, r24
						break;
     bc6:	07 c0       	rjmp	.+14     	; 0xbd6 <__vector_26+0x34c>
					}
					case(I_SETTINGS):
					{
						controlSettingsFlag_ = 1;
     bc8:	81 e0       	ldi	r24, 0x01	; 1
     bca:	80 93 1b 23 	sts	0x231B, r24
						break;
     bce:	03 c0       	rjmp	.+6      	; 0xbd6 <__vector_26+0x34c>
					}
					case(I_AUTONOM):
					{
						autonomSettingsFlag_ = 1;
     bd0:	81 e0       	ldi	r24, 0x01	; 1
     bd2:	80 93 1a 23 	sts	0x231A, r24
						break;
					}
				}
			}
			reset_TWI();
     bd6:	85 db       	rcall	.-2294   	; 0x2e2 <reset_TWI>
			break;
		}
	}
     bd8:	ff 91       	pop	r31
     bda:	ef 91       	pop	r30
     bdc:	df 91       	pop	r29
     bde:	cf 91       	pop	r28
     be0:	bf 91       	pop	r27
     be2:	af 91       	pop	r26
     be4:	9f 91       	pop	r25
     be6:	8f 91       	pop	r24
     be8:	7f 91       	pop	r23
     bea:	6f 91       	pop	r22
     bec:	5f 91       	pop	r21
     bee:	4f 91       	pop	r20
     bf0:	3f 91       	pop	r19
     bf2:	2f 91       	pop	r18
     bf4:	0f 90       	pop	r0
     bf6:	0b be       	out	0x3b, r0	; 59
     bf8:	0f 90       	pop	r0
     bfa:	0f be       	out	0x3f, r0	; 63
     bfc:	0f 90       	pop	r0
     bfe:	1f 90       	pop	r1
     c00:	18 95       	reti

00000c02 <USART_init>:
{
	for(int i = 0; i < gRxBuffer[1]; i++)
	{
		gTxPayload[i] = gRxBuffer[i+2];
	}
	USART_send_packet(gRxBuffer[0], gRxBuffer[1]);
     c02:	10 92 c5 00 	sts	0x00C5, r1
     c06:	89 e0       	ldi	r24, 0x09	; 9
     c08:	80 93 c4 00 	sts	0x00C4, r24
     c0c:	88 e9       	ldi	r24, 0x98	; 152
     c0e:	80 93 c1 00 	sts	0x00C1, r24
     c12:	86 e0       	ldi	r24, 0x06	; 6
     c14:	80 93 c2 00 	sts	0x00C2, r24
     c18:	08 95       	ret

00000c1a <USART_check_tx_ready>:
     c1a:	80 91 c0 00 	lds	r24, 0x00C0
     c1e:	80 72       	andi	r24, 0x20	; 32
     c20:	08 95       	ret

00000c22 <USART_write_byte>:
     c22:	cf 93       	push	r28
     c24:	c8 2f       	mov	r28, r24
     c26:	f9 df       	rcall	.-14     	; 0xc1a <USART_check_tx_ready>
     c28:	88 23       	and	r24, r24
     c2a:	e9 f3       	breq	.-6      	; 0xc26 <USART_write_byte+0x4>
     c2c:	c0 93 c6 00 	sts	0x00C6, r28
     c30:	cf 91       	pop	r28
     c32:	08 95       	ret

00000c34 <USART_crc16>:
     c34:	cf 92       	push	r12
     c36:	df 92       	push	r13
     c38:	ef 92       	push	r14
     c3a:	ff 92       	push	r15
     c3c:	0f 93       	push	r16
     c3e:	1f 93       	push	r17
     c40:	cf 93       	push	r28
     c42:	df 93       	push	r29
     c44:	66 23       	and	r22, r22
     c46:	09 f4       	brne	.+2      	; 0xc4a <USART_crc16+0x16>
     c48:	3e c0       	rjmp	.+124    	; 0xcc6 <USART_crc16+0x92>
     c4a:	06 2f       	mov	r16, r22
     c4c:	10 e0       	ldi	r17, 0x00	; 0
     c4e:	4f ef       	ldi	r20, 0xFF	; 255
     c50:	5f ef       	ldi	r21, 0xFF	; 255
     c52:	ee ef       	ldi	r30, 0xFE	; 254
     c54:	ff ef       	ldi	r31, 0xFF	; 255
     c56:	c6 2e       	mov	r12, r22
     c58:	d1 2c       	mov	r13, r1
     c5a:	e8 2e       	mov	r14, r24
     c5c:	f1 2c       	mov	r15, r1
     c5e:	c8 e0       	ldi	r28, 0x08	; 8
     c60:	d0 e0       	ldi	r29, 0x00	; 0
     c62:	ee 3f       	cpi	r30, 0xFE	; 254
     c64:	6f ef       	ldi	r22, 0xFF	; 255
     c66:	f6 07       	cpc	r31, r22
     c68:	19 f4       	brne	.+6      	; 0xc70 <USART_crc16+0x3c>
     c6a:	8e 2d       	mov	r24, r14
     c6c:	9f 2d       	mov	r25, r15
     c6e:	30 c0       	rjmp	.+96     	; 0xcd0 <USART_crc16+0x9c>
     c70:	ef 3f       	cpi	r30, 0xFF	; 255
     c72:	8f ef       	ldi	r24, 0xFF	; 255
     c74:	f8 07       	cpc	r31, r24
     c76:	19 f4       	brne	.+6      	; 0xc7e <USART_crc16+0x4a>
     c78:	8c 2d       	mov	r24, r12
     c7a:	9d 2d       	mov	r25, r13
     c7c:	29 c0       	rjmp	.+82     	; 0xcd0 <USART_crc16+0x9c>
     c7e:	df 01       	movw	r26, r30
     c80:	ab 59       	subi	r26, 0x9B	; 155
     c82:	b9 4d       	sbci	r27, 0xD9	; 217
     c84:	8c 91       	ld	r24, X
     c86:	90 e0       	ldi	r25, 0x00	; 0
     c88:	23 c0       	rjmp	.+70     	; 0xcd0 <USART_crc16+0x9c>
     c8a:	ba 01       	movw	r22, r20
     c8c:	68 27       	eor	r22, r24
     c8e:	79 27       	eor	r23, r25
     c90:	60 ff       	sbrs	r22, 0
     c92:	07 c0       	rjmp	.+14     	; 0xca2 <USART_crc16+0x6e>
     c94:	56 95       	lsr	r21
     c96:	47 95       	ror	r20
     c98:	68 e0       	ldi	r22, 0x08	; 8
     c9a:	46 27       	eor	r20, r22
     c9c:	64 e8       	ldi	r22, 0x84	; 132
     c9e:	56 27       	eor	r21, r22
     ca0:	02 c0       	rjmp	.+4      	; 0xca6 <USART_crc16+0x72>
     ca2:	56 95       	lsr	r21
     ca4:	47 95       	ror	r20
     ca6:	96 95       	lsr	r25
     ca8:	87 95       	ror	r24
     caa:	21 50       	subi	r18, 0x01	; 1
     cac:	31 09       	sbc	r19, r1
     cae:	69 f7       	brne	.-38     	; 0xc8a <USART_crc16+0x56>
     cb0:	31 96       	adiw	r30, 0x01	; 1
     cb2:	e0 17       	cp	r30, r16
     cb4:	f1 07       	cpc	r31, r17
     cb6:	a9 f6       	brne	.-86     	; 0xc62 <USART_crc16+0x2e>
     cb8:	9a 01       	movw	r18, r20
     cba:	20 95       	com	r18
     cbc:	30 95       	com	r19
     cbe:	32 27       	eor	r19, r18
     cc0:	23 27       	eor	r18, r19
     cc2:	32 27       	eor	r19, r18
     cc4:	02 c0       	rjmp	.+4      	; 0xcca <USART_crc16+0x96>
     cc6:	20 e0       	ldi	r18, 0x00	; 0
     cc8:	30 e0       	ldi	r19, 0x00	; 0
     cca:	82 2f       	mov	r24, r18
     ccc:	93 2f       	mov	r25, r19
     cce:	02 c0       	rjmp	.+4      	; 0xcd4 <USART_crc16+0xa0>
     cd0:	9e 01       	movw	r18, r28
     cd2:	db cf       	rjmp	.-74     	; 0xc8a <USART_crc16+0x56>
     cd4:	df 91       	pop	r29
     cd6:	cf 91       	pop	r28
     cd8:	1f 91       	pop	r17
     cda:	0f 91       	pop	r16
     cdc:	ff 90       	pop	r15
     cde:	ef 90       	pop	r14
     ce0:	df 90       	pop	r13
     ce2:	cf 90       	pop	r12
     ce4:	08 95       	ret

00000ce6 <USART_send_packet>:
     ce6:	0f 93       	push	r16
     ce8:	1f 93       	push	r17
     cea:	cf 93       	push	r28
     cec:	df 93       	push	r29
     cee:	9e e7       	ldi	r25, 0x7E	; 126
     cf0:	90 93 64 27 	sts	0x2764, r25
     cf4:	80 93 65 27 	sts	0x2765, r24
     cf8:	60 93 66 27 	sts	0x2766, r22
     cfc:	26 2f       	mov	r18, r22
     cfe:	30 e0       	ldi	r19, 0x00	; 0
     d00:	12 16       	cp	r1, r18
     d02:	13 06       	cpc	r1, r19
     d04:	4c f5       	brge	.+82     	; 0xd58 <USART_send_packet+0x72>
     d06:	e5 e6       	ldi	r30, 0x65	; 101
     d08:	f6 e2       	ldi	r31, 0x26	; 38
     d0a:	03 e0       	ldi	r16, 0x03	; 3
     d0c:	10 e0       	ldi	r17, 0x00	; 0
     d0e:	c0 e0       	ldi	r28, 0x00	; 0
     d10:	d0 e0       	ldi	r29, 0x00	; 0
     d12:	7d e7       	ldi	r23, 0x7D	; 125
     d14:	50 e2       	ldi	r21, 0x20	; 32
     d16:	90 81       	ld	r25, Z
     d18:	49 2f       	mov	r20, r25
     d1a:	4d 57       	subi	r20, 0x7D	; 125
     d1c:	42 30       	cpi	r20, 0x02	; 2
     d1e:	80 f4       	brcc	.+32     	; 0xd40 <USART_send_packet+0x5a>
     d20:	d8 01       	movw	r26, r16
     d22:	ac 59       	subi	r26, 0x9C	; 156
     d24:	b8 4d       	sbci	r27, 0xD8	; 216
     d26:	ac 0f       	add	r26, r28
     d28:	bd 1f       	adc	r27, r29
     d2a:	7c 93       	st	X, r23
     d2c:	0f 5f       	subi	r16, 0xFF	; 255
     d2e:	1f 4f       	sbci	r17, 0xFF	; 255
     d30:	d8 01       	movw	r26, r16
     d32:	ac 59       	subi	r26, 0x9C	; 156
     d34:	b8 4d       	sbci	r27, 0xD8	; 216
     d36:	ac 0f       	add	r26, r28
     d38:	bd 1f       	adc	r27, r29
     d3a:	95 27       	eor	r25, r21
     d3c:	9c 93       	st	X, r25
     d3e:	06 c0       	rjmp	.+12     	; 0xd4c <USART_send_packet+0x66>
     d40:	d8 01       	movw	r26, r16
     d42:	ac 59       	subi	r26, 0x9C	; 156
     d44:	b8 4d       	sbci	r27, 0xD8	; 216
     d46:	ac 0f       	add	r26, r28
     d48:	bd 1f       	adc	r27, r29
     d4a:	9c 93       	st	X, r25
     d4c:	21 96       	adiw	r28, 0x01	; 1
     d4e:	31 96       	adiw	r30, 0x01	; 1
     d50:	c2 17       	cp	r28, r18
     d52:	d3 07       	cpc	r29, r19
     d54:	01 f7       	brne	.-64     	; 0xd16 <USART_send_packet+0x30>
     d56:	04 c0       	rjmp	.+8      	; 0xd60 <USART_send_packet+0x7a>
     d58:	03 e0       	ldi	r16, 0x03	; 3
     d5a:	10 e0       	ldi	r17, 0x00	; 0
     d5c:	c0 e0       	ldi	r28, 0x00	; 0
     d5e:	d0 e0       	ldi	r29, 0x00	; 0
     d60:	69 df       	rcall	.-302    	; 0xc34 <USART_crc16>
     d62:	f8 01       	movw	r30, r16
     d64:	ec 59       	subi	r30, 0x9C	; 156
     d66:	f8 4d       	sbci	r31, 0xD8	; 216
     d68:	ec 0f       	add	r30, r28
     d6a:	fd 1f       	adc	r31, r29
     d6c:	90 83       	st	Z, r25
     d6e:	81 83       	std	Z+1, r24	; 0x01
     d70:	22 96       	adiw	r28, 0x02	; 2
     d72:	0c 0f       	add	r16, r28
     d74:	1d 1f       	adc	r17, r29
     d76:	f8 01       	movw	r30, r16
     d78:	ec 59       	subi	r30, 0x9C	; 156
     d7a:	f8 4d       	sbci	r31, 0xD8	; 216
     d7c:	8e e7       	ldi	r24, 0x7E	; 126
     d7e:	80 83       	st	Z, r24
     d80:	c8 01       	movw	r24, r16
     d82:	01 96       	adiw	r24, 0x01	; 1
     d84:	18 16       	cp	r1, r24
     d86:	19 06       	cpc	r1, r25
     d88:	4c f4       	brge	.+18     	; 0xd9c <USART_send_packet+0xb6>
     d8a:	c4 e6       	ldi	r28, 0x64	; 100
     d8c:	d7 e2       	ldi	r29, 0x27	; 39
     d8e:	0b 59       	subi	r16, 0x9B	; 155
     d90:	18 4d       	sbci	r17, 0xD8	; 216
     d92:	89 91       	ld	r24, Y+
     d94:	46 df       	rcall	.-372    	; 0xc22 <USART_write_byte>
     d96:	c0 17       	cp	r28, r16
     d98:	d1 07       	cpc	r29, r17
     d9a:	d9 f7       	brne	.-10     	; 0xd92 <USART_send_packet+0xac>
     d9c:	df 91       	pop	r29
     d9e:	cf 91       	pop	r28
     da0:	1f 91       	pop	r17
     da2:	0f 91       	pop	r16
     da4:	08 95       	ret

00000da6 <USART_send_message>:
     da6:	cf 93       	push	r28
     da8:	df 93       	push	r29
     daa:	c8 2f       	mov	r28, r24
     dac:	d9 2f       	mov	r29, r25
     dae:	45 e6       	ldi	r20, 0x65	; 101
     db0:	56 e2       	ldi	r21, 0x26	; 38
     db2:	20 e0       	ldi	r18, 0x00	; 0
     db4:	30 e0       	ldi	r19, 0x00	; 0
     db6:	06 c0       	rjmp	.+12     	; 0xdc4 <USART_send_message+0x1e>
     db8:	69 91       	ld	r22, Y+
     dba:	fa 01       	movw	r30, r20
     dbc:	61 93       	st	Z+, r22
     dbe:	af 01       	movw	r20, r30
     dc0:	2f 5f       	subi	r18, 0xFF	; 255
     dc2:	3f 4f       	sbci	r19, 0xFF	; 255
     dc4:	e8 2f       	mov	r30, r24
     dc6:	f9 2f       	mov	r31, r25
     dc8:	df 01       	movw	r26, r30
     dca:	0d 90       	ld	r0, X+
     dcc:	00 20       	and	r0, r0
     dce:	e9 f7       	brne	.-6      	; 0xdca <USART_send_message+0x24>
     dd0:	11 97       	sbiw	r26, 0x01	; 1
     dd2:	bd 01       	movw	r22, r26
     dd4:	6e 1b       	sub	r22, r30
     dd6:	7f 0b       	sbc	r23, r31
     dd8:	26 17       	cp	r18, r22
     dda:	37 07       	cpc	r19, r23
     ddc:	68 f3       	brcs	.-38     	; 0xdb8 <USART_send_message+0x12>
     dde:	8d e4       	ldi	r24, 0x4D	; 77
     de0:	82 df       	rcall	.-252    	; 0xce6 <USART_send_packet>
     de2:	df 91       	pop	r29
     de4:	cf 91       	pop	r28
     de6:	08 95       	ret

00000de8 <USART_send_value>:
     de8:	a8 2f       	mov	r26, r24
     dea:	b9 2f       	mov	r27, r25
     dec:	e5 e6       	ldi	r30, 0x65	; 101
     dee:	f6 e2       	ldi	r31, 0x26	; 38
     df0:	89 e6       	ldi	r24, 0x69	; 105
     df2:	96 e2       	ldi	r25, 0x26	; 38
     df4:	2d 91       	ld	r18, X+
     df6:	21 93       	st	Z+, r18
     df8:	e8 17       	cp	r30, r24
     dfa:	f9 07       	cpc	r31, r25
     dfc:	d9 f7       	brne	.-10     	; 0xdf4 <USART_send_value+0xc>
     dfe:	64 e0       	ldi	r22, 0x04	; 4
     e00:	86 e5       	ldi	r24, 0x56	; 86
     e02:	71 cf       	rjmp	.-286    	; 0xce6 <USART_send_packet>

00000e04 <USART_send_sensors>:
     e04:	0f 93       	push	r16
     e06:	1f 93       	push	r17
     e08:	cf 93       	push	r28
     e0a:	df 93       	push	r29
     e0c:	06 e6       	ldi	r16, 0x66	; 102
     e0e:	16 e2       	ldi	r17, 0x26	; 38
     e10:	c0 e0       	ldi	r28, 0x00	; 0
     e12:	d0 e0       	ldi	r29, 0x00	; 0
     e14:	ce 01       	movw	r24, r28
     e16:	79 dc       	rcall	.-1806   	; 0x70a <TWI_get_sensor>
     e18:	f8 01       	movw	r30, r16
     e1a:	31 97       	sbiw	r30, 0x01	; 1
     e1c:	90 83       	st	Z, r25
     e1e:	ce 01       	movw	r24, r28
     e20:	74 dc       	rcall	.-1816   	; 0x70a <TWI_get_sensor>
     e22:	f8 01       	movw	r30, r16
     e24:	80 83       	st	Z, r24
     e26:	21 96       	adiw	r28, 0x01	; 1
     e28:	0e 5f       	subi	r16, 0xFE	; 254
     e2a:	1f 4f       	sbci	r17, 0xFF	; 255
     e2c:	c8 30       	cpi	r28, 0x08	; 8
     e2e:	d1 05       	cpc	r29, r1
     e30:	89 f7       	brne	.-30     	; 0xe14 <USART_send_sensors+0x10>
     e32:	60 e1       	ldi	r22, 0x10	; 16
     e34:	83 e5       	ldi	r24, 0x53	; 83
     e36:	57 df       	rcall	.-338    	; 0xce6 <USART_send_packet>
     e38:	df 91       	pop	r29
     e3a:	cf 91       	pop	r28
     e3c:	1f 91       	pop	r17
     e3e:	0f 91       	pop	r16
     e40:	08 95       	ret

00000e42 <USART_send_autonom>:
     e42:	80 93 65 26 	sts	0x2665, r24
     e46:	61 e0       	ldi	r22, 0x01	; 1
     e48:	81 e4       	ldi	r24, 0x41	; 65
     e4a:	4d cf       	rjmp	.-358    	; 0xce6 <USART_send_packet>

00000e4c <USART_decode_message_rx_fifo>:
     e4c:	8f 92       	push	r8
     e4e:	9f 92       	push	r9
     e50:	af 92       	push	r10
     e52:	bf 92       	push	r11
     e54:	cf 92       	push	r12
     e56:	df 92       	push	r13
     e58:	ef 92       	push	r14
     e5a:	ff 92       	push	r15
     e5c:	0f 93       	push	r16
     e5e:	1f 93       	push	r17
     e60:	cf 93       	push	r28
     e62:	df 93       	push	r29
     e64:	cd b7       	in	r28, 0x3d	; 61
     e66:	de b7       	in	r29, 0x3e	; 62
     e68:	ad b6       	in	r10, 0x3d	; 61
     e6a:	be b6       	in	r11, 0x3e	; 62
     e6c:	60 e0       	ldi	r22, 0x00	; 0
     e6e:	70 e0       	ldi	r23, 0x00	; 0
     e70:	80 91 09 11 	lds	r24, 0x1109
     e74:	90 91 0a 11 	lds	r25, 0x110A
     e78:	97 d9       	rcall	.-3282   	; 0x1a8 <FifoRead>
     e7a:	88 23       	and	r24, r24
     e7c:	29 f0       	breq	.+10     	; 0xe88 <USART_decode_message_rx_fifo+0x3c>
     e7e:	81 e1       	ldi	r24, 0x11	; 17
     e80:	91 e2       	ldi	r25, 0x21	; 33
     e82:	91 df       	rcall	.-222    	; 0xda6 <USART_send_message>
     e84:	81 e0       	ldi	r24, 0x01	; 1
     e86:	42 c0       	rjmp	.+132    	; 0xf0c <USART_decode_message_rx_fifo+0xc0>
     e88:	c0 90 00 00 	lds	r12, 0x0000
     e8c:	d1 2c       	mov	r13, r1
     e8e:	96 01       	movw	r18, r12
     e90:	21 50       	subi	r18, 0x01	; 1
     e92:	31 09       	sbc	r19, r1
     e94:	81 e0       	ldi	r24, 0x01	; 1
     e96:	90 e0       	ldi	r25, 0x00	; 0
     e98:	c1 14       	cp	r12, r1
     e9a:	d1 04       	cpc	r13, r1
     e9c:	11 f0       	breq	.+4      	; 0xea2 <USART_decode_message_rx_fifo+0x56>
     e9e:	80 e0       	ldi	r24, 0x00	; 0
     ea0:	90 e0       	ldi	r25, 0x00	; 0
     ea2:	82 0f       	add	r24, r18
     ea4:	93 1f       	adc	r25, r19
     ea6:	2d b7       	in	r18, 0x3d	; 61
     ea8:	3e b7       	in	r19, 0x3e	; 62
     eaa:	28 1b       	sub	r18, r24
     eac:	39 0b       	sbc	r19, r25
     eae:	0f b6       	in	r0, 0x3f	; 63
     eb0:	f8 94       	cli
     eb2:	3e bf       	out	0x3e, r19	; 62
     eb4:	0f be       	out	0x3f, r0	; 63
     eb6:	2d bf       	out	0x3d, r18	; 61
     eb8:	8d b7       	in	r24, 0x3d	; 61
     eba:	9e b7       	in	r25, 0x3e	; 62
     ebc:	01 96       	adiw	r24, 0x01	; 1
     ebe:	88 2e       	mov	r8, r24
     ec0:	99 2e       	mov	r9, r25
     ec2:	1c 14       	cp	r1, r12
     ec4:	1d 04       	cpc	r1, r13
     ec6:	e4 f4       	brge	.+56     	; 0xf00 <USART_decode_message_rx_fifo+0xb4>
     ec8:	e8 2e       	mov	r14, r24
     eca:	f9 2e       	mov	r15, r25
     ecc:	00 e0       	ldi	r16, 0x00	; 0
     ece:	10 e0       	ldi	r17, 0x00	; 0
     ed0:	60 e0       	ldi	r22, 0x00	; 0
     ed2:	70 e0       	ldi	r23, 0x00	; 0
     ed4:	80 91 09 11 	lds	r24, 0x1109
     ed8:	90 91 0a 11 	lds	r25, 0x110A
     edc:	65 d9       	rcall	.-3382   	; 0x1a8 <FifoRead>
     ede:	88 23       	and	r24, r24
     ee0:	29 f0       	breq	.+10     	; 0xeec <USART_decode_message_rx_fifo+0xa0>
     ee2:	83 e3       	ldi	r24, 0x33	; 51
     ee4:	91 e2       	ldi	r25, 0x21	; 33
     ee6:	5f df       	rcall	.-322    	; 0xda6 <USART_send_message>
     ee8:	81 e0       	ldi	r24, 0x01	; 1
     eea:	10 c0       	rjmp	.+32     	; 0xf0c <USART_decode_message_rx_fifo+0xc0>
     eec:	80 91 00 00 	lds	r24, 0x0000
     ef0:	f7 01       	movw	r30, r14
     ef2:	81 93       	st	Z+, r24
     ef4:	7f 01       	movw	r14, r30
     ef6:	0f 5f       	subi	r16, 0xFF	; 255
     ef8:	1f 4f       	sbci	r17, 0xFF	; 255
     efa:	0c 15       	cp	r16, r12
     efc:	1d 05       	cpc	r17, r13
     efe:	44 f3       	brlt	.-48     	; 0xed0 <USART_decode_message_rx_fifo+0x84>
     f00:	a6 01       	movw	r20, r12
     f02:	68 2d       	mov	r22, r8
     f04:	79 2d       	mov	r23, r9
     f06:	80 e4       	ldi	r24, 0x40	; 64
     f08:	91 db       	rcall	.-2270   	; 0x62c <TWI_send_string_fixed_length>
     f0a:	80 e0       	ldi	r24, 0x00	; 0
     f0c:	0f b6       	in	r0, 0x3f	; 63
     f0e:	f8 94       	cli
     f10:	be be       	out	0x3e, r11	; 62
     f12:	0f be       	out	0x3f, r0	; 63
     f14:	ad be       	out	0x3d, r10	; 61
     f16:	df 91       	pop	r29
     f18:	cf 91       	pop	r28
     f1a:	1f 91       	pop	r17
     f1c:	0f 91       	pop	r16
     f1e:	ff 90       	pop	r15
     f20:	ef 90       	pop	r14
     f22:	df 90       	pop	r13
     f24:	cf 90       	pop	r12
     f26:	bf 90       	pop	r11
     f28:	af 90       	pop	r10
     f2a:	9f 90       	pop	r9
     f2c:	8f 90       	pop	r8
     f2e:	08 95       	ret

00000f30 <USART_decode_command_rx_fifo>:
     f30:	cf 93       	push	r28
     f32:	df 93       	push	r29
     f34:	60 e0       	ldi	r22, 0x00	; 0
     f36:	70 e0       	ldi	r23, 0x00	; 0
     f38:	80 91 09 11 	lds	r24, 0x1109
     f3c:	90 91 0a 11 	lds	r25, 0x110A
     f40:	33 d9       	rcall	.-3482   	; 0x1a8 <FifoRead>
     f42:	88 23       	and	r24, r24
     f44:	29 f0       	breq	.+10     	; 0xf50 <USART_decode_command_rx_fifo+0x20>
     f46:	86 e5       	ldi	r24, 0x56	; 86
     f48:	91 e2       	ldi	r25, 0x21	; 33
     f4a:	2d df       	rcall	.-422    	; 0xda6 <USART_send_message>
     f4c:	81 e0       	ldi	r24, 0x01	; 1
     f4e:	42 c0       	rjmp	.+132    	; 0xfd4 <USART_decode_command_rx_fifo+0xa4>
     f50:	80 91 00 00 	lds	r24, 0x0000
     f54:	83 30       	cpi	r24, 0x03	; 3
     f56:	09 f0       	breq	.+2      	; 0xf5a <USART_decode_command_rx_fifo+0x2a>
     f58:	39 c0       	rjmp	.+114    	; 0xfcc <USART_decode_command_rx_fifo+0x9c>
     f5a:	60 e0       	ldi	r22, 0x00	; 0
     f5c:	70 e0       	ldi	r23, 0x00	; 0
     f5e:	80 91 09 11 	lds	r24, 0x1109
     f62:	90 91 0a 11 	lds	r25, 0x110A
     f66:	20 d9       	rcall	.-3520   	; 0x1a8 <FifoRead>
     f68:	88 23       	and	r24, r24
     f6a:	29 f0       	breq	.+10     	; 0xf76 <USART_decode_command_rx_fifo+0x46>
     f6c:	88 e7       	ldi	r24, 0x78	; 120
     f6e:	91 e2       	ldi	r25, 0x21	; 33
     f70:	1a df       	rcall	.-460    	; 0xda6 <USART_send_message>
     f72:	81 e0       	ldi	r24, 0x01	; 1
     f74:	2f c0       	rjmp	.+94     	; 0xfd4 <USART_decode_command_rx_fifo+0xa4>
     f76:	c0 91 00 00 	lds	r28, 0x0000
     f7a:	60 e0       	ldi	r22, 0x00	; 0
     f7c:	70 e0       	ldi	r23, 0x00	; 0
     f7e:	80 91 09 11 	lds	r24, 0x1109
     f82:	90 91 0a 11 	lds	r25, 0x110A
     f86:	10 d9       	rcall	.-3552   	; 0x1a8 <FifoRead>
     f88:	88 23       	and	r24, r24
     f8a:	29 f0       	breq	.+10     	; 0xf96 <USART_decode_command_rx_fifo+0x66>
     f8c:	80 ea       	ldi	r24, 0xA0	; 160
     f8e:	91 e2       	ldi	r25, 0x21	; 33
     f90:	0a df       	rcall	.-492    	; 0xda6 <USART_send_message>
     f92:	81 e0       	ldi	r24, 0x01	; 1
     f94:	1f c0       	rjmp	.+62     	; 0xfd4 <USART_decode_command_rx_fifo+0xa4>
     f96:	d0 91 00 00 	lds	r29, 0x0000
     f9a:	60 e0       	ldi	r22, 0x00	; 0
     f9c:	70 e0       	ldi	r23, 0x00	; 0
     f9e:	80 91 09 11 	lds	r24, 0x1109
     fa2:	90 91 0a 11 	lds	r25, 0x110A
     fa6:	00 d9       	rcall	.-3584   	; 0x1a8 <FifoRead>
     fa8:	88 23       	and	r24, r24
     faa:	29 f0       	breq	.+10     	; 0xfb6 <USART_decode_command_rx_fifo+0x86>
     fac:	87 ec       	ldi	r24, 0xC7	; 199
     fae:	91 e2       	ldi	r25, 0x21	; 33
     fb0:	fa de       	rcall	.-524    	; 0xda6 <USART_send_message>
     fb2:	81 e0       	ldi	r24, 0x01	; 1
     fb4:	0f c0       	rjmp	.+30     	; 0xfd4 <USART_decode_command_rx_fifo+0xa4>
     fb6:	40 91 00 00 	lds	r20, 0x0000
     fba:	92 b1       	in	r25, 0x02	; 2
     fbc:	81 e0       	ldi	r24, 0x01	; 1
     fbe:	89 27       	eor	r24, r25
     fc0:	82 b9       	out	0x02, r24	; 2
     fc2:	6d 2f       	mov	r22, r29
     fc4:	8c 2f       	mov	r24, r28
     fc6:	bc da       	rcall	.-2696   	; 0x540 <TWI_send_command>
     fc8:	80 e0       	ldi	r24, 0x00	; 0
     fca:	04 c0       	rjmp	.+8      	; 0xfd4 <USART_decode_command_rx_fifo+0xa4>
     fcc:	8b ee       	ldi	r24, 0xEB	; 235
     fce:	91 e2       	ldi	r25, 0x21	; 33
     fd0:	ea de       	rcall	.-556    	; 0xda6 <USART_send_message>
     fd2:	81 e0       	ldi	r24, 0x01	; 1
     fd4:	df 91       	pop	r29
     fd6:	cf 91       	pop	r28
     fd8:	08 95       	ret

00000fda <USART_decode_parameters_rx_fifo>:
     fda:	df 92       	push	r13
     fdc:	ef 92       	push	r14
     fde:	ff 92       	push	r15
     fe0:	0f 93       	push	r16
     fe2:	1f 93       	push	r17
     fe4:	cf 93       	push	r28
     fe6:	df 93       	push	r29
     fe8:	cd b7       	in	r28, 0x3d	; 61
     fea:	de b7       	in	r29, 0x3e	; 62
     fec:	cf 5f       	subi	r28, 0xFF	; 255
     fee:	d1 09       	sbc	r29, r1
     ff0:	0f b6       	in	r0, 0x3f	; 63
     ff2:	f8 94       	cli
     ff4:	de bf       	out	0x3e, r29	; 62
     ff6:	0f be       	out	0x3f, r0	; 63
     ff8:	cd bf       	out	0x3d, r28	; 61
     ffa:	60 e0       	ldi	r22, 0x00	; 0
     ffc:	70 e0       	ldi	r23, 0x00	; 0
     ffe:	80 91 09 11 	lds	r24, 0x1109
    1002:	90 91 0a 11 	lds	r25, 0x110A
    1006:	d0 d8       	rcall	.-3680   	; 0x1a8 <FifoRead>
    1008:	88 23       	and	r24, r24
    100a:	29 f0       	breq	.+10     	; 0x1016 <USART_decode_parameters_rx_fifo+0x3c>
    100c:	82 e1       	ldi	r24, 0x12	; 18
    100e:	92 e2       	ldi	r25, 0x22	; 34
    1010:	ca de       	rcall	.-620    	; 0xda6 <USART_send_message>
    1012:	81 e0       	ldi	r24, 0x01	; 1
    1014:	47 c0       	rjmp	.+142    	; 0x10a4 <USART_decode_parameters_rx_fifo+0xca>
    1016:	d0 90 00 00 	lds	r13, 0x0000
    101a:	60 e0       	ldi	r22, 0x00	; 0
    101c:	70 e0       	ldi	r23, 0x00	; 0
    101e:	80 91 09 11 	lds	r24, 0x1109
    1022:	90 91 0a 11 	lds	r25, 0x110A
    1026:	c0 d8       	rcall	.-3712   	; 0x1a8 <FifoRead>
    1028:	88 23       	and	r24, r24
    102a:	29 f0       	breq	.+10     	; 0x1036 <USART_decode_parameters_rx_fifo+0x5c>
    102c:	87 e3       	ldi	r24, 0x37	; 55
    102e:	92 e2       	ldi	r25, 0x22	; 34
    1030:	ba de       	rcall	.-652    	; 0xda6 <USART_send_message>
    1032:	81 e0       	ldi	r24, 0x01	; 1
    1034:	37 c0       	rjmp	.+110    	; 0x10a4 <USART_decode_parameters_rx_fifo+0xca>
    1036:	80 91 00 00 	lds	r24, 0x0000
    103a:	8e 34       	cpi	r24, 0x4E	; 78
    103c:	11 f0       	breq	.+4      	; 0x1042 <USART_decode_parameters_rx_fifo+0x68>
    103e:	87 34       	cpi	r24, 0x47	; 71
    1040:	81 f5       	brne	.+96     	; 0x10a2 <USART_decode_parameters_rx_fifo+0xc8>
    1042:	89 83       	std	Y+1, r24	; 0x01
    1044:	8d 2d       	mov	r24, r13
    1046:	90 e0       	ldi	r25, 0x00	; 0
    1048:	02 97       	sbiw	r24, 0x02	; 2
    104a:	04 f1       	brlt	.+64     	; 0x108c <USART_decode_parameters_rx_fifo+0xb2>
    104c:	8e 01       	movw	r16, r28
    104e:	0e 5f       	subi	r16, 0xFE	; 254
    1050:	1f 4f       	sbci	r17, 0xFF	; 255
    1052:	ee 24       	eor	r14, r14
    1054:	e3 94       	inc	r14
    1056:	f1 2c       	mov	r15, r1
    1058:	ec 0e       	add	r14, r28
    105a:	fd 1e       	adc	r15, r29
    105c:	ed 0c       	add	r14, r13
    105e:	f1 1c       	adc	r15, r1
    1060:	60 e0       	ldi	r22, 0x00	; 0
    1062:	70 e0       	ldi	r23, 0x00	; 0
    1064:	80 91 09 11 	lds	r24, 0x1109
    1068:	90 91 0a 11 	lds	r25, 0x110A
    106c:	9d d8       	rcall	.-3782   	; 0x1a8 <FifoRead>
    106e:	88 23       	and	r24, r24
    1070:	29 f0       	breq	.+10     	; 0x107c <USART_decode_parameters_rx_fifo+0xa2>
    1072:	87 e3       	ldi	r24, 0x37	; 55
    1074:	92 e2       	ldi	r25, 0x22	; 34
    1076:	97 de       	rcall	.-722    	; 0xda6 <USART_send_message>
    1078:	81 e0       	ldi	r24, 0x01	; 1
    107a:	14 c0       	rjmp	.+40     	; 0x10a4 <USART_decode_parameters_rx_fifo+0xca>
    107c:	80 91 00 00 	lds	r24, 0x0000
    1080:	f8 01       	movw	r30, r16
    1082:	81 93       	st	Z+, r24
    1084:	8f 01       	movw	r16, r30
    1086:	ee 15       	cp	r30, r14
    1088:	ff 05       	cpc	r31, r15
    108a:	51 f7       	brne	.-44     	; 0x1060 <USART_decode_parameters_rx_fifo+0x86>
    108c:	ae 01       	movw	r20, r28
    108e:	4f 5f       	subi	r20, 0xFF	; 255
    1090:	5f 4f       	sbci	r21, 0xFF	; 255
    1092:	6d 2d       	mov	r22, r13
    1094:	80 e2       	ldi	r24, 0x20	; 32
    1096:	cb d9       	rcall	.-3178   	; 0x42e <TWI_send_parameters>
    1098:	8f 5f       	subi	r24, 0xFF	; 255
    109a:	90 e0       	ldi	r25, 0x00	; 0
    109c:	a5 de       	rcall	.-694    	; 0xde8 <USART_send_value>
    109e:	80 e0       	ldi	r24, 0x00	; 0
    10a0:	01 c0       	rjmp	.+2      	; 0x10a4 <USART_decode_parameters_rx_fifo+0xca>
    10a2:	80 e0       	ldi	r24, 0x00	; 0
    10a4:	c1 50       	subi	r28, 0x01	; 1
    10a6:	df 4f       	sbci	r29, 0xFF	; 255
    10a8:	0f b6       	in	r0, 0x3f	; 63
    10aa:	f8 94       	cli
    10ac:	de bf       	out	0x3e, r29	; 62
    10ae:	0f be       	out	0x3f, r0	; 63
    10b0:	cd bf       	out	0x3d, r28	; 61
    10b2:	df 91       	pop	r29
    10b4:	cf 91       	pop	r28
    10b6:	1f 91       	pop	r17
    10b8:	0f 91       	pop	r16
    10ba:	ff 90       	pop	r15
    10bc:	ef 90       	pop	r14
    10be:	df 90       	pop	r13
    10c0:	08 95       	ret

000010c2 <USART_decode_autonom_rx_fifo>:
    10c2:	60 e0       	ldi	r22, 0x00	; 0
    10c4:	70 e0       	ldi	r23, 0x00	; 0
    10c6:	80 91 09 11 	lds	r24, 0x1109
    10ca:	90 91 0a 11 	lds	r25, 0x110A
    10ce:	6c d8       	rcall	.-3880   	; 0x1a8 <FifoRead>
    10d0:	88 23       	and	r24, r24
    10d2:	29 f0       	breq	.+10     	; 0x10de <USART_decode_autonom_rx_fifo+0x1c>
    10d4:	80 e5       	ldi	r24, 0x50	; 80
    10d6:	92 e2       	ldi	r25, 0x22	; 34
    10d8:	66 de       	rcall	.-820    	; 0xda6 <USART_send_message>
    10da:	81 e0       	ldi	r24, 0x01	; 1
    10dc:	08 95       	ret
    10de:	80 91 00 00 	lds	r24, 0x0000
    10e2:	81 30       	cpi	r24, 0x01	; 1
    10e4:	c1 f4       	brne	.+48     	; 0x1116 <USART_decode_autonom_rx_fifo+0x54>
    10e6:	60 e0       	ldi	r22, 0x00	; 0
    10e8:	70 e0       	ldi	r23, 0x00	; 0
    10ea:	80 91 09 11 	lds	r24, 0x1109
    10ee:	90 91 0a 11 	lds	r25, 0x110A
    10f2:	5a d8       	rcall	.-3916   	; 0x1a8 <FifoRead>
    10f4:	88 23       	and	r24, r24
    10f6:	29 f0       	breq	.+10     	; 0x1102 <USART_decode_autonom_rx_fifo+0x40>
    10f8:	82 e7       	ldi	r24, 0x72	; 114
    10fa:	92 e2       	ldi	r25, 0x22	; 34
    10fc:	54 de       	rcall	.-856    	; 0xda6 <USART_send_message>
    10fe:	81 e0       	ldi	r24, 0x01	; 1
    1100:	08 95       	ret
    1102:	60 91 00 00 	lds	r22, 0x0000
    1106:	98 b1       	in	r25, 0x08	; 8
    1108:	80 e4       	ldi	r24, 0x40	; 64
    110a:	89 27       	eor	r24, r25
    110c:	88 b9       	out	0x08, r24	; 8
    110e:	80 e2       	ldi	r24, 0x20	; 32
    1110:	e6 d9       	rcall	.-3124   	; 0x4de <TWI_send_autonom_settings>
    1112:	80 e0       	ldi	r24, 0x00	; 0
    1114:	08 95       	ret
    1116:	88 e8       	ldi	r24, 0x88	; 136
    1118:	92 e2       	ldi	r25, 0x22	; 34
    111a:	45 de       	rcall	.-886    	; 0xda6 <USART_send_message>
    111c:	81 e0       	ldi	r24, 0x01	; 1
    111e:	08 95       	ret

00001120 <USART_decode_status_rx_fifo>:
    1120:	60 e0       	ldi	r22, 0x00	; 0
    1122:	70 e0       	ldi	r23, 0x00	; 0
    1124:	80 91 09 11 	lds	r24, 0x1109
    1128:	90 91 0a 11 	lds	r25, 0x110A
    112c:	3d d8       	rcall	.-3974   	; 0x1a8 <FifoRead>
    112e:	88 23       	and	r24, r24
    1130:	29 f0       	breq	.+10     	; 0x113c <USART_decode_status_rx_fifo+0x1c>
    1132:	8f ea       	ldi	r24, 0xAF	; 175
    1134:	92 e2       	ldi	r25, 0x22	; 34
    1136:	37 de       	rcall	.-914    	; 0xda6 <USART_send_message>
    1138:	81 e0       	ldi	r24, 0x01	; 1
    113a:	08 95       	ret
    113c:	80 91 00 00 	lds	r24, 0x0000
    1140:	81 30       	cpi	r24, 0x01	; 1
    1142:	a1 f4       	brne	.+40     	; 0x116c <USART_decode_status_rx_fifo+0x4c>
    1144:	60 e0       	ldi	r22, 0x00	; 0
    1146:	70 e0       	ldi	r23, 0x00	; 0
    1148:	80 91 09 11 	lds	r24, 0x1109
    114c:	90 91 0a 11 	lds	r25, 0x110A
    1150:	2b d8       	rcall	.-4010   	; 0x1a8 <FifoRead>
    1152:	88 23       	and	r24, r24
    1154:	29 f0       	breq	.+10     	; 0x1160 <USART_decode_status_rx_fifo+0x40>
    1156:	80 ed       	ldi	r24, 0xD0	; 208
    1158:	92 e2       	ldi	r25, 0x22	; 34
    115a:	25 de       	rcall	.-950    	; 0xda6 <USART_send_message>
    115c:	81 e0       	ldi	r24, 0x01	; 1
    115e:	08 95       	ret
    1160:	60 91 00 00 	lds	r22, 0x0000
    1164:	80 e2       	ldi	r24, 0x20	; 32
    1166:	a0 da       	rcall	.-2752   	; 0x6a8 <TWI_send_status_settings>
    1168:	80 e0       	ldi	r24, 0x00	; 0
    116a:	08 95       	ret
    116c:	85 ee       	ldi	r24, 0xE5	; 229
    116e:	92 e2       	ldi	r25, 0x22	; 34
    1170:	1a de       	rcall	.-972    	; 0xda6 <USART_send_message>
    1172:	81 e0       	ldi	r24, 0x01	; 1
    1174:	08 95       	ret

00001176 <USART_DecodeElevationRxFIFO>:
    1176:	60 e0       	ldi	r22, 0x00	; 0
    1178:	70 e0       	ldi	r23, 0x00	; 0
    117a:	80 91 09 11 	lds	r24, 0x1109
    117e:	90 91 0a 11 	lds	r25, 0x110A
    1182:	12 d8       	rcall	.-4060   	; 0x1a8 <FifoRead>
    1184:	81 11       	cpse	r24, r1
    1186:	16 c0       	rjmp	.+44     	; 0x11b4 <USART_DecodeElevationRxFIFO+0x3e>
    1188:	80 91 00 00 	lds	r24, 0x0000
    118c:	81 30       	cpi	r24, 0x01	; 1
    118e:	a1 f4       	brne	.+40     	; 0x11b8 <USART_DecodeElevationRxFIFO+0x42>
    1190:	60 e0       	ldi	r22, 0x00	; 0
    1192:	70 e0       	ldi	r23, 0x00	; 0
    1194:	80 91 09 11 	lds	r24, 0x1109
    1198:	90 91 0a 11 	lds	r25, 0x110A
    119c:	05 d8       	rcall	.-4086   	; 0x1a8 <FifoRead>
    119e:	81 11       	cpse	r24, r1
    11a0:	0d c0       	rjmp	.+26     	; 0x11bc <USART_DecodeElevationRxFIFO+0x46>
    11a2:	80 91 00 00 	lds	r24, 0x0000
    11a6:	22 b1       	in	r18, 0x02	; 2
    11a8:	92 e0       	ldi	r25, 0x02	; 2
    11aa:	92 27       	eor	r25, r18
    11ac:	92 b9       	out	0x02, r25	; 2
    11ae:	10 da       	rcall	.-3040   	; 0x5d0 <TWI_send_elevation>
    11b0:	80 e0       	ldi	r24, 0x00	; 0
    11b2:	08 95       	ret
    11b4:	81 e0       	ldi	r24, 0x01	; 1
    11b6:	08 95       	ret
    11b8:	81 e0       	ldi	r24, 0x01	; 1
    11ba:	08 95       	ret
    11bc:	81 e0       	ldi	r24, 0x01	; 1
    11be:	08 95       	ret

000011c0 <USART_decode_rx_fifo>:
    11c0:	27 c0       	rjmp	.+78     	; 0x1210 <USART_decode_rx_fifo+0x50>
    11c2:	80 91 00 00 	lds	r24, 0x0000
    11c6:	85 34       	cpi	r24, 0x45	; 69
    11c8:	e1 f0       	breq	.+56     	; 0x1202 <USART_decode_rx_fifo+0x42>
    11ca:	28 f4       	brcc	.+10     	; 0x11d6 <USART_decode_rx_fifo+0x16>
    11cc:	81 34       	cpi	r24, 0x41	; 65
    11ce:	a9 f0       	breq	.+42     	; 0x11fa <USART_decode_rx_fifo+0x3a>
    11d0:	83 34       	cpi	r24, 0x43	; 67
    11d2:	f1 f4       	brne	.+60     	; 0x1210 <USART_decode_rx_fifo+0x50>
    11d4:	0a c0       	rjmp	.+20     	; 0x11ea <USART_decode_rx_fifo+0x2a>
    11d6:	80 35       	cpi	r24, 0x50	; 80
    11d8:	61 f0       	breq	.+24     	; 0x11f2 <USART_decode_rx_fifo+0x32>
    11da:	84 35       	cpi	r24, 0x54	; 84
    11dc:	b1 f0       	breq	.+44     	; 0x120a <USART_decode_rx_fifo+0x4a>
    11de:	8d 34       	cpi	r24, 0x4D	; 77
    11e0:	b9 f4       	brne	.+46     	; 0x1210 <USART_decode_rx_fifo+0x50>
    11e2:	34 de       	rcall	.-920    	; 0xe4c <USART_decode_message_rx_fifo>
    11e4:	88 23       	and	r24, r24
    11e6:	a1 f0       	breq	.+40     	; 0x1210 <USART_decode_rx_fifo+0x50>
    11e8:	08 95       	ret
    11ea:	a2 de       	rcall	.-700    	; 0xf30 <USART_decode_command_rx_fifo>
    11ec:	88 23       	and	r24, r24
    11ee:	81 f0       	breq	.+32     	; 0x1210 <USART_decode_rx_fifo+0x50>
    11f0:	08 95       	ret
    11f2:	f3 de       	rcall	.-538    	; 0xfda <USART_decode_parameters_rx_fifo>
    11f4:	88 23       	and	r24, r24
    11f6:	61 f0       	breq	.+24     	; 0x1210 <USART_decode_rx_fifo+0x50>
    11f8:	08 95       	ret
    11fa:	63 df       	rcall	.-314    	; 0x10c2 <USART_decode_autonom_rx_fifo>
    11fc:	88 23       	and	r24, r24
    11fe:	41 f0       	breq	.+16     	; 0x1210 <USART_decode_rx_fifo+0x50>
    1200:	08 95       	ret
    1202:	b9 df       	rcall	.-142    	; 0x1176 <USART_DecodeElevationRxFIFO>
    1204:	88 23       	and	r24, r24
    1206:	21 f0       	breq	.+8      	; 0x1210 <USART_decode_rx_fifo+0x50>
    1208:	08 95       	ret
    120a:	8a df       	rcall	.-236    	; 0x1120 <USART_decode_status_rx_fifo>
    120c:	81 11       	cpse	r24, r1
    120e:	0a c0       	rjmp	.+20     	; 0x1224 <USART_decode_rx_fifo+0x64>
    1210:	60 e0       	ldi	r22, 0x00	; 0
    1212:	70 e0       	ldi	r23, 0x00	; 0
    1214:	80 91 09 11 	lds	r24, 0x1109
    1218:	90 91 0a 11 	lds	r25, 0x110A
    121c:	0e 94 d4 00 	call	0x1a8	; 0x1a8 <FifoRead>
    1220:	88 23       	and	r24, r24
    1222:	79 f2       	breq	.-98     	; 0x11c2 <USART_decode_rx_fifo+0x2>
    1224:	08 95       	ret

00001226 <__vector_20>:
}


ISR (USART0_RX_vect)
{
    1226:	1f 92       	push	r1
    1228:	0f 92       	push	r0
    122a:	0f b6       	in	r0, 0x3f	; 63
    122c:	0f 92       	push	r0
    122e:	11 24       	eor	r1, r1
    1230:	0b b6       	in	r0, 0x3b	; 59
    1232:	0f 92       	push	r0
    1234:	ef 92       	push	r14
    1236:	ff 92       	push	r15
    1238:	0f 93       	push	r16
    123a:	1f 93       	push	r17
    123c:	2f 93       	push	r18
    123e:	3f 93       	push	r19
    1240:	4f 93       	push	r20
    1242:	5f 93       	push	r21
    1244:	6f 93       	push	r22
    1246:	7f 93       	push	r23
    1248:	8f 93       	push	r24
    124a:	9f 93       	push	r25
    124c:	af 93       	push	r26
    124e:	bf 93       	push	r27
    1250:	cf 93       	push	r28
    1252:	df 93       	push	r29
    1254:	ef 93       	push	r30
    1256:	ff 93       	push	r31
	uint8_t data;
	data = UDR0; // read data from buffer TODO: add check for overflow
    1258:	20 91 c6 00 	lds	r18, 0x00C6
	
	
	
	if(data == 0x7e)
    125c:	2e 37       	cpi	r18, 0x7E	; 126
    125e:	09 f0       	breq	.+2      	; 0x1262 <__vector_20+0x3c>
    1260:	3e c0       	rjmp	.+124    	; 0x12de <__vector_20+0xb8>
	{
		if(gRxBufferIndex >= 4 || gRxBufferIndex == gRxBuffer[1] + 4) //TODO: add crc check
    1262:	80 91 20 23 	lds	r24, 0x2320
    1266:	90 91 21 23 	lds	r25, 0x2321
    126a:	84 30       	cpi	r24, 0x04	; 4
    126c:	91 05       	cpc	r25, r1
    126e:	40 f4       	brcc	.+16     	; 0x1280 <__vector_20+0x5a>
    1270:	20 91 61 24 	lds	r18, 0x2461
    1274:	30 e0       	ldi	r19, 0x00	; 0
    1276:	2c 5f       	subi	r18, 0xFC	; 252
    1278:	3f 4f       	sbci	r19, 0xFF	; 255
    127a:	82 17       	cp	r24, r18
    127c:	93 07       	cpc	r25, r19
    127e:	51 f5       	brne	.+84     	; 0x12d4 <__vector_20+0xae>
		{
			if(gInvertNextFlag)
    1280:	80 91 1e 23 	lds	r24, 0x231E
    1284:	90 91 1f 23 	lds	r25, 0x231F
    1288:	89 2b       	or	r24, r25
    128a:	21 f0       	breq	.+8      	; 0x1294 <__vector_20+0x6e>
			{
				data = (1<<5)^data;
				gInvertNextFlag = 0;
    128c:	10 92 1f 23 	sts	0x231F, r1
    1290:	10 92 1e 23 	sts	0x231E, r1
    1294:	00 e6       	ldi	r16, 0x60	; 96
    1296:	14 e2       	ldi	r17, 0x24	; 36
			}
			
			//USART_Bounce();
			
			// Add packet (no crc) to fifo-buffer to cue it for decoding
			for(int i = 0; i < gRxBuffer[1] + 2; ++i)
    1298:	c0 e0       	ldi	r28, 0x00	; 0
    129a:	d0 e0       	ldi	r29, 0x00	; 0
    129c:	0f 2e       	mov	r0, r31
    129e:	f1 e6       	ldi	r31, 0x61	; 97
    12a0:	ef 2e       	mov	r14, r31
    12a2:	f4 e2       	ldi	r31, 0x24	; 36
    12a4:	ff 2e       	mov	r15, r31
    12a6:	f0 2d       	mov	r31, r0
			{
				if(FifoWrite(gRxFIFO, gRxBuffer[i]))
    12a8:	f8 01       	movw	r30, r16
    12aa:	61 91       	ld	r22, Z+
    12ac:	8f 01       	movw	r16, r30
    12ae:	80 91 09 11 	lds	r24, 0x1109
    12b2:	90 91 0a 11 	lds	r25, 0x110A
    12b6:	0e 94 b4 00 	call	0x168	; 0x168 <FifoWrite>
    12ba:	88 23       	and	r24, r24
    12bc:	19 f0       	breq	.+6      	; 0x12c4 <__vector_20+0x9e>
				{
					USART_send_message("U_FIFO-full");
    12be:	8b e0       	ldi	r24, 0x0B	; 11
    12c0:	93 e2       	ldi	r25, 0x23	; 35
    12c2:	71 dd       	rcall	.-1310   	; 0xda6 <USART_send_message>
			}
			
			//USART_Bounce();
			
			// Add packet (no crc) to fifo-buffer to cue it for decoding
			for(int i = 0; i < gRxBuffer[1] + 2; ++i)
    12c4:	21 96       	adiw	r28, 0x01	; 1
    12c6:	f7 01       	movw	r30, r14
    12c8:	80 81       	ld	r24, Z
    12ca:	90 e0       	ldi	r25, 0x00	; 0
    12cc:	02 96       	adiw	r24, 0x02	; 2
    12ce:	c8 17       	cp	r28, r24
    12d0:	d9 07       	cpc	r29, r25
    12d2:	54 f3       	brlt	.-44     	; 0x12a8 <__vector_20+0x82>
					USART_send_message("U_FIFO-full");
				}
			}
		}
		
		gRxBufferIndex = 0; // always reset buffer index when frame delimiter (0x7e) is read
    12d4:	10 92 21 23 	sts	0x2321, r1
    12d8:	10 92 20 23 	sts	0x2320, r1
    12dc:	16 c0       	rjmp	.+44     	; 0x130a <__vector_20+0xe4>
		
	}else if(data == 0x7d)
    12de:	2d 37       	cpi	r18, 0x7D	; 125
    12e0:	39 f4       	brne	.+14     	; 0x12f0 <__vector_20+0xca>
	{
		gInvertNextFlag = 1;
    12e2:	81 e0       	ldi	r24, 0x01	; 1
    12e4:	90 e0       	ldi	r25, 0x00	; 0
    12e6:	90 93 1f 23 	sts	0x231F, r25
    12ea:	80 93 1e 23 	sts	0x231E, r24
    12ee:	0d c0       	rjmp	.+26     	; 0x130a <__vector_20+0xe4>
	}else
	{
		gRxBuffer[gRxBufferIndex] = data;
    12f0:	80 91 20 23 	lds	r24, 0x2320
    12f4:	90 91 21 23 	lds	r25, 0x2321
    12f8:	fc 01       	movw	r30, r24
    12fa:	e0 5a       	subi	r30, 0xA0	; 160
    12fc:	fb 4d       	sbci	r31, 0xDB	; 219
    12fe:	20 83       	st	Z, r18
		++gRxBufferIndex;
    1300:	01 96       	adiw	r24, 0x01	; 1
    1302:	90 93 21 23 	sts	0x2321, r25
    1306:	80 93 20 23 	sts	0x2320, r24
	}
	
	
}
    130a:	ff 91       	pop	r31
    130c:	ef 91       	pop	r30
    130e:	df 91       	pop	r29
    1310:	cf 91       	pop	r28
    1312:	bf 91       	pop	r27
    1314:	af 91       	pop	r26
    1316:	9f 91       	pop	r25
    1318:	8f 91       	pop	r24
    131a:	7f 91       	pop	r23
    131c:	6f 91       	pop	r22
    131e:	5f 91       	pop	r21
    1320:	4f 91       	pop	r20
    1322:	3f 91       	pop	r19
    1324:	2f 91       	pop	r18
    1326:	1f 91       	pop	r17
    1328:	0f 91       	pop	r16
    132a:	ff 90       	pop	r15
    132c:	ef 90       	pop	r14
    132e:	0f 90       	pop	r0
    1330:	0b be       	out	0x3b, r0	; 59
    1332:	0f 90       	pop	r0
    1334:	0f be       	out	0x3f, r0	; 63
    1336:	0f 90       	pop	r0
    1338:	1f 90       	pop	r1
    133a:	18 95       	reti

0000133c <__fixunssfsi>:
    133c:	70 d0       	rcall	.+224    	; 0x141e <__fp_splitA>
    133e:	88 f0       	brcs	.+34     	; 0x1362 <__fixunssfsi+0x26>
    1340:	9f 57       	subi	r25, 0x7F	; 127
    1342:	90 f0       	brcs	.+36     	; 0x1368 <__fixunssfsi+0x2c>
    1344:	b9 2f       	mov	r27, r25
    1346:	99 27       	eor	r25, r25
    1348:	b7 51       	subi	r27, 0x17	; 23
    134a:	a0 f0       	brcs	.+40     	; 0x1374 <__fixunssfsi+0x38>
    134c:	d1 f0       	breq	.+52     	; 0x1382 <__fixunssfsi+0x46>
    134e:	66 0f       	add	r22, r22
    1350:	77 1f       	adc	r23, r23
    1352:	88 1f       	adc	r24, r24
    1354:	99 1f       	adc	r25, r25
    1356:	1a f0       	brmi	.+6      	; 0x135e <__fixunssfsi+0x22>
    1358:	ba 95       	dec	r27
    135a:	c9 f7       	brne	.-14     	; 0x134e <__fixunssfsi+0x12>
    135c:	12 c0       	rjmp	.+36     	; 0x1382 <__fixunssfsi+0x46>
    135e:	b1 30       	cpi	r27, 0x01	; 1
    1360:	81 f0       	breq	.+32     	; 0x1382 <__fixunssfsi+0x46>
    1362:	77 d0       	rcall	.+238    	; 0x1452 <__fp_zero>
    1364:	b1 e0       	ldi	r27, 0x01	; 1
    1366:	08 95       	ret
    1368:	74 c0       	rjmp	.+232    	; 0x1452 <__fp_zero>
    136a:	67 2f       	mov	r22, r23
    136c:	78 2f       	mov	r23, r24
    136e:	88 27       	eor	r24, r24
    1370:	b8 5f       	subi	r27, 0xF8	; 248
    1372:	39 f0       	breq	.+14     	; 0x1382 <__fixunssfsi+0x46>
    1374:	b9 3f       	cpi	r27, 0xF9	; 249
    1376:	cc f3       	brlt	.-14     	; 0x136a <__fixunssfsi+0x2e>
    1378:	86 95       	lsr	r24
    137a:	77 95       	ror	r23
    137c:	67 95       	ror	r22
    137e:	b3 95       	inc	r27
    1380:	d9 f7       	brne	.-10     	; 0x1378 <__fixunssfsi+0x3c>
    1382:	3e f4       	brtc	.+14     	; 0x1392 <__fixunssfsi+0x56>
    1384:	90 95       	com	r25
    1386:	80 95       	com	r24
    1388:	70 95       	com	r23
    138a:	61 95       	neg	r22
    138c:	7f 4f       	sbci	r23, 0xFF	; 255
    138e:	8f 4f       	sbci	r24, 0xFF	; 255
    1390:	9f 4f       	sbci	r25, 0xFF	; 255
    1392:	08 95       	ret

00001394 <__floatunsisf>:
    1394:	e8 94       	clt
    1396:	09 c0       	rjmp	.+18     	; 0x13aa <__floatsisf+0x12>

00001398 <__floatsisf>:
    1398:	97 fb       	bst	r25, 7
    139a:	3e f4       	brtc	.+14     	; 0x13aa <__floatsisf+0x12>
    139c:	90 95       	com	r25
    139e:	80 95       	com	r24
    13a0:	70 95       	com	r23
    13a2:	61 95       	neg	r22
    13a4:	7f 4f       	sbci	r23, 0xFF	; 255
    13a6:	8f 4f       	sbci	r24, 0xFF	; 255
    13a8:	9f 4f       	sbci	r25, 0xFF	; 255
    13aa:	99 23       	and	r25, r25
    13ac:	a9 f0       	breq	.+42     	; 0x13d8 <__floatsisf+0x40>
    13ae:	f9 2f       	mov	r31, r25
    13b0:	96 e9       	ldi	r25, 0x96	; 150
    13b2:	bb 27       	eor	r27, r27
    13b4:	93 95       	inc	r25
    13b6:	f6 95       	lsr	r31
    13b8:	87 95       	ror	r24
    13ba:	77 95       	ror	r23
    13bc:	67 95       	ror	r22
    13be:	b7 95       	ror	r27
    13c0:	f1 11       	cpse	r31, r1
    13c2:	f8 cf       	rjmp	.-16     	; 0x13b4 <__floatsisf+0x1c>
    13c4:	fa f4       	brpl	.+62     	; 0x1404 <__floatsisf+0x6c>
    13c6:	bb 0f       	add	r27, r27
    13c8:	11 f4       	brne	.+4      	; 0x13ce <__floatsisf+0x36>
    13ca:	60 ff       	sbrs	r22, 0
    13cc:	1b c0       	rjmp	.+54     	; 0x1404 <__floatsisf+0x6c>
    13ce:	6f 5f       	subi	r22, 0xFF	; 255
    13d0:	7f 4f       	sbci	r23, 0xFF	; 255
    13d2:	8f 4f       	sbci	r24, 0xFF	; 255
    13d4:	9f 4f       	sbci	r25, 0xFF	; 255
    13d6:	16 c0       	rjmp	.+44     	; 0x1404 <__floatsisf+0x6c>
    13d8:	88 23       	and	r24, r24
    13da:	11 f0       	breq	.+4      	; 0x13e0 <__floatsisf+0x48>
    13dc:	96 e9       	ldi	r25, 0x96	; 150
    13de:	11 c0       	rjmp	.+34     	; 0x1402 <__floatsisf+0x6a>
    13e0:	77 23       	and	r23, r23
    13e2:	21 f0       	breq	.+8      	; 0x13ec <__floatsisf+0x54>
    13e4:	9e e8       	ldi	r25, 0x8E	; 142
    13e6:	87 2f       	mov	r24, r23
    13e8:	76 2f       	mov	r23, r22
    13ea:	05 c0       	rjmp	.+10     	; 0x13f6 <__floatsisf+0x5e>
    13ec:	66 23       	and	r22, r22
    13ee:	71 f0       	breq	.+28     	; 0x140c <__floatsisf+0x74>
    13f0:	96 e8       	ldi	r25, 0x86	; 134
    13f2:	86 2f       	mov	r24, r22
    13f4:	70 e0       	ldi	r23, 0x00	; 0
    13f6:	60 e0       	ldi	r22, 0x00	; 0
    13f8:	2a f0       	brmi	.+10     	; 0x1404 <__floatsisf+0x6c>
    13fa:	9a 95       	dec	r25
    13fc:	66 0f       	add	r22, r22
    13fe:	77 1f       	adc	r23, r23
    1400:	88 1f       	adc	r24, r24
    1402:	da f7       	brpl	.-10     	; 0x13fa <__floatsisf+0x62>
    1404:	88 0f       	add	r24, r24
    1406:	96 95       	lsr	r25
    1408:	87 95       	ror	r24
    140a:	97 f9       	bld	r25, 7
    140c:	08 95       	ret

0000140e <__fp_split3>:
    140e:	57 fd       	sbrc	r21, 7
    1410:	90 58       	subi	r25, 0x80	; 128
    1412:	44 0f       	add	r20, r20
    1414:	55 1f       	adc	r21, r21
    1416:	59 f0       	breq	.+22     	; 0x142e <__fp_splitA+0x10>
    1418:	5f 3f       	cpi	r21, 0xFF	; 255
    141a:	71 f0       	breq	.+28     	; 0x1438 <__fp_splitA+0x1a>
    141c:	47 95       	ror	r20

0000141e <__fp_splitA>:
    141e:	88 0f       	add	r24, r24
    1420:	97 fb       	bst	r25, 7
    1422:	99 1f       	adc	r25, r25
    1424:	61 f0       	breq	.+24     	; 0x143e <__fp_splitA+0x20>
    1426:	9f 3f       	cpi	r25, 0xFF	; 255
    1428:	79 f0       	breq	.+30     	; 0x1448 <__fp_splitA+0x2a>
    142a:	87 95       	ror	r24
    142c:	08 95       	ret
    142e:	12 16       	cp	r1, r18
    1430:	13 06       	cpc	r1, r19
    1432:	14 06       	cpc	r1, r20
    1434:	55 1f       	adc	r21, r21
    1436:	f2 cf       	rjmp	.-28     	; 0x141c <__fp_split3+0xe>
    1438:	46 95       	lsr	r20
    143a:	f1 df       	rcall	.-30     	; 0x141e <__fp_splitA>
    143c:	08 c0       	rjmp	.+16     	; 0x144e <__fp_splitA+0x30>
    143e:	16 16       	cp	r1, r22
    1440:	17 06       	cpc	r1, r23
    1442:	18 06       	cpc	r1, r24
    1444:	99 1f       	adc	r25, r25
    1446:	f1 cf       	rjmp	.-30     	; 0x142a <__fp_splitA+0xc>
    1448:	86 95       	lsr	r24
    144a:	71 05       	cpc	r23, r1
    144c:	61 05       	cpc	r22, r1
    144e:	08 94       	sec
    1450:	08 95       	ret

00001452 <__fp_zero>:
    1452:	e8 94       	clt

00001454 <__fp_szero>:
    1454:	bb 27       	eor	r27, r27
    1456:	66 27       	eor	r22, r22
    1458:	77 27       	eor	r23, r23
    145a:	cb 01       	movw	r24, r22
    145c:	97 f9       	bld	r25, 7
    145e:	08 95       	ret

00001460 <__mulsf3>:
    1460:	0b d0       	rcall	.+22     	; 0x1478 <__mulsf3x>
    1462:	78 c0       	rjmp	.+240    	; 0x1554 <__fp_round>
    1464:	69 d0       	rcall	.+210    	; 0x1538 <__fp_pscA>
    1466:	28 f0       	brcs	.+10     	; 0x1472 <__mulsf3+0x12>
    1468:	6e d0       	rcall	.+220    	; 0x1546 <__fp_pscB>
    146a:	18 f0       	brcs	.+6      	; 0x1472 <__mulsf3+0x12>
    146c:	95 23       	and	r25, r21
    146e:	09 f0       	breq	.+2      	; 0x1472 <__mulsf3+0x12>
    1470:	5a c0       	rjmp	.+180    	; 0x1526 <__fp_inf>
    1472:	5f c0       	rjmp	.+190    	; 0x1532 <__fp_nan>
    1474:	11 24       	eor	r1, r1
    1476:	ee cf       	rjmp	.-36     	; 0x1454 <__fp_szero>

00001478 <__mulsf3x>:
    1478:	ca df       	rcall	.-108    	; 0x140e <__fp_split3>
    147a:	a0 f3       	brcs	.-24     	; 0x1464 <__mulsf3+0x4>

0000147c <__mulsf3_pse>:
    147c:	95 9f       	mul	r25, r21
    147e:	d1 f3       	breq	.-12     	; 0x1474 <__mulsf3+0x14>
    1480:	95 0f       	add	r25, r21
    1482:	50 e0       	ldi	r21, 0x00	; 0
    1484:	55 1f       	adc	r21, r21
    1486:	62 9f       	mul	r22, r18
    1488:	f0 01       	movw	r30, r0
    148a:	72 9f       	mul	r23, r18
    148c:	bb 27       	eor	r27, r27
    148e:	f0 0d       	add	r31, r0
    1490:	b1 1d       	adc	r27, r1
    1492:	63 9f       	mul	r22, r19
    1494:	aa 27       	eor	r26, r26
    1496:	f0 0d       	add	r31, r0
    1498:	b1 1d       	adc	r27, r1
    149a:	aa 1f       	adc	r26, r26
    149c:	64 9f       	mul	r22, r20
    149e:	66 27       	eor	r22, r22
    14a0:	b0 0d       	add	r27, r0
    14a2:	a1 1d       	adc	r26, r1
    14a4:	66 1f       	adc	r22, r22
    14a6:	82 9f       	mul	r24, r18
    14a8:	22 27       	eor	r18, r18
    14aa:	b0 0d       	add	r27, r0
    14ac:	a1 1d       	adc	r26, r1
    14ae:	62 1f       	adc	r22, r18
    14b0:	73 9f       	mul	r23, r19
    14b2:	b0 0d       	add	r27, r0
    14b4:	a1 1d       	adc	r26, r1
    14b6:	62 1f       	adc	r22, r18
    14b8:	83 9f       	mul	r24, r19
    14ba:	a0 0d       	add	r26, r0
    14bc:	61 1d       	adc	r22, r1
    14be:	22 1f       	adc	r18, r18
    14c0:	74 9f       	mul	r23, r20
    14c2:	33 27       	eor	r19, r19
    14c4:	a0 0d       	add	r26, r0
    14c6:	61 1d       	adc	r22, r1
    14c8:	23 1f       	adc	r18, r19
    14ca:	84 9f       	mul	r24, r20
    14cc:	60 0d       	add	r22, r0
    14ce:	21 1d       	adc	r18, r1
    14d0:	82 2f       	mov	r24, r18
    14d2:	76 2f       	mov	r23, r22
    14d4:	6a 2f       	mov	r22, r26
    14d6:	11 24       	eor	r1, r1
    14d8:	9f 57       	subi	r25, 0x7F	; 127
    14da:	50 40       	sbci	r21, 0x00	; 0
    14dc:	8a f0       	brmi	.+34     	; 0x1500 <__mulsf3_pse+0x84>
    14de:	e1 f0       	breq	.+56     	; 0x1518 <__mulsf3_pse+0x9c>
    14e0:	88 23       	and	r24, r24
    14e2:	4a f0       	brmi	.+18     	; 0x14f6 <__mulsf3_pse+0x7a>
    14e4:	ee 0f       	add	r30, r30
    14e6:	ff 1f       	adc	r31, r31
    14e8:	bb 1f       	adc	r27, r27
    14ea:	66 1f       	adc	r22, r22
    14ec:	77 1f       	adc	r23, r23
    14ee:	88 1f       	adc	r24, r24
    14f0:	91 50       	subi	r25, 0x01	; 1
    14f2:	50 40       	sbci	r21, 0x00	; 0
    14f4:	a9 f7       	brne	.-22     	; 0x14e0 <__mulsf3_pse+0x64>
    14f6:	9e 3f       	cpi	r25, 0xFE	; 254
    14f8:	51 05       	cpc	r21, r1
    14fa:	70 f0       	brcs	.+28     	; 0x1518 <__mulsf3_pse+0x9c>
    14fc:	14 c0       	rjmp	.+40     	; 0x1526 <__fp_inf>
    14fe:	aa cf       	rjmp	.-172    	; 0x1454 <__fp_szero>
    1500:	5f 3f       	cpi	r21, 0xFF	; 255
    1502:	ec f3       	brlt	.-6      	; 0x14fe <__mulsf3_pse+0x82>
    1504:	98 3e       	cpi	r25, 0xE8	; 232
    1506:	dc f3       	brlt	.-10     	; 0x14fe <__mulsf3_pse+0x82>
    1508:	86 95       	lsr	r24
    150a:	77 95       	ror	r23
    150c:	67 95       	ror	r22
    150e:	b7 95       	ror	r27
    1510:	f7 95       	ror	r31
    1512:	e7 95       	ror	r30
    1514:	9f 5f       	subi	r25, 0xFF	; 255
    1516:	c1 f7       	brne	.-16     	; 0x1508 <__mulsf3_pse+0x8c>
    1518:	fe 2b       	or	r31, r30
    151a:	88 0f       	add	r24, r24
    151c:	91 1d       	adc	r25, r1
    151e:	96 95       	lsr	r25
    1520:	87 95       	ror	r24
    1522:	97 f9       	bld	r25, 7
    1524:	08 95       	ret

00001526 <__fp_inf>:
    1526:	97 f9       	bld	r25, 7
    1528:	9f 67       	ori	r25, 0x7F	; 127
    152a:	80 e8       	ldi	r24, 0x80	; 128
    152c:	70 e0       	ldi	r23, 0x00	; 0
    152e:	60 e0       	ldi	r22, 0x00	; 0
    1530:	08 95       	ret

00001532 <__fp_nan>:
    1532:	9f ef       	ldi	r25, 0xFF	; 255
    1534:	80 ec       	ldi	r24, 0xC0	; 192
    1536:	08 95       	ret

00001538 <__fp_pscA>:
    1538:	00 24       	eor	r0, r0
    153a:	0a 94       	dec	r0
    153c:	16 16       	cp	r1, r22
    153e:	17 06       	cpc	r1, r23
    1540:	18 06       	cpc	r1, r24
    1542:	09 06       	cpc	r0, r25
    1544:	08 95       	ret

00001546 <__fp_pscB>:
    1546:	00 24       	eor	r0, r0
    1548:	0a 94       	dec	r0
    154a:	12 16       	cp	r1, r18
    154c:	13 06       	cpc	r1, r19
    154e:	14 06       	cpc	r1, r20
    1550:	05 06       	cpc	r0, r21
    1552:	08 95       	ret

00001554 <__fp_round>:
    1554:	09 2e       	mov	r0, r25
    1556:	03 94       	inc	r0
    1558:	00 0c       	add	r0, r0
    155a:	11 f4       	brne	.+4      	; 0x1560 <__fp_round+0xc>
    155c:	88 23       	and	r24, r24
    155e:	52 f0       	brmi	.+20     	; 0x1574 <__fp_round+0x20>
    1560:	bb 0f       	add	r27, r27
    1562:	40 f4       	brcc	.+16     	; 0x1574 <__fp_round+0x20>
    1564:	bf 2b       	or	r27, r31
    1566:	11 f4       	brne	.+4      	; 0x156c <__fp_round+0x18>
    1568:	60 ff       	sbrs	r22, 0
    156a:	04 c0       	rjmp	.+8      	; 0x1574 <__fp_round+0x20>
    156c:	6f 5f       	subi	r22, 0xFF	; 255
    156e:	7f 4f       	sbci	r23, 0xFF	; 255
    1570:	8f 4f       	sbci	r24, 0xFF	; 255
    1572:	9f 4f       	sbci	r25, 0xFF	; 255
    1574:	08 95       	ret

00001576 <_exit>:
    1576:	f8 94       	cli

00001578 <__stop_program>:
    1578:	ff cf       	rjmp	.-2      	; 0x1578 <__stop_program>
