
Gangenheten.elf:     file format elf32-avr

Sections:
Idx Name          Size      VMA       LMA       File off  Algn
  0 .data         00001488  00800100  00008d52  00008de6  2**0
                  CONTENTS, ALLOC, LOAD, DATA
  1 .text         00008d52  00000000  00000000  00000094  2**1
                  CONTENTS, ALLOC, LOAD, READONLY, CODE
  2 .bss          00000acb  00801588  00801588  0000a26e  2**0
                  ALLOC
  3 .stab         00003ffc  00000000  00000000  0000a270  2**2
                  CONTENTS, READONLY, DEBUGGING
  4 .stabstr      00001232  00000000  00000000  0000e26c  2**0
                  CONTENTS, READONLY, DEBUGGING
  5 .comment      0000002f  00000000  00000000  0000f49e  2**0
                  CONTENTS, READONLY
  6 .debug_aranges 00000e80  00000000  00000000  0000f4cd  2**0
                  CONTENTS, READONLY, DEBUGGING
  7 .debug_info   00013a7b  00000000  00000000  0001034d  2**0
                  CONTENTS, READONLY, DEBUGGING
  8 .debug_abbrev 000019e1  00000000  00000000  00023dc8  2**0
                  CONTENTS, READONLY, DEBUGGING
  9 .debug_line   00006963  00000000  00000000  000257a9  2**0
                  CONTENTS, READONLY, DEBUGGING
 10 .debug_frame  00003948  00000000  00000000  0002c10c  2**2
                  CONTENTS, READONLY, DEBUGGING
 11 .debug_str    00006ce2  00000000  00000000  0002fa54  2**0
                  CONTENTS, READONLY, DEBUGGING
 12 .debug_loc    00010cc2  00000000  00000000  00036736  2**0
                  CONTENTS, READONLY, DEBUGGING
 13 .debug_ranges 00000e58  00000000  00000000  000473f8  2**0
                  CONTENTS, READONLY, DEBUGGING

Disassembly of section .text:

00000000 <__vectors>:
       0:	c6 c4       	rjmp	.+2444   	; 0x98e <__ctors_end>
       2:	00 00       	nop
       4:	f2 c4       	rjmp	.+2532   	; 0x9ea <__bad_interrupt>
       6:	00 00       	nop
       8:	f0 c4       	rjmp	.+2528   	; 0x9ea <__bad_interrupt>
       a:	00 00       	nop
       c:	ee c4       	rjmp	.+2524   	; 0x9ea <__bad_interrupt>
       e:	00 00       	nop
      10:	0c 94 df 39 	jmp	0x73be	; 0x73be <__vector_4>
      14:	ea c4       	rjmp	.+2516   	; 0x9ea <__bad_interrupt>
      16:	00 00       	nop
      18:	e8 c4       	rjmp	.+2512   	; 0x9ea <__bad_interrupt>
      1a:	00 00       	nop
      1c:	e6 c4       	rjmp	.+2508   	; 0x9ea <__bad_interrupt>
      1e:	00 00       	nop
      20:	e4 c4       	rjmp	.+2504   	; 0x9ea <__bad_interrupt>
      22:	00 00       	nop
      24:	e2 c4       	rjmp	.+2500   	; 0x9ea <__bad_interrupt>
      26:	00 00       	nop
      28:	e0 c4       	rjmp	.+2496   	; 0x9ea <__bad_interrupt>
      2a:	00 00       	nop
      2c:	de c4       	rjmp	.+2492   	; 0x9ea <__bad_interrupt>
      2e:	00 00       	nop
      30:	dc c4       	rjmp	.+2488   	; 0x9ea <__bad_interrupt>
      32:	00 00       	nop
      34:	98 c5       	rjmp	.+2864   	; 0xb66 <__vector_13>
      36:	00 00       	nop
      38:	d8 c4       	rjmp	.+2480   	; 0x9ea <__bad_interrupt>
      3a:	00 00       	nop
      3c:	d6 c4       	rjmp	.+2476   	; 0x9ea <__bad_interrupt>
      3e:	00 00       	nop
      40:	d4 c4       	rjmp	.+2472   	; 0x9ea <__bad_interrupt>
      42:	00 00       	nop
      44:	d2 c4       	rjmp	.+2468   	; 0x9ea <__bad_interrupt>
      46:	00 00       	nop
      48:	0c 94 1f 28 	jmp	0x503e	; 0x503e <__vector_18>
      4c:	ce c4       	rjmp	.+2460   	; 0x9ea <__bad_interrupt>
      4e:	00 00       	nop
      50:	0c 94 af 3f 	jmp	0x7f5e	; 0x7f5e <__vector_20>
      54:	ca c4       	rjmp	.+2452   	; 0x9ea <__bad_interrupt>
      56:	00 00       	nop
      58:	c8 c4       	rjmp	.+2448   	; 0x9ea <__bad_interrupt>
      5a:	00 00       	nop
      5c:	c6 c4       	rjmp	.+2444   	; 0x9ea <__bad_interrupt>
      5e:	00 00       	nop
      60:	c4 c4       	rjmp	.+2440   	; 0x9ea <__bad_interrupt>
      62:	00 00       	nop
      64:	c2 c4       	rjmp	.+2436   	; 0x9ea <__bad_interrupt>
      66:	00 00       	nop
      68:	c0 c4       	rjmp	.+2432   	; 0x9ea <__bad_interrupt>
      6a:	00 00       	nop
      6c:	be c4       	rjmp	.+2428   	; 0x9ea <__bad_interrupt>
      6e:	00 00       	nop
      70:	0c 94 c5 3c 	jmp	0x798a	; 0x798a <__vector_28>
      74:	ba c4       	rjmp	.+2420   	; 0x9ea <__bad_interrupt>
      76:	00 00       	nop
      78:	b8 c4       	rjmp	.+2416   	; 0x9ea <__bad_interrupt>
      7a:	00 00       	nop
      7c:	b6 c4       	rjmp	.+2412   	; 0x9ea <__bad_interrupt>
      7e:	00 00       	nop
      80:	14 c5       	rjmp	.+2600   	; 0xaaa <__vector_32>
      82:	00 00       	nop
      84:	b2 c4       	rjmp	.+2404   	; 0x9ea <__bad_interrupt>
      86:	00 00       	nop
      88:	b0 c4       	rjmp	.+2400   	; 0x9ea <__bad_interrupt>
      8a:	00 00       	nop
      8c:	03 6e       	ori	r16, 0xE3	; 227
      8e:	db 36       	cpi	r29, 0x6B	; 107
      90:	3d 9a       	sbi	0x07, 5	; 7
      92:	99 99       	sbic	0x13, 1	; 19
      94:	99 3d       	cpi	r25, 0xD9	; 217
      96:	ab aa       	std	Y+51, r10	; 0x33
      98:	aa 2a       	or	r10, r26
      9a:	3e 00       	.word	0x003e	; ????
      9c:	00 00       	nop
      9e:	80 3f       	cpi	r24, 0xF0	; 240
      a0:	08 4a       	sbci	r16, 0xA8	; 168
      a2:	d7 3b       	cpi	r29, 0xB7	; 183
      a4:	3b ce       	rjmp	.-906    	; 0xfffffd1c <__eeprom_end+0xff7efd1c>
      a6:	01 6e       	ori	r16, 0xE1	; 225
      a8:	84 bc       	out	0x24, r8	; 36
      aa:	bf fd       	.word	0xfdbf	; ????
      ac:	c1 2f       	mov	r28, r17
      ae:	3d 6c       	ori	r19, 0xCD	; 205
      b0:	74 31       	cpi	r23, 0x14	; 20
      b2:	9a bd       	out	0x2a, r25	; 42
      b4:	56 83       	std	Z+6, r21	; 0x06
      b6:	3d da       	rcall	.-2950   	; 0xfffff532 <__eeprom_end+0xff7ef532>
      b8:	3d 00       	.word	0x003d	; ????
      ba:	c7 7f       	andi	r28, 0xF7	; 247
      bc:	11 be       	out	0x31, r1	; 49
      be:	d9 e4       	ldi	r29, 0x49	; 73
      c0:	bb 4c       	sbci	r27, 0xCB	; 203
      c2:	3e 91       	ld	r19, -X
      c4:	6b aa       	std	Y+51, r6	; 0x33
      c6:	aa be       	out	0x3a, r10	; 58
      c8:	00 00       	nop
      ca:	00 80       	ld	r0, Z
      cc:	3f 07       	cpc	r19, r31
      ce:	2c 7a       	andi	r18, 0xAC	; 172
      d0:	a5 ba       	out	0x15, r10	; 21
      d2:	6c c5       	rjmp	.+2776   	; 0xbac <_Z22wait_until_gyro_stablev+0x14>
      d4:	90 da       	rcall	.-2784   	; 0xfffff5f6 <__eeprom_end+0xff7ef5f6>
      d6:	3b 93       	.word	0x933b	; ????
      d8:	65 fc       	sbrc	r6, 5
      da:	8b bc       	out	0x2b, r8	; 43
      dc:	53 f8       	bld	r5, 3
      de:	10 fd       	sbrc	r17, 0
      e0:	3c 56       	subi	r19, 0x6C	; 108
      e2:	92 83       	std	Z+2, r25	; 0x02
      e4:	4d bd       	out	0x2d, r20	; 45
      e6:	87 9d       	mul	r24, r7
      e8:	3a b6       	in	r3, 0x3a	; 58
      ea:	3d cb       	rjmp	.-2438   	; 0xfffff766 <__eeprom_end+0xff7ef766>
      ec:	c9 bf       	out	0x39, r28	; 57
      ee:	5b be       	out	0x3b, r5	; 59
      f0:	73 da       	rcall	.-2842   	; 0xfffff5d8 <__eeprom_end+0xff7ef5d8>
      f2:	0f c9       	rjmp	.-3554   	; 0xfffff312 <__eeprom_end+0xff7ef312>
      f4:	3f 05       	cpc	r19, r15
      f6:	a8 4c       	sbci	r26, 0xC8	; 200
      f8:	cd b2       	in	r12, 0x1d	; 29
      fa:	d4 4e       	sbci	r29, 0xE4	; 228
      fc:	b9 38       	cpi	r27, 0x89	; 137
      fe:	36 a9       	ldd	r19, Z+54	; 0x36
     100:	02 0c       	add	r0, r2
     102:	50 b9       	out	0x00, r21	; 0
     104:	91 86       	std	Z+9, r9	; 0x09
     106:	88 08       	sbc	r8, r8
     108:	3c a6       	std	Y+44, r3	; 0x2c
     10a:	aa aa       	std	Y+50, r10	; 0x32
     10c:	2a be       	out	0x3a, r2	; 58
     10e:	00 00       	nop
     110:	00 80       	ld	r0, Z
     112:	3f fb       	.word	0xfb3f	; ????

00000113 <_ZL9dmpMemory>:
     113:	fb 00 00 3e 00 0b 00 36 00 01 00 02 00 03 00 00     ...>...6........
     123:	00 65 00 54 ff ef 00 00 fa 80 00 0b 12 82 00 01     .e.T............
     133:	00 02 00 00 00 00 00 00 00 00 00 00 00 00 00 00     ................
     143:	00 28 00 00 ff ff 45 81 ff ff fa 72 00 00 00 00     .(....E....r....
     153:	00 00 03 e8 00 00 00 01 00 01 7f ff ff fe 80 01     ................
     163:	00 1b 00 00 00 00 00 00 00 00 00 00 00 00 00 00     ................
     173:	00 3e 03 30 40 00 00 00 02 ca e3 09 3e 80 00 00     .>.0@.......>...
     183:	20 00 00 00 00 00 00 00 40 00 00 00 60 00 00 00      .......@...`...
     193:	41 ff 00 00 00 00 0b 2a 00 00 16 55 00 00 21 82     A......*...U..!.
     1a3:	fd 87 26 50 fd 80 00 00 00 1f 00 00 00 05 80 00     ..&P............
     1b3:	00 00 00 00 00 01 00 00 00 02 00 00 00 03 00 00     ................
     1c3:	40 00 00 00 00 00 04 6f 00 02 65 32 00 00 5e c0     @......o..e2..^.
     1d3:	40 00 00 00 00 00 00 00 00 00 00 00 00 00 00 00     @...............
     1e3:	fb 8c 6f 5d fd 5d 08 d9 00 7c 73 3b 00 6c 12 cc     ..o].]...|s;.l..
     1f3:	32 00 13 9d 32 00 d0 d6 32 00 08 00 40 00 01 f4     2...2...2...@...
     203:	ff e6 80 79 02 00 00 00 00 00 d0 d6 00 00 27 10     ...y..........'.
     213:	fb 00 00 00 40 00 00 00 00 00 00 00 00 00 00 00     ....@...........
     223:	00 00 00 01 00 00 00 00 00 00 01 00 01 00 00 00     ................
     233:	00 00 fa 36 ff bc 30 8e 00 05 fb f0 ff d9 5b c8     ...6..0.......[.
     243:	ff d0 9a be 00 00 10 a9 ff f4 1e b2 00 ce bb f7     ................
     253:	00 00 00 01 00 00 00 04 00 02 00 02 02 00 00 0c     ................
     263:	ff c2 80 00 00 01 80 00 00 cf 80 00 40 00 00 00     ............@...
     273:	00 00 00 01 00 00 00 00 00 00 06 00 00 00 00 14     ................
	...
     2b7:	03 3f 68 b6 79 35 28 bc c6 7e d1 6c 80 00 00 00     .?h.y5(..~.l....
     2c7:	40 00 00 00 00 00 b2 6a 00 00 00 00 00 00 00 00     @......j........
     2d7:	00 00 00 00 00 00 3f f0 00 00 00 30 00 00 00 00     ......?....0....
	...
     303:	00 00 25 4d 00 2f 70 6d 00 00 05 ae 00 0c 02 d0     ..%M./pm........
     313:	00 00 00 00 00 65 00 54 ff ef 00 00 00 00 00 00     .....e.T........
     323:	00 00 01 00 00 44 00 00 00 00 0c 00 00 00 01 00     .....D..........
     333:	00 00 00 00 00 65 00 00 00 54 00 00 ff ef 00 00     .....e...T......
	...
     353:	40 00 00 00 00 00 00 00 00 00 00 00 00 00 00 00     @...............
     363:	40 00 00 00 00 00 00 00 00 00 00 00 00 00 00 00     @...............
     373:	00 00 00 01 00 00 00 02 00 00 00 00 00 00 00 00     ................
	...
     3a3:	00 1b 00 00 00 00 00 00 00 00 00 00 00 00 00 00     ................
	...
     3cf:	40 00 00 00 00 1b 00 00 00 00 00 00 00 00 00 00     @...............
	...
     413:	d8 dc ba a2 f1 de b2 b8 b4 a8 81 91 f7 4a 90 7f     .............J..
     423:	91 6a f3 f9 db a8 f9 b0 ba a0 80 f2 ce 81 f3 c2     .j..............
     433:	f1 c1 f2 c3 f3 cc a2 b2 80 f1 c6 d8 80 ba a7 df     ................
     443:	df df f2 a7 c3 cb c5 b6 f0 87 a2 94 24 48 70 3c     ............$Hp<
     453:	95 40 68 34 58 9b 78 a2 f1 83 92 2d 55 7d d8 b1     .@h4X.x....-U}..
     463:	b4 b8 a1 d0 91 80 f2 70 f3 70 f2 7c 80 a8 f1 01     .......p.p.|....
     473:	b0 98 87 d9 43 d8 86 c9 88 ba a1 f2 0e b8 97 80     ....C...........
     483:	f1 a9 df df df aa df df df f2 aa c5 cd c7 a9 0c     ................
     493:	c9 2c 97 97 97 97 f1 a9 89 26 46 66 b0 b4 ba 80     .,.......&Ff....
     4a3:	ac de f2 ca f1 b2 8c 02 a9 b6 98 00 89 0e 16 1e     ................
     4b3:	b8 a9 b4 99 2c 54 7c b0 8a a8 96 36 56 76 f1 b9     ....,T|....6Vv..
     4c3:	af b4 b0 83 c0 b8 a8 97 11 b1 8f 98 b9 af f0 24     ...............$
     4d3:	08 44 10 64 18 f1 a3 29 55 7d af 83 b5 93 af f0     .D.d...)U}......
     4e3:	00 28 50 f1 a3 86 9f 61 a6 da de df d9 fa a3 86     .(P....a........
     4f3:	96 db 31 a6 d9 f8 df ba a6 8f c2 c5 c7 b2 8c c1     ..1.............
     503:	b8 a2 df df df a3 df df df d8 d8 f1 b8 a8 b2 86     ................
     513:	b4 98 0d 35 5d b8 aa 98 b0 87 2d 35 3d b2 b6 ba     ...5].....-5=...
     523:	af 8c 96 19 8f 9f a7 0e 16 1e b4 9a b8 aa 87 2c     ...............,
     533:	54 7c b9 a3 de df df a3 b1 80 f2 c4 cd c9 f1 b8     T|..............
     543:	a9 b4 99 83 0d 35 5d 89 b9 a3 2d 55 7d b5 93 a3     .....5]...-U}...
     553:	0e 16 1e a9 2c 54 7c b8 b4 b0 f1 97 83 a8 11 84     ....,T|.........
     563:	a5 09 98 a3 83 f0 da 24 08 44 10 64 18 d8 f1 a5     .......$.D.d....
     573:	29 55 7d a5 85 95 02 1a 2e 3a 56 5a 40 48 f9 f3     )U}......:VZ@H..
     583:	a3 d9 f8 f0 98 83 24 08 44 10 64 18 97 82 a8 f1     ......$.D.d.....
     593:	11 f0 98 a2 24 08 44 10 64 18 da f3 de d8 83 a5     ....$.D.d.......
     5a3:	94 01 d9 a3 02 f1 a2 c3 c5 c7 d8 f1 84 92 a2 4d     ...............M
     5b3:	da 2a d8 48 69 d9 2a d8 68 55 da 32 d8 50 71 d9     .*.Hi.*.hU.2.Pq.
     5c3:	32 d8 70 5d da 3a d8 58 79 d9 3a d8 78 93 a3 4d     2.p].:.Xy.:.x..M
     5d3:	da 2a d8 48 69 d9 2a d8 68 55 da 32 d8 50 71 d9     .*.Hi.*.hU.2.Pq.
     5e3:	32 d8 70 5d da 3a d8 58 79 d9 3a d8 78 a8 8a 9a     2.p].:.Xy.:.x...
     5f3:	f0 28 50 78 9e f3 88 18 f1 9f 1d 98 a8 d9 08 d8     .(Px............
     603:	c8 9f 12 9e f3 15 a8 da 12 10 d8 f1 af c8 97 87     ................
     613:	34 b5 b9 94 a4 21 f3 d9 22 d8 f2 2d f3 d9 2a d8     4....!.."..-..*.
     623:	f2 35 f3 d9 32 d8 81 a4 60 60 61 d9 61 d8 6c 68     .5..2...``a.a.lh
     633:	69 d9 69 d8 74 70 71 d9 71 d8 b1 a3 84 19 3d 5d     i.i.tpq.q.....=]
     643:	a3 83 1a 3e 5e 93 10 30 81 10 11 b8 b0 af 8f 94     ...>^..0........
     653:	f2 da 3e d8 b4 9a a8 87 29 da f8 d8 87 9a 35 da     ..>.....).....5.
     663:	f8 d8 87 9a 3d da f8 d8 b1 b9 a4 98 85 02 2e 56     ....=..........V
     673:	a5 81 00 0c 14 a3 97 b0 8a f1 2d d9 28 d8 4d d9     ..........-.(.M.
     683:	48 d8 6d d9 68 d8 b1 84 0d da 0e d8 a3 29 83 da     H.m.h........)..
     693:	2c 0e d8 a3 84 49 83 da 2c 4c 0e d8 b8 b0 a8 8a     ,....I..,L......
     6a3:	9a f5 20 aa da df d8 a8 40 aa d0 da de d8 a8 60     .. .....@......`
     6b3:	aa da d0 df d8 f1 97 86 a8 31 9b 06 99 07 ab 97     .........1......
     6c3:	28 88 9b f0 0c 20 14 40 b8 b0 b4 a8 8c 9c f0 04     (.... .@........
     6d3:	28 51 79 1d 30 14 38 b2 82 ab d0 98 2c 50 50 78     (Qy.0.8.....,PPx
     6e3:	78 9b f1 1a b0 f0 8a 9c a8 29 51 79 8b 29 51 79     x........)Qy.)Qy
     6f3:	8a 24 70 59 8b 20 58 71 8a 44 69 38 8b 39 40 68     .$pY. Xq.Di8.9@h
     703:	8a 64 48 31 8b 30 49 60 a5 88 20 09 71 58 44 68     .dH1.0I`.. .qXDh
     713:	11 39 64 49 30 19 f1 ac 00 2c 54 7c f0 8c a8 04     .9dI0....,T|....
     723:	28 50 78 f1 88 97 26 a8 59 98 ac 8c 02 26 46 66     (Px...&.Y....&Ff
     733:	f0 89 9c a8 29 51 79 24 70 59 44 69 38 64 48 31     ....)Qy$pYDi8dH1
     743:	a9 88 09 20 59 70 ab 11 38 40 69 a8 19 31 48 60     ... Yp..8@i..1H`
     753:	8c a8 3c 41 5c 20 7c 00 f1 87 98 19 86 a8 6e 76     ..<A\ |.......nv
     763:	7e a9 99 88 2d 55 7d 9e b9 a3 8a 22 8a 6e 8a 56     ~...-U}....".n.V
     773:	8a 5e 9f b1 83 06 26 46 66 0e 2e 4e 6e 9d b8 ad     .^....&Ff..Nn...
     783:	00 2c 54 7c f2 b1 8c b4 99 b9 a3 2d 55 7d 81 91     .,T|.......-U}..
     793:	ac 38 ad 3a b5 83 91 ac 2d d9 28 d8 4d d9 48 d8     .8.:....-.(.M.H.
     7a3:	6d d9 68 d8 8c 9d ae 29 d9 04 ae d8 51 d9 04 ae     m.h....)....Q...
     7b3:	d8 79 d9 04 d8 81 f3 9d ad 00 8d ae 19 81 ad d9     .y..............
     7c3:	01 d8 f2 ae da 26 d8 8e 91 29 83 a7 d9 ad ad ad     .....&...)......
     7d3:	ad f3 2a d8 d8 f1 b0 ac 89 91 3e 5e 76 f3 ac 2e     ..*.......>^v...
     7e3:	2e f1 b1 8c 5a 9c ac 2c 28 28 28 9c ac 30 18 a8     ....Z..,(((..0..
     7f3:	98 81 28 34 3c 97 24 a7 28 34 3c 9c 24 f2 b0 89     ..(4<.$.(4<.$...
     803:	ac 91 2c 4c 6c 8a 9b 2d d9 d8 d8 51 d9 d8 d8 79     ..,Ll..-...Q...y
     813:	d9 d8 d8 f1 9e 88 a3 31 da d8 d8 91 2d d9 28 d8     .......1....-.(.
     823:	4d d9 48 d8 6d d9 68 d8 b1 83 93 35 3d 80 25 da     M.H.m.h....5=.%.
     833:	d8 d8 85 69 da d8 d8 b4 93 81 a3 28 34 3c f3 ab     ...i.......(4<..
     843:	8b f8 a3 91 b6 09 b4 d9 ab de fa b0 87 9c b9 a3     ................
     853:	dd f1 a3 a3 a3 a3 95 f1 a3 a3 a3 9d f1 a3 a3 a3     ................
     863:	a3 f2 a3 b4 90 80 f2 a3 a3 a3 a3 a3 a3 a3 a3 a3     ................
     873:	a3 b2 a3 a3 a3 a3 a3 a3 b0 87 b5 99 f1 a3 a3 a3     ................
     883:	98 f1 a3 a3 a3 a3 97 a3 a3 a3 a3 f3 9b a3 a3 dc     ................
     893:	b9 a7 f1 26 26 26 d8 d8 ff                          ...&&&...

0000089c <_ZL9dmpConfig>:
     89c:	03 7b 03 4c cd 6c 03 ab 03 36 56 76 00 68 04 02     .{.L.l...6Vv.h..
     8ac:	cb 47 a2 02 18 04 00 05 8b c1 01 0c 04 00 00 00     .G..............
     8bc:	00 03 7f 06 0c c9 2c 97 97 97 03 89 03 26 46 66     ......,......&Ff
     8cc:	00 6c 02 20 00 02 40 04 00 00 00 00 02 44 04 00     .l. ..@......D..
     8dc:	00 00 00 02 48 04 00 00 00 00 02 4c 04 00 00 00     ....H......L....
     8ec:	00 02 50 04 00 00 00 00 02 54 04 00 00 00 00 02     ..P......T......
     8fc:	58 04 00 00 00 00 02 5c 04 00 00 00 00 02 bc 04     X......\........
     90c:	00 00 00 00 01 ec 04 00 00 40 00 03 7f 06 0c c9     .........@......
     91c:	2c 97 97 97 04 02 03 0d 35 5d 04 09 04 87 2d 35     ,.......5]....-5
     92c:	3d 00 a3 01 00 00 00 00 01 07 86 01 fe 07 41 05     =.............A.
     93c:	f1 20 28 30 38 07 7e 01 30 07 46 01 9a 07 47 04     . (08.~.0.F...G.
     94c:	f1 28 30 38 07 6c 04 f1 28 30 38 02 16 02 00 01     .(08.l..(08.....

0000095c <_ZL10dmpUpdates>:
     95c:	01 b2 02 ff ff 01 90 04 09 23 a1 35 01 6a 02 06     .........#.5.j..
     96c:	00 01 60 08 00 00 00 00 00 00 00 00 00 60 04 40     ..`..........`.@
     97c:	00 00 00 01 62 02 00 00 00 60 04 00 40 00 00 00     ....b....`..@...

0000098c <__ctors_start>:
     98c:	c5 3a       	cpi	r28, 0xA5	; 165

0000098e <__ctors_end>:
     98e:	11 24       	eor	r1, r1
     990:	1f be       	out	0x3f, r1	; 63
     992:	cf ef       	ldi	r28, 0xFF	; 255
     994:	d0 e4       	ldi	r29, 0x40	; 64
     996:	de bf       	out	0x3e, r29	; 62
     998:	cd bf       	out	0x3d, r28	; 61

0000099a <__do_copy_data>:
     99a:	15 e1       	ldi	r17, 0x15	; 21
     99c:	a0 e0       	ldi	r26, 0x00	; 0
     99e:	b1 e0       	ldi	r27, 0x01	; 1
     9a0:	e2 e5       	ldi	r30, 0x52	; 82
     9a2:	fd e8       	ldi	r31, 0x8D	; 141
     9a4:	00 e0       	ldi	r16, 0x00	; 0
     9a6:	0b bf       	out	0x3b, r16	; 59
     9a8:	02 c0       	rjmp	.+4      	; 0x9ae <__do_copy_data+0x14>
     9aa:	07 90       	elpm	r0, Z+
     9ac:	0d 92       	st	X+, r0
     9ae:	a8 38       	cpi	r26, 0x88	; 136
     9b0:	b1 07       	cpc	r27, r17
     9b2:	d9 f7       	brne	.-10     	; 0x9aa <__do_copy_data+0x10>

000009b4 <__do_clear_bss>:
     9b4:	20 e2       	ldi	r18, 0x20	; 32
     9b6:	a8 e8       	ldi	r26, 0x88	; 136
     9b8:	b5 e1       	ldi	r27, 0x15	; 21
     9ba:	01 c0       	rjmp	.+2      	; 0x9be <.do_clear_bss_start>

000009bc <.do_clear_bss_loop>:
     9bc:	1d 92       	st	X+, r1

000009be <.do_clear_bss_start>:
     9be:	a3 35       	cpi	r26, 0x53	; 83
     9c0:	b2 07       	cpc	r27, r18
     9c2:	e1 f7       	brne	.-8      	; 0x9bc <.do_clear_bss_loop>

000009c4 <__do_global_ctors>:
     9c4:	19 e0       	ldi	r17, 0x09	; 9
     9c6:	ce e8       	ldi	r28, 0x8E	; 142
     9c8:	d9 e0       	ldi	r29, 0x09	; 9
     9ca:	00 e0       	ldi	r16, 0x00	; 0
     9cc:	06 c0       	rjmp	.+12     	; 0x9da <__do_global_ctors+0x16>
     9ce:	22 97       	sbiw	r28, 0x02	; 2
     9d0:	01 09       	sbc	r16, r1
     9d2:	fe 01       	movw	r30, r28
     9d4:	0b bf       	out	0x3b, r16	; 59
     9d6:	0e 94 52 44 	call	0x88a4	; 0x88a4 <__tablejump_elpm__>
     9da:	cc 38       	cpi	r28, 0x8C	; 140
     9dc:	d1 07       	cpc	r29, r17
     9de:	80 e0       	ldi	r24, 0x00	; 0
     9e0:	08 07       	cpc	r16, r24
     9e2:	a9 f7       	brne	.-22     	; 0x9ce <__do_global_ctors+0xa>
     9e4:	e8 d0       	rcall	.+464    	; 0xbb6 <main>
     9e6:	0c 94 a7 46 	jmp	0x8d4e	; 0x8d4e <_exit>

000009ea <__bad_interrupt>:
     9ea:	0a cb       	rjmp	.-2540   	; 0x0 <__vectors>

000009ec <_Z15reset_counter_1v>:
	reset_counter_3();
}

void reset_counter_1()
{
	TCNT1 = 0;
     9ec:	10 92 85 00 	sts	0x0085, r1
     9f0:	10 92 84 00 	sts	0x0084, r1
     9f4:	08 95       	ret

000009f6 <_Z13set_counter_1j>:
	TCNT3 = 0;
}

void set_counter_1(uint16_t delay)
{
	delay = 15.625 * delay;
     9f6:	bc 01       	movw	r22, r24
     9f8:	80 e0       	ldi	r24, 0x00	; 0
     9fa:	90 e0       	ldi	r25, 0x00	; 0
     9fc:	0e 94 c0 41 	call	0x8380	; 0x8380 <__floatunsisf>
     a00:	20 e0       	ldi	r18, 0x00	; 0
     a02:	30 e0       	ldi	r19, 0x00	; 0
     a04:	4a e7       	ldi	r20, 0x7A	; 122
     a06:	51 e4       	ldi	r21, 0x41	; 65
     a08:	0e 94 82 43 	call	0x8704	; 0x8704 <__mulsf3>
     a0c:	0e 94 94 41 	call	0x8328	; 0x8328 <__fixunssfsi>
	OCR1A = delay;
     a10:	70 93 89 00 	sts	0x0089, r23
     a14:	60 93 88 00 	sts	0x0088, r22
	reset_counter_1();
     a18:	e9 cf       	rjmp	.-46     	; 0x9ec <_Z15reset_counter_1v>

00000a1a <_Z15reset_counter_3v>:
	TCNT1 = 0;
}

void reset_counter_3()
{
	TCNT3 = 0;
     a1a:	10 92 95 00 	sts	0x0095, r1
     a1e:	10 92 94 00 	sts	0x0094, r1
     a22:	08 95       	ret

00000a24 <_Z13set_counter_3j>:
	reset_counter_1();
}

void set_counter_3(uint16_t delay)
{
	delay = 15.625 * delay;
     a24:	bc 01       	movw	r22, r24
     a26:	80 e0       	ldi	r24, 0x00	; 0
     a28:	90 e0       	ldi	r25, 0x00	; 0
     a2a:	0e 94 c0 41 	call	0x8380	; 0x8380 <__floatunsisf>
     a2e:	20 e0       	ldi	r18, 0x00	; 0
     a30:	30 e0       	ldi	r19, 0x00	; 0
     a32:	4a e7       	ldi	r20, 0x7A	; 122
     a34:	51 e4       	ldi	r21, 0x41	; 65
     a36:	0e 94 82 43 	call	0x8704	; 0x8704 <__mulsf3>
     a3a:	0e 94 94 41 	call	0x8328	; 0x8328 <__fixunssfsi>
	OCR3A = delay;
     a3e:	70 93 99 00 	sts	0x0099, r23
     a42:	60 93 98 00 	sts	0x0098, r22
	reset_counter_3();
     a46:	e9 cf       	rjmp	.-46     	; 0xa1a <_Z15reset_counter_3v>

00000a48 <_Z13init_countersv>:

//---------------------------------------COUNTERS/TIMERS-----------
void init_counters()
{
	// WGMn3:0 = 4 (OCRnA) or 12 (OCRn), where top value is read from.
	TCCR1B |= 0b00000101; // clock 1, prescaler 1024
     a48:	e1 e8       	ldi	r30, 0x81	; 129
     a4a:	f0 e0       	ldi	r31, 0x00	; 0
     a4c:	80 81       	ld	r24, Z
     a4e:	85 60       	ori	r24, 0x05	; 5
     a50:	80 83       	st	Z, r24
	TCCR3B |= 0b00000101; // clock 2, prescaler 1024
     a52:	e1 e9       	ldi	r30, 0x91	; 145
     a54:	f0 e0       	ldi	r31, 0x00	; 0
     a56:	80 81       	ld	r24, Z
     a58:	85 60       	ori	r24, 0x05	; 5
     a5a:	80 83       	st	Z, r24
	
	// standardvalue for interrupt is 1000ms
	set_counter_1(1000);
     a5c:	88 ee       	ldi	r24, 0xE8	; 232
     a5e:	93 e0       	ldi	r25, 0x03	; 3
     a60:	ca df       	rcall	.-108    	; 0x9f6 <_Z13set_counter_1j>
	set_counter_3(1000);
     a62:	88 ee       	ldi	r24, 0xE8	; 232
     a64:	93 e0       	ldi	r25, 0x03	; 3
     a66:	de df       	rcall	.-68     	; 0xa24 <_Z13set_counter_3j>
	
	TIMSK1 |= 0b00000010; // Enable interrupts when OCF1A, in TIFR1, is set.
     a68:	ef e6       	ldi	r30, 0x6F	; 111
     a6a:	f0 e0       	ldi	r31, 0x00	; 0
     a6c:	80 81       	ld	r24, Z
     a6e:	82 60       	ori	r24, 0x02	; 2
     a70:	80 83       	st	Z, r24
	TIMSK3 |= 0b00000010; // Enable interrupts when OCF2A, in TIFR2, is set.
     a72:	e1 e7       	ldi	r30, 0x71	; 113
     a74:	f0 e0       	ldi	r31, 0x00	; 0
     a76:	80 81       	ld	r24, Z
     a78:	82 60       	ori	r24, 0x02	; 2
     a7a:	80 83       	st	Z, r24
	// OCF1A (or ICFn) Flag, in TIFR1, can be used to generate interrupts.
	TCNT1 = 0;
     a7c:	10 92 85 00 	sts	0x0085, r1
     a80:	10 92 84 00 	sts	0x0084, r1
	TCNT3 = 0;
     a84:	10 92 95 00 	sts	0x0095, r1
     a88:	10 92 94 00 	sts	0x0094, r1
     a8c:	08 95       	ret

00000a8e <_Z4waitj>:
}

//---------------------------------------------------------------------------------------
void wait(uint16_t delaytime)
{
	gWaitFlag = 0;
     a8e:	10 92 88 15 	sts	0x1588, r1
	set_counter_3(delaytime);
     a92:	c8 df       	rcall	.-112    	; 0xa24 <_Z13set_counter_3j>
	while(gWaitFlag == 0)
     a94:	80 91 88 15 	lds	r24, 0x1588
     a98:	81 11       	cpse	r24, r1
     a9a:	06 c0       	rjmp	.+12     	; 0xaa8 <_Z4waitj+0x1a>
	{
		MPU_update();
     a9c:	0e 94 53 3a 	call	0x74a6	; 0x74a6 <_Z10MPU_updatev>
//---------------------------------------------------------------------------------------
void wait(uint16_t delaytime)
{
	gWaitFlag = 0;
	set_counter_3(delaytime);
	while(gWaitFlag == 0)
     aa0:	80 91 88 15 	lds	r24, 0x1588
     aa4:	88 23       	and	r24, r24
     aa6:	d1 f3       	breq	.-12     	; 0xa9c <_Z4waitj+0xe>
     aa8:	08 95       	ret

00000aaa <__vector_32>:
		MPU_update();
	}
}

ISR(TIMER3_COMPA_vect)
{
     aaa:	1f 92       	push	r1
     aac:	0f 92       	push	r0
     aae:	0f b6       	in	r0, 0x3f	; 63
     ab0:	0f 92       	push	r0
     ab2:	11 24       	eor	r1, r1
     ab4:	8f 93       	push	r24
	gWaitFlag = 1;
     ab6:	81 e0       	ldi	r24, 0x01	; 1
     ab8:	80 93 88 15 	sts	0x1588, r24
	TCNT3 = 0;
     abc:	10 92 95 00 	sts	0x0095, r1
     ac0:	10 92 94 00 	sts	0x0094, r1
     ac4:	8f 91       	pop	r24
     ac6:	0f 90       	pop	r0
     ac8:	0f be       	out	0x3f, r0	; 63
     aca:	0f 90       	pop	r0
     acc:	1f 90       	pop	r1
     ace:	18 95       	reti

00000ad0 <_Z14FifoDataLengthP4fifo>:
     ad0:	fc 01       	movw	r30, r24
     ad2:	90 81       	ld	r25, Z
     ad4:	91 50       	subi	r25, 0x01	; 1
     ad6:	84 81       	ldd	r24, Z+4	; 0x04
     ad8:	22 81       	ldd	r18, Z+2	; 0x02
     ada:	82 1b       	sub	r24, r18
     adc:	89 23       	and	r24, r25
     ade:	08 95       	ret

00000ae0 <_Z9FifoWriteP4fifoh>:
     ae0:	1f 93       	push	r17
     ae2:	cf 93       	push	r28
     ae4:	df 93       	push	r29
     ae6:	ec 01       	movw	r28, r24
     ae8:	16 2f       	mov	r17, r22
     aea:	f2 df       	rcall	.-28     	; 0xad0 <_Z14FifoDataLengthP4fifo>
     aec:	28 81       	ld	r18, Y
     aee:	39 81       	ldd	r19, Y+1	; 0x01
     af0:	21 50       	subi	r18, 0x01	; 1
     af2:	31 09       	sbc	r19, r1
     af4:	90 e0       	ldi	r25, 0x00	; 0
     af6:	82 17       	cp	r24, r18
     af8:	93 07       	cpc	r25, r19
     afa:	69 f0       	breq	.+26     	; 0xb16 <_Z9FifoWriteP4fifoh+0x36>
     afc:	8c 81       	ldd	r24, Y+4	; 0x04
     afe:	9d 81       	ldd	r25, Y+5	; 0x05
     b00:	fe 01       	movw	r30, r28
     b02:	e8 0f       	add	r30, r24
     b04:	f9 1f       	adc	r31, r25
     b06:	16 83       	std	Z+6, r17	; 0x06
     b08:	01 96       	adiw	r24, 0x01	; 1
     b0a:	28 23       	and	r18, r24
     b0c:	39 23       	and	r19, r25
     b0e:	3d 83       	std	Y+5, r19	; 0x05
     b10:	2c 83       	std	Y+4, r18	; 0x04
     b12:	80 e0       	ldi	r24, 0x00	; 0
     b14:	01 c0       	rjmp	.+2      	; 0xb18 <_Z9FifoWriteP4fifoh+0x38>
     b16:	81 e0       	ldi	r24, 0x01	; 1
     b18:	df 91       	pop	r29
     b1a:	cf 91       	pop	r28
     b1c:	1f 91       	pop	r17
     b1e:	08 95       	ret

00000b20 <_Z8FifoReadP4fifoPh>:
     b20:	0f 93       	push	r16
     b22:	1f 93       	push	r17
     b24:	cf 93       	push	r28
     b26:	df 93       	push	r29
     b28:	ec 01       	movw	r28, r24
     b2a:	8b 01       	movw	r16, r22
     b2c:	d1 df       	rcall	.-94     	; 0xad0 <_Z14FifoDataLengthP4fifo>
     b2e:	88 23       	and	r24, r24
     b30:	a1 f0       	breq	.+40     	; 0xb5a <_Z8FifoReadP4fifoPh+0x3a>
     b32:	ea 81       	ldd	r30, Y+2	; 0x02
     b34:	fb 81       	ldd	r31, Y+3	; 0x03
     b36:	ec 0f       	add	r30, r28
     b38:	fd 1f       	adc	r31, r29
     b3a:	86 81       	ldd	r24, Z+6	; 0x06
     b3c:	f8 01       	movw	r30, r16
     b3e:	80 83       	st	Z, r24
     b40:	28 81       	ld	r18, Y
     b42:	39 81       	ldd	r19, Y+1	; 0x01
     b44:	21 50       	subi	r18, 0x01	; 1
     b46:	31 09       	sbc	r19, r1
     b48:	8a 81       	ldd	r24, Y+2	; 0x02
     b4a:	9b 81       	ldd	r25, Y+3	; 0x03
     b4c:	01 96       	adiw	r24, 0x01	; 1
     b4e:	82 23       	and	r24, r18
     b50:	93 23       	and	r25, r19
     b52:	9b 83       	std	Y+3, r25	; 0x03
     b54:	8a 83       	std	Y+2, r24	; 0x02
     b56:	80 e0       	ldi	r24, 0x00	; 0
     b58:	01 c0       	rjmp	.+2      	; 0xb5c <_Z8FifoReadP4fifoPh+0x3c>
     b5a:	81 e0       	ldi	r24, 0x01	; 1
     b5c:	df 91       	pop	r29
     b5e:	cf 91       	pop	r28
     b60:	1f 91       	pop	r17
     b62:	0f 91       	pop	r16
     b64:	08 95       	ret

00000b66 <__vector_13>:
		USART_DecodeRxFIFO();
	}
}

ISR(TIMER1_COMPA_vect)
{
     b66:	1f 92       	push	r1
     b68:	0f 92       	push	r0
     b6a:	0f b6       	in	r0, 0x3f	; 63
     b6c:	0f 92       	push	r0
     b6e:	11 24       	eor	r1, r1
     b70:	8f 93       	push	r24
	if(std_pos_flag == 0)
     b72:	80 91 06 01 	lds	r24, 0x0106
     b76:	81 11       	cpse	r24, r1
     b78:	05 c0       	rjmp	.+10     	; 0xb84 <__vector_13+0x1e>
	{
		std_pos_flag = 1;
     b7a:	81 e0       	ldi	r24, 0x01	; 1
     b7c:	80 93 06 01 	sts	0x0106, r24
		move_to_std_flag = 1;
     b80:	80 93 89 15 	sts	0x1589, r24
	}
	
	//USART_SendValue(MPU_get_y() * 180/M_PI);
	TCNT1 = 0;
     b84:	10 92 85 00 	sts	0x0085, r1
     b88:	10 92 84 00 	sts	0x0084, r1
}
     b8c:	8f 91       	pop	r24
     b8e:	0f 90       	pop	r0
     b90:	0f be       	out	0x3f, r0	; 63
     b92:	0f 90       	pop	r0
     b94:	1f 90       	pop	r1
     b96:	18 95       	reti

00000b98 <_Z22wait_until_gyro_stablev>:

void wait_until_gyro_stable()
{
	wait(4000);
     b98:	80 ea       	ldi	r24, 0xA0	; 160
     b9a:	9f e0       	ldi	r25, 0x0F	; 15
     b9c:	78 df       	rcall	.-272    	; 0xa8e <_Z4waitj>
	wait(4000);
     b9e:	80 ea       	ldi	r24, 0xA0	; 160
     ba0:	9f e0       	ldi	r25, 0x0F	; 15
     ba2:	75 df       	rcall	.-278    	; 0xa8e <_Z4waitj>
	wait(4000);
     ba4:	80 ea       	ldi	r24, 0xA0	; 160
     ba6:	9f e0       	ldi	r25, 0x0F	; 15
     ba8:	72 df       	rcall	.-284    	; 0xa8e <_Z4waitj>
	wait(4000);
     baa:	80 ea       	ldi	r24, 0xA0	; 160
     bac:	9f e0       	ldi	r25, 0x0F	; 15
     bae:	6f df       	rcall	.-290    	; 0xa8e <_Z4waitj>
	wait(4000);
     bb0:	80 ea       	ldi	r24, 0xA0	; 160
     bb2:	9f e0       	ldi	r25, 0x0F	; 15
     bb4:	6c cf       	rjmp	.-296    	; 0xa8e <_Z4waitj>

00000bb6 <main>:

void wait_until_gyro_stable();

int main(void)
{
	DDRC |= (1<<PORTC6 | 1<<PORTC7); //init LED
     bb6:	87 b1       	in	r24, 0x07	; 7
     bb8:	80 6c       	ori	r24, 0xC0	; 192
     bba:	87 b9       	out	0x07, r24	; 7
	//servoTx;
	sei();
     bbc:	78 94       	sei
	USART_init();
     bbe:	0e 94 05 3d 	call	0x7a0a	; 0x7a0a <_Z10USART_initv>
	MPU_init();
     bc2:	0e 94 1b 3a 	call	0x7436	; 0x7436 <_Z8MPU_initv>
	SERVO_init(); //Init servos
     bc6:	0e 94 95 3c 	call	0x792a	; 0x792a <_Z10SERVO_initv>
	init_counters();
     bca:	3e df       	rcall	.-388    	; 0xa48 <_Z13init_countersv>
	
	initvar();
     bcc:	68 d0       	rcall	.+208    	; 0xc9e <_Z7initvarv>
	
	SERVO_update_EEPROM(BROADCASTING_ID);
     bce:	8e ef       	ldi	r24, 0xFE	; 254
     bd0:	0e 94 b5 3c 	call	0x796a	; 0x796a <_Z19SERVO_update_EEPROMh>
	
	wait(10);
     bd4:	8a e0       	ldi	r24, 0x0A	; 10
     bd6:	90 e0       	ldi	r25, 0x00	; 0
     bd8:	5a df       	rcall	.-332    	; 0xa8e <_Z4waitj>
	move_to_std();
     bda:	0e 94 bb 17 	call	0x2f76	; 0x2f76 <_Z11move_to_stdv>
	wait_until_gyro_stable();
     bde:	dc df       	rcall	.-72     	; 0xb98 <_Z22wait_until_gyro_stablev>
	USART_SendMessage("Gyro Stable");
     be0:	81 e5       	ldi	r24, 0x51	; 81
     be2:	95 e1       	ldi	r25, 0x15	; 21
     be4:	0e 94 de 3d 	call	0x7bbc	; 0x7bbc <_Z17USART_SendMessagePc>
	
	// ------ TESTCODE FOR READING SERVO -------
		
	//servoGoto(1, 3.14/3, 0x200);
	SERVO_update_EEPROM(BROADCASTING_ID); // NOTE: needs to run once for SERVO_get position to work	
     be8:	8e ef       	ldi	r24, 0xFE	; 254
     bea:	0e 94 b5 3c 	call	0x796a	; 0x796a <_Z19SERVO_update_EEPROMh>
	//----------------------------
	
	reset_counter_1();
     bee:	fe de       	rcall	.-516    	; 0x9ec <_Z15reset_counter_1v>
	set_counter_1(3000);
     bf0:	88 eb       	ldi	r24, 0xB8	; 184
     bf2:	9b e0       	ldi	r25, 0x0B	; 11
     bf4:	00 df       	rcall	.-512    	; 0x9f6 <_Z13set_counter_1j>
	
	//climb();
	
    while(1)
    {
		MPU_update();
     bf6:	0e 94 53 3a 	call	0x74a6	; 0x74a6 <_Z10MPU_updatev>
			sei();
		}
		
		*/
		
		if(move_to_std_flag == 1)
     bfa:	80 91 89 15 	lds	r24, 0x1589
     bfe:	81 30       	cpi	r24, 0x01	; 1
     c00:	21 f4       	brne	.+8      	; 0xc0a <main+0x54>
		{
			move_to_std_flag = 0;
     c02:	10 92 89 15 	sts	0x1589, r1
			move_to_std();
     c06:	0e 94 bb 17 	call	0x2f76	; 0x2f76 <_Z11move_to_stdv>
		}
		
		climb();
     c0a:	0e 94 1f 20 	call	0x403e	; 0x403e <_Z5climbv>
		
		
		change_z(-130);
     c0e:	60 e0       	ldi	r22, 0x00	; 0
     c10:	70 e0       	ldi	r23, 0x00	; 0
     c12:	82 e0       	ldi	r24, 0x02	; 2
     c14:	93 ec       	ldi	r25, 0xC3	; 195
     c16:	0e 94 44 10 	call	0x2088	; 0x2088 <_Z8change_zf>
		move_to_std();
     c1a:	0e 94 bb 17 	call	0x2f76	; 0x2f76 <_Z11move_to_stdv>
		turn_degrees(180,1);
     c1e:	61 e0       	ldi	r22, 0x01	; 1
     c20:	84 eb       	ldi	r24, 0xB4	; 180
     c22:	90 e0       	ldi	r25, 0x00	; 0
     c24:	0e 94 a0 1e 	call	0x3d40	; 0x3d40 <_Z12turn_degreesja>

		//wait(4000);
		
		

		USART_DecodeRxFIFO();
     c28:	0e 94 79 3f 	call	0x7ef2	; 0x7ef2 <_Z18USART_DecodeRxFIFOv>
	reset_counter_1();
	set_counter_1(3000);
	
	//climb();
	
    while(1)
     c2c:	e4 cf       	rjmp	.-56     	; 0xbf6 <main+0x40>

00000c2e <_Z11init_structP7LegData>:
	}
	
	
	
	return 1;
}
     c2e:	cf 93       	push	r28
     c30:	df 93       	push	r29
     c32:	ec 01       	movw	r28, r24
     c34:	82 e7       	ldi	r24, 0x72	; 114
     c36:	99 ef       	ldi	r25, 0xF9	; 249
     c38:	af e0       	ldi	r26, 0x0F	; 15
     c3a:	be e3       	ldi	r27, 0x3E	; 62
     c3c:	88 ab       	std	Y+48, r24	; 0x30
     c3e:	99 ab       	std	Y+49, r25	; 0x31
     c40:	aa ab       	std	Y+50, r26	; 0x32
     c42:	bb ab       	std	Y+51, r27	; 0x33
     c44:	40 e0       	ldi	r20, 0x00	; 0
     c46:	50 e0       	ldi	r21, 0x00	; 0
     c48:	60 ef       	ldi	r22, 0xF0	; 240
     c4a:	7f e3       	ldi	r23, 0x3F	; 63
     c4c:	4c a7       	std	Y+44, r20	; 0x2c
     c4e:	5d a7       	std	Y+45, r21	; 0x2d
     c50:	6e a7       	std	Y+46, r22	; 0x2e
     c52:	7f a7       	std	Y+47, r23	; 0x2f
     c54:	18 a6       	std	Y+40, r1	; 0x28
     c56:	19 a6       	std	Y+41, r1	; 0x29
     c58:	1a a6       	std	Y+42, r1	; 0x2a
     c5a:	1b a6       	std	Y+43, r1	; 0x2b
     c5c:	8c af       	std	Y+60, r24	; 0x3c
     c5e:	9d af       	std	Y+61, r25	; 0x3d
     c60:	ae af       	std	Y+62, r26	; 0x3e
     c62:	bf af       	std	Y+63, r27	; 0x3f
     c64:	48 af       	std	Y+56, r20	; 0x38
     c66:	59 af       	std	Y+57, r21	; 0x39
     c68:	6a af       	std	Y+58, r22	; 0x3a
     c6a:	7b af       	std	Y+59, r23	; 0x3b
     c6c:	1c aa       	std	Y+52, r1	; 0x34
     c6e:	1d aa       	std	Y+53, r1	; 0x35
     c70:	1e aa       	std	Y+54, r1	; 0x36
     c72:	1f aa       	std	Y+55, r1	; 0x37
     c74:	0e 94 b1 2d 	call	0x5b62	; 0x5b62 <_Z6get_x0v>
     c78:	6c 8b       	std	Y+20, r22	; 0x14
     c7a:	7d 8b       	std	Y+21, r23	; 0x15
     c7c:	8e 8b       	std	Y+22, r24	; 0x16
     c7e:	9f 8b       	std	Y+23, r25	; 0x17
     c80:	0e 94 be 2d 	call	0x5b7c	; 0x5b7c <_Z6get_y0v>
     c84:	68 8f       	std	Y+24, r22	; 0x18
     c86:	79 8f       	std	Y+25, r23	; 0x19
     c88:	8a 8f       	std	Y+26, r24	; 0x1a
     c8a:	9b 8f       	std	Y+27, r25	; 0x1b
     c8c:	0e 94 cb 2d 	call	0x5b96	; 0x5b96 <_Z6get_z0v>
     c90:	68 8b       	std	Y+16, r22	; 0x10
     c92:	79 8b       	std	Y+17, r23	; 0x11
     c94:	8a 8b       	std	Y+18, r24	; 0x12
     c96:	9b 8b       	std	Y+19, r25	; 0x13
     c98:	df 91       	pop	r29
     c9a:	cf 91       	pop	r28
     c9c:	08 95       	ret

00000c9e <_Z7initvarv>:
     c9e:	af 92       	push	r10
     ca0:	bf 92       	push	r11
     ca2:	cf 92       	push	r12
     ca4:	df 92       	push	r13
     ca6:	ef 92       	push	r14
     ca8:	ff 92       	push	r15
     caa:	0f 93       	push	r16
     cac:	1f 93       	push	r17
     cae:	cf 93       	push	r28
     cb0:	df 93       	push	r29
     cb2:	80 e0       	ldi	r24, 0x00	; 0
     cb4:	90 e8       	ldi	r25, 0x80	; 128
     cb6:	ab eb       	ldi	r26, 0xBB	; 187
     cb8:	b4 e4       	ldi	r27, 0x44	; 68
     cba:	80 93 c6 15 	sts	0x15C6, r24
     cbe:	90 93 c7 15 	sts	0x15C7, r25
     cc2:	a0 93 c8 15 	sts	0x15C8, r26
     cc6:	b0 93 c9 15 	sts	0x15C9, r27
     cca:	cc e2       	ldi	r28, 0x2C	; 44
     ccc:	d1 e0       	ldi	r29, 0x01	; 1
     cce:	d0 93 6e 19 	sts	0x196E, r29
     cd2:	c0 93 6d 19 	sts	0x196D, r28
     cd6:	80 e0       	ldi	r24, 0x00	; 0
     cd8:	90 e0       	ldi	r25, 0x00	; 0
     cda:	a0 ea       	ldi	r26, 0xA0	; 160
     cdc:	b0 e4       	ldi	r27, 0x40	; 64
     cde:	80 93 69 19 	sts	0x1969, r24
     ce2:	90 93 6a 19 	sts	0x196A, r25
     ce6:	a0 93 6b 19 	sts	0x196B, r26
     cea:	b0 93 6c 19 	sts	0x196C, r27
     cee:	80 e0       	ldi	r24, 0x00	; 0
     cf0:	90 e0       	ldi	r25, 0x00	; 0
     cf2:	ac e5       	ldi	r26, 0x5C	; 92
     cf4:	b2 e4       	ldi	r27, 0x42	; 66
     cf6:	80 93 8a 15 	sts	0x158A, r24
     cfa:	90 93 8b 15 	sts	0x158B, r25
     cfe:	a0 93 8c 15 	sts	0x158C, r26
     d02:	b0 93 8d 15 	sts	0x158D, r27
     d06:	0e 94 97 2d 	call	0x5b2e	; 0x5b2e <_Z8get_x0_1v>
     d0a:	6b 01       	movw	r12, r22
     d0c:	7c 01       	movw	r14, r24
     d0e:	0e 94 97 2d 	call	0x5b2e	; 0x5b2e <_Z8get_x0_1v>
     d12:	9b 01       	movw	r18, r22
     d14:	ac 01       	movw	r20, r24
     d16:	c7 01       	movw	r24, r14
     d18:	b6 01       	movw	r22, r12
     d1a:	0e 94 82 43 	call	0x8704	; 0x8704 <__mulsf3>
     d1e:	a6 2e       	mov	r10, r22
     d20:	b7 2e       	mov	r11, r23
     d22:	08 2f       	mov	r16, r24
     d24:	19 2f       	mov	r17, r25
     d26:	0e 94 a4 2d 	call	0x5b48	; 0x5b48 <_Z8get_y0_1v>
     d2a:	6b 01       	movw	r12, r22
     d2c:	7c 01       	movw	r14, r24
     d2e:	0e 94 a4 2d 	call	0x5b48	; 0x5b48 <_Z8get_y0_1v>
     d32:	9b 01       	movw	r18, r22
     d34:	ac 01       	movw	r20, r24
     d36:	c7 01       	movw	r24, r14
     d38:	b6 01       	movw	r22, r12
     d3a:	0e 94 82 43 	call	0x8704	; 0x8704 <__mulsf3>
     d3e:	9b 01       	movw	r18, r22
     d40:	ac 01       	movw	r20, r24
     d42:	6a 2d       	mov	r22, r10
     d44:	7b 2d       	mov	r23, r11
     d46:	80 2f       	mov	r24, r16
     d48:	91 2f       	mov	r25, r17
     d4a:	0e 94 43 40 	call	0x8086	; 0x8086 <__addsf3>
     d4e:	0e 94 ef 43 	call	0x87de	; 0x87de <sqrt>
     d52:	60 93 8e 15 	sts	0x158E, r22
     d56:	70 93 8f 15 	sts	0x158F, r23
     d5a:	80 93 90 15 	sts	0x1590, r24
     d5e:	90 93 91 15 	sts	0x1591, r25
     d62:	80 e0       	ldi	r24, 0x00	; 0
     d64:	90 e0       	ldi	r25, 0x00	; 0
     d66:	a0 ef       	ldi	r26, 0xF0	; 240
     d68:	b2 ec       	ldi	r27, 0xC2	; 194
     d6a:	80 93 b2 15 	sts	0x15B2, r24
     d6e:	90 93 b3 15 	sts	0x15B3, r25
     d72:	a0 93 b4 15 	sts	0x15B4, r26
     d76:	b0 93 b5 15 	sts	0x15B5, r27
     d7a:	86 ea       	ldi	r24, 0xA6	; 166
     d7c:	98 e1       	ldi	r25, 0x18	; 24
     d7e:	57 df       	rcall	.-338    	; 0xc2e <_Z11init_structP7LegData>
     d80:	86 e1       	ldi	r24, 0x16	; 22
     d82:	98 e1       	ldi	r25, 0x18	; 24
     d84:	54 df       	rcall	.-344    	; 0xc2e <_Z11init_structP7LegData>
     d86:	86 e8       	ldi	r24, 0x86	; 134
     d88:	97 e1       	ldi	r25, 0x17	; 23
     d8a:	51 df       	rcall	.-350    	; 0xc2e <_Z11init_structP7LegData>
     d8c:	86 ef       	ldi	r24, 0xF6	; 246
     d8e:	96 e1       	ldi	r25, 0x16	; 22
     d90:	4e df       	rcall	.-356    	; 0xc2e <_Z11init_structP7LegData>
     d92:	86 e6       	ldi	r24, 0x66	; 102
     d94:	96 e1       	ldi	r25, 0x16	; 22
     d96:	4b df       	rcall	.-362    	; 0xc2e <_Z11init_structP7LegData>
     d98:	86 ed       	ldi	r24, 0xD6	; 214
     d9a:	95 e1       	ldi	r25, 0x15	; 21
     d9c:	48 df       	rcall	.-368    	; 0xc2e <_Z11init_structP7LegData>
     d9e:	40 e0       	ldi	r20, 0x00	; 0
     da0:	50 e0       	ldi	r21, 0x00	; 0
     da2:	60 e8       	ldi	r22, 0x80	; 128
     da4:	7f e3       	ldi	r23, 0x3F	; 63
     da6:	40 93 aa 18 	sts	0x18AA, r20
     daa:	50 93 ab 18 	sts	0x18AB, r21
     dae:	60 93 ac 18 	sts	0x18AC, r22
     db2:	70 93 ad 18 	sts	0x18AD, r23
     db6:	80 e0       	ldi	r24, 0x00	; 0
     db8:	90 e0       	ldi	r25, 0x00	; 0
     dba:	a0 e8       	ldi	r26, 0x80	; 128
     dbc:	bf eb       	ldi	r27, 0xBF	; 191
     dbe:	80 93 1a 18 	sts	0x181A, r24
     dc2:	90 93 1b 18 	sts	0x181B, r25
     dc6:	a0 93 1c 18 	sts	0x181C, r26
     dca:	b0 93 1d 18 	sts	0x181D, r27
     dce:	40 93 8a 17 	sts	0x178A, r20
     dd2:	50 93 8b 17 	sts	0x178B, r21
     dd6:	60 93 8c 17 	sts	0x178C, r22
     dda:	70 93 8d 17 	sts	0x178D, r23
     dde:	80 93 fa 16 	sts	0x16FA, r24
     de2:	90 93 fb 16 	sts	0x16FB, r25
     de6:	a0 93 fc 16 	sts	0x16FC, r26
     dea:	b0 93 fd 16 	sts	0x16FD, r27
     dee:	40 93 6a 16 	sts	0x166A, r20
     df2:	50 93 6b 16 	sts	0x166B, r21
     df6:	60 93 6c 16 	sts	0x166C, r22
     dfa:	70 93 6d 16 	sts	0x166D, r23
     dfe:	80 93 da 15 	sts	0x15DA, r24
     e02:	90 93 db 15 	sts	0x15DB, r25
     e06:	a0 93 dc 15 	sts	0x15DC, r26
     e0a:	b0 93 dd 15 	sts	0x15DD, r27
     e0e:	40 93 a6 18 	sts	0x18A6, r20
     e12:	50 93 a7 18 	sts	0x18A7, r21
     e16:	60 93 a8 18 	sts	0x18A8, r22
     e1a:	70 93 a9 18 	sts	0x18A9, r23
     e1e:	40 93 16 18 	sts	0x1816, r20
     e22:	50 93 17 18 	sts	0x1817, r21
     e26:	60 93 18 18 	sts	0x1818, r22
     e2a:	70 93 19 18 	sts	0x1819, r23
     e2e:	40 93 86 17 	sts	0x1786, r20
     e32:	50 93 87 17 	sts	0x1787, r21
     e36:	60 93 88 17 	sts	0x1788, r22
     e3a:	70 93 89 17 	sts	0x1789, r23
     e3e:	80 93 f6 16 	sts	0x16F6, r24
     e42:	90 93 f7 16 	sts	0x16F7, r25
     e46:	a0 93 f8 16 	sts	0x16F8, r26
     e4a:	b0 93 f9 16 	sts	0x16F9, r27
     e4e:	80 93 66 16 	sts	0x1666, r24
     e52:	90 93 67 16 	sts	0x1667, r25
     e56:	a0 93 68 16 	sts	0x1668, r26
     e5a:	b0 93 69 16 	sts	0x1669, r27
     e5e:	80 93 d6 15 	sts	0x15D6, r24
     e62:	90 93 d7 15 	sts	0x15D7, r25
     e66:	a0 93 d8 15 	sts	0x15D8, r26
     e6a:	b0 93 d9 15 	sts	0x15D9, r27
     e6e:	10 92 0b 19 	sts	0x190B, r1
     e72:	10 92 0a 19 	sts	0x190A, r1
     e76:	10 92 7b 18 	sts	0x187B, r1
     e7a:	10 92 7a 18 	sts	0x187A, r1
     e7e:	10 92 eb 17 	sts	0x17EB, r1
     e82:	10 92 ea 17 	sts	0x17EA, r1
     e86:	10 92 5b 17 	sts	0x175B, r1
     e8a:	10 92 5a 17 	sts	0x175A, r1
     e8e:	10 92 cb 16 	sts	0x16CB, r1
     e92:	10 92 ca 16 	sts	0x16CA, r1
     e96:	10 92 3b 16 	sts	0x163B, r1
     e9a:	10 92 3a 16 	sts	0x163A, r1
     e9e:	8a e0       	ldi	r24, 0x0A	; 10
     ea0:	90 e0       	ldi	r25, 0x00	; 0
     ea2:	90 93 03 19 	sts	0x1903, r25
     ea6:	80 93 02 19 	sts	0x1902, r24
     eaa:	8c e0       	ldi	r24, 0x0C	; 12
     eac:	90 e0       	ldi	r25, 0x00	; 0
     eae:	90 93 01 19 	sts	0x1901, r25
     eb2:	80 93 00 19 	sts	0x1900, r24
     eb6:	88 e0       	ldi	r24, 0x08	; 8
     eb8:	90 e0       	ldi	r25, 0x00	; 0
     eba:	90 93 ff 18 	sts	0x18FF, r25
     ebe:	80 93 fe 18 	sts	0x18FE, r24
     ec2:	8b ed       	ldi	r24, 0xDB	; 219
     ec4:	91 e0       	ldi	r25, 0x01	; 1
     ec6:	90 93 05 19 	sts	0x1905, r25
     eca:	80 93 04 19 	sts	0x1904, r24
     ece:	80 e9       	ldi	r24, 0x90	; 144
     ed0:	91 e0       	ldi	r25, 0x01	; 1
     ed2:	90 93 07 19 	sts	0x1907, r25
     ed6:	80 93 06 19 	sts	0x1906, r24
     eda:	80 e1       	ldi	r24, 0x10	; 16
     edc:	90 e0       	ldi	r25, 0x00	; 0
     ede:	90 93 73 18 	sts	0x1873, r25
     ee2:	80 93 72 18 	sts	0x1872, r24
     ee6:	82 e1       	ldi	r24, 0x12	; 18
     ee8:	90 e0       	ldi	r25, 0x00	; 0
     eea:	90 93 71 18 	sts	0x1871, r25
     eee:	80 93 70 18 	sts	0x1870, r24
     ef2:	8e e0       	ldi	r24, 0x0E	; 14
     ef4:	90 e0       	ldi	r25, 0x00	; 0
     ef6:	90 93 6f 18 	sts	0x186F, r25
     efa:	80 93 6e 18 	sts	0x186E, r24
     efe:	8a ef       	ldi	r24, 0xFA	; 250
     f00:	90 e0       	ldi	r25, 0x00	; 0
     f02:	90 93 75 18 	sts	0x1875, r25
     f06:	80 93 74 18 	sts	0x1874, r24
     f0a:	21 ee       	ldi	r18, 0xE1	; 225
     f0c:	30 e0       	ldi	r19, 0x00	; 0
     f0e:	30 93 77 18 	sts	0x1877, r19
     f12:	20 93 76 18 	sts	0x1876, r18
     f16:	24 e0       	ldi	r18, 0x04	; 4
     f18:	30 e0       	ldi	r19, 0x00	; 0
     f1a:	30 93 e3 17 	sts	0x17E3, r19
     f1e:	20 93 e2 17 	sts	0x17E2, r18
     f22:	26 e0       	ldi	r18, 0x06	; 6
     f24:	30 e0       	ldi	r19, 0x00	; 0
     f26:	30 93 e1 17 	sts	0x17E1, r19
     f2a:	20 93 e0 17 	sts	0x17E0, r18
     f2e:	22 e0       	ldi	r18, 0x02	; 2
     f30:	30 e0       	ldi	r19, 0x00	; 0
     f32:	30 93 df 17 	sts	0x17DF, r19
     f36:	20 93 de 17 	sts	0x17DE, r18
     f3a:	28 ec       	ldi	r18, 0xC8	; 200
     f3c:	30 e0       	ldi	r19, 0x00	; 0
     f3e:	30 93 e5 17 	sts	0x17E5, r19
     f42:	20 93 e4 17 	sts	0x17E4, r18
     f46:	30 93 e7 17 	sts	0x17E7, r19
     f4a:	20 93 e6 17 	sts	0x17E6, r18
     f4e:	23 e0       	ldi	r18, 0x03	; 3
     f50:	30 e0       	ldi	r19, 0x00	; 0
     f52:	30 93 53 17 	sts	0x1753, r19
     f56:	20 93 52 17 	sts	0x1752, r18
     f5a:	25 e0       	ldi	r18, 0x05	; 5
     f5c:	30 e0       	ldi	r19, 0x00	; 0
     f5e:	30 93 51 17 	sts	0x1751, r19
     f62:	20 93 50 17 	sts	0x1750, r18
     f66:	21 e0       	ldi	r18, 0x01	; 1
     f68:	30 e0       	ldi	r19, 0x00	; 0
     f6a:	30 93 4f 17 	sts	0x174F, r19
     f6e:	20 93 4e 17 	sts	0x174E, r18
     f72:	d0 93 55 17 	sts	0x1755, r29
     f76:	c0 93 54 17 	sts	0x1754, r28
     f7a:	d0 93 57 17 	sts	0x1757, r29
     f7e:	c0 93 56 17 	sts	0x1756, r28
     f82:	2f e0       	ldi	r18, 0x0F	; 15
     f84:	30 e0       	ldi	r19, 0x00	; 0
     f86:	30 93 c3 16 	sts	0x16C3, r19
     f8a:	20 93 c2 16 	sts	0x16C2, r18
     f8e:	21 e1       	ldi	r18, 0x11	; 17
     f90:	30 e0       	ldi	r19, 0x00	; 0
     f92:	30 93 c1 16 	sts	0x16C1, r19
     f96:	20 93 c0 16 	sts	0x16C0, r18
     f9a:	2d e0       	ldi	r18, 0x0D	; 13
     f9c:	30 e0       	ldi	r19, 0x00	; 0
     f9e:	30 93 bf 16 	sts	0x16BF, r19
     fa2:	20 93 be 16 	sts	0x16BE, r18
     fa6:	90 93 c5 16 	sts	0x16C5, r25
     faa:	80 93 c4 16 	sts	0x16C4, r24
     fae:	90 93 c7 16 	sts	0x16C7, r25
     fb2:	80 93 c6 16 	sts	0x16C6, r24
     fb6:	89 e0       	ldi	r24, 0x09	; 9
     fb8:	90 e0       	ldi	r25, 0x00	; 0
     fba:	90 93 33 16 	sts	0x1633, r25
     fbe:	80 93 32 16 	sts	0x1632, r24
     fc2:	8b e0       	ldi	r24, 0x0B	; 11
     fc4:	90 e0       	ldi	r25, 0x00	; 0
     fc6:	90 93 31 16 	sts	0x1631, r25
     fca:	80 93 30 16 	sts	0x1630, r24
     fce:	87 e0       	ldi	r24, 0x07	; 7
     fd0:	90 e0       	ldi	r25, 0x00	; 0
     fd2:	90 93 2f 16 	sts	0x162F, r25
     fd6:	80 93 2e 16 	sts	0x162E, r24
     fda:	84 ef       	ldi	r24, 0xF4	; 244
     fdc:	91 e0       	ldi	r25, 0x01	; 1
     fde:	90 93 35 16 	sts	0x1635, r25
     fe2:	80 93 34 16 	sts	0x1634, r24
     fe6:	89 ea       	ldi	r24, 0xA9	; 169
     fe8:	91 e0       	ldi	r25, 0x01	; 1
     fea:	90 93 37 16 	sts	0x1637, r25
     fee:	80 93 36 16 	sts	0x1636, r24
     ff2:	df 91       	pop	r29
     ff4:	cf 91       	pop	r28
     ff6:	1f 91       	pop	r17
     ff8:	0f 91       	pop	r16
     ffa:	ff 90       	pop	r15
     ffc:	ef 90       	pop	r14
     ffe:	df 90       	pop	r13
    1000:	cf 90       	pop	r12
    1002:	bf 90       	pop	r11
    1004:	af 90       	pop	r10
    1006:	08 95       	ret

00001008 <_Z10step_startP7LegData>:
	angle = (angle * 0x3ff / 300);
	return (uint16_t)angle; //this will probably truncate correctly...or not....
}

void step_start(struct LegData* leg)
{
    1008:	fc 01       	movw	r30, r24
	leg->prevPosx = leg->newPosx;
    100a:	84 89       	ldd	r24, Z+20	; 0x14
    100c:	95 89       	ldd	r25, Z+21	; 0x15
    100e:	a6 89       	ldd	r26, Z+22	; 0x16
    1010:	b7 89       	ldd	r27, Z+23	; 0x17
    1012:	84 8f       	std	Z+28, r24	; 0x1c
    1014:	95 8f       	std	Z+29, r25	; 0x1d
    1016:	a6 8f       	std	Z+30, r26	; 0x1e
    1018:	b7 8f       	std	Z+31, r27	; 0x1f
	leg->prevPosy = leg->newPosy;
    101a:	80 8d       	ldd	r24, Z+24	; 0x18
    101c:	91 8d       	ldd	r25, Z+25	; 0x19
    101e:	a2 8d       	ldd	r26, Z+26	; 0x1a
    1020:	b3 8d       	ldd	r27, Z+27	; 0x1b
    1022:	80 a3       	std	Z+32, r24	; 0x20
    1024:	91 a3       	std	Z+33, r25	; 0x21
    1026:	a2 a3       	std	Z+34, r26	; 0x22
    1028:	b3 a3       	std	Z+35, r27	; 0x23
	//leg->newPosz = z;
	leg->prevAngleAlpha = leg->newAngleAlpha;
    102a:	44 ad       	ldd	r20, Z+60	; 0x3c
    102c:	55 ad       	ldd	r21, Z+61	; 0x3d
    102e:	66 ad       	ldd	r22, Z+62	; 0x3e
    1030:	77 ad       	ldd	r23, Z+63	; 0x3f
    1032:	40 ab       	std	Z+48, r20	; 0x30
    1034:	51 ab       	std	Z+49, r21	; 0x31
    1036:	62 ab       	std	Z+50, r22	; 0x32
    1038:	73 ab       	std	Z+51, r23	; 0x33
	leg->prevAngleBeta = leg->newAngleBeta;
    103a:	40 ad       	ldd	r20, Z+56	; 0x38
    103c:	51 ad       	ldd	r21, Z+57	; 0x39
    103e:	62 ad       	ldd	r22, Z+58	; 0x3a
    1040:	73 ad       	ldd	r23, Z+59	; 0x3b
    1042:	44 a7       	std	Z+44, r20	; 0x2c
    1044:	55 a7       	std	Z+45, r21	; 0x2d
    1046:	66 a7       	std	Z+46, r22	; 0x2e
    1048:	77 a7       	std	Z+47, r23	; 0x2f
	leg->prevAngleGamma = leg->newAngleGamma;
    104a:	44 a9       	ldd	r20, Z+52	; 0x34
    104c:	55 a9       	ldd	r21, Z+53	; 0x35
    104e:	66 a9       	ldd	r22, Z+54	; 0x36
    1050:	77 a9       	ldd	r23, Z+55	; 0x37
    1052:	40 a7       	std	Z+40, r20	; 0x28
    1054:	51 a7       	std	Z+41, r21	; 0x29
    1056:	62 a7       	std	Z+42, r22	; 0x2a
    1058:	73 a7       	std	Z+43, r23	; 0x2b
    105a:	08 95       	ret

0000105c <_Z21step_part1_calculatorP7LegData>:
}

void step_part1_calculator(struct LegData* leg)
{
    105c:	6f 92       	push	r6
    105e:	7f 92       	push	r7
    1060:	8f 92       	push	r8
    1062:	9f 92       	push	r9
    1064:	af 92       	push	r10
    1066:	bf 92       	push	r11
    1068:	0f 93       	push	r16
    106a:	1f 93       	push	r17
    106c:	cf 93       	push	r28
    106e:	df 93       	push	r29
    1070:	ec 01       	movw	r28, r24
	newPosxWB = leg->lift * maxStepLength / stepMax * (xDirection + leg->xRot) * stepScaling;
    1072:	20 91 8a 15 	lds	r18, 0x158A
    1076:	30 91 8b 15 	lds	r19, 0x158B
    107a:	40 91 8c 15 	lds	r20, 0x158C
    107e:	50 91 8d 15 	lds	r21, 0x158D
    1082:	6c 81       	ldd	r22, Y+4	; 0x04
    1084:	7d 81       	ldd	r23, Y+5	; 0x05
    1086:	8e 81       	ldd	r24, Y+6	; 0x06
    1088:	9f 81       	ldd	r25, Y+7	; 0x07
    108a:	0e 94 82 43 	call	0x8704	; 0x8704 <__mulsf3>
    108e:	20 91 9a 15 	lds	r18, 0x159A
    1092:	30 91 9b 15 	lds	r19, 0x159B
    1096:	40 91 9c 15 	lds	r20, 0x159C
    109a:	50 91 9d 15 	lds	r21, 0x159D
    109e:	0e 94 27 41 	call	0x824e	; 0x824e <__divsf3>
    10a2:	66 2e       	mov	r6, r22
    10a4:	77 2e       	mov	r7, r23
    10a6:	08 2f       	mov	r16, r24
    10a8:	19 2f       	mov	r17, r25
    10aa:	80 90 92 15 	lds	r8, 0x1592
    10ae:	90 90 93 15 	lds	r9, 0x1593
    10b2:	a0 90 94 15 	lds	r10, 0x1594
    10b6:	b0 90 95 15 	lds	r11, 0x1595
    10ba:	20 91 a2 15 	lds	r18, 0x15A2
    10be:	30 91 a3 15 	lds	r19, 0x15A3
    10c2:	40 91 a4 15 	lds	r20, 0x15A4
    10c6:	50 91 a5 15 	lds	r21, 0x15A5
    10ca:	68 85       	ldd	r22, Y+8	; 0x08
    10cc:	79 85       	ldd	r23, Y+9	; 0x09
    10ce:	8a 85       	ldd	r24, Y+10	; 0x0a
    10d0:	9b 85       	ldd	r25, Y+11	; 0x0b
    10d2:	0e 94 43 40 	call	0x8086	; 0x8086 <__addsf3>
    10d6:	9b 01       	movw	r18, r22
    10d8:	ac 01       	movw	r20, r24
    10da:	66 2d       	mov	r22, r6
    10dc:	77 2d       	mov	r23, r7
    10de:	80 2f       	mov	r24, r16
    10e0:	91 2f       	mov	r25, r17
    10e2:	0e 94 82 43 	call	0x8704	; 0x8704 <__mulsf3>
    10e6:	a5 01       	movw	r20, r10
    10e8:	94 01       	movw	r18, r8
    10ea:	0e 94 82 43 	call	0x8704	; 0x8704 <__mulsf3>
    10ee:	60 93 3a 19 	sts	0x193A, r22
    10f2:	70 93 3b 19 	sts	0x193B, r23
    10f6:	80 93 3c 19 	sts	0x193C, r24
    10fa:	90 93 3d 19 	sts	0x193D, r25
	newPosyWB = leg->lift * maxStepLength / stepMax * (yDirection + leg->yRot) * stepScaling;
    10fe:	20 91 9e 15 	lds	r18, 0x159E
    1102:	30 91 9f 15 	lds	r19, 0x159F
    1106:	40 91 a0 15 	lds	r20, 0x15A0
    110a:	50 91 a1 15 	lds	r21, 0x15A1
    110e:	6c 85       	ldd	r22, Y+12	; 0x0c
    1110:	7d 85       	ldd	r23, Y+13	; 0x0d
    1112:	8e 85       	ldd	r24, Y+14	; 0x0e
    1114:	9f 85       	ldd	r25, Y+15	; 0x0f
    1116:	0e 94 43 40 	call	0x8086	; 0x8086 <__addsf3>
    111a:	9b 01       	movw	r18, r22
    111c:	ac 01       	movw	r20, r24
    111e:	66 2d       	mov	r22, r6
    1120:	77 2d       	mov	r23, r7
    1122:	80 2f       	mov	r24, r16
    1124:	91 2f       	mov	r25, r17
    1126:	0e 94 82 43 	call	0x8704	; 0x8704 <__mulsf3>
    112a:	9b 01       	movw	r18, r22
    112c:	ac 01       	movw	r20, r24
    112e:	c5 01       	movw	r24, r10
    1130:	b4 01       	movw	r22, r8
    1132:	0e 94 82 43 	call	0x8704	; 0x8704 <__mulsf3>
    1136:	60 93 36 19 	sts	0x1936, r22
    113a:	70 93 37 19 	sts	0x1937, r23
    113e:	80 93 38 19 	sts	0x1938, r24
    1142:	90 93 39 19 	sts	0x1939, r25
	//leg->newPosz = z;
}
    1146:	df 91       	pop	r29
    1148:	cf 91       	pop	r28
    114a:	1f 91       	pop	r17
    114c:	0f 91       	pop	r16
    114e:	bf 90       	pop	r11
    1150:	af 90       	pop	r10
    1152:	9f 90       	pop	r9
    1154:	8f 90       	pop	r8
    1156:	7f 90       	pop	r7
    1158:	6f 90       	pop	r6
    115a:	08 95       	ret

0000115c <_Z21step_part2_calculatorP7LegData>:

void step_part2_calculator(struct LegData* leg)
{
    115c:	ef 92       	push	r14
    115e:	ff 92       	push	r15
    1160:	0f 93       	push	r16
    1162:	1f 93       	push	r17
    1164:	cf 93       	push	r28
    1166:	df 93       	push	r29
    1168:	ec 01       	movw	r28, r24
	calc_d(leg->newPosx, leg->newPosy, leg->newPosz);
    116a:	e8 88       	ldd	r14, Y+16	; 0x10
    116c:	f9 88       	ldd	r15, Y+17	; 0x11
    116e:	0a 89       	ldd	r16, Y+18	; 0x12
    1170:	1b 89       	ldd	r17, Y+19	; 0x13
    1172:	28 8d       	ldd	r18, Y+24	; 0x18
    1174:	39 8d       	ldd	r19, Y+25	; 0x19
    1176:	4a 8d       	ldd	r20, Y+26	; 0x1a
    1178:	5b 8d       	ldd	r21, Y+27	; 0x1b
    117a:	6c 89       	ldd	r22, Y+20	; 0x14
    117c:	7d 89       	ldd	r23, Y+21	; 0x15
    117e:	8e 89       	ldd	r24, Y+22	; 0x16
    1180:	9f 89       	ldd	r25, Y+23	; 0x17
    1182:	0e 94 d8 2d 	call	0x5bb0	; 0x5bb0 <_Z6calc_dfff>
	leg->newAngleGamma = get_gamma(leg->newPosx, leg->newPosy);
    1186:	28 8d       	ldd	r18, Y+24	; 0x18
    1188:	39 8d       	ldd	r19, Y+25	; 0x19
    118a:	4a 8d       	ldd	r20, Y+26	; 0x1a
    118c:	5b 8d       	ldd	r21, Y+27	; 0x1b
    118e:	6c 89       	ldd	r22, Y+20	; 0x14
    1190:	7d 89       	ldd	r23, Y+21	; 0x15
    1192:	8e 89       	ldd	r24, Y+22	; 0x16
    1194:	9f 89       	ldd	r25, Y+23	; 0x17
    1196:	0e 94 39 2e 	call	0x5c72	; 0x5c72 <_Z9get_gammaff>
    119a:	6c ab       	std	Y+52, r22	; 0x34
    119c:	7d ab       	std	Y+53, r23	; 0x35
    119e:	8e ab       	std	Y+54, r24	; 0x36
    11a0:	9f ab       	std	Y+55, r25	; 0x37
	leg->newAngleBeta = get_beta();
    11a2:	0e 94 5c 2e 	call	0x5cb8	; 0x5cb8 <_Z8get_betav>
    11a6:	68 af       	std	Y+56, r22	; 0x38
    11a8:	79 af       	std	Y+57, r23	; 0x39
    11aa:	8a af       	std	Y+58, r24	; 0x3a
    11ac:	9b af       	std	Y+59, r25	; 0x3b
	leg->newAngleAlpha = get_alpha(leg->newPosz);
    11ae:	68 89       	ldd	r22, Y+16	; 0x10
    11b0:	79 89       	ldd	r23, Y+17	; 0x11
    11b2:	8a 89       	ldd	r24, Y+18	; 0x12
    11b4:	9b 89       	ldd	r25, Y+19	; 0x13
    11b6:	0e 94 91 2e 	call	0x5d22	; 0x5d22 <_Z9get_alphaf>
    11ba:	6c af       	std	Y+60, r22	; 0x3c
    11bc:	7d af       	std	Y+61, r23	; 0x3d
    11be:	8e af       	std	Y+62, r24	; 0x3e
    11c0:	9f af       	std	Y+63, r25	; 0x3f
}
    11c2:	df 91       	pop	r29
    11c4:	cf 91       	pop	r28
    11c6:	1f 91       	pop	r17
    11c8:	0f 91       	pop	r16
    11ca:	ff 90       	pop	r15
    11cc:	ef 90       	pop	r14
    11ce:	08 95       	ret

000011d0 <_Z15leg_motion_initv>:
	}
}

void leg_motion_init()
{
	leg1.temp2AngleAlpha = leg1.prevAngleAlpha;
    11d0:	80 91 d6 18 	lds	r24, 0x18D6
    11d4:	90 91 d7 18 	lds	r25, 0x18D7
    11d8:	a0 91 d8 18 	lds	r26, 0x18D8
    11dc:	b0 91 d9 18 	lds	r27, 0x18D9
    11e0:	80 93 fa 18 	sts	0x18FA, r24
    11e4:	90 93 fb 18 	sts	0x18FB, r25
    11e8:	a0 93 fc 18 	sts	0x18FC, r26
    11ec:	b0 93 fd 18 	sts	0x18FD, r27
	leg1.temp2AngleBeta = leg1.prevAngleBeta;
    11f0:	80 91 d2 18 	lds	r24, 0x18D2
    11f4:	90 91 d3 18 	lds	r25, 0x18D3
    11f8:	a0 91 d4 18 	lds	r26, 0x18D4
    11fc:	b0 91 d5 18 	lds	r27, 0x18D5
    1200:	80 93 f6 18 	sts	0x18F6, r24
    1204:	90 93 f7 18 	sts	0x18F7, r25
    1208:	a0 93 f8 18 	sts	0x18F8, r26
    120c:	b0 93 f9 18 	sts	0x18F9, r27
	leg1.temp2AngleGamma = leg1.prevAngleGamma;
    1210:	80 91 ce 18 	lds	r24, 0x18CE
    1214:	90 91 cf 18 	lds	r25, 0x18CF
    1218:	a0 91 d0 18 	lds	r26, 0x18D0
    121c:	b0 91 d1 18 	lds	r27, 0x18D1
    1220:	80 93 f2 18 	sts	0x18F2, r24
    1224:	90 93 f3 18 	sts	0x18F3, r25
    1228:	a0 93 f4 18 	sts	0x18F4, r26
    122c:	b0 93 f5 18 	sts	0x18F5, r27
	
	leg2.temp2AngleAlpha = leg2.prevAngleAlpha;
    1230:	80 91 46 18 	lds	r24, 0x1846
    1234:	90 91 47 18 	lds	r25, 0x1847
    1238:	a0 91 48 18 	lds	r26, 0x1848
    123c:	b0 91 49 18 	lds	r27, 0x1849
    1240:	80 93 6a 18 	sts	0x186A, r24
    1244:	90 93 6b 18 	sts	0x186B, r25
    1248:	a0 93 6c 18 	sts	0x186C, r26
    124c:	b0 93 6d 18 	sts	0x186D, r27
	leg2.temp2AngleBeta = leg2.prevAngleBeta;
    1250:	80 91 42 18 	lds	r24, 0x1842
    1254:	90 91 43 18 	lds	r25, 0x1843
    1258:	a0 91 44 18 	lds	r26, 0x1844
    125c:	b0 91 45 18 	lds	r27, 0x1845
    1260:	80 93 66 18 	sts	0x1866, r24
    1264:	90 93 67 18 	sts	0x1867, r25
    1268:	a0 93 68 18 	sts	0x1868, r26
    126c:	b0 93 69 18 	sts	0x1869, r27
	leg2.temp2AngleGamma = leg2.prevAngleGamma;
    1270:	80 91 3e 18 	lds	r24, 0x183E
    1274:	90 91 3f 18 	lds	r25, 0x183F
    1278:	a0 91 40 18 	lds	r26, 0x1840
    127c:	b0 91 41 18 	lds	r27, 0x1841
    1280:	80 93 62 18 	sts	0x1862, r24
    1284:	90 93 63 18 	sts	0x1863, r25
    1288:	a0 93 64 18 	sts	0x1864, r26
    128c:	b0 93 65 18 	sts	0x1865, r27
	
	leg3.temp2AngleAlpha = leg3.prevAngleAlpha;
    1290:	80 91 b6 17 	lds	r24, 0x17B6
    1294:	90 91 b7 17 	lds	r25, 0x17B7
    1298:	a0 91 b8 17 	lds	r26, 0x17B8
    129c:	b0 91 b9 17 	lds	r27, 0x17B9
    12a0:	80 93 da 17 	sts	0x17DA, r24
    12a4:	90 93 db 17 	sts	0x17DB, r25
    12a8:	a0 93 dc 17 	sts	0x17DC, r26
    12ac:	b0 93 dd 17 	sts	0x17DD, r27
	leg3.temp2AngleBeta = leg3.prevAngleBeta;
    12b0:	80 91 b2 17 	lds	r24, 0x17B2
    12b4:	90 91 b3 17 	lds	r25, 0x17B3
    12b8:	a0 91 b4 17 	lds	r26, 0x17B4
    12bc:	b0 91 b5 17 	lds	r27, 0x17B5
    12c0:	80 93 d6 17 	sts	0x17D6, r24
    12c4:	90 93 d7 17 	sts	0x17D7, r25
    12c8:	a0 93 d8 17 	sts	0x17D8, r26
    12cc:	b0 93 d9 17 	sts	0x17D9, r27
	leg3.temp2AngleGamma = leg3.prevAngleGamma;
    12d0:	80 91 ae 17 	lds	r24, 0x17AE
    12d4:	90 91 af 17 	lds	r25, 0x17AF
    12d8:	a0 91 b0 17 	lds	r26, 0x17B0
    12dc:	b0 91 b1 17 	lds	r27, 0x17B1
    12e0:	80 93 d2 17 	sts	0x17D2, r24
    12e4:	90 93 d3 17 	sts	0x17D3, r25
    12e8:	a0 93 d4 17 	sts	0x17D4, r26
    12ec:	b0 93 d5 17 	sts	0x17D5, r27
	
	leg4.temp2AngleAlpha = leg4.prevAngleAlpha;
    12f0:	80 91 26 17 	lds	r24, 0x1726
    12f4:	90 91 27 17 	lds	r25, 0x1727
    12f8:	a0 91 28 17 	lds	r26, 0x1728
    12fc:	b0 91 29 17 	lds	r27, 0x1729
    1300:	80 93 4a 17 	sts	0x174A, r24
    1304:	90 93 4b 17 	sts	0x174B, r25
    1308:	a0 93 4c 17 	sts	0x174C, r26
    130c:	b0 93 4d 17 	sts	0x174D, r27
	leg4.temp2AngleBeta = leg4.prevAngleBeta;
    1310:	80 91 22 17 	lds	r24, 0x1722
    1314:	90 91 23 17 	lds	r25, 0x1723
    1318:	a0 91 24 17 	lds	r26, 0x1724
    131c:	b0 91 25 17 	lds	r27, 0x1725
    1320:	80 93 46 17 	sts	0x1746, r24
    1324:	90 93 47 17 	sts	0x1747, r25
    1328:	a0 93 48 17 	sts	0x1748, r26
    132c:	b0 93 49 17 	sts	0x1749, r27
	leg4.temp2AngleGamma = leg4.prevAngleGamma;
    1330:	80 91 1e 17 	lds	r24, 0x171E
    1334:	90 91 1f 17 	lds	r25, 0x171F
    1338:	a0 91 20 17 	lds	r26, 0x1720
    133c:	b0 91 21 17 	lds	r27, 0x1721
    1340:	80 93 42 17 	sts	0x1742, r24
    1344:	90 93 43 17 	sts	0x1743, r25
    1348:	a0 93 44 17 	sts	0x1744, r26
    134c:	b0 93 45 17 	sts	0x1745, r27
	
	leg5.temp2AngleAlpha = leg5.prevAngleAlpha;
    1350:	80 91 96 16 	lds	r24, 0x1696
    1354:	90 91 97 16 	lds	r25, 0x1697
    1358:	a0 91 98 16 	lds	r26, 0x1698
    135c:	b0 91 99 16 	lds	r27, 0x1699
    1360:	80 93 ba 16 	sts	0x16BA, r24
    1364:	90 93 bb 16 	sts	0x16BB, r25
    1368:	a0 93 bc 16 	sts	0x16BC, r26
    136c:	b0 93 bd 16 	sts	0x16BD, r27
	leg5.temp2AngleBeta = leg5.prevAngleBeta;
    1370:	80 91 92 16 	lds	r24, 0x1692
    1374:	90 91 93 16 	lds	r25, 0x1693
    1378:	a0 91 94 16 	lds	r26, 0x1694
    137c:	b0 91 95 16 	lds	r27, 0x1695
    1380:	80 93 b6 16 	sts	0x16B6, r24
    1384:	90 93 b7 16 	sts	0x16B7, r25
    1388:	a0 93 b8 16 	sts	0x16B8, r26
    138c:	b0 93 b9 16 	sts	0x16B9, r27
	leg5.temp2AngleGamma = leg5.prevAngleGamma;
    1390:	80 91 8e 16 	lds	r24, 0x168E
    1394:	90 91 8f 16 	lds	r25, 0x168F
    1398:	a0 91 90 16 	lds	r26, 0x1690
    139c:	b0 91 91 16 	lds	r27, 0x1691
    13a0:	80 93 b2 16 	sts	0x16B2, r24
    13a4:	90 93 b3 16 	sts	0x16B3, r25
    13a8:	a0 93 b4 16 	sts	0x16B4, r26
    13ac:	b0 93 b5 16 	sts	0x16B5, r27
	
	leg6.temp2AngleAlpha = leg6.prevAngleAlpha;
    13b0:	80 91 06 16 	lds	r24, 0x1606
    13b4:	90 91 07 16 	lds	r25, 0x1607
    13b8:	a0 91 08 16 	lds	r26, 0x1608
    13bc:	b0 91 09 16 	lds	r27, 0x1609
    13c0:	80 93 2a 16 	sts	0x162A, r24
    13c4:	90 93 2b 16 	sts	0x162B, r25
    13c8:	a0 93 2c 16 	sts	0x162C, r26
    13cc:	b0 93 2d 16 	sts	0x162D, r27
	leg6.temp2AngleBeta = leg6.prevAngleBeta;
    13d0:	80 91 02 16 	lds	r24, 0x1602
    13d4:	90 91 03 16 	lds	r25, 0x1603
    13d8:	a0 91 04 16 	lds	r26, 0x1604
    13dc:	b0 91 05 16 	lds	r27, 0x1605
    13e0:	80 93 26 16 	sts	0x1626, r24
    13e4:	90 93 27 16 	sts	0x1627, r25
    13e8:	a0 93 28 16 	sts	0x1628, r26
    13ec:	b0 93 29 16 	sts	0x1629, r27
	leg6.temp2AngleGamma = leg6.prevAngleGamma;
    13f0:	80 91 fe 15 	lds	r24, 0x15FE
    13f4:	90 91 ff 15 	lds	r25, 0x15FF
    13f8:	a0 91 00 16 	lds	r26, 0x1600
    13fc:	b0 91 01 16 	lds	r27, 0x1601
    1400:	80 93 22 16 	sts	0x1622, r24
    1404:	90 93 23 16 	sts	0x1623, r25
    1408:	a0 93 24 16 	sts	0x1624, r26
    140c:	b0 93 25 16 	sts	0x1625, r27
    1410:	08 95       	ret

00001412 <_Z8move_legP7LegDataf>:
}

void move_leg(struct LegData* leg, float n)
{
    1412:	4f 92       	push	r4
    1414:	5f 92       	push	r5
    1416:	6f 92       	push	r6
    1418:	7f 92       	push	r7
    141a:	8f 92       	push	r8
    141c:	9f 92       	push	r9
    141e:	af 92       	push	r10
    1420:	bf 92       	push	r11
    1422:	cf 92       	push	r12
    1424:	df 92       	push	r13
    1426:	ef 92       	push	r14
    1428:	ff 92       	push	r15
    142a:	0f 93       	push	r16
    142c:	1f 93       	push	r17
    142e:	cf 93       	push	r28
    1430:	df 93       	push	r29
    1432:	ec 01       	movw	r28, r24
    1434:	6a 01       	movw	r12, r20
    1436:	7b 01       	movw	r14, r22
	if(leg->lift == 1 && n != iterations+1)
    1438:	20 e0       	ldi	r18, 0x00	; 0
    143a:	30 e0       	ldi	r19, 0x00	; 0
    143c:	40 e8       	ldi	r20, 0x80	; 128
    143e:	5f e3       	ldi	r21, 0x3F	; 63
    1440:	6c 81       	ldd	r22, Y+4	; 0x04
    1442:	7d 81       	ldd	r23, Y+5	; 0x05
    1444:	8e 81       	ldd	r24, Y+6	; 0x06
    1446:	9f 81       	ldd	r25, Y+7	; 0x07
    1448:	0e 94 20 41 	call	0x8240	; 0x8240 <__cmpsf2>
    144c:	81 11       	cpse	r24, r1
    144e:	45 c0       	rjmp	.+138    	; 0x14da <_Z8move_legP7LegDataf+0xc8>
    1450:	20 e0       	ldi	r18, 0x00	; 0
    1452:	30 e0       	ldi	r19, 0x00	; 0
    1454:	40 e8       	ldi	r20, 0x80	; 128
    1456:	5f e3       	ldi	r21, 0x3F	; 63
    1458:	60 91 69 19 	lds	r22, 0x1969
    145c:	70 91 6a 19 	lds	r23, 0x196A
    1460:	80 91 6b 19 	lds	r24, 0x196B
    1464:	90 91 6c 19 	lds	r25, 0x196C
    1468:	0e 94 43 40 	call	0x8086	; 0x8086 <__addsf3>
    146c:	a7 01       	movw	r20, r14
    146e:	96 01       	movw	r18, r12
    1470:	0e 94 20 41 	call	0x8240	; 0x8240 <__cmpsf2>
    1474:	88 23       	and	r24, r24
    1476:	89 f1       	breq	.+98     	; 0x14da <_Z8move_legP7LegDataf+0xc8>
	{
		if (leg->climbing == 2)
    1478:	fe 01       	movw	r30, r28
    147a:	ee 59       	subi	r30, 0x9E	; 158
    147c:	ff 4f       	sbci	r31, 0xFF	; 255
    147e:	80 81       	ld	r24, Z
    1480:	91 81       	ldd	r25, Z+1	; 0x01
    1482:	02 97       	sbiw	r24, 0x02	; 2
    1484:	b9 f4       	brne	.+46     	; 0x14b4 <_Z8move_legP7LegDataf+0xa2>
		{
			tempz = obstacle_height + 50;
    1486:	20 e0       	ldi	r18, 0x00	; 0
    1488:	30 e0       	ldi	r19, 0x00	; 0
    148a:	48 e4       	ldi	r20, 0x48	; 72
    148c:	52 e4       	ldi	r21, 0x42	; 66
    148e:	60 91 59 19 	lds	r22, 0x1959
    1492:	70 91 5a 19 	lds	r23, 0x195A
    1496:	80 91 5b 19 	lds	r24, 0x195B
    149a:	90 91 5c 19 	lds	r25, 0x195C
    149e:	0e 94 43 40 	call	0x8086	; 0x8086 <__addsf3>
    14a2:	60 93 b6 15 	sts	0x15B6, r22
    14a6:	70 93 b7 15 	sts	0x15B7, r23
    14aa:	80 93 b8 15 	sts	0x15B8, r24
    14ae:	90 93 b9 15 	sts	0x15B9, r25
    14b2:	1f c0       	rjmp	.+62     	; 0x14f2 <_Z8move_legP7LegDataf+0xe0>
		}
		else
		{
			tempz = leg->newPosz + 30;
    14b4:	20 e0       	ldi	r18, 0x00	; 0
    14b6:	30 e0       	ldi	r19, 0x00	; 0
    14b8:	40 ef       	ldi	r20, 0xF0	; 240
    14ba:	51 e4       	ldi	r21, 0x41	; 65
    14bc:	68 89       	ldd	r22, Y+16	; 0x10
    14be:	79 89       	ldd	r23, Y+17	; 0x11
    14c0:	8a 89       	ldd	r24, Y+18	; 0x12
    14c2:	9b 89       	ldd	r25, Y+19	; 0x13
    14c4:	0e 94 43 40 	call	0x8086	; 0x8086 <__addsf3>
    14c8:	60 93 b6 15 	sts	0x15B6, r22
    14cc:	70 93 b7 15 	sts	0x15B7, r23
    14d0:	80 93 b8 15 	sts	0x15B8, r24
    14d4:	90 93 b9 15 	sts	0x15B9, r25
    14d8:	0c c0       	rjmp	.+24     	; 0x14f2 <_Z8move_legP7LegDataf+0xe0>
		}
		
	}
	else
	{
		tempz = leg->newPosz;
    14da:	88 89       	ldd	r24, Y+16	; 0x10
    14dc:	99 89       	ldd	r25, Y+17	; 0x11
    14de:	aa 89       	ldd	r26, Y+18	; 0x12
    14e0:	bb 89       	ldd	r27, Y+19	; 0x13
    14e2:	80 93 b6 15 	sts	0x15B6, r24
    14e6:	90 93 b7 15 	sts	0x15B7, r25
    14ea:	a0 93 b8 15 	sts	0x15B8, r26
    14ee:	b0 93 b9 15 	sts	0x15B9, r27
	}
	if(n != 0 && n != iterations+1)
    14f2:	20 e0       	ldi	r18, 0x00	; 0
    14f4:	30 e0       	ldi	r19, 0x00	; 0
    14f6:	a9 01       	movw	r20, r18
    14f8:	c7 01       	movw	r24, r14
    14fa:	b6 01       	movw	r22, r12
    14fc:	0e 94 20 41 	call	0x8240	; 0x8240 <__cmpsf2>
    1500:	88 23       	and	r24, r24
    1502:	09 f4       	brne	.+2      	; 0x1506 <_Z8move_legP7LegDataf+0xf4>
    1504:	89 c0       	rjmp	.+274    	; 0x1618 <_Z8move_legP7LegDataf+0x206>
    1506:	80 90 69 19 	lds	r8, 0x1969
    150a:	90 90 6a 19 	lds	r9, 0x196A
    150e:	a0 90 6b 19 	lds	r10, 0x196B
    1512:	b0 90 6c 19 	lds	r11, 0x196C
    1516:	20 e0       	ldi	r18, 0x00	; 0
    1518:	30 e0       	ldi	r19, 0x00	; 0
    151a:	40 e8       	ldi	r20, 0x80	; 128
    151c:	5f e3       	ldi	r21, 0x3F	; 63
    151e:	c5 01       	movw	r24, r10
    1520:	b4 01       	movw	r22, r8
    1522:	0e 94 43 40 	call	0x8086	; 0x8086 <__addsf3>
    1526:	a7 01       	movw	r20, r14
    1528:	96 01       	movw	r18, r12
    152a:	0e 94 20 41 	call	0x8240	; 0x8240 <__cmpsf2>
    152e:	88 23       	and	r24, r24
    1530:	09 f4       	brne	.+2      	; 0x1534 <_Z8move_legP7LegDataf+0x122>
    1532:	86 c0       	rjmp	.+268    	; 0x1640 <_Z8move_legP7LegDataf+0x22e>
	{
		leg->temp1AngleGamma = leg->temp2AngleGamma;
    1534:	fe 01       	movw	r30, r28
    1536:	e0 5c       	subi	r30, 0xC0	; 192
    1538:	ff 4f       	sbci	r31, 0xFF	; 255
    153a:	de 01       	movw	r26, r28
    153c:	a4 5b       	subi	r26, 0xB4	; 180
    153e:	bf 4f       	sbci	r27, 0xFF	; 255
    1540:	8d 91       	ld	r24, X+
    1542:	9d 91       	ld	r25, X+
    1544:	0d 90       	ld	r0, X+
    1546:	bc 91       	ld	r27, X
    1548:	a0 2d       	mov	r26, r0
    154a:	80 83       	st	Z, r24
    154c:	91 83       	std	Z+1, r25	; 0x01
    154e:	a2 83       	std	Z+2, r26	; 0x02
    1550:	b3 83       	std	Z+3, r27	; 0x03
		leg->temp1AngleBeta = leg->temp2AngleBeta;
    1552:	fe 01       	movw	r30, r28
    1554:	ec 5b       	subi	r30, 0xBC	; 188
    1556:	ff 4f       	sbci	r31, 0xFF	; 255
    1558:	de 01       	movw	r26, r28
    155a:	a0 5b       	subi	r26, 0xB0	; 176
    155c:	bf 4f       	sbci	r27, 0xFF	; 255
    155e:	8d 91       	ld	r24, X+
    1560:	9d 91       	ld	r25, X+
    1562:	0d 90       	ld	r0, X+
    1564:	bc 91       	ld	r27, X
    1566:	a0 2d       	mov	r26, r0
    1568:	80 83       	st	Z, r24
    156a:	91 83       	std	Z+1, r25	; 0x01
    156c:	a2 83       	std	Z+2, r26	; 0x02
    156e:	b3 83       	std	Z+3, r27	; 0x03
		leg->temp1AngleAlpha = leg->temp2AngleAlpha;
    1570:	fe 01       	movw	r30, r28
    1572:	e8 5b       	subi	r30, 0xB8	; 184
    1574:	ff 4f       	sbci	r31, 0xFF	; 255
    1576:	de 01       	movw	r26, r28
    1578:	ac 5a       	subi	r26, 0xAC	; 172
    157a:	bf 4f       	sbci	r27, 0xFF	; 255
    157c:	8d 91       	ld	r24, X+
    157e:	9d 91       	ld	r25, X+
    1580:	0d 90       	ld	r0, X+
    1582:	bc 91       	ld	r27, X
    1584:	a0 2d       	mov	r26, r0
    1586:	80 83       	st	Z, r24
    1588:	91 83       	std	Z+1, r25	; 0x01
    158a:	a2 83       	std	Z+2, r26	; 0x02
    158c:	b3 83       	std	Z+3, r27	; 0x03

		tempx = leg->prevPosx + n*(leg->newPosx - leg->prevPosx)/iterations;
    158e:	4c 8c       	ldd	r4, Y+28	; 0x1c
    1590:	5d 8c       	ldd	r5, Y+29	; 0x1d
    1592:	6e 8c       	ldd	r6, Y+30	; 0x1e
    1594:	7f 8c       	ldd	r7, Y+31	; 0x1f
    1596:	a3 01       	movw	r20, r6
    1598:	92 01       	movw	r18, r4
    159a:	6c 89       	ldd	r22, Y+20	; 0x14
    159c:	7d 89       	ldd	r23, Y+21	; 0x15
    159e:	8e 89       	ldd	r24, Y+22	; 0x16
    15a0:	9f 89       	ldd	r25, Y+23	; 0x17
    15a2:	0e 94 42 40 	call	0x8084	; 0x8084 <__subsf3>
    15a6:	a7 01       	movw	r20, r14
    15a8:	96 01       	movw	r18, r12
    15aa:	0e 94 82 43 	call	0x8704	; 0x8704 <__mulsf3>
    15ae:	a5 01       	movw	r20, r10
    15b0:	94 01       	movw	r18, r8
    15b2:	0e 94 27 41 	call	0x824e	; 0x824e <__divsf3>
    15b6:	9b 01       	movw	r18, r22
    15b8:	ac 01       	movw	r20, r24
    15ba:	c3 01       	movw	r24, r6
    15bc:	b2 01       	movw	r22, r4
    15be:	0e 94 43 40 	call	0x8086	; 0x8086 <__addsf3>
    15c2:	60 93 be 15 	sts	0x15BE, r22
    15c6:	70 93 bf 15 	sts	0x15BF, r23
    15ca:	80 93 c0 15 	sts	0x15C0, r24
    15ce:	90 93 c1 15 	sts	0x15C1, r25
		tempy = leg->prevPosy + n*(leg->newPosy - leg->prevPosy)/iterations;
    15d2:	48 a0       	ldd	r4, Y+32	; 0x20
    15d4:	59 a0       	ldd	r5, Y+33	; 0x21
    15d6:	6a a0       	ldd	r6, Y+34	; 0x22
    15d8:	7b a0       	ldd	r7, Y+35	; 0x23
    15da:	a3 01       	movw	r20, r6
    15dc:	92 01       	movw	r18, r4
    15de:	68 8d       	ldd	r22, Y+24	; 0x18
    15e0:	79 8d       	ldd	r23, Y+25	; 0x19
    15e2:	8a 8d       	ldd	r24, Y+26	; 0x1a
    15e4:	9b 8d       	ldd	r25, Y+27	; 0x1b
    15e6:	0e 94 42 40 	call	0x8084	; 0x8084 <__subsf3>
    15ea:	a7 01       	movw	r20, r14
    15ec:	96 01       	movw	r18, r12
    15ee:	0e 94 82 43 	call	0x8704	; 0x8704 <__mulsf3>
    15f2:	a5 01       	movw	r20, r10
    15f4:	94 01       	movw	r18, r8
    15f6:	0e 94 27 41 	call	0x824e	; 0x824e <__divsf3>
    15fa:	9b 01       	movw	r18, r22
    15fc:	ac 01       	movw	r20, r24
    15fe:	c3 01       	movw	r24, r6
    1600:	b2 01       	movw	r22, r4
    1602:	0e 94 43 40 	call	0x8086	; 0x8086 <__addsf3>
    1606:	60 93 ba 15 	sts	0x15BA, r22
    160a:	70 93 bb 15 	sts	0x15BB, r23
    160e:	80 93 bc 15 	sts	0x15BC, r24
    1612:	90 93 bd 15 	sts	0x15BD, r25
    1616:	4a c0       	rjmp	.+148    	; 0x16ac <_Z8move_legP7LegDataf+0x29a>
	}
	else if (n == iterations+1)
    1618:	20 e0       	ldi	r18, 0x00	; 0
    161a:	30 e0       	ldi	r19, 0x00	; 0
    161c:	40 e8       	ldi	r20, 0x80	; 128
    161e:	5f e3       	ldi	r21, 0x3F	; 63
    1620:	60 91 69 19 	lds	r22, 0x1969
    1624:	70 91 6a 19 	lds	r23, 0x196A
    1628:	80 91 6b 19 	lds	r24, 0x196B
    162c:	90 91 6c 19 	lds	r25, 0x196C
    1630:	0e 94 43 40 	call	0x8086	; 0x8086 <__addsf3>
    1634:	a7 01       	movw	r20, r14
    1636:	96 01       	movw	r18, r12
    1638:	0e 94 20 41 	call	0x8240	; 0x8240 <__cmpsf2>
    163c:	81 11       	cpse	r24, r1
    163e:	1e c0       	rjmp	.+60     	; 0x167c <_Z8move_legP7LegDataf+0x26a>
	{
		tempx = leg->newPosx;
    1640:	8c 89       	ldd	r24, Y+20	; 0x14
    1642:	9d 89       	ldd	r25, Y+21	; 0x15
    1644:	ae 89       	ldd	r26, Y+22	; 0x16
    1646:	bf 89       	ldd	r27, Y+23	; 0x17
    1648:	80 93 be 15 	sts	0x15BE, r24
    164c:	90 93 bf 15 	sts	0x15BF, r25
    1650:	a0 93 c0 15 	sts	0x15C0, r26
    1654:	b0 93 c1 15 	sts	0x15C1, r27
		tempy = leg->newPosy;
    1658:	88 8d       	ldd	r24, Y+24	; 0x18
    165a:	99 8d       	ldd	r25, Y+25	; 0x19
    165c:	aa 8d       	ldd	r26, Y+26	; 0x1a
    165e:	bb 8d       	ldd	r27, Y+27	; 0x1b
    1660:	80 93 ba 15 	sts	0x15BA, r24
    1664:	90 93 bb 15 	sts	0x15BB, r25
    1668:	a0 93 bc 15 	sts	0x15BC, r26
    166c:	b0 93 bd 15 	sts	0x15BD, r27
		leg->climbing = 0;
    1670:	fe 01       	movw	r30, r28
    1672:	ee 59       	subi	r30, 0x9E	; 158
    1674:	ff 4f       	sbci	r31, 0xFF	; 255
    1676:	11 82       	std	Z+1, r1	; 0x01
    1678:	10 82       	st	Z, r1
    167a:	18 c0       	rjmp	.+48     	; 0x16ac <_Z8move_legP7LegDataf+0x29a>
	}
	else
	{
		tempx = leg->prevPosx;
    167c:	8c 8d       	ldd	r24, Y+28	; 0x1c
    167e:	9d 8d       	ldd	r25, Y+29	; 0x1d
    1680:	ae 8d       	ldd	r26, Y+30	; 0x1e
    1682:	bf 8d       	ldd	r27, Y+31	; 0x1f
    1684:	80 93 be 15 	sts	0x15BE, r24
    1688:	90 93 bf 15 	sts	0x15BF, r25
    168c:	a0 93 c0 15 	sts	0x15C0, r26
    1690:	b0 93 c1 15 	sts	0x15C1, r27
		tempy = leg->prevPosy;
    1694:	88 a1       	ldd	r24, Y+32	; 0x20
    1696:	99 a1       	ldd	r25, Y+33	; 0x21
    1698:	aa a1       	ldd	r26, Y+34	; 0x22
    169a:	bb a1       	ldd	r27, Y+35	; 0x23
    169c:	80 93 ba 15 	sts	0x15BA, r24
    16a0:	90 93 bb 15 	sts	0x15BB, r25
    16a4:	a0 93 bc 15 	sts	0x15BC, r26
    16a8:	b0 93 bd 15 	sts	0x15BD, r27
	}
	calc_d(tempx, tempy, tempz);
    16ac:	e0 90 b6 15 	lds	r14, 0x15B6
    16b0:	f0 90 b7 15 	lds	r15, 0x15B7
    16b4:	00 91 b8 15 	lds	r16, 0x15B8
    16b8:	10 91 b9 15 	lds	r17, 0x15B9
    16bc:	20 91 ba 15 	lds	r18, 0x15BA
    16c0:	30 91 bb 15 	lds	r19, 0x15BB
    16c4:	40 91 bc 15 	lds	r20, 0x15BC
    16c8:	50 91 bd 15 	lds	r21, 0x15BD
    16cc:	60 91 be 15 	lds	r22, 0x15BE
    16d0:	70 91 bf 15 	lds	r23, 0x15BF
    16d4:	80 91 c0 15 	lds	r24, 0x15C0
    16d8:	90 91 c1 15 	lds	r25, 0x15C1
    16dc:	0e 94 d8 2d 	call	0x5bb0	; 0x5bb0 <_Z6calc_dfff>
	leg->temp2AngleGamma = get_gamma(tempx, tempy);
    16e0:	20 91 ba 15 	lds	r18, 0x15BA
    16e4:	30 91 bb 15 	lds	r19, 0x15BB
    16e8:	40 91 bc 15 	lds	r20, 0x15BC
    16ec:	50 91 bd 15 	lds	r21, 0x15BD
    16f0:	60 91 be 15 	lds	r22, 0x15BE
    16f4:	70 91 bf 15 	lds	r23, 0x15BF
    16f8:	80 91 c0 15 	lds	r24, 0x15C0
    16fc:	90 91 c1 15 	lds	r25, 0x15C1
    1700:	0e 94 39 2e 	call	0x5c72	; 0x5c72 <_Z9get_gammaff>
    1704:	8e 01       	movw	r16, r28
    1706:	04 5b       	subi	r16, 0xB4	; 180
    1708:	1f 4f       	sbci	r17, 0xFF	; 255
    170a:	f8 01       	movw	r30, r16
    170c:	60 83       	st	Z, r22
    170e:	71 83       	std	Z+1, r23	; 0x01
    1710:	82 83       	std	Z+2, r24	; 0x02
    1712:	93 83       	std	Z+3, r25	; 0x03
	leg->temp2AngleBeta = get_beta();
    1714:	0e 94 5c 2e 	call	0x5cb8	; 0x5cb8 <_Z8get_betav>
    1718:	7e 01       	movw	r14, r28
    171a:	f0 e5       	ldi	r31, 0x50	; 80
    171c:	ef 0e       	add	r14, r31
    171e:	f1 1c       	adc	r15, r1
    1720:	f7 01       	movw	r30, r14
    1722:	60 83       	st	Z, r22
    1724:	71 83       	std	Z+1, r23	; 0x01
    1726:	82 83       	std	Z+2, r24	; 0x02
    1728:	93 83       	std	Z+3, r25	; 0x03
	leg->temp2AngleAlpha = get_alpha(tempz);
    172a:	60 91 b6 15 	lds	r22, 0x15B6
    172e:	70 91 b7 15 	lds	r23, 0x15B7
    1732:	80 91 b8 15 	lds	r24, 0x15B8
    1736:	90 91 b9 15 	lds	r25, 0x15B9
    173a:	0e 94 91 2e 	call	0x5d22	; 0x5d22 <_Z9get_alphaf>
    173e:	fe 01       	movw	r30, r28
    1740:	ec 5a       	subi	r30, 0xAC	; 172
    1742:	ff 4f       	sbci	r31, 0xFF	; 255
    1744:	60 83       	st	Z, r22
    1746:	71 83       	std	Z+1, r23	; 0x01
    1748:	82 83       	std	Z+2, r24	; 0x02
    174a:	93 83       	std	Z+3, r25	; 0x03
	//speedAlpha = fabsf(leg->temp1AngleAlpha - leg->temp2AngleAlpha)*speedMultiplier;
	//speedBeta = fabsf(leg->temp1AngleBeta - leg->temp2AngleBeta)*speedMultiplier;
	//speedGamma = fabsf(leg->temp1AngleGamma - leg->temp2AngleGamma)*speedMultiplier;
	leg->goalAngleAlpha = leg->side *(leg->temp2AngleAlpha + femurAngleAddition);
    174c:	88 80       	ld	r8, Y
    174e:	99 80       	ldd	r9, Y+1	; 0x01
    1750:	aa 80       	ldd	r10, Y+2	; 0x02
    1752:	bb 80       	ldd	r11, Y+3	; 0x03
    1754:	2e ed       	ldi	r18, 0xDE	; 222
    1756:	34 e2       	ldi	r19, 0x24	; 36
    1758:	46 e0       	ldi	r20, 0x06	; 6
    175a:	5e e3       	ldi	r21, 0x3E	; 62
    175c:	0e 94 43 40 	call	0x8086	; 0x8086 <__addsf3>
    1760:	9b 01       	movw	r18, r22
    1762:	ac 01       	movw	r20, r24
    1764:	c5 01       	movw	r24, r10
    1766:	b4 01       	movw	r22, r8
    1768:	0e 94 82 43 	call	0x8704	; 0x8704 <__mulsf3>
    176c:	46 2e       	mov	r4, r22
    176e:	57 2e       	mov	r5, r23
    1770:	68 2e       	mov	r6, r24
    1772:	79 2e       	mov	r7, r25
    1774:	fe 01       	movw	r30, r28
    1776:	ec 57       	subi	r30, 0x7C	; 124
    1778:	ff 4f       	sbci	r31, 0xFF	; 255
    177a:	86 2f       	mov	r24, r22
    177c:	95 2d       	mov	r25, r5
    177e:	a6 2d       	mov	r26, r6
    1780:	b7 2d       	mov	r27, r7
    1782:	80 83       	st	Z, r24
    1784:	91 83       	std	Z+1, r25	; 0x01
    1786:	a2 83       	std	Z+2, r26	; 0x02
    1788:	b3 83       	std	Z+3, r27	; 0x03
	leg->goalAngleBeta = leg->side*(-leg->temp2AngleBeta + tibiaAngleAddition);
    178a:	6e 01       	movw	r12, r28
    178c:	f8 e8       	ldi	r31, 0x88	; 136
    178e:	cf 0e       	add	r12, r31
    1790:	d1 1c       	adc	r13, r1
    1792:	f7 01       	movw	r30, r14
    1794:	20 81       	ld	r18, Z
    1796:	31 81       	ldd	r19, Z+1	; 0x01
    1798:	42 81       	ldd	r20, Z+2	; 0x02
    179a:	53 81       	ldd	r21, Z+3	; 0x03
    179c:	6b e3       	ldi	r22, 0x3B	; 59
    179e:	7f ed       	ldi	r23, 0xDF	; 223
    17a0:	8f e0       	ldi	r24, 0x0F	; 15
    17a2:	9f e3       	ldi	r25, 0x3F	; 63
    17a4:	0e 94 42 40 	call	0x8084	; 0x8084 <__subsf3>
    17a8:	9b 01       	movw	r18, r22
    17aa:	ac 01       	movw	r20, r24
    17ac:	c5 01       	movw	r24, r10
    17ae:	b4 01       	movw	r22, r8
    17b0:	0e 94 82 43 	call	0x8704	; 0x8704 <__mulsf3>
    17b4:	f6 01       	movw	r30, r12
    17b6:	60 83       	st	Z, r22
    17b8:	71 83       	std	Z+1, r23	; 0x01
    17ba:	82 83       	std	Z+2, r24	; 0x02
    17bc:	93 83       	std	Z+3, r25	; 0x03
	leg->goalAngleGamma = leg->temp2AngleGamma;
    17be:	9e 01       	movw	r18, r28
    17c0:	24 57       	subi	r18, 0x74	; 116
    17c2:	3f 4f       	sbci	r19, 0xFF	; 255
    17c4:	f8 01       	movw	r30, r16
    17c6:	80 81       	ld	r24, Z
    17c8:	91 81       	ldd	r25, Z+1	; 0x01
    17ca:	a2 81       	ldd	r26, Z+2	; 0x02
    17cc:	b3 81       	ldd	r27, Z+3	; 0x03
    17ce:	f9 01       	movw	r30, r18
    17d0:	80 83       	st	Z, r24
    17d2:	91 83       	std	Z+1, r25	; 0x01
    17d4:	a2 83       	std	Z+2, r26	; 0x02
    17d6:	b3 83       	std	Z+3, r27	; 0x03
	
	if(leg->climbing == 4)
    17d8:	fe 01       	movw	r30, r28
    17da:	ee 59       	subi	r30, 0x9E	; 158
    17dc:	ff 4f       	sbci	r31, 0xFF	; 255
    17de:	80 81       	ld	r24, Z
    17e0:	91 81       	ldd	r25, Z+1	; 0x01
    17e2:	04 97       	sbiw	r24, 0x04	; 4
    17e4:	b1 f5       	brne	.+108    	; 0x1852 <_Z8move_legP7LegDataf+0x440>
	{
		SERVO_goto(leg->servoAlpha, leg->goalAngleAlpha,servo_speed);
    17e6:	20 91 07 01 	lds	r18, 0x0107
    17ea:	30 91 08 01 	lds	r19, 0x0108
    17ee:	fe 01       	movw	r30, r28
    17f0:	e4 5a       	subi	r30, 0xA4	; 164
    17f2:	ff 4f       	sbci	r31, 0xFF	; 255
    17f4:	44 2d       	mov	r20, r4
    17f6:	55 2d       	mov	r21, r5
    17f8:	66 2d       	mov	r22, r6
    17fa:	77 2d       	mov	r23, r7
    17fc:	80 81       	ld	r24, Z
    17fe:	0e 94 93 3b 	call	0x7726	; 0x7726 <_Z10SERVO_gotohdj>
		SERVO_goto(leg->servoBeta, leg->goalAngleBeta,servo_speed);
    1802:	20 91 07 01 	lds	r18, 0x0107
    1806:	30 91 08 01 	lds	r19, 0x0108
    180a:	f6 01       	movw	r30, r12
    180c:	40 81       	ld	r20, Z
    180e:	51 81       	ldd	r21, Z+1	; 0x01
    1810:	62 81       	ldd	r22, Z+2	; 0x02
    1812:	73 81       	ldd	r23, Z+3	; 0x03
    1814:	fe 01       	movw	r30, r28
    1816:	e6 5a       	subi	r30, 0xA6	; 166
    1818:	ff 4f       	sbci	r31, 0xFF	; 255
    181a:	80 81       	ld	r24, Z
    181c:	0e 94 93 3b 	call	0x7726	; 0x7726 <_Z10SERVO_gotohdj>
		SERVO_goto(leg->servoGamma, leg->goalAngleGamma,servo_speed);
    1820:	20 91 07 01 	lds	r18, 0x0107
    1824:	30 91 08 01 	lds	r19, 0x0108
    1828:	fe 01       	movw	r30, r28
    182a:	e4 57       	subi	r30, 0x74	; 116
    182c:	ff 4f       	sbci	r31, 0xFF	; 255
    182e:	40 81       	ld	r20, Z
    1830:	51 81       	ldd	r21, Z+1	; 0x01
    1832:	62 81       	ldd	r22, Z+2	; 0x02
    1834:	73 81       	ldd	r23, Z+3	; 0x03
    1836:	fe 01       	movw	r30, r28
    1838:	e8 5a       	subi	r30, 0xA8	; 168
    183a:	ff 4f       	sbci	r31, 0xFF	; 255
    183c:	80 81       	ld	r24, Z
    183e:	0e 94 93 3b 	call	0x7726	; 0x7726 <_Z10SERVO_gotohdj>
		leg->climbing = 0;
    1842:	ce 59       	subi	r28, 0x9E	; 158
    1844:	df 4f       	sbci	r29, 0xFF	; 255
    1846:	19 82       	std	Y+1, r1	; 0x01
    1848:	18 82       	st	Y, r1
		wait(500);
    184a:	84 ef       	ldi	r24, 0xF4	; 244
    184c:	91 e0       	ldi	r25, 0x01	; 1
    184e:	1f d9       	rcall	.-3522   	; 0xa8e <_Z4waitj>
    1850:	2f c0       	rjmp	.+94     	; 0x18b0 <_Z8move_legP7LegDataf+0x49e>
	}
	else
	{
		SERVO_buffer_position(leg->servoAlpha, leg->goalAngleAlpha,servo_speed);
    1852:	20 91 07 01 	lds	r18, 0x0107
    1856:	30 91 08 01 	lds	r19, 0x0108
    185a:	fe 01       	movw	r30, r28
    185c:	e4 5a       	subi	r30, 0xA4	; 164
    185e:	ff 4f       	sbci	r31, 0xFF	; 255
    1860:	44 2d       	mov	r20, r4
    1862:	55 2d       	mov	r21, r5
    1864:	66 2d       	mov	r22, r6
    1866:	77 2d       	mov	r23, r7
    1868:	80 81       	ld	r24, Z
    186a:	0e 94 0d 3c 	call	0x781a	; 0x781a <_Z21SERVO_buffer_positionhdj>
		SERVO_buffer_position(leg->servoBeta, leg->goalAngleBeta,servo_speed);
    186e:	20 91 07 01 	lds	r18, 0x0107
    1872:	30 91 08 01 	lds	r19, 0x0108
    1876:	fe 01       	movw	r30, r28
    1878:	e8 57       	subi	r30, 0x78	; 120
    187a:	ff 4f       	sbci	r31, 0xFF	; 255
    187c:	40 81       	ld	r20, Z
    187e:	51 81       	ldd	r21, Z+1	; 0x01
    1880:	62 81       	ldd	r22, Z+2	; 0x02
    1882:	73 81       	ldd	r23, Z+3	; 0x03
    1884:	fe 01       	movw	r30, r28
    1886:	e6 5a       	subi	r30, 0xA6	; 166
    1888:	ff 4f       	sbci	r31, 0xFF	; 255
    188a:	80 81       	ld	r24, Z
    188c:	0e 94 0d 3c 	call	0x781a	; 0x781a <_Z21SERVO_buffer_positionhdj>
		SERVO_buffer_position(leg->servoGamma, leg->goalAngleGamma,servo_speed);
    1890:	20 91 07 01 	lds	r18, 0x0107
    1894:	30 91 08 01 	lds	r19, 0x0108
    1898:	fe 01       	movw	r30, r28
    189a:	e4 57       	subi	r30, 0x74	; 116
    189c:	ff 4f       	sbci	r31, 0xFF	; 255
    189e:	40 81       	ld	r20, Z
    18a0:	51 81       	ldd	r21, Z+1	; 0x01
    18a2:	62 81       	ldd	r22, Z+2	; 0x02
    18a4:	73 81       	ldd	r23, Z+3	; 0x03
    18a6:	c8 5a       	subi	r28, 0xA8	; 168
    18a8:	df 4f       	sbci	r29, 0xFF	; 255
    18aa:	88 81       	ld	r24, Y
    18ac:	0e 94 0d 3c 	call	0x781a	; 0x781a <_Z21SERVO_buffer_positionhdj>
	}
}
    18b0:	df 91       	pop	r29
    18b2:	cf 91       	pop	r28
    18b4:	1f 91       	pop	r17
    18b6:	0f 91       	pop	r16
    18b8:	ff 90       	pop	r15
    18ba:	ef 90       	pop	r14
    18bc:	df 90       	pop	r13
    18be:	cf 90       	pop	r12
    18c0:	bf 90       	pop	r11
    18c2:	af 90       	pop	r10
    18c4:	9f 90       	pop	r9
    18c6:	8f 90       	pop	r8
    18c8:	7f 90       	pop	r7
    18ca:	6f 90       	pop	r6
    18cc:	5f 90       	pop	r5
    18ce:	4f 90       	pop	r4
    18d0:	08 95       	ret

000018d2 <_Z13leg_move_downP7LegData>:
		}
	}
}

void leg_move_down(struct LegData* leg)
{
    18d2:	4f 92       	push	r4
    18d4:	5f 92       	push	r5
    18d6:	6f 92       	push	r6
    18d8:	7f 92       	push	r7
    18da:	8f 92       	push	r8
    18dc:	9f 92       	push	r9
    18de:	af 92       	push	r10
    18e0:	bf 92       	push	r11
    18e2:	cf 92       	push	r12
    18e4:	df 92       	push	r13
    18e6:	ef 92       	push	r14
    18e8:	ff 92       	push	r15
    18ea:	0f 93       	push	r16
    18ec:	1f 93       	push	r17
    18ee:	cf 93       	push	r28
    18f0:	df 93       	push	r29
    18f2:	ec 01       	movw	r28, r24
	leg->newPosz -=10;
    18f4:	20 e0       	ldi	r18, 0x00	; 0
    18f6:	30 e0       	ldi	r19, 0x00	; 0
    18f8:	40 e2       	ldi	r20, 0x20	; 32
    18fa:	51 e4       	ldi	r21, 0x41	; 65
    18fc:	68 89       	ldd	r22, Y+16	; 0x10
    18fe:	79 89       	ldd	r23, Y+17	; 0x11
    1900:	8a 89       	ldd	r24, Y+18	; 0x12
    1902:	9b 89       	ldd	r25, Y+19	; 0x13
    1904:	0e 94 42 40 	call	0x8084	; 0x8084 <__subsf3>
    1908:	e6 2f       	mov	r30, r22
    190a:	f7 2f       	mov	r31, r23
    190c:	a8 2f       	mov	r26, r24
    190e:	b9 2f       	mov	r27, r25
    1910:	98 2f       	mov	r25, r24
    1912:	4e 2f       	mov	r20, r30
    1914:	5f 2f       	mov	r21, r31
    1916:	69 2f       	mov	r22, r25
    1918:	7b 2f       	mov	r23, r27
    191a:	48 8b       	std	Y+16, r20	; 0x10
    191c:	59 8b       	std	Y+17, r21	; 0x11
    191e:	6a 8b       	std	Y+18, r22	; 0x12
    1920:	7b 8b       	std	Y+19, r23	; 0x13
	tempz = leg->newPosz;
    1922:	40 93 b6 15 	sts	0x15B6, r20
    1926:	50 93 b7 15 	sts	0x15B7, r21
    192a:	60 93 b8 15 	sts	0x15B8, r22
    192e:	70 93 b9 15 	sts	0x15B9, r23
	// To count new x and y positions: sign*(120 + 0.5 *(new_z - z0))/divider + term
	//leg->newPosx -= 5;
	//leg->newPosy += leg->side*5;
	tempx = leg->newPosx;
    1932:	6c 89       	ldd	r22, Y+20	; 0x14
    1934:	7d 89       	ldd	r23, Y+21	; 0x15
    1936:	8e 89       	ldd	r24, Y+22	; 0x16
    1938:	9f 89       	ldd	r25, Y+23	; 0x17
    193a:	60 93 be 15 	sts	0x15BE, r22
    193e:	70 93 bf 15 	sts	0x15BF, r23
    1942:	80 93 c0 15 	sts	0x15C0, r24
    1946:	90 93 c1 15 	sts	0x15C1, r25
	tempy = leg->newPosy;
    194a:	28 8d       	ldd	r18, Y+24	; 0x18
    194c:	39 8d       	ldd	r19, Y+25	; 0x19
    194e:	4a 8d       	ldd	r20, Y+26	; 0x1a
    1950:	5b 8d       	ldd	r21, Y+27	; 0x1b
    1952:	20 93 ba 15 	sts	0x15BA, r18
    1956:	30 93 bb 15 	sts	0x15BB, r19
    195a:	40 93 bc 15 	sts	0x15BC, r20
    195e:	50 93 bd 15 	sts	0x15BD, r21
	
	calc_d(tempx, tempy, tempz);
    1962:	ee 2e       	mov	r14, r30
    1964:	ff 2e       	mov	r15, r31
    1966:	0a 2f       	mov	r16, r26
    1968:	1b 2f       	mov	r17, r27
    196a:	0e 94 d8 2d 	call	0x5bb0	; 0x5bb0 <_Z6calc_dfff>
	leg->temp2AngleGamma = get_gamma(tempx, tempy);
    196e:	20 91 ba 15 	lds	r18, 0x15BA
    1972:	30 91 bb 15 	lds	r19, 0x15BB
    1976:	40 91 bc 15 	lds	r20, 0x15BC
    197a:	50 91 bd 15 	lds	r21, 0x15BD
    197e:	60 91 be 15 	lds	r22, 0x15BE
    1982:	70 91 bf 15 	lds	r23, 0x15BF
    1986:	80 91 c0 15 	lds	r24, 0x15C0
    198a:	90 91 c1 15 	lds	r25, 0x15C1
    198e:	0e 94 39 2e 	call	0x5c72	; 0x5c72 <_Z9get_gammaff>
    1992:	6e 01       	movw	r12, r28
    1994:	2c e4       	ldi	r18, 0x4C	; 76
    1996:	c2 0e       	add	r12, r18
    1998:	d1 1c       	adc	r13, r1
    199a:	f6 01       	movw	r30, r12
    199c:	60 83       	st	Z, r22
    199e:	71 83       	std	Z+1, r23	; 0x01
    19a0:	82 83       	std	Z+2, r24	; 0x02
    19a2:	93 83       	std	Z+3, r25	; 0x03
	leg->temp2AngleBeta = get_beta();
    19a4:	0e 94 5c 2e 	call	0x5cb8	; 0x5cb8 <_Z8get_betav>
    19a8:	7e 01       	movw	r14, r28
    19aa:	f0 e5       	ldi	r31, 0x50	; 80
    19ac:	ef 0e       	add	r14, r31
    19ae:	f1 1c       	adc	r15, r1
    19b0:	f7 01       	movw	r30, r14
    19b2:	60 83       	st	Z, r22
    19b4:	71 83       	std	Z+1, r23	; 0x01
    19b6:	82 83       	std	Z+2, r24	; 0x02
    19b8:	93 83       	std	Z+3, r25	; 0x03
	leg->temp2AngleAlpha = get_alpha(tempz);
    19ba:	60 91 b6 15 	lds	r22, 0x15B6
    19be:	70 91 b7 15 	lds	r23, 0x15B7
    19c2:	80 91 b8 15 	lds	r24, 0x15B8
    19c6:	90 91 b9 15 	lds	r25, 0x15B9
    19ca:	0e 94 91 2e 	call	0x5d22	; 0x5d22 <_Z9get_alphaf>
    19ce:	fe 01       	movw	r30, r28
    19d0:	ec 5a       	subi	r30, 0xAC	; 172
    19d2:	ff 4f       	sbci	r31, 0xFF	; 255
    19d4:	60 83       	st	Z, r22
    19d6:	71 83       	std	Z+1, r23	; 0x01
    19d8:	82 83       	std	Z+2, r24	; 0x02
    19da:	93 83       	std	Z+3, r25	; 0x03
	leg->goalAngleAlpha = leg->side *(leg->temp2AngleAlpha + femurAngleAddition);
    19dc:	48 80       	ld	r4, Y
    19de:	59 80       	ldd	r5, Y+1	; 0x01
    19e0:	6a 80       	ldd	r6, Y+2	; 0x02
    19e2:	7b 80       	ldd	r7, Y+3	; 0x03
    19e4:	2e ed       	ldi	r18, 0xDE	; 222
    19e6:	34 e2       	ldi	r19, 0x24	; 36
    19e8:	46 e0       	ldi	r20, 0x06	; 6
    19ea:	5e e3       	ldi	r21, 0x3E	; 62
    19ec:	0e 94 43 40 	call	0x8086	; 0x8086 <__addsf3>
    19f0:	9b 01       	movw	r18, r22
    19f2:	ac 01       	movw	r20, r24
    19f4:	c3 01       	movw	r24, r6
    19f6:	b2 01       	movw	r22, r4
    19f8:	0e 94 82 43 	call	0x8704	; 0x8704 <__mulsf3>
    19fc:	86 2e       	mov	r8, r22
    19fe:	97 2e       	mov	r9, r23
    1a00:	a8 2e       	mov	r10, r24
    1a02:	b9 2e       	mov	r11, r25
    1a04:	fe 01       	movw	r30, r28
    1a06:	ec 57       	subi	r30, 0x7C	; 124
    1a08:	ff 4f       	sbci	r31, 0xFF	; 255
    1a0a:	86 2f       	mov	r24, r22
    1a0c:	99 2d       	mov	r25, r9
    1a0e:	aa 2d       	mov	r26, r10
    1a10:	bb 2d       	mov	r27, r11
    1a12:	80 83       	st	Z, r24
    1a14:	91 83       	std	Z+1, r25	; 0x01
    1a16:	a2 83       	std	Z+2, r26	; 0x02
    1a18:	b3 83       	std	Z+3, r27	; 0x03
	leg->goalAngleBeta = leg->side*(-leg->temp2AngleBeta + tibiaAngleAddition);
    1a1a:	8e 01       	movw	r16, r28
    1a1c:	08 57       	subi	r16, 0x78	; 120
    1a1e:	1f 4f       	sbci	r17, 0xFF	; 255
    1a20:	f7 01       	movw	r30, r14
    1a22:	20 81       	ld	r18, Z
    1a24:	31 81       	ldd	r19, Z+1	; 0x01
    1a26:	42 81       	ldd	r20, Z+2	; 0x02
    1a28:	53 81       	ldd	r21, Z+3	; 0x03
    1a2a:	6b e3       	ldi	r22, 0x3B	; 59
    1a2c:	7f ed       	ldi	r23, 0xDF	; 223
    1a2e:	8f e0       	ldi	r24, 0x0F	; 15
    1a30:	9f e3       	ldi	r25, 0x3F	; 63
    1a32:	0e 94 42 40 	call	0x8084	; 0x8084 <__subsf3>
    1a36:	9b 01       	movw	r18, r22
    1a38:	ac 01       	movw	r20, r24
    1a3a:	c3 01       	movw	r24, r6
    1a3c:	b2 01       	movw	r22, r4
    1a3e:	0e 94 82 43 	call	0x8704	; 0x8704 <__mulsf3>
    1a42:	f8 01       	movw	r30, r16
    1a44:	60 83       	st	Z, r22
    1a46:	71 83       	std	Z+1, r23	; 0x01
    1a48:	82 83       	std	Z+2, r24	; 0x02
    1a4a:	93 83       	std	Z+3, r25	; 0x03
	leg->goalAngleGamma = leg->temp2AngleGamma;
    1a4c:	7e 01       	movw	r14, r28
    1a4e:	fc e8       	ldi	r31, 0x8C	; 140
    1a50:	ef 0e       	add	r14, r31
    1a52:	f1 1c       	adc	r15, r1
    1a54:	f6 01       	movw	r30, r12
    1a56:	80 81       	ld	r24, Z
    1a58:	91 81       	ldd	r25, Z+1	; 0x01
    1a5a:	a2 81       	ldd	r26, Z+2	; 0x02
    1a5c:	b3 81       	ldd	r27, Z+3	; 0x03
    1a5e:	f7 01       	movw	r30, r14
    1a60:	80 83       	st	Z, r24
    1a62:	91 83       	std	Z+1, r25	; 0x01
    1a64:	a2 83       	std	Z+2, r26	; 0x02
    1a66:	b3 83       	std	Z+3, r27	; 0x03
	SERVO_buffer_position(leg->servoAlpha, leg->goalAngleAlpha,servo_speed);
    1a68:	20 91 07 01 	lds	r18, 0x0107
    1a6c:	30 91 08 01 	lds	r19, 0x0108
    1a70:	fe 01       	movw	r30, r28
    1a72:	e4 5a       	subi	r30, 0xA4	; 164
    1a74:	ff 4f       	sbci	r31, 0xFF	; 255
    1a76:	48 2d       	mov	r20, r8
    1a78:	59 2d       	mov	r21, r9
    1a7a:	6a 2d       	mov	r22, r10
    1a7c:	7b 2d       	mov	r23, r11
    1a7e:	80 81       	ld	r24, Z
    1a80:	0e 94 0d 3c 	call	0x781a	; 0x781a <_Z21SERVO_buffer_positionhdj>
	SERVO_buffer_position(leg->servoBeta, leg->goalAngleBeta,servo_speed);
    1a84:	20 91 07 01 	lds	r18, 0x0107
    1a88:	30 91 08 01 	lds	r19, 0x0108
    1a8c:	f8 01       	movw	r30, r16
    1a8e:	40 81       	ld	r20, Z
    1a90:	51 81       	ldd	r21, Z+1	; 0x01
    1a92:	62 81       	ldd	r22, Z+2	; 0x02
    1a94:	73 81       	ldd	r23, Z+3	; 0x03
    1a96:	fe 01       	movw	r30, r28
    1a98:	e6 5a       	subi	r30, 0xA6	; 166
    1a9a:	ff 4f       	sbci	r31, 0xFF	; 255
    1a9c:	80 81       	ld	r24, Z
    1a9e:	0e 94 0d 3c 	call	0x781a	; 0x781a <_Z21SERVO_buffer_positionhdj>
	SERVO_buffer_position(leg->servoGamma, leg->goalAngleGamma,servo_speed);
    1aa2:	20 91 07 01 	lds	r18, 0x0107
    1aa6:	30 91 08 01 	lds	r19, 0x0108
    1aaa:	f7 01       	movw	r30, r14
    1aac:	40 81       	ld	r20, Z
    1aae:	51 81       	ldd	r21, Z+1	; 0x01
    1ab0:	62 81       	ldd	r22, Z+2	; 0x02
    1ab2:	73 81       	ldd	r23, Z+3	; 0x03
    1ab4:	c8 5a       	subi	r28, 0xA8	; 168
    1ab6:	df 4f       	sbci	r29, 0xFF	; 255
    1ab8:	88 81       	ld	r24, Y
    1aba:	0e 94 0d 3c 	call	0x781a	; 0x781a <_Z21SERVO_buffer_positionhdj>
}
    1abe:	df 91       	pop	r29
    1ac0:	cf 91       	pop	r28
    1ac2:	1f 91       	pop	r17
    1ac4:	0f 91       	pop	r16
    1ac6:	ff 90       	pop	r15
    1ac8:	ef 90       	pop	r14
    1aca:	df 90       	pop	r13
    1acc:	cf 90       	pop	r12
    1ace:	bf 90       	pop	r11
    1ad0:	af 90       	pop	r10
    1ad2:	9f 90       	pop	r9
    1ad4:	8f 90       	pop	r8
    1ad6:	7f 90       	pop	r7
    1ad8:	6f 90       	pop	r6
    1ada:	5f 90       	pop	r5
    1adc:	4f 90       	pop	r4
    1ade:	08 95       	ret

00001ae0 <_Z10move_climbP7LegDataf>:
	wait(30);
	move_robot(0,50,100);
}

void move_climb(struct LegData* leg, float n)
{
    1ae0:	2f 92       	push	r2
    1ae2:	3f 92       	push	r3
    1ae4:	4f 92       	push	r4
    1ae6:	5f 92       	push	r5
    1ae8:	6f 92       	push	r6
    1aea:	7f 92       	push	r7
    1aec:	8f 92       	push	r8
    1aee:	9f 92       	push	r9
    1af0:	af 92       	push	r10
    1af2:	bf 92       	push	r11
    1af4:	cf 92       	push	r12
    1af6:	df 92       	push	r13
    1af8:	ef 92       	push	r14
    1afa:	ff 92       	push	r15
    1afc:	0f 93       	push	r16
    1afe:	1f 93       	push	r17
    1b00:	cf 93       	push	r28
    1b02:	df 93       	push	r29
    1b04:	cd b7       	in	r28, 0x3d	; 61
    1b06:	de b7       	in	r29, 0x3e	; 62
    1b08:	64 97       	sbiw	r28, 0x14	; 20
    1b0a:	0f b6       	in	r0, 0x3f	; 63
    1b0c:	f8 94       	cli
    1b0e:	de bf       	out	0x3e, r29	; 62
    1b10:	0f be       	out	0x3f, r0	; 63
    1b12:	cd bf       	out	0x3d, r28	; 61
    1b14:	1c 01       	movw	r2, r24
    1b16:	6a 01       	movw	r12, r20
    1b18:	7b 01       	movw	r14, r22
	tempz = z_in_use + height + 30;
    1b1a:	20 91 65 19 	lds	r18, 0x1965
    1b1e:	30 91 66 19 	lds	r19, 0x1966
    1b22:	40 91 67 19 	lds	r20, 0x1967
    1b26:	50 91 68 19 	lds	r21, 0x1968
    1b2a:	60 91 55 19 	lds	r22, 0x1955
    1b2e:	70 91 56 19 	lds	r23, 0x1956
    1b32:	80 91 57 19 	lds	r24, 0x1957
    1b36:	90 91 58 19 	lds	r25, 0x1958
    1b3a:	0e 94 43 40 	call	0x8086	; 0x8086 <__addsf3>
    1b3e:	20 e0       	ldi	r18, 0x00	; 0
    1b40:	30 e0       	ldi	r19, 0x00	; 0
    1b42:	40 ef       	ldi	r20, 0xF0	; 240
    1b44:	51 e4       	ldi	r21, 0x41	; 65
    1b46:	0e 94 43 40 	call	0x8086	; 0x8086 <__addsf3>
    1b4a:	06 2f       	mov	r16, r22
    1b4c:	17 2f       	mov	r17, r23
    1b4e:	8c 8b       	std	Y+20, r24	; 0x14
    1b50:	9b 8b       	std	Y+19, r25	; 0x13
    1b52:	38 2f       	mov	r19, r24
    1b54:	29 2f       	mov	r18, r25
    1b56:	86 2f       	mov	r24, r22
    1b58:	91 2f       	mov	r25, r17
    1b5a:	a3 2f       	mov	r26, r19
    1b5c:	b2 2f       	mov	r27, r18
    1b5e:	80 93 b6 15 	sts	0x15B6, r24
    1b62:	90 93 b7 15 	sts	0x15B7, r25
    1b66:	a0 93 b8 15 	sts	0x15B8, r26
    1b6a:	b0 93 b9 15 	sts	0x15B9, r27
	
	if(leg->lift == 1 && n == 0)
    1b6e:	20 e0       	ldi	r18, 0x00	; 0
    1b70:	30 e0       	ldi	r19, 0x00	; 0
    1b72:	40 e8       	ldi	r20, 0x80	; 128
    1b74:	5f e3       	ldi	r21, 0x3F	; 63
    1b76:	d1 01       	movw	r26, r2
    1b78:	14 96       	adiw	r26, 0x04	; 4
    1b7a:	6d 91       	ld	r22, X+
    1b7c:	7d 91       	ld	r23, X+
    1b7e:	8d 91       	ld	r24, X+
    1b80:	9c 91       	ld	r25, X
    1b82:	17 97       	sbiw	r26, 0x07	; 7
    1b84:	0e 94 20 41 	call	0x8240	; 0x8240 <__cmpsf2>
    1b88:	81 11       	cpse	r24, r1
    1b8a:	c7 c0       	rjmp	.+398    	; 0x1d1a <_Z10move_climbP7LegDataf+0x23a>
    1b8c:	20 e0       	ldi	r18, 0x00	; 0
    1b8e:	30 e0       	ldi	r19, 0x00	; 0
    1b90:	a9 01       	movw	r20, r18
    1b92:	c7 01       	movw	r24, r14
    1b94:	b6 01       	movw	r22, r12
    1b96:	0e 94 20 41 	call	0x8240	; 0x8240 <__cmpsf2>
    1b9a:	81 11       	cpse	r24, r1
    1b9c:	be c0       	rjmp	.+380    	; 0x1d1a <_Z10move_climbP7LegDataf+0x23a>
	{		
		tempx = leg->newPosx;
    1b9e:	f1 01       	movw	r30, r2
    1ba0:	64 89       	ldd	r22, Z+20	; 0x14
    1ba2:	75 89       	ldd	r23, Z+21	; 0x15
    1ba4:	86 89       	ldd	r24, Z+22	; 0x16
    1ba6:	97 89       	ldd	r25, Z+23	; 0x17
    1ba8:	60 93 be 15 	sts	0x15BE, r22
    1bac:	70 93 bf 15 	sts	0x15BF, r23
    1bb0:	80 93 c0 15 	sts	0x15C0, r24
    1bb4:	90 93 c1 15 	sts	0x15C1, r25
		tempy = leg->newPosy;
    1bb8:	20 8d       	ldd	r18, Z+24	; 0x18
    1bba:	31 8d       	ldd	r19, Z+25	; 0x19
    1bbc:	42 8d       	ldd	r20, Z+26	; 0x1a
    1bbe:	53 8d       	ldd	r21, Z+27	; 0x1b
    1bc0:	20 93 ba 15 	sts	0x15BA, r18
    1bc4:	30 93 bb 15 	sts	0x15BB, r19
    1bc8:	40 93 bc 15 	sts	0x15BC, r20
    1bcc:	50 93 bd 15 	sts	0x15BD, r21

		calc_d(tempx, tempy, tempz);
    1bd0:	fc 89       	ldd	r31, Y+20	; 0x14
    1bd2:	eb 89       	ldd	r30, Y+19	; 0x13
    1bd4:	e0 2e       	mov	r14, r16
    1bd6:	f1 2e       	mov	r15, r17
    1bd8:	0f 2f       	mov	r16, r31
    1bda:	1e 2f       	mov	r17, r30
    1bdc:	0e 94 d8 2d 	call	0x5bb0	; 0x5bb0 <_Z6calc_dfff>
		leg->temp2AngleGamma = get_gamma(tempx, tempy);
    1be0:	20 91 ba 15 	lds	r18, 0x15BA
    1be4:	30 91 bb 15 	lds	r19, 0x15BB
    1be8:	40 91 bc 15 	lds	r20, 0x15BC
    1bec:	50 91 bd 15 	lds	r21, 0x15BD
    1bf0:	60 91 be 15 	lds	r22, 0x15BE
    1bf4:	70 91 bf 15 	lds	r23, 0x15BF
    1bf8:	80 91 c0 15 	lds	r24, 0x15C0
    1bfc:	90 91 c1 15 	lds	r25, 0x15C1
    1c00:	0e 94 39 2e 	call	0x5c72	; 0x5c72 <_Z9get_gammaff>
    1c04:	81 01       	movw	r16, r2
    1c06:	04 5b       	subi	r16, 0xB4	; 180
    1c08:	1f 4f       	sbci	r17, 0xFF	; 255
    1c0a:	d8 01       	movw	r26, r16
    1c0c:	6d 93       	st	X+, r22
    1c0e:	7d 93       	st	X+, r23
    1c10:	8d 93       	st	X+, r24
    1c12:	9c 93       	st	X, r25
    1c14:	13 97       	sbiw	r26, 0x03	; 3
		leg->temp2AngleBeta = get_beta();
    1c16:	0e 94 5c 2e 	call	0x5cb8	; 0x5cb8 <_Z8get_betav>
    1c1a:	71 01       	movw	r14, r2
    1c1c:	b0 e5       	ldi	r27, 0x50	; 80
    1c1e:	eb 0e       	add	r14, r27
    1c20:	f1 1c       	adc	r15, r1
    1c22:	f7 01       	movw	r30, r14
    1c24:	60 83       	st	Z, r22
    1c26:	71 83       	std	Z+1, r23	; 0x01
    1c28:	82 83       	std	Z+2, r24	; 0x02
    1c2a:	93 83       	std	Z+3, r25	; 0x03
		leg->temp2AngleAlpha = get_alpha(tempz);
    1c2c:	60 91 b6 15 	lds	r22, 0x15B6
    1c30:	70 91 b7 15 	lds	r23, 0x15B7
    1c34:	80 91 b8 15 	lds	r24, 0x15B8
    1c38:	90 91 b9 15 	lds	r25, 0x15B9
    1c3c:	0e 94 91 2e 	call	0x5d22	; 0x5d22 <_Z9get_alphaf>
    1c40:	f1 01       	movw	r30, r2
    1c42:	ec 5a       	subi	r30, 0xAC	; 172
    1c44:	ff 4f       	sbci	r31, 0xFF	; 255
    1c46:	60 83       	st	Z, r22
    1c48:	71 83       	std	Z+1, r23	; 0x01
    1c4a:	82 83       	std	Z+2, r24	; 0x02
    1c4c:	93 83       	std	Z+3, r25	; 0x03
		leg->goalAngleAlpha = leg->side * (leg->temp2AngleAlpha + femurAngleAddition);
    1c4e:	d1 01       	movw	r26, r2
    1c50:	8d 90       	ld	r8, X+
    1c52:	9d 90       	ld	r9, X+
    1c54:	ad 90       	ld	r10, X+
    1c56:	bc 90       	ld	r11, X
    1c58:	2e ed       	ldi	r18, 0xDE	; 222
    1c5a:	34 e2       	ldi	r19, 0x24	; 36
    1c5c:	46 e0       	ldi	r20, 0x06	; 6
    1c5e:	5e e3       	ldi	r21, 0x3E	; 62
    1c60:	0e 94 43 40 	call	0x8086	; 0x8086 <__addsf3>
    1c64:	9b 01       	movw	r18, r22
    1c66:	ac 01       	movw	r20, r24
    1c68:	c5 01       	movw	r24, r10
    1c6a:	b4 01       	movw	r22, r8
    1c6c:	0e 94 82 43 	call	0x8704	; 0x8704 <__mulsf3>
    1c70:	66 2e       	mov	r6, r22
    1c72:	77 2e       	mov	r7, r23
    1c74:	c8 2e       	mov	r12, r24
    1c76:	d9 2e       	mov	r13, r25
    1c78:	f1 01       	movw	r30, r2
    1c7a:	ec 57       	subi	r30, 0x7C	; 124
    1c7c:	ff 4f       	sbci	r31, 0xFF	; 255
    1c7e:	86 2f       	mov	r24, r22
    1c80:	97 2d       	mov	r25, r7
    1c82:	ac 2d       	mov	r26, r12
    1c84:	bd 2d       	mov	r27, r13
    1c86:	80 83       	st	Z, r24
    1c88:	91 83       	std	Z+1, r25	; 0x01
    1c8a:	a2 83       	std	Z+2, r26	; 0x02
    1c8c:	b3 83       	std	Z+3, r27	; 0x03
		leg->goalAngleBeta = leg->side * (-leg->temp2AngleBeta + tibiaAngleAddition);
    1c8e:	21 01       	movw	r4, r2
    1c90:	b8 e8       	ldi	r27, 0x88	; 136
    1c92:	4b 0e       	add	r4, r27
    1c94:	51 1c       	adc	r5, r1
    1c96:	f7 01       	movw	r30, r14
    1c98:	20 81       	ld	r18, Z
    1c9a:	31 81       	ldd	r19, Z+1	; 0x01
    1c9c:	42 81       	ldd	r20, Z+2	; 0x02
    1c9e:	53 81       	ldd	r21, Z+3	; 0x03
    1ca0:	6b e3       	ldi	r22, 0x3B	; 59
    1ca2:	7f ed       	ldi	r23, 0xDF	; 223
    1ca4:	8f e0       	ldi	r24, 0x0F	; 15
    1ca6:	9f e3       	ldi	r25, 0x3F	; 63
    1ca8:	0e 94 42 40 	call	0x8084	; 0x8084 <__subsf3>
    1cac:	9b 01       	movw	r18, r22
    1cae:	ac 01       	movw	r20, r24
    1cb0:	c5 01       	movw	r24, r10
    1cb2:	b4 01       	movw	r22, r8
    1cb4:	0e 94 82 43 	call	0x8704	; 0x8704 <__mulsf3>
    1cb8:	d2 01       	movw	r26, r4
    1cba:	6d 93       	st	X+, r22
    1cbc:	7d 93       	st	X+, r23
    1cbe:	8d 93       	st	X+, r24
    1cc0:	9c 93       	st	X, r25
    1cc2:	13 97       	sbiw	r26, 0x03	; 3
		leg->goalAngleGamma = leg->temp2AngleGamma;
    1cc4:	91 01       	movw	r18, r2
    1cc6:	24 57       	subi	r18, 0x74	; 116
    1cc8:	3f 4f       	sbci	r19, 0xFF	; 255
    1cca:	f8 01       	movw	r30, r16
    1ccc:	80 81       	ld	r24, Z
    1cce:	91 81       	ldd	r25, Z+1	; 0x01
    1cd0:	a2 81       	ldd	r26, Z+2	; 0x02
    1cd2:	b3 81       	ldd	r27, Z+3	; 0x03
    1cd4:	f9 01       	movw	r30, r18
    1cd6:	80 83       	st	Z, r24
    1cd8:	91 83       	std	Z+1, r25	; 0x01
    1cda:	a2 83       	std	Z+2, r26	; 0x02
    1cdc:	b3 83       	std	Z+3, r27	; 0x03
			
		SERVO_goto(leg->servoAlpha,leg->goalAngleAlpha,200);
    1cde:	f1 01       	movw	r30, r2
    1ce0:	e4 5a       	subi	r30, 0xA4	; 164
    1ce2:	ff 4f       	sbci	r31, 0xFF	; 255
    1ce4:	28 ec       	ldi	r18, 0xC8	; 200
    1ce6:	30 e0       	ldi	r19, 0x00	; 0
    1ce8:	46 2d       	mov	r20, r6
    1cea:	57 2d       	mov	r21, r7
    1cec:	6c 2d       	mov	r22, r12
    1cee:	7d 2d       	mov	r23, r13
    1cf0:	80 81       	ld	r24, Z
    1cf2:	0e 94 93 3b 	call	0x7726	; 0x7726 <_Z10SERVO_gotohdj>
		SERVO_goto(leg->servoBeta, leg->goalAngleBeta,200);
    1cf6:	d2 01       	movw	r26, r4
    1cf8:	4d 91       	ld	r20, X+
    1cfa:	5d 91       	ld	r21, X+
    1cfc:	6d 91       	ld	r22, X+
    1cfe:	7c 91       	ld	r23, X
    1d00:	f1 01       	movw	r30, r2
    1d02:	e6 5a       	subi	r30, 0xA6	; 166
    1d04:	ff 4f       	sbci	r31, 0xFF	; 255
    1d06:	28 ec       	ldi	r18, 0xC8	; 200
    1d08:	30 e0       	ldi	r19, 0x00	; 0
    1d0a:	80 81       	ld	r24, Z
    1d0c:	0e 94 93 3b 	call	0x7726	; 0x7726 <_Z10SERVO_gotohdj>
		
		wait(200);
    1d10:	88 ec       	ldi	r24, 0xC8	; 200
    1d12:	90 e0       	ldi	r25, 0x00	; 0
    1d14:	0e 94 47 05 	call	0xa8e	; 0xa8e <_Z4waitj>
    1d18:	9e c1       	rjmp	.+828    	; 0x2056 <_Z10move_climbP7LegDataf+0x576>
	}
	else if(n != iterations + 1)
    1d1a:	80 90 69 19 	lds	r8, 0x1969
    1d1e:	90 90 6a 19 	lds	r9, 0x196A
    1d22:	a0 90 6b 19 	lds	r10, 0x196B
    1d26:	b0 90 6c 19 	lds	r11, 0x196C
    1d2a:	20 e0       	ldi	r18, 0x00	; 0
    1d2c:	30 e0       	ldi	r19, 0x00	; 0
    1d2e:	40 e8       	ldi	r20, 0x80	; 128
    1d30:	5f e3       	ldi	r21, 0x3F	; 63
    1d32:	c5 01       	movw	r24, r10
    1d34:	b4 01       	movw	r22, r8
    1d36:	0e 94 43 40 	call	0x8086	; 0x8086 <__addsf3>
    1d3a:	a7 01       	movw	r20, r14
    1d3c:	96 01       	movw	r18, r12
    1d3e:	0e 94 20 41 	call	0x8240	; 0x8240 <__cmpsf2>
    1d42:	88 23       	and	r24, r24
    1d44:	09 f4       	brne	.+2      	; 0x1d48 <_Z10move_climbP7LegDataf+0x268>
    1d46:	87 c1       	rjmp	.+782    	; 0x2056 <_Z10move_climbP7LegDataf+0x576>
	{
		leg->temp1AngleGamma = leg->temp2AngleGamma;
    1d48:	f1 01       	movw	r30, r2
    1d4a:	e0 5c       	subi	r30, 0xC0	; 192
    1d4c:	ff 4f       	sbci	r31, 0xFF	; 255
    1d4e:	f8 87       	std	Y+8, r31	; 0x08
    1d50:	ef 83       	std	Y+7, r30	; 0x07
    1d52:	c1 01       	movw	r24, r2
    1d54:	84 5b       	subi	r24, 0xB4	; 180
    1d56:	9f 4f       	sbci	r25, 0xFF	; 255
    1d58:	9e 83       	std	Y+6, r25	; 0x06
    1d5a:	8d 83       	std	Y+5, r24	; 0x05
    1d5c:	fc 01       	movw	r30, r24
    1d5e:	80 81       	ld	r24, Z
    1d60:	91 81       	ldd	r25, Z+1	; 0x01
    1d62:	a2 81       	ldd	r26, Z+2	; 0x02
    1d64:	b3 81       	ldd	r27, Z+3	; 0x03
    1d66:	ef 81       	ldd	r30, Y+7	; 0x07
    1d68:	f8 85       	ldd	r31, Y+8	; 0x08
    1d6a:	80 83       	st	Z, r24
    1d6c:	91 83       	std	Z+1, r25	; 0x01
    1d6e:	a2 83       	std	Z+2, r26	; 0x02
    1d70:	b3 83       	std	Z+3, r27	; 0x03
		leg->temp1AngleBeta = leg->temp2AngleBeta;
    1d72:	c1 01       	movw	r24, r2
    1d74:	8c 5b       	subi	r24, 0xBC	; 188
    1d76:	9f 4f       	sbci	r25, 0xFF	; 255
    1d78:	9a 87       	std	Y+10, r25	; 0x0a
    1d7a:	89 87       	std	Y+9, r24	; 0x09
    1d7c:	d1 01       	movw	r26, r2
    1d7e:	a0 5b       	subi	r26, 0xB0	; 176
    1d80:	bf 4f       	sbci	r27, 0xFF	; 255
    1d82:	ba 83       	std	Y+2, r27	; 0x02
    1d84:	a9 83       	std	Y+1, r26	; 0x01
    1d86:	8d 91       	ld	r24, X+
    1d88:	9d 91       	ld	r25, X+
    1d8a:	0d 90       	ld	r0, X+
    1d8c:	bc 91       	ld	r27, X
    1d8e:	a0 2d       	mov	r26, r0
    1d90:	e9 85       	ldd	r30, Y+9	; 0x09
    1d92:	fa 85       	ldd	r31, Y+10	; 0x0a
    1d94:	80 83       	st	Z, r24
    1d96:	91 83       	std	Z+1, r25	; 0x01
    1d98:	a2 83       	std	Z+2, r26	; 0x02
    1d9a:	b3 83       	std	Z+3, r27	; 0x03
		leg->temp1AngleAlpha = leg->temp2AngleAlpha;
    1d9c:	c1 01       	movw	r24, r2
    1d9e:	88 5b       	subi	r24, 0xB8	; 184
    1da0:	9f 4f       	sbci	r25, 0xFF	; 255
    1da2:	9c 87       	std	Y+12, r25	; 0x0c
    1da4:	8b 87       	std	Y+11, r24	; 0x0b
    1da6:	d1 01       	movw	r26, r2
    1da8:	ac 5a       	subi	r26, 0xAC	; 172
    1daa:	bf 4f       	sbci	r27, 0xFF	; 255
    1dac:	be 87       	std	Y+14, r27	; 0x0e
    1dae:	ad 87       	std	Y+13, r26	; 0x0d
    1db0:	8d 91       	ld	r24, X+
    1db2:	9d 91       	ld	r25, X+
    1db4:	0d 90       	ld	r0, X+
    1db6:	bc 91       	ld	r27, X
    1db8:	a0 2d       	mov	r26, r0
    1dba:	eb 85       	ldd	r30, Y+11	; 0x0b
    1dbc:	fc 85       	ldd	r31, Y+12	; 0x0c
    1dbe:	80 83       	st	Z, r24
    1dc0:	91 83       	std	Z+1, r25	; 0x01
    1dc2:	a2 83       	std	Z+2, r26	; 0x02
    1dc4:	b3 83       	std	Z+3, r27	; 0x03

		tempx = leg->prevPosx + n*(leg->newPosx - leg->prevPosx)/iterations;
    1dc6:	d1 01       	movw	r26, r2
    1dc8:	5c 96       	adiw	r26, 0x1c	; 28
    1dca:	4d 90       	ld	r4, X+
    1dcc:	5d 90       	ld	r5, X+
    1dce:	6d 90       	ld	r6, X+
    1dd0:	7c 90       	ld	r7, X
    1dd2:	5f 97       	sbiw	r26, 0x1f	; 31
    1dd4:	a3 01       	movw	r20, r6
    1dd6:	92 01       	movw	r18, r4
    1dd8:	54 96       	adiw	r26, 0x14	; 20
    1dda:	6d 91       	ld	r22, X+
    1ddc:	7d 91       	ld	r23, X+
    1dde:	8d 91       	ld	r24, X+
    1de0:	9c 91       	ld	r25, X
    1de2:	57 97       	sbiw	r26, 0x17	; 23
    1de4:	0e 94 42 40 	call	0x8084	; 0x8084 <__subsf3>
    1de8:	a7 01       	movw	r20, r14
    1dea:	96 01       	movw	r18, r12
    1dec:	0e 94 82 43 	call	0x8704	; 0x8704 <__mulsf3>
    1df0:	a5 01       	movw	r20, r10
    1df2:	94 01       	movw	r18, r8
    1df4:	0e 94 27 41 	call	0x824e	; 0x824e <__divsf3>
    1df8:	9b 01       	movw	r18, r22
    1dfa:	ac 01       	movw	r20, r24
    1dfc:	c3 01       	movw	r24, r6
    1dfe:	b2 01       	movw	r22, r4
    1e00:	0e 94 43 40 	call	0x8086	; 0x8086 <__addsf3>
    1e04:	6f 87       	std	Y+15, r22	; 0x0f
    1e06:	78 8b       	std	Y+16, r23	; 0x10
    1e08:	89 8b       	std	Y+17, r24	; 0x11
    1e0a:	9a 8b       	std	Y+18, r25	; 0x12
    1e0c:	47 2f       	mov	r20, r23
    1e0e:	38 2f       	mov	r19, r24
    1e10:	29 2f       	mov	r18, r25
    1e12:	86 2f       	mov	r24, r22
    1e14:	94 2f       	mov	r25, r20
    1e16:	a3 2f       	mov	r26, r19
    1e18:	b2 2f       	mov	r27, r18
    1e1a:	80 93 be 15 	sts	0x15BE, r24
    1e1e:	90 93 bf 15 	sts	0x15BF, r25
    1e22:	a0 93 c0 15 	sts	0x15C0, r26
    1e26:	b0 93 c1 15 	sts	0x15C1, r27
		tempy = leg->prevPosy + n*(leg->newPosy - leg->prevPosy)/iterations;
    1e2a:	f1 01       	movw	r30, r2
    1e2c:	40 a0       	ldd	r4, Z+32	; 0x20
    1e2e:	51 a0       	ldd	r5, Z+33	; 0x21
    1e30:	62 a0       	ldd	r6, Z+34	; 0x22
    1e32:	73 a0       	ldd	r7, Z+35	; 0x23
    1e34:	a3 01       	movw	r20, r6
    1e36:	92 01       	movw	r18, r4
    1e38:	60 8d       	ldd	r22, Z+24	; 0x18
    1e3a:	71 8d       	ldd	r23, Z+25	; 0x19
    1e3c:	82 8d       	ldd	r24, Z+26	; 0x1a
    1e3e:	93 8d       	ldd	r25, Z+27	; 0x1b
    1e40:	0e 94 42 40 	call	0x8084	; 0x8084 <__subsf3>
    1e44:	a7 01       	movw	r20, r14
    1e46:	96 01       	movw	r18, r12
    1e48:	0e 94 82 43 	call	0x8704	; 0x8704 <__mulsf3>
    1e4c:	a5 01       	movw	r20, r10
    1e4e:	94 01       	movw	r18, r8
    1e50:	0e 94 27 41 	call	0x824e	; 0x824e <__divsf3>
    1e54:	9b 01       	movw	r18, r22
    1e56:	ac 01       	movw	r20, r24
    1e58:	c3 01       	movw	r24, r6
    1e5a:	b2 01       	movw	r22, r4
    1e5c:	0e 94 43 40 	call	0x8086	; 0x8086 <__addsf3>
    1e60:	26 2f       	mov	r18, r22
    1e62:	37 2f       	mov	r19, r23
    1e64:	46 2f       	mov	r20, r22
    1e66:	57 2f       	mov	r21, r23
    1e68:	68 2f       	mov	r22, r24
    1e6a:	79 2f       	mov	r23, r25
    1e6c:	40 93 ba 15 	sts	0x15BA, r20
    1e70:	50 93 bb 15 	sts	0x15BB, r21
    1e74:	60 93 bc 15 	sts	0x15BC, r22
    1e78:	70 93 bd 15 	sts	0x15BD, r23
		calc_d(tempx, tempy, tempz);
    1e7c:	5c 89       	ldd	r21, Y+20	; 0x14
    1e7e:	4b 89       	ldd	r20, Y+19	; 0x13
    1e80:	e0 2e       	mov	r14, r16
    1e82:	f1 2e       	mov	r15, r17
    1e84:	05 2f       	mov	r16, r21
    1e86:	14 2f       	mov	r17, r20
    1e88:	48 2f       	mov	r20, r24
    1e8a:	59 2f       	mov	r21, r25
    1e8c:	bf 85       	ldd	r27, Y+15	; 0x0f
    1e8e:	a8 89       	ldd	r26, Y+16	; 0x10
    1e90:	e9 89       	ldd	r30, Y+17	; 0x11
    1e92:	da 88       	ldd	r13, Y+18	; 0x12
    1e94:	6b 2f       	mov	r22, r27
    1e96:	7a 2f       	mov	r23, r26
    1e98:	8e 2f       	mov	r24, r30
    1e9a:	9d 2d       	mov	r25, r13
    1e9c:	0e 94 d8 2d 	call	0x5bb0	; 0x5bb0 <_Z6calc_dfff>
		leg->temp2AngleGamma = get_gamma(tempx, tempy);
    1ea0:	20 91 ba 15 	lds	r18, 0x15BA
    1ea4:	30 91 bb 15 	lds	r19, 0x15BB
    1ea8:	40 91 bc 15 	lds	r20, 0x15BC
    1eac:	50 91 bd 15 	lds	r21, 0x15BD
    1eb0:	60 91 be 15 	lds	r22, 0x15BE
    1eb4:	70 91 bf 15 	lds	r23, 0x15BF
    1eb8:	80 91 c0 15 	lds	r24, 0x15C0
    1ebc:	90 91 c1 15 	lds	r25, 0x15C1
    1ec0:	0e 94 39 2e 	call	0x5c72	; 0x5c72 <_Z9get_gammaff>
    1ec4:	ad 81       	ldd	r26, Y+5	; 0x05
    1ec6:	be 81       	ldd	r27, Y+6	; 0x06
    1ec8:	6d 93       	st	X+, r22
    1eca:	7d 93       	st	X+, r23
    1ecc:	8d 93       	st	X+, r24
    1ece:	9c 93       	st	X, r25
    1ed0:	13 97       	sbiw	r26, 0x03	; 3
		leg->temp2AngleBeta = get_beta();
    1ed2:	0e 94 5c 2e 	call	0x5cb8	; 0x5cb8 <_Z8get_betav>
    1ed6:	e9 81       	ldd	r30, Y+1	; 0x01
    1ed8:	fa 81       	ldd	r31, Y+2	; 0x02
    1eda:	60 83       	st	Z, r22
    1edc:	71 83       	std	Z+1, r23	; 0x01
    1ede:	82 83       	std	Z+2, r24	; 0x02
    1ee0:	93 83       	std	Z+3, r25	; 0x03
		leg->temp2AngleAlpha = get_alpha(tempz);
    1ee2:	60 91 b6 15 	lds	r22, 0x15B6
    1ee6:	70 91 b7 15 	lds	r23, 0x15B7
    1eea:	80 91 b8 15 	lds	r24, 0x15B8
    1eee:	90 91 b9 15 	lds	r25, 0x15B9
    1ef2:	0e 94 91 2e 	call	0x5d22	; 0x5d22 <_Z9get_alphaf>
    1ef6:	4b 01       	movw	r8, r22
    1ef8:	5c 01       	movw	r10, r24
    1efa:	ad 85       	ldd	r26, Y+13	; 0x0d
    1efc:	be 85       	ldd	r27, Y+14	; 0x0e
    1efe:	6d 93       	st	X+, r22
    1f00:	7d 93       	st	X+, r23
    1f02:	8d 93       	st	X+, r24
    1f04:	9c 93       	st	X, r25
    1f06:	13 97       	sbiw	r26, 0x03	; 3
		speedAlpha = fabsf(leg->temp1AngleAlpha - leg->temp2AngleAlpha)*speedMultiplier;
    1f08:	40 90 c6 15 	lds	r4, 0x15C6
    1f0c:	50 90 c7 15 	lds	r5, 0x15C7
    1f10:	60 90 c8 15 	lds	r6, 0x15C8
    1f14:	70 90 c9 15 	lds	r7, 0x15C9
    1f18:	9b 01       	movw	r18, r22
    1f1a:	ac 01       	movw	r20, r24
    1f1c:	eb 85       	ldd	r30, Y+11	; 0x0b
    1f1e:	fc 85       	ldd	r31, Y+12	; 0x0c
    1f20:	60 81       	ld	r22, Z
    1f22:	71 81       	ldd	r23, Z+1	; 0x01
    1f24:	82 81       	ldd	r24, Z+2	; 0x02
    1f26:	93 81       	ldd	r25, Z+3	; 0x03
    1f28:	0e 94 42 40 	call	0x8084	; 0x8084 <__subsf3>
    1f2c:	9f 77       	andi	r25, 0x7F	; 127
    1f2e:	a3 01       	movw	r20, r6
    1f30:	92 01       	movw	r18, r4
    1f32:	0e 94 82 43 	call	0x8704	; 0x8704 <__mulsf3>
    1f36:	60 93 d2 15 	sts	0x15D2, r22
    1f3a:	70 93 d3 15 	sts	0x15D3, r23
    1f3e:	80 93 d4 15 	sts	0x15D4, r24
    1f42:	90 93 d5 15 	sts	0x15D5, r25
		speedBeta = fabsf(leg->temp1AngleBeta - leg->temp2AngleBeta)*speedMultiplier;
    1f46:	a9 81       	ldd	r26, Y+1	; 0x01
    1f48:	ba 81       	ldd	r27, Y+2	; 0x02
    1f4a:	8d 91       	ld	r24, X+
    1f4c:	9d 91       	ld	r25, X+
    1f4e:	0d 90       	ld	r0, X+
    1f50:	bc 91       	ld	r27, X
    1f52:	a0 2d       	mov	r26, r0
    1f54:	89 83       	std	Y+1, r24	; 0x01
    1f56:	9a 83       	std	Y+2, r25	; 0x02
    1f58:	ab 83       	std	Y+3, r26	; 0x03
    1f5a:	bc 83       	std	Y+4, r27	; 0x04
    1f5c:	9c 01       	movw	r18, r24
    1f5e:	ad 01       	movw	r20, r26
    1f60:	e9 85       	ldd	r30, Y+9	; 0x09
    1f62:	fa 85       	ldd	r31, Y+10	; 0x0a
    1f64:	60 81       	ld	r22, Z
    1f66:	71 81       	ldd	r23, Z+1	; 0x01
    1f68:	82 81       	ldd	r24, Z+2	; 0x02
    1f6a:	93 81       	ldd	r25, Z+3	; 0x03
    1f6c:	0e 94 42 40 	call	0x8084	; 0x8084 <__subsf3>
    1f70:	9b 01       	movw	r18, r22
    1f72:	ac 01       	movw	r20, r24
    1f74:	5f 77       	andi	r21, 0x7F	; 127
    1f76:	c3 01       	movw	r24, r6
    1f78:	b2 01       	movw	r22, r4
    1f7a:	0e 94 82 43 	call	0x8704	; 0x8704 <__mulsf3>
    1f7e:	60 93 ce 15 	sts	0x15CE, r22
    1f82:	70 93 cf 15 	sts	0x15CF, r23
    1f86:	80 93 d0 15 	sts	0x15D0, r24
    1f8a:	90 93 d1 15 	sts	0x15D1, r25
		speedGamma = fabsf(leg->temp1AngleGamma - leg->temp2AngleGamma)*speedMultiplier;
    1f8e:	ad 81       	ldd	r26, Y+5	; 0x05
    1f90:	be 81       	ldd	r27, Y+6	; 0x06
    1f92:	cd 90       	ld	r12, X+
    1f94:	dd 90       	ld	r13, X+
    1f96:	ed 90       	ld	r14, X+
    1f98:	fc 90       	ld	r15, X
    1f9a:	a7 01       	movw	r20, r14
    1f9c:	96 01       	movw	r18, r12
    1f9e:	ef 81       	ldd	r30, Y+7	; 0x07
    1fa0:	f8 85       	ldd	r31, Y+8	; 0x08
    1fa2:	60 81       	ld	r22, Z
    1fa4:	71 81       	ldd	r23, Z+1	; 0x01
    1fa6:	82 81       	ldd	r24, Z+2	; 0x02
    1fa8:	93 81       	ldd	r25, Z+3	; 0x03
    1faa:	0e 94 42 40 	call	0x8084	; 0x8084 <__subsf3>
    1fae:	9b 01       	movw	r18, r22
    1fb0:	ac 01       	movw	r20, r24
    1fb2:	5f 77       	andi	r21, 0x7F	; 127
    1fb4:	c3 01       	movw	r24, r6
    1fb6:	b2 01       	movw	r22, r4
    1fb8:	0e 94 82 43 	call	0x8704	; 0x8704 <__mulsf3>
    1fbc:	60 93 ca 15 	sts	0x15CA, r22
    1fc0:	70 93 cb 15 	sts	0x15CB, r23
    1fc4:	80 93 cc 15 	sts	0x15CC, r24
    1fc8:	90 93 cd 15 	sts	0x15CD, r25
		leg->goalAngleAlpha = leg->side *(leg->temp2AngleAlpha + femurAngleAddition);
    1fcc:	d1 01       	movw	r26, r2
    1fce:	4d 90       	ld	r4, X+
    1fd0:	5d 90       	ld	r5, X+
    1fd2:	6d 90       	ld	r6, X+
    1fd4:	7c 90       	ld	r7, X
    1fd6:	81 01       	movw	r16, r2
    1fd8:	0c 57       	subi	r16, 0x7C	; 124
    1fda:	1f 4f       	sbci	r17, 0xFF	; 255
    1fdc:	2e ed       	ldi	r18, 0xDE	; 222
    1fde:	34 e2       	ldi	r19, 0x24	; 36
    1fe0:	46 e0       	ldi	r20, 0x06	; 6
    1fe2:	5e e3       	ldi	r21, 0x3E	; 62
    1fe4:	c5 01       	movw	r24, r10
    1fe6:	b4 01       	movw	r22, r8
    1fe8:	0e 94 43 40 	call	0x8086	; 0x8086 <__addsf3>
    1fec:	9b 01       	movw	r18, r22
    1fee:	ac 01       	movw	r20, r24
    1ff0:	c3 01       	movw	r24, r6
    1ff2:	b2 01       	movw	r22, r4
    1ff4:	0e 94 82 43 	call	0x8704	; 0x8704 <__mulsf3>
    1ff8:	f8 01       	movw	r30, r16
    1ffa:	60 83       	st	Z, r22
    1ffc:	71 83       	std	Z+1, r23	; 0x01
    1ffe:	82 83       	std	Z+2, r24	; 0x02
    2000:	93 83       	std	Z+3, r25	; 0x03
		leg->goalAngleBeta = leg->side*(-leg->temp2AngleBeta + tibiaAngleAddition);
    2002:	81 01       	movw	r16, r2
    2004:	08 57       	subi	r16, 0x78	; 120
    2006:	1f 4f       	sbci	r17, 0xFF	; 255
    2008:	29 81       	ldd	r18, Y+1	; 0x01
    200a:	3a 81       	ldd	r19, Y+2	; 0x02
    200c:	4b 81       	ldd	r20, Y+3	; 0x03
    200e:	5c 81       	ldd	r21, Y+4	; 0x04
    2010:	6b e3       	ldi	r22, 0x3B	; 59
    2012:	7f ed       	ldi	r23, 0xDF	; 223
    2014:	8f e0       	ldi	r24, 0x0F	; 15
    2016:	9f e3       	ldi	r25, 0x3F	; 63
    2018:	0e 94 42 40 	call	0x8084	; 0x8084 <__subsf3>
    201c:	9b 01       	movw	r18, r22
    201e:	ac 01       	movw	r20, r24
    2020:	c3 01       	movw	r24, r6
    2022:	b2 01       	movw	r22, r4
    2024:	0e 94 82 43 	call	0x8704	; 0x8704 <__mulsf3>
    2028:	d8 01       	movw	r26, r16
    202a:	6d 93       	st	X+, r22
    202c:	7d 93       	st	X+, r23
    202e:	8d 93       	st	X+, r24
    2030:	9c 93       	st	X, r25
    2032:	13 97       	sbiw	r26, 0x03	; 3
		leg->goalAngleGamma = leg->temp2AngleGamma;
    2034:	f1 01       	movw	r30, r2
    2036:	e4 57       	subi	r30, 0x74	; 116
    2038:	ff 4f       	sbci	r31, 0xFF	; 255
    203a:	c0 82       	st	Z, r12
    203c:	d1 82       	std	Z+1, r13	; 0x01
    203e:	e2 82       	std	Z+2, r14	; 0x02
    2040:	f3 82       	std	Z+3, r15	; 0x03
		//SERVO_buffer_position(leg->servoAlpha, leg->goalAngleAlpha,200);
		//SERVO_buffer_position(leg->servoBeta, leg->goalAngleBeta,200);
		SERVO_buffer_position(leg->servoGamma, leg->goalAngleGamma,200);
    2042:	f1 01       	movw	r30, r2
    2044:	e8 5a       	subi	r30, 0xA8	; 168
    2046:	ff 4f       	sbci	r31, 0xFF	; 255
    2048:	28 ec       	ldi	r18, 0xC8	; 200
    204a:	30 e0       	ldi	r19, 0x00	; 0
    204c:	b7 01       	movw	r22, r14
    204e:	a6 01       	movw	r20, r12
    2050:	80 81       	ld	r24, Z
    2052:	0e 94 0d 3c 	call	0x781a	; 0x781a <_Z21SERVO_buffer_positionhdj>
	}
}
    2056:	64 96       	adiw	r28, 0x14	; 20
    2058:	0f b6       	in	r0, 0x3f	; 63
    205a:	f8 94       	cli
    205c:	de bf       	out	0x3e, r29	; 62
    205e:	0f be       	out	0x3f, r0	; 63
    2060:	cd bf       	out	0x3d, r28	; 61
    2062:	df 91       	pop	r29
    2064:	cf 91       	pop	r28
    2066:	1f 91       	pop	r17
    2068:	0f 91       	pop	r16
    206a:	ff 90       	pop	r15
    206c:	ef 90       	pop	r14
    206e:	df 90       	pop	r13
    2070:	cf 90       	pop	r12
    2072:	bf 90       	pop	r11
    2074:	af 90       	pop	r10
    2076:	9f 90       	pop	r9
    2078:	8f 90       	pop	r8
    207a:	7f 90       	pop	r7
    207c:	6f 90       	pop	r6
    207e:	5f 90       	pop	r5
    2080:	4f 90       	pop	r4
    2082:	3f 90       	pop	r3
    2084:	2f 90       	pop	r2
    2086:	08 95       	ret

00002088 <_Z8change_zf>:


void change_z(float input)
{
	leg1.newPosz = input;
    2088:	60 93 b6 18 	sts	0x18B6, r22
    208c:	70 93 b7 18 	sts	0x18B7, r23
    2090:	80 93 b8 18 	sts	0x18B8, r24
    2094:	90 93 b9 18 	sts	0x18B9, r25
	leg2.newPosz = input;
    2098:	60 93 26 18 	sts	0x1826, r22
    209c:	70 93 27 18 	sts	0x1827, r23
    20a0:	80 93 28 18 	sts	0x1828, r24
    20a4:	90 93 29 18 	sts	0x1829, r25
	leg3.newPosz = input;
    20a8:	60 93 96 17 	sts	0x1796, r22
    20ac:	70 93 97 17 	sts	0x1797, r23
    20b0:	80 93 98 17 	sts	0x1798, r24
    20b4:	90 93 99 17 	sts	0x1799, r25
	leg4.newPosz = input;
    20b8:	60 93 06 17 	sts	0x1706, r22
    20bc:	70 93 07 17 	sts	0x1707, r23
    20c0:	80 93 08 17 	sts	0x1708, r24
    20c4:	90 93 09 17 	sts	0x1709, r25
	leg5.newPosz = input;
    20c8:	60 93 76 16 	sts	0x1676, r22
    20cc:	70 93 77 16 	sts	0x1677, r23
    20d0:	80 93 78 16 	sts	0x1678, r24
    20d4:	90 93 79 16 	sts	0x1679, r25
	leg6.newPosz = input;
    20d8:	60 93 e6 15 	sts	0x15E6, r22
    20dc:	70 93 e7 15 	sts	0x15E7, r23
    20e0:	80 93 e8 15 	sts	0x15E8, r24
    20e4:	90 93 e9 15 	sts	0x15E9, r25
	
	height_change_all(input);
    20e8:	0c 94 79 2d 	jmp	0x5af2	; 0x5af2 <_Z17height_change_allf>

000020ec <_Z12MPU_get_meanv>:
	USART_send_turn_done();
}


void MPU_get_mean()
{
    20ec:	4f 92       	push	r4
    20ee:	5f 92       	push	r5
    20f0:	6f 92       	push	r6
    20f2:	7f 92       	push	r7
    20f4:	8f 92       	push	r8
    20f6:	9f 92       	push	r9
    20f8:	af 92       	push	r10
    20fa:	bf 92       	push	r11
    20fc:	cf 92       	push	r12
    20fe:	df 92       	push	r13
    2100:	ef 92       	push	r14
    2102:	ff 92       	push	r15
    2104:	cf 93       	push	r28
    2106:	df 93       	push	r29
    2108:	00 d0       	rcall	.+0      	; 0x210a <_Z12MPU_get_meanv+0x1e>
    210a:	00 d0       	rcall	.+0      	; 0x210c <_Z12MPU_get_meanv+0x20>
    210c:	cd b7       	in	r28, 0x3d	; 61
    210e:	de b7       	in	r29, 0x3e	; 62
	MPU_update();
    2110:	0e 94 53 3a 	call	0x74a6	; 0x74a6 <_Z10MPU_updatev>
	float xp = MPU_get_p();
    2114:	0e 94 05 3a 	call	0x740a	; 0x740a <_Z9MPU_get_pv>
    2118:	69 83       	std	Y+1, r22	; 0x01
    211a:	7a 83       	std	Y+2, r23	; 0x02
    211c:	8b 83       	std	Y+3, r24	; 0x03
    211e:	9c 83       	std	Y+4, r25	; 0x04
	float xr = MPU_get_r();
    2120:	0e 94 10 3a 	call	0x7420	; 0x7420 <_Z9MPU_get_rv>
    2124:	4b 01       	movw	r8, r22
    2126:	5c 01       	movw	r10, r24
	wait(10);
    2128:	8a e0       	ldi	r24, 0x0A	; 10
    212a:	90 e0       	ldi	r25, 0x00	; 0
    212c:	0e 94 47 05 	call	0xa8e	; 0xa8e <_Z4waitj>
	MPU_update();
    2130:	0e 94 53 3a 	call	0x74a6	; 0x74a6 <_Z10MPU_updatev>
	float yp = MPU_get_p();
    2134:	0e 94 05 3a 	call	0x740a	; 0x740a <_Z9MPU_get_pv>
    2138:	6b 01       	movw	r12, r22
    213a:	7c 01       	movw	r14, r24
	float yr = MPU_get_r();
    213c:	0e 94 10 3a 	call	0x7420	; 0x7420 <_Z9MPU_get_rv>
    2140:	2b 01       	movw	r4, r22
    2142:	3c 01       	movw	r6, r24
	wait(10);
    2144:	8a e0       	ldi	r24, 0x0A	; 10
    2146:	90 e0       	ldi	r25, 0x00	; 0
    2148:	0e 94 47 05 	call	0xa8e	; 0xa8e <_Z4waitj>
	MPU_update();
    214c:	0e 94 53 3a 	call	0x74a6	; 0x74a6 <_Z10MPU_updatev>
	MPUPMean = (xp+yp+ MPU_get_p())/3;	
    2150:	a7 01       	movw	r20, r14
    2152:	96 01       	movw	r18, r12
    2154:	69 81       	ldd	r22, Y+1	; 0x01
    2156:	7a 81       	ldd	r23, Y+2	; 0x02
    2158:	8b 81       	ldd	r24, Y+3	; 0x03
    215a:	9c 81       	ldd	r25, Y+4	; 0x04
    215c:	0e 94 43 40 	call	0x8086	; 0x8086 <__addsf3>
    2160:	c6 2e       	mov	r12, r22
    2162:	d7 2e       	mov	r13, r23
    2164:	e8 2e       	mov	r14, r24
    2166:	f9 2e       	mov	r15, r25
    2168:	0e 94 05 3a 	call	0x740a	; 0x740a <_Z9MPU_get_pv>
    216c:	9b 01       	movw	r18, r22
    216e:	ac 01       	movw	r20, r24
    2170:	6c 2d       	mov	r22, r12
    2172:	7d 2d       	mov	r23, r13
    2174:	8e 2d       	mov	r24, r14
    2176:	9f 2d       	mov	r25, r15
    2178:	0e 94 43 40 	call	0x8086	; 0x8086 <__addsf3>
    217c:	20 e0       	ldi	r18, 0x00	; 0
    217e:	30 e0       	ldi	r19, 0x00	; 0
    2180:	40 e4       	ldi	r20, 0x40	; 64
    2182:	50 e4       	ldi	r21, 0x40	; 64
    2184:	0e 94 27 41 	call	0x824e	; 0x824e <__divsf3>
    2188:	60 93 44 19 	sts	0x1944, r22
    218c:	70 93 45 19 	sts	0x1945, r23
    2190:	80 93 46 19 	sts	0x1946, r24
    2194:	90 93 47 19 	sts	0x1947, r25
	MPURMean = (xr+yr+ MPU_get_r())/3;
    2198:	a3 01       	movw	r20, r6
    219a:	92 01       	movw	r18, r4
    219c:	c5 01       	movw	r24, r10
    219e:	b4 01       	movw	r22, r8
    21a0:	0e 94 43 40 	call	0x8086	; 0x8086 <__addsf3>
    21a4:	c6 2e       	mov	r12, r22
    21a6:	d7 2e       	mov	r13, r23
    21a8:	e8 2e       	mov	r14, r24
    21aa:	f9 2e       	mov	r15, r25
    21ac:	0e 94 10 3a 	call	0x7420	; 0x7420 <_Z9MPU_get_rv>
    21b0:	9b 01       	movw	r18, r22
    21b2:	ac 01       	movw	r20, r24
    21b4:	6c 2d       	mov	r22, r12
    21b6:	7d 2d       	mov	r23, r13
    21b8:	8e 2d       	mov	r24, r14
    21ba:	9f 2d       	mov	r25, r15
    21bc:	0e 94 43 40 	call	0x8086	; 0x8086 <__addsf3>
    21c0:	20 e0       	ldi	r18, 0x00	; 0
    21c2:	30 e0       	ldi	r19, 0x00	; 0
    21c4:	40 e4       	ldi	r20, 0x40	; 64
    21c6:	50 e4       	ldi	r21, 0x40	; 64
    21c8:	0e 94 27 41 	call	0x824e	; 0x824e <__divsf3>
    21cc:	60 93 40 19 	sts	0x1940, r22
    21d0:	70 93 41 19 	sts	0x1941, r23
    21d4:	80 93 42 19 	sts	0x1942, r24
    21d8:	90 93 43 19 	sts	0x1943, r25
}
    21dc:	0f 90       	pop	r0
    21de:	0f 90       	pop	r0
    21e0:	0f 90       	pop	r0
    21e2:	0f 90       	pop	r0
    21e4:	df 91       	pop	r29
    21e6:	cf 91       	pop	r28
    21e8:	ff 90       	pop	r15
    21ea:	ef 90       	pop	r14
    21ec:	df 90       	pop	r13
    21ee:	cf 90       	pop	r12
    21f0:	bf 90       	pop	r11
    21f2:	af 90       	pop	r10
    21f4:	9f 90       	pop	r9
    21f6:	8f 90       	pop	r8
    21f8:	7f 90       	pop	r7
    21fa:	6f 90       	pop	r6
    21fc:	5f 90       	pop	r5
    21fe:	4f 90       	pop	r4
    2200:	08 95       	ret

00002202 <_Z14leg_check_downP7LegData>:
	SERVO_buffer_position(leg->servoBeta, leg->goalAngleBeta,servo_speed);
	SERVO_buffer_position(leg->servoGamma, leg->goalAngleGamma,servo_speed);
}

void leg_check_down(struct LegData* leg)
{
    2202:	6f 92       	push	r6
    2204:	7f 92       	push	r7
    2206:	8f 92       	push	r8
    2208:	9f 92       	push	r9
    220a:	af 92       	push	r10
    220c:	bf 92       	push	r11
    220e:	cf 92       	push	r12
    2210:	df 92       	push	r13
    2212:	ef 92       	push	r14
    2214:	ff 92       	push	r15
    2216:	0f 93       	push	r16
    2218:	1f 93       	push	r17
    221a:	cf 93       	push	r28
    221c:	df 93       	push	r29
    221e:	ec 01       	movw	r28, r24
	//update_leg_info(leg);
	wait(100);
    2220:	84 e6       	ldi	r24, 0x64	; 100
    2222:	90 e0       	ldi	r25, 0x00	; 0
    2224:	0e 94 47 05 	call	0xa8e	; 0xa8e <_Z4waitj>
	MPU_get_mean();
    2228:	61 df       	rcall	.-318    	; 0x20ec <_Z12MPU_get_meanv>
	if(fabsf(MPURMean - climb_start_slope_r) > 0.03 || fabsf(MPUPMean - climb_start_slope_p) > 0.03 || leg->newPosz < z_in_use - 10)
    222a:	20 91 4d 19 	lds	r18, 0x194D
    222e:	30 91 4e 19 	lds	r19, 0x194E
    2232:	40 91 4f 19 	lds	r20, 0x194F
    2236:	50 91 50 19 	lds	r21, 0x1950
    223a:	60 91 40 19 	lds	r22, 0x1940
    223e:	70 91 41 19 	lds	r23, 0x1941
    2242:	80 91 42 19 	lds	r24, 0x1942
    2246:	90 91 43 19 	lds	r25, 0x1943
    224a:	0e 94 42 40 	call	0x8084	; 0x8084 <__subsf3>
    224e:	9f 77       	andi	r25, 0x7F	; 127
    2250:	2f e8       	ldi	r18, 0x8F	; 143
    2252:	32 ec       	ldi	r19, 0xC2	; 194
    2254:	45 ef       	ldi	r20, 0xF5	; 245
    2256:	5c e3       	ldi	r21, 0x3C	; 60
    2258:	0e 94 77 43 	call	0x86ee	; 0x86ee <__gesf2>
    225c:	18 16       	cp	r1, r24
    225e:	a4 f1       	brlt	.+104    	; 0x22c8 <_Z14leg_check_downP7LegData+0xc6>
    2260:	20 91 49 19 	lds	r18, 0x1949
    2264:	30 91 4a 19 	lds	r19, 0x194A
    2268:	40 91 4b 19 	lds	r20, 0x194B
    226c:	50 91 4c 19 	lds	r21, 0x194C
    2270:	60 91 44 19 	lds	r22, 0x1944
    2274:	70 91 45 19 	lds	r23, 0x1945
    2278:	80 91 46 19 	lds	r24, 0x1946
    227c:	90 91 47 19 	lds	r25, 0x1947
    2280:	0e 94 42 40 	call	0x8084	; 0x8084 <__subsf3>
    2284:	9f 77       	andi	r25, 0x7F	; 127
    2286:	2f e8       	ldi	r18, 0x8F	; 143
    2288:	32 ec       	ldi	r19, 0xC2	; 194
    228a:	45 ef       	ldi	r20, 0xF5	; 245
    228c:	5c e3       	ldi	r21, 0x3C	; 60
    228e:	0e 94 77 43 	call	0x86ee	; 0x86ee <__gesf2>
    2292:	18 16       	cp	r1, r24
    2294:	cc f0       	brlt	.+50     	; 0x22c8 <_Z14leg_check_downP7LegData+0xc6>
    2296:	20 e0       	ldi	r18, 0x00	; 0
    2298:	30 e0       	ldi	r19, 0x00	; 0
    229a:	40 e2       	ldi	r20, 0x20	; 32
    229c:	51 e4       	ldi	r21, 0x41	; 65
    229e:	60 91 55 19 	lds	r22, 0x1955
    22a2:	70 91 56 19 	lds	r23, 0x1956
    22a6:	80 91 57 19 	lds	r24, 0x1957
    22aa:	90 91 58 19 	lds	r25, 0x1958
    22ae:	0e 94 42 40 	call	0x8084	; 0x8084 <__subsf3>
    22b2:	9b 01       	movw	r18, r22
    22b4:	ac 01       	movw	r20, r24
    22b6:	68 89       	ldd	r22, Y+16	; 0x10
    22b8:	79 89       	ldd	r23, Y+17	; 0x11
    22ba:	8a 89       	ldd	r24, Y+18	; 0x12
    22bc:	9b 89       	ldd	r25, Y+19	; 0x13
    22be:	0e 94 20 41 	call	0x8240	; 0x8240 <__cmpsf2>
    22c2:	88 23       	and	r24, r24
    22c4:	0c f0       	brlt	.+2      	; 0x22c8 <_Z14leg_check_downP7LegData+0xc6>
    22c6:	57 c1       	rjmp	.+686    	; 0x2576 <_Z14leg_check_downP7LegData+0x374>
	{
		//leg->newPosz += 20;
		//leg->newPosx -= 10;
		if (leg->newPosz >= z_in_use-10)
    22c8:	c0 90 55 19 	lds	r12, 0x1955
    22cc:	d0 90 56 19 	lds	r13, 0x1956
    22d0:	e0 90 57 19 	lds	r14, 0x1957
    22d4:	f0 90 58 19 	lds	r15, 0x1958
    22d8:	20 e0       	ldi	r18, 0x00	; 0
    22da:	30 e0       	ldi	r19, 0x00	; 0
    22dc:	40 e2       	ldi	r20, 0x20	; 32
    22de:	51 e4       	ldi	r21, 0x41	; 65
    22e0:	c7 01       	movw	r24, r14
    22e2:	b6 01       	movw	r22, r12
    22e4:	0e 94 42 40 	call	0x8084	; 0x8084 <__subsf3>
    22e8:	9b 01       	movw	r18, r22
    22ea:	ac 01       	movw	r20, r24
    22ec:	68 89       	ldd	r22, Y+16	; 0x10
    22ee:	79 89       	ldd	r23, Y+17	; 0x11
    22f0:	8a 89       	ldd	r24, Y+18	; 0x12
    22f2:	9b 89       	ldd	r25, Y+19	; 0x13
    22f4:	0e 94 77 43 	call	0x86ee	; 0x86ee <__gesf2>
    22f8:	88 23       	and	r24, r24
    22fa:	ac f1       	brlt	.+106    	; 0x2366 <_Z14leg_check_downP7LegData+0x164>
		{
			obstacle_height = z_in_use + 60; 
    22fc:	20 e0       	ldi	r18, 0x00	; 0
    22fe:	30 e0       	ldi	r19, 0x00	; 0
    2300:	40 e7       	ldi	r20, 0x70	; 112
    2302:	52 e4       	ldi	r21, 0x42	; 66
    2304:	c7 01       	movw	r24, r14
    2306:	b6 01       	movw	r22, r12
    2308:	0e 94 43 40 	call	0x8086	; 0x8086 <__addsf3>
    230c:	26 2f       	mov	r18, r22
    230e:	37 2f       	mov	r19, r23
    2310:	46 2f       	mov	r20, r22
    2312:	57 2f       	mov	r21, r23
    2314:	68 2f       	mov	r22, r24
    2316:	79 2f       	mov	r23, r25
    2318:	40 93 59 19 	sts	0x1959, r20
    231c:	50 93 5a 19 	sts	0x195A, r21
    2320:	60 93 5b 19 	sts	0x195B, r22
    2324:	70 93 5c 19 	sts	0x195C, r23
			tempz = obstacle_height;
    2328:	40 93 b6 15 	sts	0x15B6, r20
    232c:	50 93 b7 15 	sts	0x15B7, r21
    2330:	60 93 b8 15 	sts	0x15B8, r22
    2334:	70 93 b9 15 	sts	0x15B9, r23
			leg->climbing = 0;
    2338:	fe 01       	movw	r30, r28
    233a:	ee 59       	subi	r30, 0x9E	; 158
    233c:	ff 4f       	sbci	r31, 0xFF	; 255
    233e:	11 82       	std	Z+1, r1	; 0x01
    2340:	10 82       	st	Z, r1
			leg->newPosz = obstacle_height;
    2342:	58 2f       	mov	r21, r24
    2344:	49 2f       	mov	r20, r25
    2346:	82 2f       	mov	r24, r18
    2348:	93 2f       	mov	r25, r19
    234a:	a5 2f       	mov	r26, r21
    234c:	b4 2f       	mov	r27, r20
    234e:	88 8b       	std	Y+16, r24	; 0x10
    2350:	99 8b       	std	Y+17, r25	; 0x11
    2352:	aa 8b       	std	Y+18, r26	; 0x12
    2354:	bb 8b       	std	Y+19, r27	; 0x13
			leg->on_obstacle = 1;
    2356:	fe 01       	movw	r30, r28
    2358:	ec 59       	subi	r30, 0x9C	; 156
    235a:	ff 4f       	sbci	r31, 0xFF	; 255
    235c:	81 e0       	ldi	r24, 0x01	; 1
    235e:	90 e0       	ldi	r25, 0x00	; 0
    2360:	91 83       	std	Z+1, r25	; 0x01
    2362:	80 83       	st	Z, r24
    2364:	16 c0       	rjmp	.+44     	; 0x2392 <_Z14leg_check_downP7LegData+0x190>
		}
		else
		{
			tempz = z_in_use;
    2366:	c0 92 b6 15 	sts	0x15B6, r12
    236a:	d0 92 b7 15 	sts	0x15B7, r13
    236e:	e0 92 b8 15 	sts	0x15B8, r14
    2372:	f0 92 b9 15 	sts	0x15B9, r15
			leg->newPosz = tempz;
    2376:	c8 8a       	std	Y+16, r12	; 0x10
    2378:	d9 8a       	std	Y+17, r13	; 0x11
    237a:	ea 8a       	std	Y+18, r14	; 0x12
    237c:	fb 8a       	std	Y+19, r15	; 0x13
			leg->climbing = 0;
    237e:	fe 01       	movw	r30, r28
    2380:	ee 59       	subi	r30, 0x9E	; 158
    2382:	ff 4f       	sbci	r31, 0xFF	; 255
    2384:	11 82       	std	Z+1, r1	; 0x01
    2386:	10 82       	st	Z, r1
			leg->on_obstacle = 0;
    2388:	fe 01       	movw	r30, r28
    238a:	ec 59       	subi	r30, 0x9C	; 156
    238c:	ff 4f       	sbci	r31, 0xFF	; 255
    238e:	11 82       	std	Z+1, r1	; 0x01
    2390:	10 82       	st	Z, r1
		}
		tempx = leg->newPosx;
    2392:	6c 89       	ldd	r22, Y+20	; 0x14
    2394:	7d 89       	ldd	r23, Y+21	; 0x15
    2396:	8e 89       	ldd	r24, Y+22	; 0x16
    2398:	9f 89       	ldd	r25, Y+23	; 0x17
    239a:	60 93 be 15 	sts	0x15BE, r22
    239e:	70 93 bf 15 	sts	0x15BF, r23
    23a2:	80 93 c0 15 	sts	0x15C0, r24
    23a6:	90 93 c1 15 	sts	0x15C1, r25
		tempy = leg->newPosy;
    23aa:	28 8d       	ldd	r18, Y+24	; 0x18
    23ac:	39 8d       	ldd	r19, Y+25	; 0x19
    23ae:	4a 8d       	ldd	r20, Y+26	; 0x1a
    23b0:	5b 8d       	ldd	r21, Y+27	; 0x1b
    23b2:	20 93 ba 15 	sts	0x15BA, r18
    23b6:	30 93 bb 15 	sts	0x15BB, r19
    23ba:	40 93 bc 15 	sts	0x15BC, r20
    23be:	50 93 bd 15 	sts	0x15BD, r21
		
		calc_d(tempx, tempy, tempz);
    23c2:	e0 90 b6 15 	lds	r14, 0x15B6
    23c6:	f0 90 b7 15 	lds	r15, 0x15B7
    23ca:	00 91 b8 15 	lds	r16, 0x15B8
    23ce:	10 91 b9 15 	lds	r17, 0x15B9
    23d2:	0e 94 d8 2d 	call	0x5bb0	; 0x5bb0 <_Z6calc_dfff>
		leg->temp2AngleBeta = get_beta();
    23d6:	0e 94 5c 2e 	call	0x5cb8	; 0x5cb8 <_Z8get_betav>
    23da:	6e 01       	movw	r12, r28
    23dc:	20 e5       	ldi	r18, 0x50	; 80
    23de:	c2 0e       	add	r12, r18
    23e0:	d1 1c       	adc	r13, r1
    23e2:	f6 01       	movw	r30, r12
    23e4:	60 83       	st	Z, r22
    23e6:	71 83       	std	Z+1, r23	; 0x01
    23e8:	82 83       	std	Z+2, r24	; 0x02
    23ea:	93 83       	std	Z+3, r25	; 0x03
		leg->temp2AngleAlpha = get_alpha(tempz);
    23ec:	60 91 b6 15 	lds	r22, 0x15B6
    23f0:	70 91 b7 15 	lds	r23, 0x15B7
    23f4:	80 91 b8 15 	lds	r24, 0x15B8
    23f8:	90 91 b9 15 	lds	r25, 0x15B9
    23fc:	0e 94 91 2e 	call	0x5d22	; 0x5d22 <_Z9get_alphaf>
    2400:	fe 01       	movw	r30, r28
    2402:	ec 5a       	subi	r30, 0xAC	; 172
    2404:	ff 4f       	sbci	r31, 0xFF	; 255
    2406:	60 83       	st	Z, r22
    2408:	71 83       	std	Z+1, r23	; 0x01
    240a:	82 83       	std	Z+2, r24	; 0x02
    240c:	93 83       	std	Z+3, r25	; 0x03
		leg->goalAngleAlpha = leg->side * (leg->temp2AngleAlpha + femurAngleAddition);
    240e:	88 80       	ld	r8, Y
    2410:	99 80       	ldd	r9, Y+1	; 0x01
    2412:	aa 80       	ldd	r10, Y+2	; 0x02
    2414:	bb 80       	ldd	r11, Y+3	; 0x03
    2416:	2e ed       	ldi	r18, 0xDE	; 222
    2418:	34 e2       	ldi	r19, 0x24	; 36
    241a:	46 e0       	ldi	r20, 0x06	; 6
    241c:	5e e3       	ldi	r21, 0x3E	; 62
    241e:	0e 94 43 40 	call	0x8086	; 0x8086 <__addsf3>
    2422:	9b 01       	movw	r18, r22
    2424:	ac 01       	movw	r20, r24
    2426:	c5 01       	movw	r24, r10
    2428:	b4 01       	movw	r22, r8
    242a:	0e 94 82 43 	call	0x8704	; 0x8704 <__mulsf3>
    242e:	66 2e       	mov	r6, r22
    2430:	77 2e       	mov	r7, r23
    2432:	08 2f       	mov	r16, r24
    2434:	19 2f       	mov	r17, r25
    2436:	fe 01       	movw	r30, r28
    2438:	ec 57       	subi	r30, 0x7C	; 124
    243a:	ff 4f       	sbci	r31, 0xFF	; 255
    243c:	98 2f       	mov	r25, r24
    243e:	46 2d       	mov	r20, r6
    2440:	57 2d       	mov	r21, r7
    2442:	69 2f       	mov	r22, r25
    2444:	71 2f       	mov	r23, r17
    2446:	40 83       	st	Z, r20
    2448:	51 83       	std	Z+1, r21	; 0x01
    244a:	62 83       	std	Z+2, r22	; 0x02
    244c:	73 83       	std	Z+3, r23	; 0x03
		leg->goalAngleBeta = leg->side * (-leg->temp2AngleBeta + tibiaAngleAddition);
    244e:	7e 01       	movw	r14, r28
    2450:	f8 e8       	ldi	r31, 0x88	; 136
    2452:	ef 0e       	add	r14, r31
    2454:	f1 1c       	adc	r15, r1
    2456:	f6 01       	movw	r30, r12
    2458:	20 81       	ld	r18, Z
    245a:	31 81       	ldd	r19, Z+1	; 0x01
    245c:	42 81       	ldd	r20, Z+2	; 0x02
    245e:	53 81       	ldd	r21, Z+3	; 0x03
    2460:	6b e3       	ldi	r22, 0x3B	; 59
    2462:	7f ed       	ldi	r23, 0xDF	; 223
    2464:	8f e0       	ldi	r24, 0x0F	; 15
    2466:	9f e3       	ldi	r25, 0x3F	; 63
    2468:	0e 94 42 40 	call	0x8084	; 0x8084 <__subsf3>
    246c:	9b 01       	movw	r18, r22
    246e:	ac 01       	movw	r20, r24
    2470:	c5 01       	movw	r24, r10
    2472:	b4 01       	movw	r22, r8
    2474:	0e 94 82 43 	call	0x8704	; 0x8704 <__mulsf3>
    2478:	f7 01       	movw	r30, r14
    247a:	60 83       	st	Z, r22
    247c:	71 83       	std	Z+1, r23	; 0x01
    247e:	82 83       	std	Z+2, r24	; 0x02
    2480:	93 83       	std	Z+3, r25	; 0x03
	 
		SERVO_buffer_position(leg->servoAlpha,leg->goalAngleAlpha,100);
    2482:	fe 01       	movw	r30, r28
    2484:	e4 5a       	subi	r30, 0xA4	; 164
    2486:	ff 4f       	sbci	r31, 0xFF	; 255
    2488:	24 e6       	ldi	r18, 0x64	; 100
    248a:	30 e0       	ldi	r19, 0x00	; 0
    248c:	46 2d       	mov	r20, r6
    248e:	57 2d       	mov	r21, r7
    2490:	60 2f       	mov	r22, r16
    2492:	71 2f       	mov	r23, r17
    2494:	80 81       	ld	r24, Z
    2496:	0e 94 0d 3c 	call	0x781a	; 0x781a <_Z21SERVO_buffer_positionhdj>
		SERVO_buffer_position(leg->servoBeta, leg->goalAngleBeta,100);
    249a:	f7 01       	movw	r30, r14
    249c:	40 81       	ld	r20, Z
    249e:	51 81       	ldd	r21, Z+1	; 0x01
    24a0:	62 81       	ldd	r22, Z+2	; 0x02
    24a2:	73 81       	ldd	r23, Z+3	; 0x03
    24a4:	fe 01       	movw	r30, r28
    24a6:	e6 5a       	subi	r30, 0xA6	; 166
    24a8:	ff 4f       	sbci	r31, 0xFF	; 255
    24aa:	24 e6       	ldi	r18, 0x64	; 100
    24ac:	30 e0       	ldi	r19, 0x00	; 0
    24ae:	80 81       	ld	r24, Z
    24b0:	0e 94 0d 3c 	call	0x781a	; 0x781a <_Z21SERVO_buffer_positionhdj>
		
		SERVO_action();
    24b4:	0e 94 87 3c 	call	0x790e	; 0x790e <_Z12SERVO_actionv>
		wait(100);
    24b8:	84 e6       	ldi	r24, 0x64	; 100
    24ba:	90 e0       	ldi	r25, 0x00	; 0
    24bc:	0e 94 47 05 	call	0xa8e	; 0xa8e <_Z4waitj>
		
		switch(leg->servoGamma)
    24c0:	c8 5a       	subi	r28, 0xA8	; 168
    24c2:	df 4f       	sbci	r29, 0xFF	; 255
    24c4:	88 81       	ld	r24, Y
    24c6:	99 81       	ldd	r25, Y+1	; 0x01
    24c8:	87 30       	cpi	r24, 0x07	; 7
    24ca:	91 05       	cpc	r25, r1
    24cc:	09 f4       	brne	.+2      	; 0x24d0 <_Z14leg_check_downP7LegData+0x2ce>
    24ce:	48 c0       	rjmp	.+144    	; 0x2560 <_Z14leg_check_downP7LegData+0x35e>
    24d0:	3c f4       	brge	.+14     	; 0x24e0 <_Z14leg_check_downP7LegData+0x2de>
    24d2:	81 30       	cpi	r24, 0x01	; 1
    24d4:	91 05       	cpc	r25, r1
    24d6:	71 f1       	breq	.+92     	; 0x2534 <_Z14leg_check_downP7LegData+0x332>
    24d8:	02 97       	sbiw	r24, 0x02	; 2
    24da:	09 f0       	breq	.+2      	; 0x24de <_Z14leg_check_downP7LegData+0x2dc>
    24dc:	52 c0       	rjmp	.+164    	; 0x2582 <_Z14leg_check_downP7LegData+0x380>
    24de:	1f c0       	rjmp	.+62     	; 0x251e <_Z14leg_check_downP7LegData+0x31c>
    24e0:	8d 30       	cpi	r24, 0x0D	; 13
    24e2:	91 05       	cpc	r25, r1
    24e4:	91 f1       	breq	.+100    	; 0x254a <_Z14leg_check_downP7LegData+0x348>
    24e6:	8e 30       	cpi	r24, 0x0E	; 14
    24e8:	91 05       	cpc	r25, r1
    24ea:	71 f0       	breq	.+28     	; 0x2508 <_Z14leg_check_downP7LegData+0x306>
    24ec:	08 97       	sbiw	r24, 0x08	; 8
    24ee:	09 f0       	breq	.+2      	; 0x24f2 <_Z14leg_check_downP7LegData+0x2f0>
    24f0:	48 c0       	rjmp	.+144    	; 0x2582 <_Z14leg_check_downP7LegData+0x380>
		{
			case 8:
			height_change_leg1(tempz);
    24f2:	60 91 b6 15 	lds	r22, 0x15B6
    24f6:	70 91 b7 15 	lds	r23, 0x15B7
    24fa:	80 91 b8 15 	lds	r24, 0x15B8
    24fe:	90 91 b9 15 	lds	r25, 0x15B9
    2502:	0e 94 f7 2b 	call	0x57ee	; 0x57ee <_Z18height_change_leg1f>
			break;
    2506:	3d c0       	rjmp	.+122    	; 0x2582 <_Z14leg_check_downP7LegData+0x380>
			
			case 14:
			height_change_leg2(tempz);
    2508:	60 91 b6 15 	lds	r22, 0x15B6
    250c:	70 91 b7 15 	lds	r23, 0x15B7
    2510:	80 91 b8 15 	lds	r24, 0x15B8
    2514:	90 91 b9 15 	lds	r25, 0x15B9
    2518:	0e 94 47 2c 	call	0x588e	; 0x588e <_Z18height_change_leg2f>
			break;
    251c:	32 c0       	rjmp	.+100    	; 0x2582 <_Z14leg_check_downP7LegData+0x380>
			
			case 2:
			height_change_leg3(tempz);
    251e:	60 91 b6 15 	lds	r22, 0x15B6
    2522:	70 91 b7 15 	lds	r23, 0x15B7
    2526:	80 91 b8 15 	lds	r24, 0x15B8
    252a:	90 91 b9 15 	lds	r25, 0x15B9
    252e:	0e 94 6d 2c 	call	0x58da	; 0x58da <_Z18height_change_leg3f>
			break;
    2532:	27 c0       	rjmp	.+78     	; 0x2582 <_Z14leg_check_downP7LegData+0x380>
			
			case 1:
			height_change_leg4(tempz);
    2534:	60 91 b6 15 	lds	r22, 0x15B6
    2538:	70 91 b7 15 	lds	r23, 0x15B7
    253c:	80 91 b8 15 	lds	r24, 0x15B8
    2540:	90 91 b9 15 	lds	r25, 0x15B9
    2544:	0e 94 b7 2c 	call	0x596e	; 0x596e <_Z18height_change_leg4f>
			break;
    2548:	1c c0       	rjmp	.+56     	; 0x2582 <_Z14leg_check_downP7LegData+0x380>
			
			case 13:
			height_change_leg5(tempz);
    254a:	60 91 b6 15 	lds	r22, 0x15B6
    254e:	70 91 b7 15 	lds	r23, 0x15B7
    2552:	80 91 b8 15 	lds	r24, 0x15B8
    2556:	90 91 b9 15 	lds	r25, 0x15B9
    255a:	0e 94 0b 2d 	call	0x5a16	; 0x5a16 <_Z18height_change_leg5f>
			break;
    255e:	11 c0       	rjmp	.+34     	; 0x2582 <_Z14leg_check_downP7LegData+0x380>
			
			case 7:
			height_change_leg6(tempz);
    2560:	60 91 b6 15 	lds	r22, 0x15B6
    2564:	70 91 b7 15 	lds	r23, 0x15B7
    2568:	80 91 b8 15 	lds	r24, 0x15B8
    256c:	90 91 b9 15 	lds	r25, 0x15B9
    2570:	0e 94 30 2d 	call	0x5a60	; 0x5a60 <_Z18height_change_leg6f>
			break;
    2574:	06 c0       	rjmp	.+12     	; 0x2582 <_Z14leg_check_downP7LegData+0x380>
		}
	}
	
	else //if(legsNotDown == 0 && leg->climbing == 1)
	{
		legsNotDown = 1;
    2576:	81 e0       	ldi	r24, 0x01	; 1
    2578:	90 e0       	ldi	r25, 0x00	; 0
    257a:	90 93 c3 15 	sts	0x15C3, r25
    257e:	80 93 c2 15 	sts	0x15C2, r24
	}
}
    2582:	df 91       	pop	r29
    2584:	cf 91       	pop	r28
    2586:	1f 91       	pop	r17
    2588:	0f 91       	pop	r16
    258a:	ff 90       	pop	r15
    258c:	ef 90       	pop	r14
    258e:	df 90       	pop	r13
    2590:	cf 90       	pop	r12
    2592:	bf 90       	pop	r11
    2594:	af 90       	pop	r10
    2596:	9f 90       	pop	r9
    2598:	8f 90       	pop	r8
    259a:	7f 90       	pop	r7
    259c:	6f 90       	pop	r6
    259e:	08 95       	ret

000025a0 <_Z10leg_motionv>:
		SERVO_buffer_position(leg->servoGamma, leg->goalAngleGamma,servo_speed);
	}
}

void leg_motion()
{
    25a0:	2f 92       	push	r2
    25a2:	3f 92       	push	r3
    25a4:	4f 92       	push	r4
    25a6:	5f 92       	push	r5
    25a8:	6f 92       	push	r6
    25aa:	7f 92       	push	r7
    25ac:	8f 92       	push	r8
    25ae:	9f 92       	push	r9
    25b0:	af 92       	push	r10
    25b2:	bf 92       	push	r11
    25b4:	cf 92       	push	r12
    25b6:	df 92       	push	r13
    25b8:	ef 92       	push	r14
    25ba:	ff 92       	push	r15
    25bc:	0f 93       	push	r16
    25be:	1f 93       	push	r17
    25c0:	cf 93       	push	r28
    25c2:	df 93       	push	r29
	leg_motion_init();
    25c4:	0e 94 e8 08 	call	0x11d0	; 0x11d0 <_Z15leg_motion_initv>
	MPU_update();
    25c8:	0e 94 53 3a 	call	0x74a6	; 0x74a6 <_Z10MPU_updatev>
// 	climb_check_down_r = MPU_get_r();
// 	climb_check_down_p = MPU_get_p();
	for(int i = 0; i <= (int)iterations+1; ++i)
    25cc:	60 91 69 19 	lds	r22, 0x1969
    25d0:	70 91 6a 19 	lds	r23, 0x196A
    25d4:	80 91 6b 19 	lds	r24, 0x196B
    25d8:	90 91 6c 19 	lds	r25, 0x196C
    25dc:	0e 94 8f 41 	call	0x831e	; 0x831e <__fixsfsi>
    25e0:	6f 5f       	subi	r22, 0xFF	; 255
    25e2:	7f 4f       	sbci	r23, 0xFF	; 255
    25e4:	0a f4       	brpl	.+2      	; 0x25e8 <_Z10leg_motionv+0x48>
    25e6:	20 c1       	rjmp	.+576    	; 0x2828 <_Z10leg_motionv+0x288>
    25e8:	c0 e0       	ldi	r28, 0x00	; 0
    25ea:	d0 e0       	ldi	r29, 0x00	; 0
	{
		if(leg1.climbing == 1 /*&& obstacle_height == z_in_use*/)
    25ec:	0f 2e       	mov	r0, r31
    25ee:	f8 e0       	ldi	r31, 0x08	; 8
    25f0:	af 2e       	mov	r10, r31
    25f2:	f9 e1       	ldi	r31, 0x19	; 25
    25f4:	bf 2e       	mov	r11, r31
    25f6:	f0 2d       	mov	r31, r0
		}*/
		else
		{
			move_leg(&leg1,i);
		}
		if(leg2.climbing == 1)
    25f8:	0f 2e       	mov	r0, r31
    25fa:	f8 e7       	ldi	r31, 0x78	; 120
    25fc:	cf 2e       	mov	r12, r31
    25fe:	f8 e1       	ldi	r31, 0x18	; 24
    2600:	df 2e       	mov	r13, r31
    2602:	f0 2d       	mov	r31, r0
		else
		{
			move_leg(&leg2,i);
		}
		
		if(leg3.climbing == 1)
    2604:	0f 2e       	mov	r0, r31
    2606:	f8 ee       	ldi	r31, 0xE8	; 232
    2608:	ef 2e       	mov	r14, r31
    260a:	f7 e1       	ldi	r31, 0x17	; 23
    260c:	ff 2e       	mov	r15, r31
    260e:	f0 2d       	mov	r31, r0
		}*/
		else
		{
			move_leg(&leg3,i);
		}
		if(leg4.climbing == 1)
    2610:	08 e5       	ldi	r16, 0x58	; 88
    2612:	17 e1       	ldi	r17, 0x17	; 23
		}*/
		else
		{
			move_leg(&leg4,i);
		}
		if(leg5.climbing == 1)
    2614:	0f 2e       	mov	r0, r31
    2616:	f8 ec       	ldi	r31, 0xC8	; 200
    2618:	8f 2e       	mov	r8, r31
    261a:	f6 e1       	ldi	r31, 0x16	; 22
    261c:	9f 2e       	mov	r9, r31
    261e:	f0 2d       	mov	r31, r0
		}*/
		else
		{
			move_leg(&leg5,i);
		}
		if(leg6.climbing == 1 /*&& obstacle_height == z_in_use*/)
    2620:	0f 2e       	mov	r0, r31
    2622:	f8 e3       	ldi	r31, 0x38	; 56
    2624:	2f 2e       	mov	r2, r31
    2626:	f6 e1       	ldi	r31, 0x16	; 22
    2628:	3f 2e       	mov	r3, r31
    262a:	f0 2d       	mov	r31, r0
	MPU_update();
// 	climb_check_down_r = MPU_get_r();
// 	climb_check_down_p = MPU_get_p();
	for(int i = 0; i <= (int)iterations+1; ++i)
	{
		if(leg1.climbing == 1 /*&& obstacle_height == z_in_use*/)
    262c:	f5 01       	movw	r30, r10
    262e:	80 81       	ld	r24, Z
    2630:	91 81       	ldd	r25, Z+1	; 0x01
    2632:	01 97       	sbiw	r24, 0x01	; 1
    2634:	69 f4       	brne	.+26     	; 0x2650 <_Z10leg_motionv+0xb0>
		{
			move_climb(&leg1, i);
    2636:	be 01       	movw	r22, r28
    2638:	88 27       	eor	r24, r24
    263a:	77 fd       	sbrc	r23, 7
    263c:	80 95       	com	r24
    263e:	98 2f       	mov	r25, r24
    2640:	0e 94 c2 41 	call	0x8384	; 0x8384 <__floatsisf>
    2644:	ab 01       	movw	r20, r22
    2646:	bc 01       	movw	r22, r24
    2648:	86 ea       	ldi	r24, 0xA6	; 166
    264a:	98 e1       	ldi	r25, 0x18	; 24
    264c:	49 da       	rcall	.-2926   	; 0x1ae0 <_Z10move_climbP7LegDataf>
    264e:	0d c0       	rjmp	.+26     	; 0x266a <_Z10leg_motionv+0xca>
		{
			leg_climb_down(&leg1);
		}*/
		else
		{
			move_leg(&leg1,i);
    2650:	be 01       	movw	r22, r28
    2652:	88 27       	eor	r24, r24
    2654:	77 fd       	sbrc	r23, 7
    2656:	80 95       	com	r24
    2658:	98 2f       	mov	r25, r24
    265a:	0e 94 c2 41 	call	0x8384	; 0x8384 <__floatsisf>
    265e:	ab 01       	movw	r20, r22
    2660:	bc 01       	movw	r22, r24
    2662:	86 ea       	ldi	r24, 0xA6	; 166
    2664:	98 e1       	ldi	r25, 0x18	; 24
    2666:	0e 94 09 0a 	call	0x1412	; 0x1412 <_Z8move_legP7LegDataf>
		}
		if(leg2.climbing == 1)
    266a:	f6 01       	movw	r30, r12
    266c:	80 81       	ld	r24, Z
    266e:	91 81       	ldd	r25, Z+1	; 0x01
    2670:	01 97       	sbiw	r24, 0x01	; 1
    2672:	69 f4       	brne	.+26     	; 0x268e <_Z10leg_motionv+0xee>
		{
			move_climb(&leg2, i);
    2674:	be 01       	movw	r22, r28
    2676:	88 27       	eor	r24, r24
    2678:	77 fd       	sbrc	r23, 7
    267a:	80 95       	com	r24
    267c:	98 2f       	mov	r25, r24
    267e:	0e 94 c2 41 	call	0x8384	; 0x8384 <__floatsisf>
    2682:	ab 01       	movw	r20, r22
    2684:	bc 01       	movw	r22, r24
    2686:	86 e1       	ldi	r24, 0x16	; 22
    2688:	98 e1       	ldi	r25, 0x18	; 24
    268a:	2a da       	rcall	.-2988   	; 0x1ae0 <_Z10move_climbP7LegDataf>
    268c:	0d c0       	rjmp	.+26     	; 0x26a8 <_Z10leg_motionv+0x108>
		{
			leg_climb_down(&leg2);
		}*/
		else
		{
			move_leg(&leg2,i);
    268e:	be 01       	movw	r22, r28
    2690:	88 27       	eor	r24, r24
    2692:	77 fd       	sbrc	r23, 7
    2694:	80 95       	com	r24
    2696:	98 2f       	mov	r25, r24
    2698:	0e 94 c2 41 	call	0x8384	; 0x8384 <__floatsisf>
    269c:	ab 01       	movw	r20, r22
    269e:	bc 01       	movw	r22, r24
    26a0:	86 e1       	ldi	r24, 0x16	; 22
    26a2:	98 e1       	ldi	r25, 0x18	; 24
    26a4:	0e 94 09 0a 	call	0x1412	; 0x1412 <_Z8move_legP7LegDataf>
		}
		
		if(leg3.climbing == 1)
    26a8:	f7 01       	movw	r30, r14
    26aa:	80 81       	ld	r24, Z
    26ac:	91 81       	ldd	r25, Z+1	; 0x01
    26ae:	01 97       	sbiw	r24, 0x01	; 1
    26b0:	69 f4       	brne	.+26     	; 0x26cc <_Z10leg_motionv+0x12c>
		{
			move_climb(&leg3, i);
    26b2:	be 01       	movw	r22, r28
    26b4:	88 27       	eor	r24, r24
    26b6:	77 fd       	sbrc	r23, 7
    26b8:	80 95       	com	r24
    26ba:	98 2f       	mov	r25, r24
    26bc:	0e 94 c2 41 	call	0x8384	; 0x8384 <__floatsisf>
    26c0:	ab 01       	movw	r20, r22
    26c2:	bc 01       	movw	r22, r24
    26c4:	86 e8       	ldi	r24, 0x86	; 134
    26c6:	97 e1       	ldi	r25, 0x17	; 23
    26c8:	0b da       	rcall	.-3050   	; 0x1ae0 <_Z10move_climbP7LegDataf>
    26ca:	0d c0       	rjmp	.+26     	; 0x26e6 <_Z10leg_motionv+0x146>
		{
			leg_climb_down(&leg3);
		}*/
		else
		{
			move_leg(&leg3,i);
    26cc:	be 01       	movw	r22, r28
    26ce:	88 27       	eor	r24, r24
    26d0:	77 fd       	sbrc	r23, 7
    26d2:	80 95       	com	r24
    26d4:	98 2f       	mov	r25, r24
    26d6:	0e 94 c2 41 	call	0x8384	; 0x8384 <__floatsisf>
    26da:	ab 01       	movw	r20, r22
    26dc:	bc 01       	movw	r22, r24
    26de:	86 e8       	ldi	r24, 0x86	; 134
    26e0:	97 e1       	ldi	r25, 0x17	; 23
    26e2:	0e 94 09 0a 	call	0x1412	; 0x1412 <_Z8move_legP7LegDataf>
		}
		if(leg4.climbing == 1)
    26e6:	f8 01       	movw	r30, r16
    26e8:	80 81       	ld	r24, Z
    26ea:	91 81       	ldd	r25, Z+1	; 0x01
    26ec:	01 97       	sbiw	r24, 0x01	; 1
    26ee:	69 f4       	brne	.+26     	; 0x270a <_Z10leg_motionv+0x16a>
		{
			move_climb(&leg4, i);
    26f0:	be 01       	movw	r22, r28
    26f2:	88 27       	eor	r24, r24
    26f4:	77 fd       	sbrc	r23, 7
    26f6:	80 95       	com	r24
    26f8:	98 2f       	mov	r25, r24
    26fa:	0e 94 c2 41 	call	0x8384	; 0x8384 <__floatsisf>
    26fe:	ab 01       	movw	r20, r22
    2700:	bc 01       	movw	r22, r24
    2702:	86 ef       	ldi	r24, 0xF6	; 246
    2704:	96 e1       	ldi	r25, 0x16	; 22
    2706:	ec d9       	rcall	.-3112   	; 0x1ae0 <_Z10move_climbP7LegDataf>
    2708:	0d c0       	rjmp	.+26     	; 0x2724 <_Z10leg_motionv+0x184>
		{
			leg_climb_down(&leg4);
		}*/
		else
		{
			move_leg(&leg4,i);
    270a:	be 01       	movw	r22, r28
    270c:	88 27       	eor	r24, r24
    270e:	77 fd       	sbrc	r23, 7
    2710:	80 95       	com	r24
    2712:	98 2f       	mov	r25, r24
    2714:	0e 94 c2 41 	call	0x8384	; 0x8384 <__floatsisf>
    2718:	ab 01       	movw	r20, r22
    271a:	bc 01       	movw	r22, r24
    271c:	86 ef       	ldi	r24, 0xF6	; 246
    271e:	96 e1       	ldi	r25, 0x16	; 22
    2720:	0e 94 09 0a 	call	0x1412	; 0x1412 <_Z8move_legP7LegDataf>
		}
		if(leg5.climbing == 1)
    2724:	f4 01       	movw	r30, r8
    2726:	80 81       	ld	r24, Z
    2728:	91 81       	ldd	r25, Z+1	; 0x01
    272a:	01 97       	sbiw	r24, 0x01	; 1
    272c:	69 f4       	brne	.+26     	; 0x2748 <_Z10leg_motionv+0x1a8>
		{
			move_climb(&leg5, i);
    272e:	be 01       	movw	r22, r28
    2730:	88 27       	eor	r24, r24
    2732:	77 fd       	sbrc	r23, 7
    2734:	80 95       	com	r24
    2736:	98 2f       	mov	r25, r24
    2738:	0e 94 c2 41 	call	0x8384	; 0x8384 <__floatsisf>
    273c:	ab 01       	movw	r20, r22
    273e:	bc 01       	movw	r22, r24
    2740:	86 e6       	ldi	r24, 0x66	; 102
    2742:	96 e1       	ldi	r25, 0x16	; 22
    2744:	cd d9       	rcall	.-3174   	; 0x1ae0 <_Z10move_climbP7LegDataf>
    2746:	0d c0       	rjmp	.+26     	; 0x2762 <_Z10leg_motionv+0x1c2>
		{
			leg_climb_down(&leg5);
		}*/
		else
		{
			move_leg(&leg5,i);
    2748:	be 01       	movw	r22, r28
    274a:	88 27       	eor	r24, r24
    274c:	77 fd       	sbrc	r23, 7
    274e:	80 95       	com	r24
    2750:	98 2f       	mov	r25, r24
    2752:	0e 94 c2 41 	call	0x8384	; 0x8384 <__floatsisf>
    2756:	ab 01       	movw	r20, r22
    2758:	bc 01       	movw	r22, r24
    275a:	86 e6       	ldi	r24, 0x66	; 102
    275c:	96 e1       	ldi	r25, 0x16	; 22
    275e:	0e 94 09 0a 	call	0x1412	; 0x1412 <_Z8move_legP7LegDataf>
		}
		if(leg6.climbing == 1 /*&& obstacle_height == z_in_use*/)
    2762:	f1 01       	movw	r30, r2
    2764:	80 81       	ld	r24, Z
    2766:	91 81       	ldd	r25, Z+1	; 0x01
    2768:	01 97       	sbiw	r24, 0x01	; 1
    276a:	69 f4       	brne	.+26     	; 0x2786 <_Z10leg_motionv+0x1e6>
		{
			move_climb(&leg6, i);
    276c:	be 01       	movw	r22, r28
    276e:	88 27       	eor	r24, r24
    2770:	77 fd       	sbrc	r23, 7
    2772:	80 95       	com	r24
    2774:	98 2f       	mov	r25, r24
    2776:	0e 94 c2 41 	call	0x8384	; 0x8384 <__floatsisf>
    277a:	ab 01       	movw	r20, r22
    277c:	bc 01       	movw	r22, r24
    277e:	86 ed       	ldi	r24, 0xD6	; 214
    2780:	95 e1       	ldi	r25, 0x15	; 21
    2782:	ae d9       	rcall	.-3236   	; 0x1ae0 <_Z10move_climbP7LegDataf>
    2784:	0d c0       	rjmp	.+26     	; 0x27a0 <_Z10leg_motionv+0x200>
		{
			leg_climb_down(&leg6);
		}*/
		else
		{
			move_leg(&leg6,i);
    2786:	be 01       	movw	r22, r28
    2788:	88 27       	eor	r24, r24
    278a:	77 fd       	sbrc	r23, 7
    278c:	80 95       	com	r24
    278e:	98 2f       	mov	r25, r24
    2790:	0e 94 c2 41 	call	0x8384	; 0x8384 <__floatsisf>
    2794:	ab 01       	movw	r20, r22
    2796:	bc 01       	movw	r22, r24
    2798:	86 ed       	ldi	r24, 0xD6	; 214
    279a:	95 e1       	ldi	r25, 0x15	; 21
    279c:	0e 94 09 0a 	call	0x1412	; 0x1412 <_Z8move_legP7LegDataf>
		}

		SERVO_action();
    27a0:	0e 94 87 3c 	call	0x790e	; 0x790e <_Z12SERVO_actionv>
		if(i == 0 || i == iterations + 1)
    27a4:	20 97       	sbiw	r28, 0x00	; 0
    27a6:	f9 f0       	breq	.+62     	; 0x27e6 <_Z10leg_motionv+0x246>
    27a8:	be 01       	movw	r22, r28
    27aa:	88 27       	eor	r24, r24
    27ac:	77 fd       	sbrc	r23, 7
    27ae:	80 95       	com	r24
    27b0:	98 2f       	mov	r25, r24
    27b2:	0e 94 c2 41 	call	0x8384	; 0x8384 <__floatsisf>
    27b6:	2b 01       	movw	r4, r22
    27b8:	3c 01       	movw	r6, r24
    27ba:	20 e0       	ldi	r18, 0x00	; 0
    27bc:	30 e0       	ldi	r19, 0x00	; 0
    27be:	40 e8       	ldi	r20, 0x80	; 128
    27c0:	5f e3       	ldi	r21, 0x3F	; 63
    27c2:	60 91 69 19 	lds	r22, 0x1969
    27c6:	70 91 6a 19 	lds	r23, 0x196A
    27ca:	80 91 6b 19 	lds	r24, 0x196B
    27ce:	90 91 6c 19 	lds	r25, 0x196C
    27d2:	0e 94 43 40 	call	0x8086	; 0x8086 <__addsf3>
    27d6:	9b 01       	movw	r18, r22
    27d8:	ac 01       	movw	r20, r24
    27da:	c3 01       	movw	r24, r6
    27dc:	b2 01       	movw	r22, r4
    27de:	0e 94 20 41 	call	0x8240	; 0x8240 <__cmpsf2>
    27e2:	81 11       	cpse	r24, r1
    27e4:	05 c0       	rjmp	.+10     	; 0x27f0 <_Z10leg_motionv+0x250>
		{
			wait(100);
    27e6:	84 e6       	ldi	r24, 0x64	; 100
    27e8:	90 e0       	ldi	r25, 0x00	; 0
    27ea:	0e 94 47 05 	call	0xa8e	; 0xa8e <_Z4waitj>
    27ee:	04 c0       	rjmp	.+8      	; 0x27f8 <_Z10leg_motionv+0x258>
		}
		else
		{
			wait(25);
    27f0:	89 e1       	ldi	r24, 0x19	; 25
    27f2:	90 e0       	ldi	r25, 0x00	; 0
    27f4:	0e 94 47 05 	call	0xa8e	; 0xa8e <_Z4waitj>
		}
		
		
		
		if(USART_elevation_flag())
    27f8:	0e 94 a5 3f 	call	0x7f4a	; 0x7f4a <_Z20USART_elevation_flagv>
    27fc:	88 23       	and	r24, r24
    27fe:	19 f0       	breq	.+6      	; 0x2806 <_Z10leg_motionv+0x266>
		{
			change_z(USART_get_z());
    2800:	0e 94 f8 3c 	call	0x79f0	; 0x79f0 <_Z11USART_get_zv>
    2804:	41 dc       	rcall	.-1918   	; 0x2088 <_Z8change_zf>
{
	leg_motion_init();
	MPU_update();
// 	climb_check_down_r = MPU_get_r();
// 	climb_check_down_p = MPU_get_p();
	for(int i = 0; i <= (int)iterations+1; ++i)
    2806:	21 96       	adiw	r28, 0x01	; 1
    2808:	60 91 69 19 	lds	r22, 0x1969
    280c:	70 91 6a 19 	lds	r23, 0x196A
    2810:	80 91 6b 19 	lds	r24, 0x196B
    2814:	90 91 6c 19 	lds	r25, 0x196C
    2818:	0e 94 8f 41 	call	0x831e	; 0x831e <__fixsfsi>
    281c:	6f 5f       	subi	r22, 0xFF	; 255
    281e:	7f 4f       	sbci	r23, 0xFF	; 255
    2820:	6c 17       	cp	r22, r28
    2822:	7d 07       	cpc	r23, r29
    2824:	0c f0       	brlt	.+2      	; 0x2828 <_Z10leg_motionv+0x288>
    2826:	02 cf       	rjmp	.-508    	; 0x262c <_Z10leg_motionv+0x8c>
		{
			change_z(USART_get_z());
		}
	}
	
	if(climbing_flag)
    2828:	80 91 c4 15 	lds	r24, 0x15C4
    282c:	90 91 c5 15 	lds	r25, 0x15C5
    2830:	89 2b       	or	r24, r25
    2832:	09 f4       	brne	.+2      	; 0x2836 <_Z10leg_motionv+0x296>
    2834:	8d c3       	rjmp	.+1818   	; 0x2f50 <_Z10leg_motionv+0x9b0>
	{
		wait(300);
    2836:	8c e2       	ldi	r24, 0x2C	; 44
    2838:	91 e0       	ldi	r25, 0x01	; 1
    283a:	0e 94 47 05 	call	0xa8e	; 0xa8e <_Z4waitj>
		//MPU_update();
		//climb_check_down_r = MPU_get_r();
		//climb_check_down_p = MPU_get_p();
		PORTC ^= (1<<PORTC6);
    283e:	98 b1       	in	r25, 0x08	; 8
    2840:	80 e4       	ldi	r24, 0x40	; 64
    2842:	89 27       	eor	r24, r25
    2844:	88 b9       	out	0x08, r24	; 8
		legsNotDown = 1;
		while(legsNotDown)
		{
			legsNotDown = 0;
			
			if(leg1.lift == 1 && leg1.climbing == 1)
    2846:	0f 2e       	mov	r0, r31
    2848:	fa ea       	ldi	r31, 0xAA	; 170
    284a:	af 2e       	mov	r10, r31
    284c:	f8 e1       	ldi	r31, 0x18	; 24
    284e:	bf 2e       	mov	r11, r31
    2850:	f0 2d       	mov	r31, r0
    2852:	0f 2e       	mov	r0, r31
    2854:	f8 e0       	ldi	r31, 0x08	; 8
    2856:	6f 2e       	mov	r6, r31
    2858:	f9 e1       	ldi	r31, 0x19	; 25
    285a:	7f 2e       	mov	r7, r31
    285c:	f0 2d       	mov	r31, r0
			{
				leg_move_down(&leg1);
			}
			if(leg2.lift == 1 && leg2.climbing == 1)
    285e:	0f 2e       	mov	r0, r31
    2860:	fa e1       	ldi	r31, 0x1A	; 26
    2862:	cf 2e       	mov	r12, r31
    2864:	f8 e1       	ldi	r31, 0x18	; 24
    2866:	df 2e       	mov	r13, r31
    2868:	f0 2d       	mov	r31, r0
    286a:	0f 2e       	mov	r0, r31
    286c:	f8 e7       	ldi	r31, 0x78	; 120
    286e:	4f 2e       	mov	r4, r31
    2870:	f8 e1       	ldi	r31, 0x18	; 24
    2872:	5f 2e       	mov	r5, r31
    2874:	f0 2d       	mov	r31, r0
			{
				leg_move_down(&leg2);
			}
			if(leg3.lift == 1 && leg3.climbing == 1)
    2876:	0f 2e       	mov	r0, r31
    2878:	fa e8       	ldi	r31, 0x8A	; 138
    287a:	ef 2e       	mov	r14, r31
    287c:	f7 e1       	ldi	r31, 0x17	; 23
    287e:	ff 2e       	mov	r15, r31
    2880:	f0 2d       	mov	r31, r0
    2882:	0f 2e       	mov	r0, r31
    2884:	f8 ee       	ldi	r31, 0xE8	; 232
    2886:	2f 2e       	mov	r2, r31
    2888:	f7 e1       	ldi	r31, 0x17	; 23
    288a:	3f 2e       	mov	r3, r31
    288c:	f0 2d       	mov	r31, r0
			{
				leg_move_down(&leg3);
			}
			if(leg4.lift == 1 && leg4.climbing == 1)
    288e:	0a ef       	ldi	r16, 0xFA	; 250
    2890:	16 e1       	ldi	r17, 0x16	; 22
			{
				leg_move_down(&leg4);
			}
			if(leg5.lift == 1 && leg5.climbing == 1)
    2892:	ca e6       	ldi	r28, 0x6A	; 106
    2894:	d6 e1       	ldi	r29, 0x16	; 22
			{
				leg_move_down(&leg5);
			}
			if(leg6.lift == 1 && leg6.climbing == 1)
    2896:	0f 2e       	mov	r0, r31
    2898:	fa ed       	ldi	r31, 0xDA	; 218
    289a:	8f 2e       	mov	r8, r31
    289c:	f5 e1       	ldi	r31, 0x15	; 21
    289e:	9f 2e       	mov	r9, r31
    28a0:	f0 2d       	mov	r31, r0
	
		
		legsNotDown = 1;
		while(legsNotDown)
		{
			legsNotDown = 0;
    28a2:	10 92 c3 15 	sts	0x15C3, r1
    28a6:	10 92 c2 15 	sts	0x15C2, r1
			
			if(leg1.lift == 1 && leg1.climbing == 1)
    28aa:	20 e0       	ldi	r18, 0x00	; 0
    28ac:	30 e0       	ldi	r19, 0x00	; 0
    28ae:	40 e8       	ldi	r20, 0x80	; 128
    28b0:	5f e3       	ldi	r21, 0x3F	; 63
    28b2:	f5 01       	movw	r30, r10
    28b4:	60 81       	ld	r22, Z
    28b6:	71 81       	ldd	r23, Z+1	; 0x01
    28b8:	82 81       	ldd	r24, Z+2	; 0x02
    28ba:	93 81       	ldd	r25, Z+3	; 0x03
    28bc:	0e 94 20 41 	call	0x8240	; 0x8240 <__cmpsf2>
    28c0:	81 11       	cpse	r24, r1
    28c2:	09 c0       	rjmp	.+18     	; 0x28d6 <_Z10leg_motionv+0x336>
    28c4:	f3 01       	movw	r30, r6
    28c6:	80 81       	ld	r24, Z
    28c8:	91 81       	ldd	r25, Z+1	; 0x01
    28ca:	01 97       	sbiw	r24, 0x01	; 1
    28cc:	21 f4       	brne	.+8      	; 0x28d6 <_Z10leg_motionv+0x336>
			{
				leg_move_down(&leg1);
    28ce:	86 ea       	ldi	r24, 0xA6	; 166
    28d0:	98 e1       	ldi	r25, 0x18	; 24
    28d2:	0e 94 69 0c 	call	0x18d2	; 0x18d2 <_Z13leg_move_downP7LegData>
			}
			if(leg2.lift == 1 && leg2.climbing == 1)
    28d6:	20 e0       	ldi	r18, 0x00	; 0
    28d8:	30 e0       	ldi	r19, 0x00	; 0
    28da:	40 e8       	ldi	r20, 0x80	; 128
    28dc:	5f e3       	ldi	r21, 0x3F	; 63
    28de:	f6 01       	movw	r30, r12
    28e0:	60 81       	ld	r22, Z
    28e2:	71 81       	ldd	r23, Z+1	; 0x01
    28e4:	82 81       	ldd	r24, Z+2	; 0x02
    28e6:	93 81       	ldd	r25, Z+3	; 0x03
    28e8:	0e 94 20 41 	call	0x8240	; 0x8240 <__cmpsf2>
    28ec:	81 11       	cpse	r24, r1
    28ee:	09 c0       	rjmp	.+18     	; 0x2902 <_Z10leg_motionv+0x362>
    28f0:	f2 01       	movw	r30, r4
    28f2:	80 81       	ld	r24, Z
    28f4:	91 81       	ldd	r25, Z+1	; 0x01
    28f6:	01 97       	sbiw	r24, 0x01	; 1
    28f8:	21 f4       	brne	.+8      	; 0x2902 <_Z10leg_motionv+0x362>
			{
				leg_move_down(&leg2);
    28fa:	86 e1       	ldi	r24, 0x16	; 22
    28fc:	98 e1       	ldi	r25, 0x18	; 24
    28fe:	0e 94 69 0c 	call	0x18d2	; 0x18d2 <_Z13leg_move_downP7LegData>
			}
			if(leg3.lift == 1 && leg3.climbing == 1)
    2902:	20 e0       	ldi	r18, 0x00	; 0
    2904:	30 e0       	ldi	r19, 0x00	; 0
    2906:	40 e8       	ldi	r20, 0x80	; 128
    2908:	5f e3       	ldi	r21, 0x3F	; 63
    290a:	f7 01       	movw	r30, r14
    290c:	60 81       	ld	r22, Z
    290e:	71 81       	ldd	r23, Z+1	; 0x01
    2910:	82 81       	ldd	r24, Z+2	; 0x02
    2912:	93 81       	ldd	r25, Z+3	; 0x03
    2914:	0e 94 20 41 	call	0x8240	; 0x8240 <__cmpsf2>
    2918:	81 11       	cpse	r24, r1
    291a:	09 c0       	rjmp	.+18     	; 0x292e <_Z10leg_motionv+0x38e>
    291c:	f1 01       	movw	r30, r2
    291e:	80 81       	ld	r24, Z
    2920:	91 81       	ldd	r25, Z+1	; 0x01
    2922:	01 97       	sbiw	r24, 0x01	; 1
    2924:	21 f4       	brne	.+8      	; 0x292e <_Z10leg_motionv+0x38e>
			{
				leg_move_down(&leg3);
    2926:	86 e8       	ldi	r24, 0x86	; 134
    2928:	97 e1       	ldi	r25, 0x17	; 23
    292a:	0e 94 69 0c 	call	0x18d2	; 0x18d2 <_Z13leg_move_downP7LegData>
			}
			if(leg4.lift == 1 && leg4.climbing == 1)
    292e:	20 e0       	ldi	r18, 0x00	; 0
    2930:	30 e0       	ldi	r19, 0x00	; 0
    2932:	40 e8       	ldi	r20, 0x80	; 128
    2934:	5f e3       	ldi	r21, 0x3F	; 63
    2936:	f8 01       	movw	r30, r16
    2938:	60 81       	ld	r22, Z
    293a:	71 81       	ldd	r23, Z+1	; 0x01
    293c:	82 81       	ldd	r24, Z+2	; 0x02
    293e:	93 81       	ldd	r25, Z+3	; 0x03
    2940:	0e 94 20 41 	call	0x8240	; 0x8240 <__cmpsf2>
    2944:	81 11       	cpse	r24, r1
    2946:	0a c0       	rjmp	.+20     	; 0x295c <_Z10leg_motionv+0x3bc>
    2948:	e8 e5       	ldi	r30, 0x58	; 88
    294a:	f7 e1       	ldi	r31, 0x17	; 23
    294c:	80 81       	ld	r24, Z
    294e:	91 81       	ldd	r25, Z+1	; 0x01
    2950:	01 97       	sbiw	r24, 0x01	; 1
    2952:	21 f4       	brne	.+8      	; 0x295c <_Z10leg_motionv+0x3bc>
			{
				leg_move_down(&leg4);
    2954:	86 ef       	ldi	r24, 0xF6	; 246
    2956:	96 e1       	ldi	r25, 0x16	; 22
    2958:	0e 94 69 0c 	call	0x18d2	; 0x18d2 <_Z13leg_move_downP7LegData>
			}
			if(leg5.lift == 1 && leg5.climbing == 1)
    295c:	20 e0       	ldi	r18, 0x00	; 0
    295e:	30 e0       	ldi	r19, 0x00	; 0
    2960:	40 e8       	ldi	r20, 0x80	; 128
    2962:	5f e3       	ldi	r21, 0x3F	; 63
    2964:	68 81       	ld	r22, Y
    2966:	79 81       	ldd	r23, Y+1	; 0x01
    2968:	8a 81       	ldd	r24, Y+2	; 0x02
    296a:	9b 81       	ldd	r25, Y+3	; 0x03
    296c:	0e 94 20 41 	call	0x8240	; 0x8240 <__cmpsf2>
    2970:	81 11       	cpse	r24, r1
    2972:	0a c0       	rjmp	.+20     	; 0x2988 <_Z10leg_motionv+0x3e8>
    2974:	e8 ec       	ldi	r30, 0xC8	; 200
    2976:	f6 e1       	ldi	r31, 0x16	; 22
    2978:	80 81       	ld	r24, Z
    297a:	91 81       	ldd	r25, Z+1	; 0x01
    297c:	01 97       	sbiw	r24, 0x01	; 1
    297e:	21 f4       	brne	.+8      	; 0x2988 <_Z10leg_motionv+0x3e8>
			{
				leg_move_down(&leg5);
    2980:	86 e6       	ldi	r24, 0x66	; 102
    2982:	96 e1       	ldi	r25, 0x16	; 22
    2984:	0e 94 69 0c 	call	0x18d2	; 0x18d2 <_Z13leg_move_downP7LegData>
			}
			if(leg6.lift == 1 && leg6.climbing == 1)
    2988:	20 e0       	ldi	r18, 0x00	; 0
    298a:	30 e0       	ldi	r19, 0x00	; 0
    298c:	40 e8       	ldi	r20, 0x80	; 128
    298e:	5f e3       	ldi	r21, 0x3F	; 63
    2990:	f4 01       	movw	r30, r8
    2992:	60 81       	ld	r22, Z
    2994:	71 81       	ldd	r23, Z+1	; 0x01
    2996:	82 81       	ldd	r24, Z+2	; 0x02
    2998:	93 81       	ldd	r25, Z+3	; 0x03
    299a:	0e 94 20 41 	call	0x8240	; 0x8240 <__cmpsf2>
    299e:	81 11       	cpse	r24, r1
    29a0:	0a c0       	rjmp	.+20     	; 0x29b6 <_Z10leg_motionv+0x416>
    29a2:	e8 e3       	ldi	r30, 0x38	; 56
    29a4:	f6 e1       	ldi	r31, 0x16	; 22
    29a6:	80 81       	ld	r24, Z
    29a8:	91 81       	ldd	r25, Z+1	; 0x01
    29aa:	01 97       	sbiw	r24, 0x01	; 1
    29ac:	21 f4       	brne	.+8      	; 0x29b6 <_Z10leg_motionv+0x416>
			{
				leg_move_down(&leg6);
    29ae:	86 ed       	ldi	r24, 0xD6	; 214
    29b0:	95 e1       	ldi	r25, 0x15	; 21
    29b2:	0e 94 69 0c 	call	0x18d2	; 0x18d2 <_Z13leg_move_downP7LegData>
			}
			
			SERVO_action();
    29b6:	0e 94 87 3c 	call	0x790e	; 0x790e <_Z12SERVO_actionv>
			wait(100);
    29ba:	84 e6       	ldi	r24, 0x64	; 100
    29bc:	90 e0       	ldi	r25, 0x00	; 0
    29be:	0e 94 47 05 	call	0xa8e	; 0xa8e <_Z4waitj>
			
			if(leg1.lift == 1 && leg1.climbing == 1)
    29c2:	20 e0       	ldi	r18, 0x00	; 0
    29c4:	30 e0       	ldi	r19, 0x00	; 0
    29c6:	40 e8       	ldi	r20, 0x80	; 128
    29c8:	5f e3       	ldi	r21, 0x3F	; 63
    29ca:	f5 01       	movw	r30, r10
    29cc:	60 81       	ld	r22, Z
    29ce:	71 81       	ldd	r23, Z+1	; 0x01
    29d0:	82 81       	ldd	r24, Z+2	; 0x02
    29d2:	93 81       	ldd	r25, Z+3	; 0x03
    29d4:	0e 94 20 41 	call	0x8240	; 0x8240 <__cmpsf2>
    29d8:	81 11       	cpse	r24, r1
    29da:	08 c0       	rjmp	.+16     	; 0x29ec <_Z10leg_motionv+0x44c>
    29dc:	f3 01       	movw	r30, r6
    29de:	80 81       	ld	r24, Z
    29e0:	91 81       	ldd	r25, Z+1	; 0x01
    29e2:	01 97       	sbiw	r24, 0x01	; 1
    29e4:	19 f4       	brne	.+6      	; 0x29ec <_Z10leg_motionv+0x44c>
			{
				leg_check_down(&leg1);
    29e6:	86 ea       	ldi	r24, 0xA6	; 166
    29e8:	98 e1       	ldi	r25, 0x18	; 24
    29ea:	0b dc       	rcall	.-2026   	; 0x2202 <_Z14leg_check_downP7LegData>
			}
			if(leg2.lift == 1 && leg2.climbing == 1)
    29ec:	20 e0       	ldi	r18, 0x00	; 0
    29ee:	30 e0       	ldi	r19, 0x00	; 0
    29f0:	40 e8       	ldi	r20, 0x80	; 128
    29f2:	5f e3       	ldi	r21, 0x3F	; 63
    29f4:	f6 01       	movw	r30, r12
    29f6:	60 81       	ld	r22, Z
    29f8:	71 81       	ldd	r23, Z+1	; 0x01
    29fa:	82 81       	ldd	r24, Z+2	; 0x02
    29fc:	93 81       	ldd	r25, Z+3	; 0x03
    29fe:	0e 94 20 41 	call	0x8240	; 0x8240 <__cmpsf2>
    2a02:	81 11       	cpse	r24, r1
    2a04:	08 c0       	rjmp	.+16     	; 0x2a16 <_Z10leg_motionv+0x476>
    2a06:	f2 01       	movw	r30, r4
    2a08:	80 81       	ld	r24, Z
    2a0a:	91 81       	ldd	r25, Z+1	; 0x01
    2a0c:	01 97       	sbiw	r24, 0x01	; 1
    2a0e:	19 f4       	brne	.+6      	; 0x2a16 <_Z10leg_motionv+0x476>
			{
				leg_check_down(&leg2);
    2a10:	86 e1       	ldi	r24, 0x16	; 22
    2a12:	98 e1       	ldi	r25, 0x18	; 24
    2a14:	f6 db       	rcall	.-2068   	; 0x2202 <_Z14leg_check_downP7LegData>
			}
			if(leg3.lift == 1 && leg3.climbing == 1)
    2a16:	20 e0       	ldi	r18, 0x00	; 0
    2a18:	30 e0       	ldi	r19, 0x00	; 0
    2a1a:	40 e8       	ldi	r20, 0x80	; 128
    2a1c:	5f e3       	ldi	r21, 0x3F	; 63
    2a1e:	f7 01       	movw	r30, r14
    2a20:	60 81       	ld	r22, Z
    2a22:	71 81       	ldd	r23, Z+1	; 0x01
    2a24:	82 81       	ldd	r24, Z+2	; 0x02
    2a26:	93 81       	ldd	r25, Z+3	; 0x03
    2a28:	0e 94 20 41 	call	0x8240	; 0x8240 <__cmpsf2>
    2a2c:	81 11       	cpse	r24, r1
    2a2e:	08 c0       	rjmp	.+16     	; 0x2a40 <_Z10leg_motionv+0x4a0>
    2a30:	f1 01       	movw	r30, r2
    2a32:	80 81       	ld	r24, Z
    2a34:	91 81       	ldd	r25, Z+1	; 0x01
    2a36:	01 97       	sbiw	r24, 0x01	; 1
    2a38:	19 f4       	brne	.+6      	; 0x2a40 <_Z10leg_motionv+0x4a0>
			{
				leg_check_down(&leg3);
    2a3a:	86 e8       	ldi	r24, 0x86	; 134
    2a3c:	97 e1       	ldi	r25, 0x17	; 23
    2a3e:	e1 db       	rcall	.-2110   	; 0x2202 <_Z14leg_check_downP7LegData>
			}
			if(leg4.lift == 1 && leg4.climbing == 1)
    2a40:	20 e0       	ldi	r18, 0x00	; 0
    2a42:	30 e0       	ldi	r19, 0x00	; 0
    2a44:	40 e8       	ldi	r20, 0x80	; 128
    2a46:	5f e3       	ldi	r21, 0x3F	; 63
    2a48:	f8 01       	movw	r30, r16
    2a4a:	60 81       	ld	r22, Z
    2a4c:	71 81       	ldd	r23, Z+1	; 0x01
    2a4e:	82 81       	ldd	r24, Z+2	; 0x02
    2a50:	93 81       	ldd	r25, Z+3	; 0x03
    2a52:	0e 94 20 41 	call	0x8240	; 0x8240 <__cmpsf2>
    2a56:	81 11       	cpse	r24, r1
    2a58:	09 c0       	rjmp	.+18     	; 0x2a6c <_Z10leg_motionv+0x4cc>
    2a5a:	e8 e5       	ldi	r30, 0x58	; 88
    2a5c:	f7 e1       	ldi	r31, 0x17	; 23
    2a5e:	80 81       	ld	r24, Z
    2a60:	91 81       	ldd	r25, Z+1	; 0x01
    2a62:	01 97       	sbiw	r24, 0x01	; 1
    2a64:	19 f4       	brne	.+6      	; 0x2a6c <_Z10leg_motionv+0x4cc>
			{
				leg_check_down(&leg4);
    2a66:	86 ef       	ldi	r24, 0xF6	; 246
    2a68:	96 e1       	ldi	r25, 0x16	; 22
    2a6a:	cb db       	rcall	.-2154   	; 0x2202 <_Z14leg_check_downP7LegData>
			}
			if(leg5.lift == 1 && leg5.climbing == 1)
    2a6c:	20 e0       	ldi	r18, 0x00	; 0
    2a6e:	30 e0       	ldi	r19, 0x00	; 0
    2a70:	40 e8       	ldi	r20, 0x80	; 128
    2a72:	5f e3       	ldi	r21, 0x3F	; 63
    2a74:	68 81       	ld	r22, Y
    2a76:	79 81       	ldd	r23, Y+1	; 0x01
    2a78:	8a 81       	ldd	r24, Y+2	; 0x02
    2a7a:	9b 81       	ldd	r25, Y+3	; 0x03
    2a7c:	0e 94 20 41 	call	0x8240	; 0x8240 <__cmpsf2>
    2a80:	81 11       	cpse	r24, r1
    2a82:	09 c0       	rjmp	.+18     	; 0x2a96 <_Z10leg_motionv+0x4f6>
    2a84:	e8 ec       	ldi	r30, 0xC8	; 200
    2a86:	f6 e1       	ldi	r31, 0x16	; 22
    2a88:	80 81       	ld	r24, Z
    2a8a:	91 81       	ldd	r25, Z+1	; 0x01
    2a8c:	01 97       	sbiw	r24, 0x01	; 1
    2a8e:	19 f4       	brne	.+6      	; 0x2a96 <_Z10leg_motionv+0x4f6>
			{
				leg_check_down(&leg5);
    2a90:	86 e6       	ldi	r24, 0x66	; 102
    2a92:	96 e1       	ldi	r25, 0x16	; 22
    2a94:	b6 db       	rcall	.-2196   	; 0x2202 <_Z14leg_check_downP7LegData>
			}
			if(leg6.lift == 1 && leg6.climbing == 1)
    2a96:	20 e0       	ldi	r18, 0x00	; 0
    2a98:	30 e0       	ldi	r19, 0x00	; 0
    2a9a:	40 e8       	ldi	r20, 0x80	; 128
    2a9c:	5f e3       	ldi	r21, 0x3F	; 63
    2a9e:	f4 01       	movw	r30, r8
    2aa0:	60 81       	ld	r22, Z
    2aa2:	71 81       	ldd	r23, Z+1	; 0x01
    2aa4:	82 81       	ldd	r24, Z+2	; 0x02
    2aa6:	93 81       	ldd	r25, Z+3	; 0x03
    2aa8:	0e 94 20 41 	call	0x8240	; 0x8240 <__cmpsf2>
    2aac:	81 11       	cpse	r24, r1
    2aae:	09 c0       	rjmp	.+18     	; 0x2ac2 <_Z10leg_motionv+0x522>
    2ab0:	e8 e3       	ldi	r30, 0x38	; 56
    2ab2:	f6 e1       	ldi	r31, 0x16	; 22
    2ab4:	80 81       	ld	r24, Z
    2ab6:	91 81       	ldd	r25, Z+1	; 0x01
    2ab8:	01 97       	sbiw	r24, 0x01	; 1
    2aba:	19 f4       	brne	.+6      	; 0x2ac2 <_Z10leg_motionv+0x522>
			{
				leg_check_down(&leg6);
    2abc:	86 ed       	ldi	r24, 0xD6	; 214
    2abe:	95 e1       	ldi	r25, 0x15	; 21
    2ac0:	a0 db       	rcall	.-2240   	; 0x2202 <_Z14leg_check_downP7LegData>
		//climb_check_down_p = MPU_get_p();
		PORTC ^= (1<<PORTC6);
	
		
		legsNotDown = 1;
		while(legsNotDown)
    2ac2:	80 91 c2 15 	lds	r24, 0x15C2
    2ac6:	90 91 c3 15 	lds	r25, 0x15C3
    2aca:	89 2b       	or	r24, r25
    2acc:	09 f0       	breq	.+2      	; 0x2ad0 <_Z10leg_motionv+0x530>
    2ace:	e9 ce       	rjmp	.-558    	; 0x28a2 <_Z10leg_motionv+0x302>
			
			//SERVO_action();
			//wait(100);
		}
		
		if (leg3.newPosz > z_in_use && leg4.newPosz > z_in_use && climb_step < 3)
    2ad0:	c0 90 55 19 	lds	r12, 0x1955
    2ad4:	d0 90 56 19 	lds	r13, 0x1956
    2ad8:	e0 90 57 19 	lds	r14, 0x1957
    2adc:	f0 90 58 19 	lds	r15, 0x1958
    2ae0:	a7 01       	movw	r20, r14
    2ae2:	96 01       	movw	r18, r12
    2ae4:	60 91 96 17 	lds	r22, 0x1796
    2ae8:	70 91 97 17 	lds	r23, 0x1797
    2aec:	80 91 98 17 	lds	r24, 0x1798
    2af0:	90 91 99 17 	lds	r25, 0x1799
    2af4:	0e 94 77 43 	call	0x86ee	; 0x86ee <__gesf2>
    2af8:	18 16       	cp	r1, r24
    2afa:	0c f0       	brlt	.+2      	; 0x2afe <_Z10leg_motionv+0x55e>
    2afc:	a3 c0       	rjmp	.+326    	; 0x2c44 <_Z10leg_motionv+0x6a4>
    2afe:	20 91 06 17 	lds	r18, 0x1706
    2b02:	30 91 07 17 	lds	r19, 0x1707
    2b06:	40 91 08 17 	lds	r20, 0x1708
    2b0a:	50 91 09 17 	lds	r21, 0x1709
    2b0e:	c7 01       	movw	r24, r14
    2b10:	b6 01       	movw	r22, r12
    2b12:	0e 94 20 41 	call	0x8240	; 0x8240 <__cmpsf2>
    2b16:	88 23       	and	r24, r24
    2b18:	0c f0       	brlt	.+2      	; 0x2b1c <_Z10leg_motionv+0x57c>
    2b1a:	94 c0       	rjmp	.+296    	; 0x2c44 <_Z10leg_motionv+0x6a4>
    2b1c:	20 e0       	ldi	r18, 0x00	; 0
    2b1e:	30 e0       	ldi	r19, 0x00	; 0
    2b20:	40 e4       	ldi	r20, 0x40	; 64
    2b22:	50 e4       	ldi	r21, 0x40	; 64
    2b24:	60 91 61 19 	lds	r22, 0x1961
    2b28:	70 91 62 19 	lds	r23, 0x1962
    2b2c:	80 91 63 19 	lds	r24, 0x1963
    2b30:	90 91 64 19 	lds	r25, 0x1964
    2b34:	0e 94 20 41 	call	0x8240	; 0x8240 <__cmpsf2>
    2b38:	88 23       	and	r24, r24
    2b3a:	0c f0       	brlt	.+2      	; 0x2b3e <_Z10leg_motionv+0x59e>
    2b3c:	83 c0       	rjmp	.+262    	; 0x2c44 <_Z10leg_motionv+0x6a4>
		{
			climb_step = 3;
    2b3e:	80 e0       	ldi	r24, 0x00	; 0
    2b40:	90 e0       	ldi	r25, 0x00	; 0
    2b42:	a0 e4       	ldi	r26, 0x40	; 64
    2b44:	b0 e4       	ldi	r27, 0x40	; 64
    2b46:	80 93 61 19 	sts	0x1961, r24
    2b4a:	90 93 62 19 	sts	0x1962, r25
    2b4e:	a0 93 63 19 	sts	0x1963, r26
    2b52:	b0 93 64 19 	sts	0x1964, r27
			climb_step2 = 1;
    2b56:	80 e0       	ldi	r24, 0x00	; 0
    2b58:	90 e0       	ldi	r25, 0x00	; 0
    2b5a:	a0 e8       	ldi	r26, 0x80	; 128
    2b5c:	bf e3       	ldi	r27, 0x3F	; 63
    2b5e:	80 93 5d 19 	sts	0x195D, r24
    2b62:	90 93 5e 19 	sts	0x195E, r25
    2b66:	a0 93 5f 19 	sts	0x195F, r26
    2b6a:	b0 93 60 19 	sts	0x1960, r27
			leg4.climbing = 0;
			leg5.climbing = 0;
			leg6.climbing = 0;*/
			
			
			climb_counter = 0;
    2b6e:	10 92 3f 19 	sts	0x193F, r1
			move_robot(0,50,100);
    2b72:	44 e6       	ldi	r20, 0x64	; 100
    2b74:	50 e0       	ldi	r21, 0x00	; 0
    2b76:	62 e3       	ldi	r22, 0x32	; 50
    2b78:	70 e0       	ldi	r23, 0x00	; 0
    2b7a:	80 e0       	ldi	r24, 0x00	; 0
    2b7c:	90 e0       	ldi	r25, 0x00	; 0
    2b7e:	4b d3       	rcall	.+1686   	; 0x3216 <_Z10move_robotiii>
			wait(100);
    2b80:	84 e6       	ldi	r24, 0x64	; 100
    2b82:	90 e0       	ldi	r25, 0x00	; 0
    2b84:	0e 94 47 05 	call	0xa8e	; 0xa8e <_Z4waitj>
			move_robot(0,50,100);
    2b88:	44 e6       	ldi	r20, 0x64	; 100
    2b8a:	50 e0       	ldi	r21, 0x00	; 0
    2b8c:	62 e3       	ldi	r22, 0x32	; 50
    2b8e:	70 e0       	ldi	r23, 0x00	; 0
    2b90:	80 e0       	ldi	r24, 0x00	; 0
    2b92:	90 e0       	ldi	r25, 0x00	; 0
    2b94:	40 d3       	rcall	.+1664   	; 0x3216 <_Z10move_robotiii>
			wait(100);
    2b96:	84 e6       	ldi	r24, 0x64	; 100
    2b98:	90 e0       	ldi	r25, 0x00	; 0
    2b9a:	0e 94 47 05 	call	0xa8e	; 0xa8e <_Z4waitj>
			while(fabs(MPU_get_y() - climb_start_control) > 0.10)
    2b9e:	24 c0       	rjmp	.+72     	; 0x2be8 <_Z10leg_motionv+0x648>
			{
				MPU_update();
    2ba0:	0e 94 53 3a 	call	0x74a6	; 0x74a6 <_Z10MPU_updatev>
				if (MPU_get_y() - climb_start_control > 0)
    2ba4:	0e 94 fa 39 	call	0x73f4	; 0x73f4 <_Z9MPU_get_yv>
    2ba8:	20 91 51 19 	lds	r18, 0x1951
    2bac:	30 91 52 19 	lds	r19, 0x1952
    2bb0:	40 91 53 19 	lds	r20, 0x1953
    2bb4:	50 91 54 19 	lds	r21, 0x1954
    2bb8:	0e 94 42 40 	call	0x8084	; 0x8084 <__subsf3>
    2bbc:	20 e0       	ldi	r18, 0x00	; 0
    2bbe:	30 e0       	ldi	r19, 0x00	; 0
    2bc0:	a9 01       	movw	r20, r18
    2bc2:	0e 94 77 43 	call	0x86ee	; 0x86ee <__gesf2>
    2bc6:	18 16       	cp	r1, r24
    2bc8:	44 f4       	brge	.+16     	; 0x2bda <_Z10leg_motionv+0x63a>
				{
					move_robot(0, 40, 0);
    2bca:	40 e0       	ldi	r20, 0x00	; 0
    2bcc:	50 e0       	ldi	r21, 0x00	; 0
    2bce:	68 e2       	ldi	r22, 0x28	; 40
    2bd0:	70 e0       	ldi	r23, 0x00	; 0
    2bd2:	80 e0       	ldi	r24, 0x00	; 0
    2bd4:	90 e0       	ldi	r25, 0x00	; 0
    2bd6:	1f d3       	rcall	.+1598   	; 0x3216 <_Z10move_robotiii>
    2bd8:	07 c0       	rjmp	.+14     	; 0x2be8 <_Z10leg_motionv+0x648>
				}
				else
				{
					move_robot(0, 60, 0);
    2bda:	40 e0       	ldi	r20, 0x00	; 0
    2bdc:	50 e0       	ldi	r21, 0x00	; 0
    2bde:	6c e3       	ldi	r22, 0x3C	; 60
    2be0:	70 e0       	ldi	r23, 0x00	; 0
    2be2:	80 e0       	ldi	r24, 0x00	; 0
    2be4:	90 e0       	ldi	r25, 0x00	; 0
    2be6:	17 d3       	rcall	.+1582   	; 0x3216 <_Z10move_robotiii>
			climb_counter = 0;
			move_robot(0,50,100);
			wait(100);
			move_robot(0,50,100);
			wait(100);
			while(fabs(MPU_get_y() - climb_start_control) > 0.10)
    2be8:	0e 94 fa 39 	call	0x73f4	; 0x73f4 <_Z9MPU_get_yv>
    2bec:	20 91 51 19 	lds	r18, 0x1951
    2bf0:	30 91 52 19 	lds	r19, 0x1952
    2bf4:	40 91 53 19 	lds	r20, 0x1953
    2bf8:	50 91 54 19 	lds	r21, 0x1954
    2bfc:	0e 94 42 40 	call	0x8084	; 0x8084 <__subsf3>
    2c00:	9f 77       	andi	r25, 0x7F	; 127
    2c02:	2d ec       	ldi	r18, 0xCD	; 205
    2c04:	3c ec       	ldi	r19, 0xCC	; 204
    2c06:	4c ec       	ldi	r20, 0xCC	; 204
    2c08:	5d e3       	ldi	r21, 0x3D	; 61
    2c0a:	0e 94 77 43 	call	0x86ee	; 0x86ee <__gesf2>
    2c0e:	18 16       	cp	r1, r24
    2c10:	3c f2       	brlt	.-114    	; 0x2ba0 <_Z10leg_motionv+0x600>
				{
					move_robot(0, 60, 0);
				}
			}
			
			wait(100);
    2c12:	84 e6       	ldi	r24, 0x64	; 100
    2c14:	90 e0       	ldi	r25, 0x00	; 0
    2c16:	0e 94 47 05 	call	0xa8e	; 0xa8e <_Z4waitj>
			climb_start_slope_r = MPU_get_r();
    2c1a:	0e 94 10 3a 	call	0x7420	; 0x7420 <_Z9MPU_get_rv>
    2c1e:	60 93 4d 19 	sts	0x194D, r22
    2c22:	70 93 4e 19 	sts	0x194E, r23
    2c26:	80 93 4f 19 	sts	0x194F, r24
    2c2a:	90 93 50 19 	sts	0x1950, r25
			climb_start_slope_p = MPU_get_p();
    2c2e:	0e 94 05 3a 	call	0x740a	; 0x740a <_Z9MPU_get_pv>
    2c32:	60 93 49 19 	sts	0x1949, r22
    2c36:	70 93 4a 19 	sts	0x194A, r23
    2c3a:	80 93 4b 19 	sts	0x194B, r24
    2c3e:	90 93 4c 19 	sts	0x194C, r25
    2c42:	71 c0       	rjmp	.+226    	; 0x2d26 <_Z10leg_motionv+0x786>
		}
		else if (leg2.newPosz > z_in_use && leg5.newPosz > z_in_use && climb_step < 3)
    2c44:	20 91 26 18 	lds	r18, 0x1826
    2c48:	30 91 27 18 	lds	r19, 0x1827
    2c4c:	40 91 28 18 	lds	r20, 0x1828
    2c50:	50 91 29 18 	lds	r21, 0x1829
    2c54:	c7 01       	movw	r24, r14
    2c56:	b6 01       	movw	r22, r12
    2c58:	0e 94 20 41 	call	0x8240	; 0x8240 <__cmpsf2>
    2c5c:	88 23       	and	r24, r24
    2c5e:	5c f5       	brge	.+86     	; 0x2cb6 <_Z10leg_motionv+0x716>
    2c60:	20 91 76 16 	lds	r18, 0x1676
    2c64:	30 91 77 16 	lds	r19, 0x1677
    2c68:	40 91 78 16 	lds	r20, 0x1678
    2c6c:	50 91 79 16 	lds	r21, 0x1679
    2c70:	c7 01       	movw	r24, r14
    2c72:	b6 01       	movw	r22, r12
    2c74:	0e 94 20 41 	call	0x8240	; 0x8240 <__cmpsf2>
    2c78:	88 23       	and	r24, r24
    2c7a:	ec f4       	brge	.+58     	; 0x2cb6 <_Z10leg_motionv+0x716>
    2c7c:	20 e0       	ldi	r18, 0x00	; 0
    2c7e:	30 e0       	ldi	r19, 0x00	; 0
    2c80:	40 e4       	ldi	r20, 0x40	; 64
    2c82:	50 e4       	ldi	r21, 0x40	; 64
    2c84:	60 91 61 19 	lds	r22, 0x1961
    2c88:	70 91 62 19 	lds	r23, 0x1962
    2c8c:	80 91 63 19 	lds	r24, 0x1963
    2c90:	90 91 64 19 	lds	r25, 0x1964
    2c94:	0e 94 20 41 	call	0x8240	; 0x8240 <__cmpsf2>
    2c98:	88 23       	and	r24, r24
    2c9a:	6c f4       	brge	.+26     	; 0x2cb6 <_Z10leg_motionv+0x716>
		{
			climb_step = 2;
    2c9c:	80 e0       	ldi	r24, 0x00	; 0
    2c9e:	90 e0       	ldi	r25, 0x00	; 0
    2ca0:	a0 e0       	ldi	r26, 0x00	; 0
    2ca2:	b0 e4       	ldi	r27, 0x40	; 64
    2ca4:	80 93 61 19 	sts	0x1961, r24
    2ca8:	90 93 62 19 	sts	0x1962, r25
    2cac:	a0 93 63 19 	sts	0x1963, r26
    2cb0:	b0 93 64 19 	sts	0x1964, r27
    2cb4:	38 c0       	rjmp	.+112    	; 0x2d26 <_Z10leg_motionv+0x786>
		}
		else if (leg1.newPosz > z_in_use && leg6.newPosz > z_in_use && climb_step < 3)
    2cb6:	20 91 b6 18 	lds	r18, 0x18B6
    2cba:	30 91 b7 18 	lds	r19, 0x18B7
    2cbe:	40 91 b8 18 	lds	r20, 0x18B8
    2cc2:	50 91 b9 18 	lds	r21, 0x18B9
    2cc6:	c7 01       	movw	r24, r14
    2cc8:	b6 01       	movw	r22, r12
    2cca:	0e 94 20 41 	call	0x8240	; 0x8240 <__cmpsf2>
    2cce:	88 23       	and	r24, r24
    2cd0:	54 f5       	brge	.+84     	; 0x2d26 <_Z10leg_motionv+0x786>
    2cd2:	20 91 e6 15 	lds	r18, 0x15E6
    2cd6:	30 91 e7 15 	lds	r19, 0x15E7
    2cda:	40 91 e8 15 	lds	r20, 0x15E8
    2cde:	50 91 e9 15 	lds	r21, 0x15E9
    2ce2:	c7 01       	movw	r24, r14
    2ce4:	b6 01       	movw	r22, r12
    2ce6:	0e 94 20 41 	call	0x8240	; 0x8240 <__cmpsf2>
    2cea:	88 23       	and	r24, r24
    2cec:	e4 f4       	brge	.+56     	; 0x2d26 <_Z10leg_motionv+0x786>
    2cee:	20 e0       	ldi	r18, 0x00	; 0
    2cf0:	30 e0       	ldi	r19, 0x00	; 0
    2cf2:	40 e4       	ldi	r20, 0x40	; 64
    2cf4:	50 e4       	ldi	r21, 0x40	; 64
    2cf6:	60 91 61 19 	lds	r22, 0x1961
    2cfa:	70 91 62 19 	lds	r23, 0x1962
    2cfe:	80 91 63 19 	lds	r24, 0x1963
    2d02:	90 91 64 19 	lds	r25, 0x1964
    2d06:	0e 94 20 41 	call	0x8240	; 0x8240 <__cmpsf2>
    2d0a:	88 23       	and	r24, r24
    2d0c:	64 f4       	brge	.+24     	; 0x2d26 <_Z10leg_motionv+0x786>
		{
			climb_step = 1;
    2d0e:	80 e0       	ldi	r24, 0x00	; 0
    2d10:	90 e0       	ldi	r25, 0x00	; 0
    2d12:	a0 e8       	ldi	r26, 0x80	; 128
    2d14:	bf e3       	ldi	r27, 0x3F	; 63
    2d16:	80 93 61 19 	sts	0x1961, r24
    2d1a:	90 93 62 19 	sts	0x1962, r25
    2d1e:	a0 93 63 19 	sts	0x1963, r26
    2d22:	b0 93 64 19 	sts	0x1964, r27
		}
		
		
		
		
		if (leg1.newPosz < z_in_use + 20 && 
    2d26:	20 e0       	ldi	r18, 0x00	; 0
    2d28:	30 e0       	ldi	r19, 0x00	; 0
    2d2a:	40 ea       	ldi	r20, 0xA0	; 160
    2d2c:	51 e4       	ldi	r21, 0x41	; 65
    2d2e:	60 91 55 19 	lds	r22, 0x1955
    2d32:	70 91 56 19 	lds	r23, 0x1956
    2d36:	80 91 57 19 	lds	r24, 0x1957
    2d3a:	90 91 58 19 	lds	r25, 0x1958
    2d3e:	0e 94 43 40 	call	0x8086	; 0x8086 <__addsf3>
    2d42:	06 2f       	mov	r16, r22
    2d44:	17 2f       	mov	r17, r23
    2d46:	d8 2f       	mov	r29, r24
    2d48:	c9 2f       	mov	r28, r25
    2d4a:	76 2f       	mov	r23, r22
    2d4c:	27 2f       	mov	r18, r23
    2d4e:	31 2f       	mov	r19, r17
    2d50:	4d 2f       	mov	r20, r29
    2d52:	5c 2f       	mov	r21, r28
    2d54:	60 91 b6 18 	lds	r22, 0x18B6
    2d58:	70 91 b7 18 	lds	r23, 0x18B7
    2d5c:	80 91 b8 18 	lds	r24, 0x18B8
    2d60:	90 91 b9 18 	lds	r25, 0x18B9
    2d64:	0e 94 20 41 	call	0x8240	; 0x8240 <__cmpsf2>
    2d68:	88 23       	and	r24, r24
    2d6a:	7c f5       	brge	.+94     	; 0x2dca <_Z10leg_motionv+0x82a>
    2d6c:	20 91 e6 15 	lds	r18, 0x15E6
    2d70:	30 91 e7 15 	lds	r19, 0x15E7
    2d74:	40 91 e8 15 	lds	r20, 0x15E8
    2d78:	50 91 e9 15 	lds	r21, 0x15E9
    2d7c:	60 2f       	mov	r22, r16
    2d7e:	71 2f       	mov	r23, r17
    2d80:	8d 2f       	mov	r24, r29
    2d82:	9c 2f       	mov	r25, r28
    2d84:	0e 94 77 43 	call	0x86ee	; 0x86ee <__gesf2>
    2d88:	18 16       	cp	r1, r24
    2d8a:	fc f4       	brge	.+62     	; 0x2dca <_Z10leg_motionv+0x82a>
    2d8c:	20 e0       	ldi	r18, 0x00	; 0
    2d8e:	30 e0       	ldi	r19, 0x00	; 0
    2d90:	40 e8       	ldi	r20, 0x80	; 128
    2d92:	5f e3       	ldi	r21, 0x3F	; 63
    2d94:	60 91 5d 19 	lds	r22, 0x195D
    2d98:	70 91 5e 19 	lds	r23, 0x195E
    2d9c:	80 91 5f 19 	lds	r24, 0x195F
    2da0:	90 91 60 19 	lds	r25, 0x1960
    2da4:	0e 94 20 41 	call	0x8240	; 0x8240 <__cmpsf2>
    2da8:	81 11       	cpse	r24, r1
    2daa:	0f c0       	rjmp	.+30     	; 0x2dca <_Z10leg_motionv+0x82a>
			leg6.newPosz < z_in_use + 20 && 
			climb_step2 == 1)
		{
			climb_step2 = 2;
    2dac:	80 e0       	ldi	r24, 0x00	; 0
    2dae:	90 e0       	ldi	r25, 0x00	; 0
    2db0:	a0 e0       	ldi	r26, 0x00	; 0
    2db2:	b0 e4       	ldi	r27, 0x40	; 64
    2db4:	80 93 5d 19 	sts	0x195D, r24
    2db8:	90 93 5e 19 	sts	0x195E, r25
    2dbc:	a0 93 5f 19 	sts	0x195F, r26
    2dc0:	b0 93 60 19 	sts	0x1960, r27
			
			MPU_update();
    2dc4:	0e 94 53 3a 	call	0x74a6	; 0x74a6 <_Z10MPU_updatev>
    2dc8:	8b c0       	rjmp	.+278    	; 0x2ee0 <_Z10leg_motionv+0x940>
			//climb_start_slope_r = MPU_get_r();
			//climb_start_slope_p = MPU_get_p();
		}
		else if (leg2.newPosz < z_in_use + 20 && 
    2dca:	20 91 26 18 	lds	r18, 0x1826
    2dce:	30 91 27 18 	lds	r19, 0x1827
    2dd2:	40 91 28 18 	lds	r20, 0x1828
    2dd6:	50 91 29 18 	lds	r21, 0x1829
    2dda:	60 2f       	mov	r22, r16
    2ddc:	71 2f       	mov	r23, r17
    2dde:	8d 2f       	mov	r24, r29
    2de0:	9c 2f       	mov	r25, r28
    2de2:	0e 94 77 43 	call	0x86ee	; 0x86ee <__gesf2>
    2de6:	18 16       	cp	r1, r24
    2de8:	8c f5       	brge	.+98     	; 0x2e4c <_Z10leg_motionv+0x8ac>
    2dea:	20 91 76 16 	lds	r18, 0x1676
    2dee:	30 91 77 16 	lds	r19, 0x1677
    2df2:	40 91 78 16 	lds	r20, 0x1678
    2df6:	50 91 79 16 	lds	r21, 0x1679
    2dfa:	60 2f       	mov	r22, r16
    2dfc:	71 2f       	mov	r23, r17
    2dfe:	8d 2f       	mov	r24, r29
    2e00:	9c 2f       	mov	r25, r28
    2e02:	0e 94 77 43 	call	0x86ee	; 0x86ee <__gesf2>
    2e06:	18 16       	cp	r1, r24
    2e08:	0c f5       	brge	.+66     	; 0x2e4c <_Z10leg_motionv+0x8ac>
    2e0a:	20 e0       	ldi	r18, 0x00	; 0
    2e0c:	30 e0       	ldi	r19, 0x00	; 0
    2e0e:	40 e0       	ldi	r20, 0x00	; 0
    2e10:	50 e4       	ldi	r21, 0x40	; 64
    2e12:	60 91 5d 19 	lds	r22, 0x195D
    2e16:	70 91 5e 19 	lds	r23, 0x195E
    2e1a:	80 91 5f 19 	lds	r24, 0x195F
    2e1e:	90 91 60 19 	lds	r25, 0x1960
    2e22:	0e 94 20 41 	call	0x8240	; 0x8240 <__cmpsf2>
    2e26:	81 11       	cpse	r24, r1
    2e28:	11 c0       	rjmp	.+34     	; 0x2e4c <_Z10leg_motionv+0x8ac>
			leg5.newPosz < z_in_use + 20 && 
			climb_step2 == 2)
		{
			climb_step2 = 3;
    2e2a:	80 e0       	ldi	r24, 0x00	; 0
    2e2c:	90 e0       	ldi	r25, 0x00	; 0
    2e2e:	a0 e4       	ldi	r26, 0x40	; 64
    2e30:	b0 e4       	ldi	r27, 0x40	; 64
    2e32:	80 93 5d 19 	sts	0x195D, r24
    2e36:	90 93 5e 19 	sts	0x195E, r25
    2e3a:	a0 93 5f 19 	sts	0x195F, r26
    2e3e:	b0 93 60 19 	sts	0x1960, r27
			climb_counter = 0;
    2e42:	10 92 3f 19 	sts	0x193F, r1
			MPU_update();
    2e46:	0e 94 53 3a 	call	0x74a6	; 0x74a6 <_Z10MPU_updatev>
    2e4a:	4a c0       	rjmp	.+148    	; 0x2ee0 <_Z10leg_motionv+0x940>
			//climb_start_slope_r = MPU_get_r();
			//climb_start_slope_p = MPU_get_p();
		}
		else if (leg3.newPosz < z_in_use + 20 &&
    2e4c:	20 91 96 17 	lds	r18, 0x1796
    2e50:	30 91 97 17 	lds	r19, 0x1797
    2e54:	40 91 98 17 	lds	r20, 0x1798
    2e58:	50 91 99 17 	lds	r21, 0x1799
    2e5c:	60 2f       	mov	r22, r16
    2e5e:	71 2f       	mov	r23, r17
    2e60:	8d 2f       	mov	r24, r29
    2e62:	9c 2f       	mov	r25, r28
    2e64:	0e 94 77 43 	call	0x86ee	; 0x86ee <__gesf2>
    2e68:	18 16       	cp	r1, r24
    2e6a:	d4 f5       	brge	.+116    	; 0x2ee0 <_Z10leg_motionv+0x940>
    2e6c:	20 91 06 17 	lds	r18, 0x1706
    2e70:	30 91 07 17 	lds	r19, 0x1707
    2e74:	40 91 08 17 	lds	r20, 0x1708
    2e78:	50 91 09 17 	lds	r21, 0x1709
    2e7c:	60 2f       	mov	r22, r16
    2e7e:	71 2f       	mov	r23, r17
    2e80:	8d 2f       	mov	r24, r29
    2e82:	9c 2f       	mov	r25, r28
    2e84:	0e 94 77 43 	call	0x86ee	; 0x86ee <__gesf2>
    2e88:	18 16       	cp	r1, r24
    2e8a:	54 f5       	brge	.+84     	; 0x2ee0 <_Z10leg_motionv+0x940>
    2e8c:	20 e0       	ldi	r18, 0x00	; 0
    2e8e:	30 e0       	ldi	r19, 0x00	; 0
    2e90:	40 e4       	ldi	r20, 0x40	; 64
    2e92:	50 e4       	ldi	r21, 0x40	; 64
    2e94:	60 91 5d 19 	lds	r22, 0x195D
    2e98:	70 91 5e 19 	lds	r23, 0x195E
    2e9c:	80 91 5f 19 	lds	r24, 0x195F
    2ea0:	90 91 60 19 	lds	r25, 0x1960
    2ea4:	0e 94 20 41 	call	0x8240	; 0x8240 <__cmpsf2>
    2ea8:	81 11       	cpse	r24, r1
    2eaa:	1a c0       	rjmp	.+52     	; 0x2ee0 <_Z10leg_motionv+0x940>
			leg4.newPosz < z_in_use + 20 &&
			climb_step2 == 3)
		{
			climb_step = 0;
    2eac:	10 92 61 19 	sts	0x1961, r1
    2eb0:	10 92 62 19 	sts	0x1962, r1
    2eb4:	10 92 63 19 	sts	0x1963, r1
    2eb8:	10 92 64 19 	sts	0x1964, r1
			climb_step2 = 0;
    2ebc:	10 92 5d 19 	sts	0x195D, r1
    2ec0:	10 92 5e 19 	sts	0x195E, r1
    2ec4:	10 92 5f 19 	sts	0x195F, r1
    2ec8:	10 92 60 19 	sts	0x1960, r1
			climbing_flag = 0;
    2ecc:	10 92 c5 15 	sts	0x15C5, r1
    2ed0:	10 92 c4 15 	sts	0x15C4, r1
			servo_speed = 200;
    2ed4:	88 ec       	ldi	r24, 0xC8	; 200
    2ed6:	90 e0       	ldi	r25, 0x00	; 0
    2ed8:	90 93 08 01 	sts	0x0108, r25
    2edc:	80 93 07 01 	sts	0x0107, r24
		}
		
		if(fmod(leg1.on_obstacle + leg2.on_obstacle + leg3.on_obstacle + 
			leg4.on_obstacle + leg5.on_obstacle + leg6.on_obstacle, 2) == 0)
    2ee0:	60 91 0a 19 	lds	r22, 0x190A
    2ee4:	70 91 0b 19 	lds	r23, 0x190B
    2ee8:	80 91 7a 18 	lds	r24, 0x187A
    2eec:	90 91 7b 18 	lds	r25, 0x187B
    2ef0:	68 0f       	add	r22, r24
    2ef2:	79 1f       	adc	r23, r25
    2ef4:	80 91 ea 17 	lds	r24, 0x17EA
    2ef8:	90 91 eb 17 	lds	r25, 0x17EB
    2efc:	68 0f       	add	r22, r24
    2efe:	79 1f       	adc	r23, r25
    2f00:	80 91 5a 17 	lds	r24, 0x175A
    2f04:	90 91 5b 17 	lds	r25, 0x175B
    2f08:	68 0f       	add	r22, r24
    2f0a:	79 1f       	adc	r23, r25
    2f0c:	80 91 ca 16 	lds	r24, 0x16CA
    2f10:	90 91 cb 16 	lds	r25, 0x16CB
    2f14:	68 0f       	add	r22, r24
    2f16:	79 1f       	adc	r23, r25
    2f18:	80 91 3a 16 	lds	r24, 0x163A
    2f1c:	90 91 3b 16 	lds	r25, 0x163B
    2f20:	68 0f       	add	r22, r24
    2f22:	79 1f       	adc	r23, r25
    2f24:	88 27       	eor	r24, r24
    2f26:	77 fd       	sbrc	r23, 7
    2f28:	80 95       	com	r24
    2f2a:	98 2f       	mov	r25, r24
    2f2c:	0e 94 c2 41 	call	0x8384	; 0x8384 <__floatsisf>
    2f30:	20 e0       	ldi	r18, 0x00	; 0
    2f32:	30 e0       	ldi	r19, 0x00	; 0
    2f34:	40 e0       	ldi	r20, 0x00	; 0
    2f36:	50 e4       	ldi	r21, 0x40	; 64
    2f38:	0e 94 23 42 	call	0x8446	; 0x8446 <fmod>
			climb_step2 = 0;
			climbing_flag = 0;
			servo_speed = 200;
		}
		
		if(fmod(leg1.on_obstacle + leg2.on_obstacle + leg3.on_obstacle + 
    2f3c:	20 e0       	ldi	r18, 0x00	; 0
    2f3e:	30 e0       	ldi	r19, 0x00	; 0
    2f40:	a9 01       	movw	r20, r18
    2f42:	0e 94 20 41 	call	0x8240	; 0x8240 <__cmpsf2>
    2f46:	81 11       	cpse	r24, r1
    2f48:	03 c0       	rjmp	.+6      	; 0x2f50 <_Z10leg_motionv+0x9b0>
			leg4.on_obstacle + leg5.on_obstacle + leg6.on_obstacle, 2) == 0)
		{
			rotation_flag = 1;
    2f4a:	81 e0       	ldi	r24, 0x01	; 1
    2f4c:	80 93 48 19 	sts	0x1948, r24
		}
	}
}
    2f50:	df 91       	pop	r29
    2f52:	cf 91       	pop	r28
    2f54:	1f 91       	pop	r17
    2f56:	0f 91       	pop	r16
    2f58:	ff 90       	pop	r15
    2f5a:	ef 90       	pop	r14
    2f5c:	df 90       	pop	r13
    2f5e:	cf 90       	pop	r12
    2f60:	bf 90       	pop	r11
    2f62:	af 90       	pop	r10
    2f64:	9f 90       	pop	r9
    2f66:	8f 90       	pop	r8
    2f68:	7f 90       	pop	r7
    2f6a:	6f 90       	pop	r6
    2f6c:	5f 90       	pop	r5
    2f6e:	4f 90       	pop	r4
    2f70:	3f 90       	pop	r3
    2f72:	2f 90       	pop	r2
    2f74:	08 95       	ret

00002f76 <_Z11move_to_stdv>:
	
	height_change_all(input);
}

void move_to_std()
{
    2f76:	2f 92       	push	r2
    2f78:	3f 92       	push	r3
    2f7a:	4f 92       	push	r4
    2f7c:	5f 92       	push	r5
    2f7e:	6f 92       	push	r6
    2f80:	7f 92       	push	r7
    2f82:	8f 92       	push	r8
    2f84:	9f 92       	push	r9
    2f86:	af 92       	push	r10
    2f88:	bf 92       	push	r11
    2f8a:	cf 92       	push	r12
    2f8c:	df 92       	push	r13
    2f8e:	ef 92       	push	r14
    2f90:	ff 92       	push	r15
    2f92:	0f 93       	push	r16
    2f94:	1f 93       	push	r17
    2f96:	cf 93       	push	r28
    2f98:	df 93       	push	r29
	if(USART_elevation_flag())
    2f9a:	0e 94 a5 3f 	call	0x7f4a	; 0x7f4a <_Z20USART_elevation_flagv>
    2f9e:	88 23       	and	r24, r24
    2fa0:	19 f0       	breq	.+6      	; 0x2fa8 <_Z11move_to_stdv+0x32>
	{
		change_z(USART_get_z());
    2fa2:	0e 94 f8 3c 	call	0x79f0	; 0x79f0 <_Z11USART_get_zv>
    2fa6:	70 d8       	rcall	.-3872   	; 0x2088 <_Z8change_zf>
	}
	
	leg1.lift = -1;
    2fa8:	0f 2e       	mov	r0, r31
    2faa:	fa ea       	ldi	r31, 0xAA	; 170
    2fac:	cf 2e       	mov	r12, r31
    2fae:	f8 e1       	ldi	r31, 0x18	; 24
    2fb0:	df 2e       	mov	r13, r31
    2fb2:	f0 2d       	mov	r31, r0
    2fb4:	0f 2e       	mov	r0, r31
    2fb6:	81 2c       	mov	r8, r1
    2fb8:	91 2c       	mov	r9, r1
    2fba:	f0 e8       	ldi	r31, 0x80	; 128
    2fbc:	af 2e       	mov	r10, r31
    2fbe:	ff eb       	ldi	r31, 0xBF	; 191
    2fc0:	bf 2e       	mov	r11, r31
    2fc2:	f0 2d       	mov	r31, r0
    2fc4:	f6 01       	movw	r30, r12
    2fc6:	80 82       	st	Z, r8
    2fc8:	91 82       	std	Z+1, r9	; 0x01
    2fca:	a2 82       	std	Z+2, r10	; 0x02
    2fcc:	b3 82       	std	Z+3, r11	; 0x03
	leg2.lift = 1;
    2fce:	0f 2e       	mov	r0, r31
    2fd0:	fa e1       	ldi	r31, 0x1A	; 26
    2fd2:	ef 2e       	mov	r14, r31
    2fd4:	f8 e1       	ldi	r31, 0x18	; 24
    2fd6:	ff 2e       	mov	r15, r31
    2fd8:	f0 2d       	mov	r31, r0
    2fda:	0f 2e       	mov	r0, r31
    2fdc:	41 2c       	mov	r4, r1
    2fde:	51 2c       	mov	r5, r1
    2fe0:	f0 e8       	ldi	r31, 0x80	; 128
    2fe2:	6f 2e       	mov	r6, r31
    2fe4:	ff e3       	ldi	r31, 0x3F	; 63
    2fe6:	7f 2e       	mov	r7, r31
    2fe8:	f0 2d       	mov	r31, r0
    2fea:	f7 01       	movw	r30, r14
    2fec:	40 82       	st	Z, r4
    2fee:	51 82       	std	Z+1, r5	; 0x01
    2ff0:	62 82       	std	Z+2, r6	; 0x02
    2ff2:	73 82       	std	Z+3, r7	; 0x03
	leg3.lift = -1;
    2ff4:	0a e8       	ldi	r16, 0x8A	; 138
    2ff6:	17 e1       	ldi	r17, 0x17	; 23
    2ff8:	f8 01       	movw	r30, r16
    2ffa:	80 82       	st	Z, r8
    2ffc:	91 82       	std	Z+1, r9	; 0x01
    2ffe:	a2 82       	std	Z+2, r10	; 0x02
    3000:	b3 82       	std	Z+3, r11	; 0x03
	leg4.lift = 1;
    3002:	ca ef       	ldi	r28, 0xFA	; 250
    3004:	d6 e1       	ldi	r29, 0x16	; 22
    3006:	48 82       	st	Y, r4
    3008:	59 82       	std	Y+1, r5	; 0x01
    300a:	6a 82       	std	Y+2, r6	; 0x02
    300c:	7b 82       	std	Y+3, r7	; 0x03
	leg5.lift = -1;
    300e:	0f 2e       	mov	r0, r31
    3010:	fa e6       	ldi	r31, 0x6A	; 106
    3012:	2f 2e       	mov	r2, r31
    3014:	f6 e1       	ldi	r31, 0x16	; 22
    3016:	3f 2e       	mov	r3, r31
    3018:	f0 2d       	mov	r31, r0
    301a:	f1 01       	movw	r30, r2
    301c:	80 82       	st	Z, r8
    301e:	91 82       	std	Z+1, r9	; 0x01
    3020:	a2 82       	std	Z+2, r10	; 0x02
    3022:	b3 82       	std	Z+3, r11	; 0x03
	leg6.lift = 1;
    3024:	ea ed       	ldi	r30, 0xDA	; 218
    3026:	f5 e1       	ldi	r31, 0x15	; 21
    3028:	40 82       	st	Z, r4
    302a:	51 82       	std	Z+1, r5	; 0x01
    302c:	62 82       	std	Z+2, r6	; 0x02
    302e:	73 82       	std	Z+3, r7	; 0x03
	
	step_start(&leg1);
    3030:	86 ea       	ldi	r24, 0xA6	; 166
    3032:	98 e1       	ldi	r25, 0x18	; 24
    3034:	0e 94 04 08 	call	0x1008	; 0x1008 <_Z10step_startP7LegData>
	step_start(&leg2);
    3038:	86 e1       	ldi	r24, 0x16	; 22
    303a:	98 e1       	ldi	r25, 0x18	; 24
    303c:	0e 94 04 08 	call	0x1008	; 0x1008 <_Z10step_startP7LegData>
	step_start(&leg3);
    3040:	86 e8       	ldi	r24, 0x86	; 134
    3042:	97 e1       	ldi	r25, 0x17	; 23
    3044:	0e 94 04 08 	call	0x1008	; 0x1008 <_Z10step_startP7LegData>
	step_start(&leg4);
    3048:	86 ef       	ldi	r24, 0xF6	; 246
    304a:	96 e1       	ldi	r25, 0x16	; 22
    304c:	0e 94 04 08 	call	0x1008	; 0x1008 <_Z10step_startP7LegData>
	step_start(&leg5);
    3050:	86 e6       	ldi	r24, 0x66	; 102
    3052:	96 e1       	ldi	r25, 0x16	; 22
    3054:	0e 94 04 08 	call	0x1008	; 0x1008 <_Z10step_startP7LegData>
	step_start(&leg6);
    3058:	86 ed       	ldi	r24, 0xD6	; 214
    305a:	95 e1       	ldi	r25, 0x15	; 21
    305c:	0e 94 04 08 	call	0x1008	; 0x1008 <_Z10step_startP7LegData>
	
	leg2.newPosx = get_x0();
    3060:	0e 94 b1 2d 	call	0x5b62	; 0x5b62 <_Z6get_x0v>
    3064:	60 93 2a 18 	sts	0x182A, r22
    3068:	70 93 2b 18 	sts	0x182B, r23
    306c:	80 93 2c 18 	sts	0x182C, r24
    3070:	90 93 2d 18 	sts	0x182D, r25
	leg2.newPosy = get_y0();
    3074:	0e 94 be 2d 	call	0x5b7c	; 0x5b7c <_Z6get_y0v>
    3078:	60 93 2e 18 	sts	0x182E, r22
    307c:	70 93 2f 18 	sts	0x182F, r23
    3080:	80 93 30 18 	sts	0x1830, r24
    3084:	90 93 31 18 	sts	0x1831, r25
	step_part2_calculator(&leg2);
    3088:	86 e1       	ldi	r24, 0x16	; 22
    308a:	98 e1       	ldi	r25, 0x18	; 24
    308c:	0e 94 ae 08 	call	0x115c	; 0x115c <_Z21step_part2_calculatorP7LegData>
	
	leg4.newPosx = get_x0();
    3090:	0e 94 b1 2d 	call	0x5b62	; 0x5b62 <_Z6get_x0v>
    3094:	60 93 0a 17 	sts	0x170A, r22
    3098:	70 93 0b 17 	sts	0x170B, r23
    309c:	80 93 0c 17 	sts	0x170C, r24
    30a0:	90 93 0d 17 	sts	0x170D, r25
	leg4.newPosy = get_y0();
    30a4:	0e 94 be 2d 	call	0x5b7c	; 0x5b7c <_Z6get_y0v>
    30a8:	60 93 0e 17 	sts	0x170E, r22
    30ac:	70 93 0f 17 	sts	0x170F, r23
    30b0:	80 93 10 17 	sts	0x1710, r24
    30b4:	90 93 11 17 	sts	0x1711, r25
	step_part2_calculator(&leg4);
    30b8:	86 ef       	ldi	r24, 0xF6	; 246
    30ba:	96 e1       	ldi	r25, 0x16	; 22
    30bc:	0e 94 ae 08 	call	0x115c	; 0x115c <_Z21step_part2_calculatorP7LegData>
	
	leg6.newPosx = get_x0();
    30c0:	0e 94 b1 2d 	call	0x5b62	; 0x5b62 <_Z6get_x0v>
    30c4:	60 93 ea 15 	sts	0x15EA, r22
    30c8:	70 93 eb 15 	sts	0x15EB, r23
    30cc:	80 93 ec 15 	sts	0x15EC, r24
    30d0:	90 93 ed 15 	sts	0x15ED, r25
	leg6.newPosy = get_y0();
    30d4:	0e 94 be 2d 	call	0x5b7c	; 0x5b7c <_Z6get_y0v>
    30d8:	60 93 ee 15 	sts	0x15EE, r22
    30dc:	70 93 ef 15 	sts	0x15EF, r23
    30e0:	80 93 f0 15 	sts	0x15F0, r24
    30e4:	90 93 f1 15 	sts	0x15F1, r25
	step_part2_calculator(&leg6);
    30e8:	86 ed       	ldi	r24, 0xD6	; 214
    30ea:	95 e1       	ldi	r25, 0x15	; 21
    30ec:	0e 94 ae 08 	call	0x115c	; 0x115c <_Z21step_part2_calculatorP7LegData>
	
	leg_motion();
    30f0:	57 da       	rcall	.-2898   	; 0x25a0 <_Z10leg_motionv>
	
	leg1.lift = 1;
    30f2:	f6 01       	movw	r30, r12
    30f4:	40 82       	st	Z, r4
    30f6:	51 82       	std	Z+1, r5	; 0x01
    30f8:	62 82       	std	Z+2, r6	; 0x02
    30fa:	73 82       	std	Z+3, r7	; 0x03
	leg2.lift = -1;
    30fc:	f7 01       	movw	r30, r14
    30fe:	80 82       	st	Z, r8
    3100:	91 82       	std	Z+1, r9	; 0x01
    3102:	a2 82       	std	Z+2, r10	; 0x02
    3104:	b3 82       	std	Z+3, r11	; 0x03
	leg3.lift = 1;
    3106:	f8 01       	movw	r30, r16
    3108:	40 82       	st	Z, r4
    310a:	51 82       	std	Z+1, r5	; 0x01
    310c:	62 82       	std	Z+2, r6	; 0x02
    310e:	73 82       	std	Z+3, r7	; 0x03
	leg4.lift = -1;
    3110:	88 82       	st	Y, r8
    3112:	99 82       	std	Y+1, r9	; 0x01
    3114:	aa 82       	std	Y+2, r10	; 0x02
    3116:	bb 82       	std	Y+3, r11	; 0x03
	leg5.lift = 1;
    3118:	f1 01       	movw	r30, r2
    311a:	40 82       	st	Z, r4
    311c:	51 82       	std	Z+1, r5	; 0x01
    311e:	62 82       	std	Z+2, r6	; 0x02
    3120:	73 82       	std	Z+3, r7	; 0x03
	leg6.lift = -1;
    3122:	ea ed       	ldi	r30, 0xDA	; 218
    3124:	f5 e1       	ldi	r31, 0x15	; 21
    3126:	80 82       	st	Z, r8
    3128:	91 82       	std	Z+1, r9	; 0x01
    312a:	a2 82       	std	Z+2, r10	; 0x02
    312c:	b3 82       	std	Z+3, r11	; 0x03
	
	step_start(&leg1);
    312e:	86 ea       	ldi	r24, 0xA6	; 166
    3130:	98 e1       	ldi	r25, 0x18	; 24
    3132:	0e 94 04 08 	call	0x1008	; 0x1008 <_Z10step_startP7LegData>
	step_start(&leg2);
    3136:	86 e1       	ldi	r24, 0x16	; 22
    3138:	98 e1       	ldi	r25, 0x18	; 24
    313a:	0e 94 04 08 	call	0x1008	; 0x1008 <_Z10step_startP7LegData>
	step_start(&leg3);
    313e:	86 e8       	ldi	r24, 0x86	; 134
    3140:	97 e1       	ldi	r25, 0x17	; 23
    3142:	0e 94 04 08 	call	0x1008	; 0x1008 <_Z10step_startP7LegData>
	step_start(&leg4);
    3146:	86 ef       	ldi	r24, 0xF6	; 246
    3148:	96 e1       	ldi	r25, 0x16	; 22
    314a:	0e 94 04 08 	call	0x1008	; 0x1008 <_Z10step_startP7LegData>
	step_start(&leg5);
    314e:	86 e6       	ldi	r24, 0x66	; 102
    3150:	96 e1       	ldi	r25, 0x16	; 22
    3152:	0e 94 04 08 	call	0x1008	; 0x1008 <_Z10step_startP7LegData>
	step_start(&leg6);
    3156:	86 ed       	ldi	r24, 0xD6	; 214
    3158:	95 e1       	ldi	r25, 0x15	; 21
    315a:	0e 94 04 08 	call	0x1008	; 0x1008 <_Z10step_startP7LegData>

	leg1.newPosx = get_x0();
    315e:	0e 94 b1 2d 	call	0x5b62	; 0x5b62 <_Z6get_x0v>
    3162:	60 93 ba 18 	sts	0x18BA, r22
    3166:	70 93 bb 18 	sts	0x18BB, r23
    316a:	80 93 bc 18 	sts	0x18BC, r24
    316e:	90 93 bd 18 	sts	0x18BD, r25
	leg1.newPosy = get_y0();
    3172:	0e 94 be 2d 	call	0x5b7c	; 0x5b7c <_Z6get_y0v>
    3176:	60 93 be 18 	sts	0x18BE, r22
    317a:	70 93 bf 18 	sts	0x18BF, r23
    317e:	80 93 c0 18 	sts	0x18C0, r24
    3182:	90 93 c1 18 	sts	0x18C1, r25
	step_part2_calculator(&leg1);
    3186:	86 ea       	ldi	r24, 0xA6	; 166
    3188:	98 e1       	ldi	r25, 0x18	; 24
    318a:	0e 94 ae 08 	call	0x115c	; 0x115c <_Z21step_part2_calculatorP7LegData>
	
	leg3.newPosx = get_x0();
    318e:	0e 94 b1 2d 	call	0x5b62	; 0x5b62 <_Z6get_x0v>
    3192:	60 93 9a 17 	sts	0x179A, r22
    3196:	70 93 9b 17 	sts	0x179B, r23
    319a:	80 93 9c 17 	sts	0x179C, r24
    319e:	90 93 9d 17 	sts	0x179D, r25
	leg3.newPosy = get_y0();
    31a2:	0e 94 be 2d 	call	0x5b7c	; 0x5b7c <_Z6get_y0v>
    31a6:	60 93 9e 17 	sts	0x179E, r22
    31aa:	70 93 9f 17 	sts	0x179F, r23
    31ae:	80 93 a0 17 	sts	0x17A0, r24
    31b2:	90 93 a1 17 	sts	0x17A1, r25
	step_part2_calculator(&leg3);
    31b6:	86 e8       	ldi	r24, 0x86	; 134
    31b8:	97 e1       	ldi	r25, 0x17	; 23
    31ba:	0e 94 ae 08 	call	0x115c	; 0x115c <_Z21step_part2_calculatorP7LegData>
	
	leg5.newPosx = get_x0();
    31be:	0e 94 b1 2d 	call	0x5b62	; 0x5b62 <_Z6get_x0v>
    31c2:	60 93 7a 16 	sts	0x167A, r22
    31c6:	70 93 7b 16 	sts	0x167B, r23
    31ca:	80 93 7c 16 	sts	0x167C, r24
    31ce:	90 93 7d 16 	sts	0x167D, r25
	leg5.newPosy = get_y0();
    31d2:	0e 94 be 2d 	call	0x5b7c	; 0x5b7c <_Z6get_y0v>
    31d6:	60 93 7e 16 	sts	0x167E, r22
    31da:	70 93 7f 16 	sts	0x167F, r23
    31de:	80 93 80 16 	sts	0x1680, r24
    31e2:	90 93 81 16 	sts	0x1681, r25
	step_part2_calculator(&leg5);
    31e6:	86 e6       	ldi	r24, 0x66	; 102
    31e8:	96 e1       	ldi	r25, 0x16	; 22
    31ea:	0e 94 ae 08 	call	0x115c	; 0x115c <_Z21step_part2_calculatorP7LegData>

	leg_motion();
    31ee:	d8 d9       	rcall	.-3152   	; 0x25a0 <_Z10leg_motionv>
	
	
}
    31f0:	df 91       	pop	r29
    31f2:	cf 91       	pop	r28
    31f4:	1f 91       	pop	r17
    31f6:	0f 91       	pop	r16
    31f8:	ff 90       	pop	r15
    31fa:	ef 90       	pop	r14
    31fc:	df 90       	pop	r13
    31fe:	cf 90       	pop	r12
    3200:	bf 90       	pop	r11
    3202:	af 90       	pop	r10
    3204:	9f 90       	pop	r9
    3206:	8f 90       	pop	r8
    3208:	7f 90       	pop	r7
    320a:	6f 90       	pop	r6
    320c:	5f 90       	pop	r5
    320e:	4f 90       	pop	r4
    3210:	3f 90       	pop	r3
    3212:	2f 90       	pop	r2
    3214:	08 95       	ret

00003216 <_Z10move_robotiii>:


//Tar in styrkommandon (format  la Martin) och uppdaterar variabler fr positionen
//av ben fr frra steget och rknar ut position fr nsta steg.
void move_robot(int dir, int rot, int spd)
{
    3216:	2f 92       	push	r2
    3218:	3f 92       	push	r3
    321a:	4f 92       	push	r4
    321c:	5f 92       	push	r5
    321e:	6f 92       	push	r6
    3220:	7f 92       	push	r7
    3222:	8f 92       	push	r8
    3224:	9f 92       	push	r9
    3226:	af 92       	push	r10
    3228:	bf 92       	push	r11
    322a:	cf 92       	push	r12
    322c:	df 92       	push	r13
    322e:	ef 92       	push	r14
    3230:	ff 92       	push	r15
    3232:	0f 93       	push	r16
    3234:	1f 93       	push	r17
    3236:	cf 93       	push	r28
    3238:	df 93       	push	r29
    323a:	cd b7       	in	r28, 0x3d	; 61
    323c:	de b7       	in	r29, 0x3e	; 62
    323e:	66 97       	sbiw	r28, 0x16	; 22
    3240:	0f b6       	in	r0, 0x3f	; 63
    3242:	f8 94       	cli
    3244:	de bf       	out	0x3e, r29	; 62
    3246:	0f be       	out	0x3f, r0	; 63
    3248:	cd bf       	out	0x3d, r28	; 61
    324a:	06 2f       	mov	r16, r22
    324c:	17 2f       	mov	r17, r23
    324e:	a4 2e       	mov	r10, r20
    3250:	b5 2e       	mov	r11, r21
	if(dir < 0 || dir >= 90){
    3252:	8a 35       	cpi	r24, 0x5A	; 90
    3254:	91 05       	cpc	r25, r1
    3256:	10 f0       	brcs	.+4      	; 0x325c <_Z10move_robotiii+0x46>
		dir = 0;
    3258:	80 e0       	ldi	r24, 0x00	; 0
    325a:	90 e0       	ldi	r25, 0x00	; 0
	}
	direction = (float)dir;
    325c:	bc 01       	movw	r22, r24
    325e:	88 27       	eor	r24, r24
    3260:	77 fd       	sbrc	r23, 7
    3262:	80 95       	com	r24
    3264:	98 2f       	mov	r25, r24
    3266:	0e 94 c2 41 	call	0x8384	; 0x8384 <__floatsisf>
    326a:	60 93 ae 15 	sts	0x15AE, r22
    326e:	70 93 af 15 	sts	0x15AF, r23
    3272:	80 93 b0 15 	sts	0x15B0, r24
    3276:	90 93 b1 15 	sts	0x15B1, r25
    327a:	60 2f       	mov	r22, r16
    327c:	71 2f       	mov	r23, r17
    327e:	65 36       	cpi	r22, 0x65	; 101
    3280:	71 05       	cpc	r23, r1
    3282:	14 f0       	brlt	.+4      	; 0x3288 <_Z10move_robotiii+0x72>
    3284:	64 e6       	ldi	r22, 0x64	; 100
    3286:	70 e0       	ldi	r23, 0x00	; 0
	if(rot < 0){
		rot = 0;
	} else if(rot > 100){
		rot = 100;
	}
	rotation = (float)rot / 50 -1;
    3288:	77 23       	and	r23, r23
    328a:	14 f4       	brge	.+4      	; 0x3290 <_Z10move_robotiii+0x7a>
    328c:	60 e0       	ldi	r22, 0x00	; 0
    328e:	70 e0       	ldi	r23, 0x00	; 0
    3290:	88 27       	eor	r24, r24
    3292:	77 fd       	sbrc	r23, 7
    3294:	80 95       	com	r24
    3296:	98 2f       	mov	r25, r24
    3298:	0e 94 c2 41 	call	0x8384	; 0x8384 <__floatsisf>
    329c:	20 e0       	ldi	r18, 0x00	; 0
    329e:	30 e0       	ldi	r19, 0x00	; 0
    32a0:	48 e4       	ldi	r20, 0x48	; 72
    32a2:	52 e4       	ldi	r21, 0x42	; 66
    32a4:	0e 94 27 41 	call	0x824e	; 0x824e <__divsf3>
    32a8:	20 e0       	ldi	r18, 0x00	; 0
    32aa:	30 e0       	ldi	r19, 0x00	; 0
    32ac:	40 e8       	ldi	r20, 0x80	; 128
    32ae:	5f e3       	ldi	r21, 0x3F	; 63
    32b0:	0e 94 42 40 	call	0x8084	; 0x8084 <__subsf3>
    32b4:	c6 2e       	mov	r12, r22
    32b6:	d7 2e       	mov	r13, r23
    32b8:	e8 2e       	mov	r14, r24
    32ba:	f9 2e       	mov	r15, r25
    32bc:	98 2f       	mov	r25, r24
    32be:	0c 2d       	mov	r16, r12
    32c0:	1d 2d       	mov	r17, r13
    32c2:	29 2f       	mov	r18, r25
    32c4:	3f 2d       	mov	r19, r15
    32c6:	00 93 aa 15 	sts	0x15AA, r16
    32ca:	10 93 ab 15 	sts	0x15AB, r17
    32ce:	20 93 ac 15 	sts	0x15AC, r18
    32d2:	30 93 ad 15 	sts	0x15AD, r19
    32d6:	6a 2d       	mov	r22, r10
    32d8:	7b 2d       	mov	r23, r11
    32da:	65 36       	cpi	r22, 0x65	; 101
    32dc:	71 05       	cpc	r23, r1
    32de:	14 f0       	brlt	.+4      	; 0x32e4 <_Z10move_robotiii+0xce>
    32e0:	64 e6       	ldi	r22, 0x64	; 100
    32e2:	70 e0       	ldi	r23, 0x00	; 0
	if(spd < 0){
		spd = 0;
	} else if(spd > 100){
		spd = 100;
	}
	speedf = (float)spd;
    32e4:	77 23       	and	r23, r23
    32e6:	14 f4       	brge	.+4      	; 0x32ec <_Z10move_robotiii+0xd6>
    32e8:	60 e0       	ldi	r22, 0x00	; 0
    32ea:	70 e0       	ldi	r23, 0x00	; 0
    32ec:	88 27       	eor	r24, r24
    32ee:	77 fd       	sbrc	r23, 7
    32f0:	80 95       	com	r24
    32f2:	98 2f       	mov	r25, r24
    32f4:	0e 94 c2 41 	call	0x8384	; 0x8384 <__floatsisf>
    32f8:	60 93 a6 15 	sts	0x15A6, r22
    32fc:	70 93 a7 15 	sts	0x15A7, r23
    3300:	80 93 a8 15 	sts	0x15A8, r24
    3304:	90 93 a9 15 	sts	0x15A9, r25
	
	if (speedf != 0 || rotation != 0)
    3308:	20 e0       	ldi	r18, 0x00	; 0
    330a:	30 e0       	ldi	r19, 0x00	; 0
    330c:	a9 01       	movw	r20, r18
    330e:	0e 94 20 41 	call	0x8240	; 0x8240 <__cmpsf2>
    3312:	81 11       	cpse	r24, r1
    3314:	0c c0       	rjmp	.+24     	; 0x332e <_Z10move_robotiii+0x118>
    3316:	20 e0       	ldi	r18, 0x00	; 0
    3318:	30 e0       	ldi	r19, 0x00	; 0
    331a:	a9 01       	movw	r20, r18
    331c:	6c 2d       	mov	r22, r12
    331e:	7d 2d       	mov	r23, r13
    3320:	8e 2d       	mov	r24, r14
    3322:	9f 2d       	mov	r25, r15
    3324:	0e 94 20 41 	call	0x8240	; 0x8240 <__cmpsf2>
    3328:	88 23       	and	r24, r24
    332a:	09 f4       	brne	.+2      	; 0x332e <_Z10move_robotiii+0x118>
    332c:	f0 c4       	rjmp	.+2528   	; 0x3d0e <_Z10move_robotiii+0xaf8>
	{
	step_start(&leg1);
    332e:	86 ea       	ldi	r24, 0xA6	; 166
    3330:	98 e1       	ldi	r25, 0x18	; 24
    3332:	0e 94 04 08 	call	0x1008	; 0x1008 <_Z10step_startP7LegData>
	step_start(&leg2);
    3336:	86 e1       	ldi	r24, 0x16	; 22
    3338:	98 e1       	ldi	r25, 0x18	; 24
    333a:	0e 94 04 08 	call	0x1008	; 0x1008 <_Z10step_startP7LegData>
	step_start(&leg3);
    333e:	86 e8       	ldi	r24, 0x86	; 134
    3340:	97 e1       	ldi	r25, 0x17	; 23
    3342:	0e 94 04 08 	call	0x1008	; 0x1008 <_Z10step_startP7LegData>
	step_start(&leg4);
    3346:	86 ef       	ldi	r24, 0xF6	; 246
    3348:	96 e1       	ldi	r25, 0x16	; 22
    334a:	0e 94 04 08 	call	0x1008	; 0x1008 <_Z10step_startP7LegData>
	step_start(&leg5);
    334e:	86 e6       	ldi	r24, 0x66	; 102
    3350:	96 e1       	ldi	r25, 0x16	; 22
    3352:	0e 94 04 08 	call	0x1008	; 0x1008 <_Z10step_startP7LegData>
	step_start(&leg6);
    3356:	86 ed       	ldi	r24, 0xD6	; 214
    3358:	95 e1       	ldi	r25, 0x15	; 21
    335a:	0e 94 04 08 	call	0x1008	; 0x1008 <_Z10step_startP7LegData>
	
	leg1.lift = -leg1.lift;
    335e:	ea ea       	ldi	r30, 0xAA	; 170
    3360:	f8 e1       	ldi	r31, 0x18	; 24
    3362:	80 81       	ld	r24, Z
    3364:	91 81       	ldd	r25, Z+1	; 0x01
    3366:	a2 81       	ldd	r26, Z+2	; 0x02
    3368:	b3 81       	ldd	r27, Z+3	; 0x03
    336a:	b0 58       	subi	r27, 0x80	; 128
    336c:	80 83       	st	Z, r24
    336e:	91 83       	std	Z+1, r25	; 0x01
    3370:	a2 83       	std	Z+2, r26	; 0x02
    3372:	b3 83       	std	Z+3, r27	; 0x03
	leg2.lift = -leg2.lift;
    3374:	ea e1       	ldi	r30, 0x1A	; 26
    3376:	f8 e1       	ldi	r31, 0x18	; 24
    3378:	80 81       	ld	r24, Z
    337a:	91 81       	ldd	r25, Z+1	; 0x01
    337c:	a2 81       	ldd	r26, Z+2	; 0x02
    337e:	b3 81       	ldd	r27, Z+3	; 0x03
    3380:	b0 58       	subi	r27, 0x80	; 128
    3382:	80 83       	st	Z, r24
    3384:	91 83       	std	Z+1, r25	; 0x01
    3386:	a2 83       	std	Z+2, r26	; 0x02
    3388:	b3 83       	std	Z+3, r27	; 0x03
	leg3.lift = -leg3.lift;
    338a:	ea e8       	ldi	r30, 0x8A	; 138
    338c:	f7 e1       	ldi	r31, 0x17	; 23
    338e:	80 81       	ld	r24, Z
    3390:	91 81       	ldd	r25, Z+1	; 0x01
    3392:	a2 81       	ldd	r26, Z+2	; 0x02
    3394:	b3 81       	ldd	r27, Z+3	; 0x03
    3396:	b0 58       	subi	r27, 0x80	; 128
    3398:	80 83       	st	Z, r24
    339a:	91 83       	std	Z+1, r25	; 0x01
    339c:	a2 83       	std	Z+2, r26	; 0x02
    339e:	b3 83       	std	Z+3, r27	; 0x03
	leg4.lift = -leg4.lift;
    33a0:	ea ef       	ldi	r30, 0xFA	; 250
    33a2:	f6 e1       	ldi	r31, 0x16	; 22
    33a4:	80 81       	ld	r24, Z
    33a6:	91 81       	ldd	r25, Z+1	; 0x01
    33a8:	a2 81       	ldd	r26, Z+2	; 0x02
    33aa:	b3 81       	ldd	r27, Z+3	; 0x03
    33ac:	b0 58       	subi	r27, 0x80	; 128
    33ae:	80 83       	st	Z, r24
    33b0:	91 83       	std	Z+1, r25	; 0x01
    33b2:	a2 83       	std	Z+2, r26	; 0x02
    33b4:	b3 83       	std	Z+3, r27	; 0x03
	leg5.lift = -leg5.lift;
    33b6:	ea e6       	ldi	r30, 0x6A	; 106
    33b8:	f6 e1       	ldi	r31, 0x16	; 22
    33ba:	80 81       	ld	r24, Z
    33bc:	91 81       	ldd	r25, Z+1	; 0x01
    33be:	a2 81       	ldd	r26, Z+2	; 0x02
    33c0:	b3 81       	ldd	r27, Z+3	; 0x03
    33c2:	b0 58       	subi	r27, 0x80	; 128
    33c4:	80 83       	st	Z, r24
    33c6:	91 83       	std	Z+1, r25	; 0x01
    33c8:	a2 83       	std	Z+2, r26	; 0x02
    33ca:	b3 83       	std	Z+3, r27	; 0x03
	leg6.lift = -leg6.lift;
    33cc:	ea ed       	ldi	r30, 0xDA	; 218
    33ce:	f5 e1       	ldi	r31, 0x15	; 21
    33d0:	80 81       	ld	r24, Z
    33d2:	91 81       	ldd	r25, Z+1	; 0x01
    33d4:	a2 81       	ldd	r26, Z+2	; 0x02
    33d6:	b3 81       	ldd	r27, Z+3	; 0x03
    33d8:	b0 58       	subi	r27, 0x80	; 128
    33da:	80 83       	st	Z, r24
    33dc:	91 83       	std	Z+1, r25	; 0x01
    33de:	a2 83       	std	Z+2, r26	; 0x02
    33e0:	b3 83       	std	Z+3, r27	; 0x03

	//x och y riktning fr frflyttning, skalad med hastigheten
	xDirection = -sinf(direction * pi / 45) * speedf / 100;
    33e2:	2b ed       	ldi	r18, 0xDB	; 219
    33e4:	3f e0       	ldi	r19, 0x0F	; 15
    33e6:	49 e4       	ldi	r20, 0x49	; 73
    33e8:	50 e4       	ldi	r21, 0x40	; 64
    33ea:	60 91 ae 15 	lds	r22, 0x15AE
    33ee:	70 91 af 15 	lds	r23, 0x15AF
    33f2:	80 91 b0 15 	lds	r24, 0x15B0
    33f6:	90 91 b1 15 	lds	r25, 0x15B1
    33fa:	0e 94 82 43 	call	0x8704	; 0x8704 <__mulsf3>
    33fe:	20 e0       	ldi	r18, 0x00	; 0
    3400:	30 e0       	ldi	r19, 0x00	; 0
    3402:	44 e3       	ldi	r20, 0x34	; 52
    3404:	52 e4       	ldi	r21, 0x42	; 66
    3406:	0e 94 27 41 	call	0x824e	; 0x824e <__divsf3>
    340a:	06 2f       	mov	r16, r22
    340c:	17 2f       	mov	r17, r23
    340e:	a8 2e       	mov	r10, r24
    3410:	b9 2e       	mov	r11, r25
    3412:	0e 94 e5 43 	call	0x87ca	; 0x87ca <sin>
    3416:	c0 90 a6 15 	lds	r12, 0x15A6
    341a:	d0 90 a7 15 	lds	r13, 0x15A7
    341e:	e0 90 a8 15 	lds	r14, 0x15A8
    3422:	f0 90 a9 15 	lds	r15, 0x15A9
    3426:	90 58       	subi	r25, 0x80	; 128
    3428:	a7 01       	movw	r20, r14
    342a:	96 01       	movw	r18, r12
    342c:	0e 94 82 43 	call	0x8704	; 0x8704 <__mulsf3>
    3430:	20 e0       	ldi	r18, 0x00	; 0
    3432:	30 e0       	ldi	r19, 0x00	; 0
    3434:	48 ec       	ldi	r20, 0xC8	; 200
    3436:	52 e4       	ldi	r21, 0x42	; 66
    3438:	0e 94 27 41 	call	0x824e	; 0x824e <__divsf3>
    343c:	60 93 a2 15 	sts	0x15A2, r22
    3440:	70 93 a3 15 	sts	0x15A3, r23
    3444:	80 93 a4 15 	sts	0x15A4, r24
    3448:	90 93 a5 15 	sts	0x15A5, r25
	yDirection = cosf(direction * pi / 45) * speedf / 100;
    344c:	60 2f       	mov	r22, r16
    344e:	71 2f       	mov	r23, r17
    3450:	8a 2d       	mov	r24, r10
    3452:	9b 2d       	mov	r25, r11
    3454:	0e 94 24 41 	call	0x8248	; 0x8248 <cos>
    3458:	9b 01       	movw	r18, r22
    345a:	ac 01       	movw	r20, r24
    345c:	c7 01       	movw	r24, r14
    345e:	b6 01       	movw	r22, r12
    3460:	0e 94 82 43 	call	0x8704	; 0x8704 <__mulsf3>
    3464:	20 e0       	ldi	r18, 0x00	; 0
    3466:	30 e0       	ldi	r19, 0x00	; 0
    3468:	48 ec       	ldi	r20, 0xC8	; 200
    346a:	52 e4       	ldi	r21, 0x42	; 66
    346c:	0e 94 27 41 	call	0x824e	; 0x824e <__divsf3>
    3470:	60 93 9e 15 	sts	0x159E, r22
    3474:	70 93 9f 15 	sts	0x159F, r23
    3478:	80 93 a0 15 	sts	0x15A0, r24
    347c:	90 93 a1 15 	sts	0x15A1, r25

	//x och y riktning fr rotation, skalad med rotationshastighet
	
	
	
	leg1.xRot = rotation * get_y0_1()/ stdLength;
    3480:	0e 94 a4 2d 	call	0x5b48	; 0x5b48 <_Z8get_y0_1v>
    3484:	0f 2e       	mov	r0, r31
    3486:	fe ea       	ldi	r31, 0xAE	; 174
    3488:	ef 2e       	mov	r14, r31
    348a:	f8 e1       	ldi	r31, 0x18	; 24
    348c:	ff 2e       	mov	r15, r31
    348e:	f0 2d       	mov	r31, r0
    3490:	20 91 aa 15 	lds	r18, 0x15AA
    3494:	30 91 ab 15 	lds	r19, 0x15AB
    3498:	40 91 ac 15 	lds	r20, 0x15AC
    349c:	50 91 ad 15 	lds	r21, 0x15AD
    34a0:	0e 94 82 43 	call	0x8704	; 0x8704 <__mulsf3>
    34a4:	20 91 8e 15 	lds	r18, 0x158E
    34a8:	30 91 8f 15 	lds	r19, 0x158F
    34ac:	40 91 90 15 	lds	r20, 0x1590
    34b0:	50 91 91 15 	lds	r21, 0x1591
    34b4:	0e 94 27 41 	call	0x824e	; 0x824e <__divsf3>
    34b8:	f7 01       	movw	r30, r14
    34ba:	60 83       	st	Z, r22
    34bc:	71 83       	std	Z+1, r23	; 0x01
    34be:	82 83       	std	Z+2, r24	; 0x02
    34c0:	93 83       	std	Z+3, r25	; 0x03
	leg1.yRot = rotation * get_x0_1() / stdLength;
    34c2:	0e 94 97 2d 	call	0x5b2e	; 0x5b2e <_Z8get_x0_1v>
    34c6:	80 90 aa 15 	lds	r8, 0x15AA
    34ca:	90 90 ab 15 	lds	r9, 0x15AB
    34ce:	a0 90 ac 15 	lds	r10, 0x15AC
    34d2:	b0 90 ad 15 	lds	r11, 0x15AD
    34d6:	0f 2e       	mov	r0, r31
    34d8:	f2 eb       	ldi	r31, 0xB2	; 178
    34da:	6f 2e       	mov	r6, r31
    34dc:	f8 e1       	ldi	r31, 0x18	; 24
    34de:	7f 2e       	mov	r7, r31
    34e0:	f0 2d       	mov	r31, r0
    34e2:	a5 01       	movw	r20, r10
    34e4:	94 01       	movw	r18, r8
    34e6:	0e 94 82 43 	call	0x8704	; 0x8704 <__mulsf3>
    34ea:	20 91 8e 15 	lds	r18, 0x158E
    34ee:	30 91 8f 15 	lds	r19, 0x158F
    34f2:	40 91 90 15 	lds	r20, 0x1590
    34f6:	50 91 91 15 	lds	r21, 0x1591
    34fa:	0e 94 27 41 	call	0x824e	; 0x824e <__divsf3>
    34fe:	f3 01       	movw	r30, r6
    3500:	60 83       	st	Z, r22
    3502:	71 83       	std	Z+1, r23	; 0x01
    3504:	82 83       	std	Z+2, r24	; 0x02
    3506:	93 83       	std	Z+3, r25	; 0x03

	leg2.xRot = 0;
    3508:	0e e1       	ldi	r16, 0x1E	; 30
    350a:	18 e1       	ldi	r17, 0x18	; 24
    350c:	f8 01       	movw	r30, r16
    350e:	10 82       	st	Z, r1
    3510:	11 82       	std	Z+1, r1	; 0x01
    3512:	12 82       	std	Z+2, r1	; 0x02
    3514:	13 82       	std	Z+3, r1	; 0x03
	leg2.yRot = rotation;
    3516:	e2 e2       	ldi	r30, 0x22	; 34
    3518:	f8 e1       	ldi	r31, 0x18	; 24
    351a:	80 82       	st	Z, r8
    351c:	91 82       	std	Z+1, r9	; 0x01
    351e:	a2 82       	std	Z+2, r10	; 0x02
    3520:	b3 82       	std	Z+3, r11	; 0x03

	leg3.xRot = rotation * (- get_y0_1() / stdLength);
    3522:	0e 94 a4 2d 	call	0x5b48	; 0x5b48 <_Z8get_y0_1v>
    3526:	90 58       	subi	r25, 0x80	; 128
    3528:	20 91 8e 15 	lds	r18, 0x158E
    352c:	30 91 8f 15 	lds	r19, 0x158F
    3530:	40 91 90 15 	lds	r20, 0x1590
    3534:	50 91 91 15 	lds	r21, 0x1591
    3538:	0e 94 27 41 	call	0x824e	; 0x824e <__divsf3>
    353c:	20 91 aa 15 	lds	r18, 0x15AA
    3540:	30 91 ab 15 	lds	r19, 0x15AB
    3544:	40 91 ac 15 	lds	r20, 0x15AC
    3548:	50 91 ad 15 	lds	r21, 0x15AD
    354c:	0e 94 82 43 	call	0x8704	; 0x8704 <__mulsf3>
    3550:	ee e8       	ldi	r30, 0x8E	; 142
    3552:	f7 e1       	ldi	r31, 0x17	; 23
    3554:	60 83       	st	Z, r22
    3556:	71 83       	std	Z+1, r23	; 0x01
    3558:	82 83       	std	Z+2, r24	; 0x02
    355a:	93 83       	std	Z+3, r25	; 0x03
	leg3.yRot = rotation * get_x0_1() / stdLength;
    355c:	0e 94 97 2d 	call	0x5b2e	; 0x5b2e <_Z8get_x0_1v>
    3560:	20 91 aa 15 	lds	r18, 0x15AA
    3564:	30 91 ab 15 	lds	r19, 0x15AB
    3568:	40 91 ac 15 	lds	r20, 0x15AC
    356c:	50 91 ad 15 	lds	r21, 0x15AD
    3570:	0e 94 82 43 	call	0x8704	; 0x8704 <__mulsf3>
    3574:	20 91 8e 15 	lds	r18, 0x158E
    3578:	30 91 8f 15 	lds	r19, 0x158F
    357c:	40 91 90 15 	lds	r20, 0x1590
    3580:	50 91 91 15 	lds	r21, 0x1591
    3584:	0e 94 27 41 	call	0x824e	; 0x824e <__divsf3>
    3588:	e2 e9       	ldi	r30, 0x92	; 146
    358a:	f7 e1       	ldi	r31, 0x17	; 23
    358c:	60 83       	st	Z, r22
    358e:	71 83       	std	Z+1, r23	; 0x01
    3590:	82 83       	std	Z+2, r24	; 0x02
    3592:	93 83       	std	Z+3, r25	; 0x03

	leg4.xRot = rotation * (- get_y0_1() / stdLength);
    3594:	0e 94 a4 2d 	call	0x5b48	; 0x5b48 <_Z8get_y0_1v>
    3598:	90 58       	subi	r25, 0x80	; 128
    359a:	20 91 8e 15 	lds	r18, 0x158E
    359e:	30 91 8f 15 	lds	r19, 0x158F
    35a2:	40 91 90 15 	lds	r20, 0x1590
    35a6:	50 91 91 15 	lds	r21, 0x1591
    35aa:	0e 94 27 41 	call	0x824e	; 0x824e <__divsf3>
    35ae:	20 91 aa 15 	lds	r18, 0x15AA
    35b2:	30 91 ab 15 	lds	r19, 0x15AB
    35b6:	40 91 ac 15 	lds	r20, 0x15AC
    35ba:	50 91 ad 15 	lds	r21, 0x15AD
    35be:	0e 94 82 43 	call	0x8704	; 0x8704 <__mulsf3>
    35c2:	ee ef       	ldi	r30, 0xFE	; 254
    35c4:	f6 e1       	ldi	r31, 0x16	; 22
    35c6:	60 83       	st	Z, r22
    35c8:	71 83       	std	Z+1, r23	; 0x01
    35ca:	82 83       	std	Z+2, r24	; 0x02
    35cc:	93 83       	std	Z+3, r25	; 0x03
	leg4.yRot = rotation * (- get_x0_1() / stdLength);
    35ce:	0e 94 97 2d 	call	0x5b2e	; 0x5b2e <_Z8get_x0_1v>
    35d2:	80 90 aa 15 	lds	r8, 0x15AA
    35d6:	90 90 ab 15 	lds	r9, 0x15AB
    35da:	a0 90 ac 15 	lds	r10, 0x15AC
    35de:	b0 90 ad 15 	lds	r11, 0x15AD
    35e2:	90 58       	subi	r25, 0x80	; 128
    35e4:	20 91 8e 15 	lds	r18, 0x158E
    35e8:	30 91 8f 15 	lds	r19, 0x158F
    35ec:	40 91 90 15 	lds	r20, 0x1590
    35f0:	50 91 91 15 	lds	r21, 0x1591
    35f4:	0e 94 27 41 	call	0x824e	; 0x824e <__divsf3>
    35f8:	a5 01       	movw	r20, r10
    35fa:	94 01       	movw	r18, r8
    35fc:	0e 94 82 43 	call	0x8704	; 0x8704 <__mulsf3>
    3600:	e2 e0       	ldi	r30, 0x02	; 2
    3602:	f7 e1       	ldi	r31, 0x17	; 23
    3604:	60 83       	st	Z, r22
    3606:	71 83       	std	Z+1, r23	; 0x01
    3608:	82 83       	std	Z+2, r24	; 0x02
    360a:	93 83       	std	Z+3, r25	; 0x03

	leg5.xRot = 0;
    360c:	ee e6       	ldi	r30, 0x6E	; 110
    360e:	f6 e1       	ldi	r31, 0x16	; 22
    3610:	10 82       	st	Z, r1
    3612:	11 82       	std	Z+1, r1	; 0x01
    3614:	12 82       	std	Z+2, r1	; 0x02
    3616:	13 82       	std	Z+3, r1	; 0x03
	leg5.yRot = -rotation;
    3618:	b7 fa       	bst	r11, 7
    361a:	b0 94       	com	r11
    361c:	b7 f8       	bld	r11, 7
    361e:	b0 94       	com	r11
    3620:	e2 e7       	ldi	r30, 0x72	; 114
    3622:	f6 e1       	ldi	r31, 0x16	; 22
    3624:	80 82       	st	Z, r8
    3626:	91 82       	std	Z+1, r9	; 0x01
    3628:	a2 82       	std	Z+2, r10	; 0x02
    362a:	b3 82       	std	Z+3, r11	; 0x03

	leg6.xRot = rotation  * get_y0_1() / stdLength;
    362c:	0e 94 a4 2d 	call	0x5b48	; 0x5b48 <_Z8get_y0_1v>
    3630:	20 91 aa 15 	lds	r18, 0x15AA
    3634:	30 91 ab 15 	lds	r19, 0x15AB
    3638:	40 91 ac 15 	lds	r20, 0x15AC
    363c:	50 91 ad 15 	lds	r21, 0x15AD
    3640:	0e 94 82 43 	call	0x8704	; 0x8704 <__mulsf3>
    3644:	20 91 8e 15 	lds	r18, 0x158E
    3648:	30 91 8f 15 	lds	r19, 0x158F
    364c:	40 91 90 15 	lds	r20, 0x1590
    3650:	50 91 91 15 	lds	r21, 0x1591
    3654:	0e 94 27 41 	call	0x824e	; 0x824e <__divsf3>
    3658:	ee ed       	ldi	r30, 0xDE	; 222
    365a:	f5 e1       	ldi	r31, 0x15	; 21
    365c:	60 83       	st	Z, r22
    365e:	71 83       	std	Z+1, r23	; 0x01
    3660:	82 83       	std	Z+2, r24	; 0x02
    3662:	93 83       	std	Z+3, r25	; 0x03
	leg6.yRot = rotation  * (- get_x0_1() / stdLength);
    3664:	0e 94 97 2d 	call	0x5b2e	; 0x5b2e <_Z8get_x0_1v>
    3668:	20 91 aa 15 	lds	r18, 0x15AA
    366c:	30 91 ab 15 	lds	r19, 0x15AB
    3670:	40 91 ac 15 	lds	r20, 0x15AC
    3674:	50 91 ad 15 	lds	r21, 0x15AD
    3678:	2a 87       	std	Y+10, r18	; 0x0a
    367a:	3b 87       	std	Y+11, r19	; 0x0b
    367c:	4c 87       	std	Y+12, r20	; 0x0c
    367e:	5d 87       	std	Y+13, r21	; 0x0d
    3680:	90 58       	subi	r25, 0x80	; 128
    3682:	20 91 8e 15 	lds	r18, 0x158E
    3686:	30 91 8f 15 	lds	r19, 0x158F
    368a:	40 91 90 15 	lds	r20, 0x1590
    368e:	50 91 91 15 	lds	r21, 0x1591
    3692:	0e 94 27 41 	call	0x824e	; 0x824e <__divsf3>
    3696:	2a 85       	ldd	r18, Y+10	; 0x0a
    3698:	3b 85       	ldd	r19, Y+11	; 0x0b
    369a:	4c 85       	ldd	r20, Y+12	; 0x0c
    369c:	5d 85       	ldd	r21, Y+13	; 0x0d
    369e:	0e 94 82 43 	call	0x8704	; 0x8704 <__mulsf3>
    36a2:	6e 87       	std	Y+14, r22	; 0x0e
    36a4:	7f 87       	std	Y+15, r23	; 0x0f
    36a6:	88 8b       	std	Y+16, r24	; 0x10
    36a8:	99 8b       	std	Y+17, r25	; 0x11
    36aa:	47 2f       	mov	r20, r23
    36ac:	38 2f       	mov	r19, r24
    36ae:	29 2f       	mov	r18, r25
    36b0:	86 2f       	mov	r24, r22
    36b2:	94 2f       	mov	r25, r20
    36b4:	a3 2f       	mov	r26, r19
    36b6:	b2 2f       	mov	r27, r18
    36b8:	80 93 e2 15 	sts	0x15E2, r24
    36bc:	90 93 e3 15 	sts	0x15E3, r25
    36c0:	a0 93 e4 15 	sts	0x15E4, r26
    36c4:	b0 93 e5 15 	sts	0x15E5, r27


	//Addera frflyttningarna och stter Step_max till lngsta stegets lngd
	stepMax = powf((xDirection + leg1.xRot),2) + powf((yDirection + leg1.yRot),2);
    36c8:	80 90 a2 15 	lds	r8, 0x15A2
    36cc:	90 90 a3 15 	lds	r9, 0x15A3
    36d0:	a0 90 a4 15 	lds	r10, 0x15A4
    36d4:	b0 90 a5 15 	lds	r11, 0x15A5
    36d8:	f7 01       	movw	r30, r14
    36da:	20 81       	ld	r18, Z
    36dc:	31 81       	ldd	r19, Z+1	; 0x01
    36de:	42 81       	ldd	r20, Z+2	; 0x02
    36e0:	53 81       	ldd	r21, Z+3	; 0x03
    36e2:	c5 01       	movw	r24, r10
    36e4:	b4 01       	movw	r22, r8
    36e6:	0e 94 43 40 	call	0x8086	; 0x8086 <__addsf3>
    36ea:	26 2e       	mov	r2, r22
    36ec:	37 2e       	mov	r3, r23
    36ee:	89 83       	std	Y+1, r24	; 0x01
    36f0:	9d 83       	std	Y+5, r25	; 0x05
    36f2:	c0 90 9e 15 	lds	r12, 0x159E
    36f6:	d0 90 9f 15 	lds	r13, 0x159F
    36fa:	e0 90 a0 15 	lds	r14, 0x15A0
    36fe:	f0 90 a1 15 	lds	r15, 0x15A1
    3702:	f3 01       	movw	r30, r6
    3704:	20 81       	ld	r18, Z
    3706:	31 81       	ldd	r19, Z+1	; 0x01
    3708:	42 81       	ldd	r20, Z+2	; 0x02
    370a:	53 81       	ldd	r21, Z+3	; 0x03
    370c:	c7 01       	movw	r24, r14
    370e:	b6 01       	movw	r22, r12
    3710:	0e 94 43 40 	call	0x8086	; 0x8086 <__addsf3>
    3714:	6e 83       	std	Y+6, r22	; 0x06
    3716:	7a 8b       	std	Y+18, r23	; 0x12
    3718:	8b 8b       	std	Y+19, r24	; 0x13
    371a:	9c 8b       	std	Y+20, r25	; 0x14
	stepTest = powf((xDirection + leg2.xRot),2) + powf((yDirection + leg2.yRot),2);
    371c:	f8 01       	movw	r30, r16
    371e:	20 81       	ld	r18, Z
    3720:	31 81       	ldd	r19, Z+1	; 0x01
    3722:	42 81       	ldd	r20, Z+2	; 0x02
    3724:	53 81       	ldd	r21, Z+3	; 0x03
    3726:	c5 01       	movw	r24, r10
    3728:	b4 01       	movw	r22, r8
    372a:	0e 94 43 40 	call	0x8086	; 0x8086 <__addsf3>
    372e:	46 2e       	mov	r4, r22
    3730:	57 2e       	mov	r5, r23
    3732:	68 2e       	mov	r6, r24
    3734:	79 2e       	mov	r7, r25
    3736:	e2 e2       	ldi	r30, 0x22	; 34
    3738:	f8 e1       	ldi	r31, 0x18	; 24
    373a:	20 81       	ld	r18, Z
    373c:	31 81       	ldd	r19, Z+1	; 0x01
    373e:	42 81       	ldd	r20, Z+2	; 0x02
    3740:	53 81       	ldd	r21, Z+3	; 0x03
    3742:	c7 01       	movw	r24, r14
    3744:	b6 01       	movw	r22, r12
    3746:	0e 94 43 40 	call	0x8086	; 0x8086 <__addsf3>
    374a:	06 2f       	mov	r16, r22
    374c:	17 2f       	mov	r17, r23
    374e:	8e 8b       	std	Y+22, r24	; 0x16
    3750:	9d 8b       	std	Y+21, r25	; 0x15
    3752:	24 2d       	mov	r18, r4
    3754:	35 2d       	mov	r19, r5
    3756:	46 2d       	mov	r20, r6
    3758:	57 2d       	mov	r21, r7
    375a:	64 2d       	mov	r22, r4
    375c:	75 2d       	mov	r23, r5
    375e:	86 2d       	mov	r24, r6
    3760:	97 2d       	mov	r25, r7
    3762:	0e 94 82 43 	call	0x8704	; 0x8704 <__mulsf3>
    3766:	2b 01       	movw	r4, r22
    3768:	3c 01       	movw	r6, r24
    376a:	9e 89       	ldd	r25, Y+22	; 0x16
    376c:	8d 89       	ldd	r24, Y+21	; 0x15
    376e:	20 2f       	mov	r18, r16
    3770:	31 2f       	mov	r19, r17
    3772:	49 2f       	mov	r20, r25
    3774:	58 2f       	mov	r21, r24
    3776:	60 2f       	mov	r22, r16
    3778:	71 2f       	mov	r23, r17
    377a:	89 2f       	mov	r24, r25
    377c:	95 2f       	mov	r25, r21
    377e:	0e 94 82 43 	call	0x8704	; 0x8704 <__mulsf3>
    3782:	9b 01       	movw	r18, r22
    3784:	ac 01       	movw	r20, r24
    3786:	c3 01       	movw	r24, r6
    3788:	b2 01       	movw	r22, r4
    378a:	0e 94 43 40 	call	0x8086	; 0x8086 <__addsf3>
    378e:	2b 01       	movw	r4, r22
    3790:	3c 01       	movw	r6, r24
	leg6.xRot = rotation  * get_y0_1() / stdLength;
	leg6.yRot = rotation  * (- get_x0_1() / stdLength);


	//Addera frflyttningarna och stter Step_max till lngsta stegets lngd
	stepMax = powf((xDirection + leg1.xRot),2) + powf((yDirection + leg1.yRot),2);
    3792:	99 81       	ldd	r25, Y+1	; 0x01
    3794:	8d 81       	ldd	r24, Y+5	; 0x05
    3796:	22 2d       	mov	r18, r2
    3798:	33 2d       	mov	r19, r3
    379a:	49 2f       	mov	r20, r25
    379c:	58 2f       	mov	r21, r24
    379e:	62 2d       	mov	r22, r2
    37a0:	73 2d       	mov	r23, r3
    37a2:	89 2f       	mov	r24, r25
    37a4:	95 2f       	mov	r25, r21
    37a6:	0e 94 82 43 	call	0x8704	; 0x8704 <__mulsf3>
    37aa:	69 83       	std	Y+1, r22	; 0x01
    37ac:	7a 83       	std	Y+2, r23	; 0x02
    37ae:	8b 83       	std	Y+3, r24	; 0x03
    37b0:	9c 83       	std	Y+4, r25	; 0x04
    37b2:	7e 81       	ldd	r23, Y+6	; 0x06
    37b4:	6a 89       	ldd	r22, Y+18	; 0x12
    37b6:	9b 89       	ldd	r25, Y+19	; 0x13
    37b8:	8c 89       	ldd	r24, Y+20	; 0x14
    37ba:	27 2f       	mov	r18, r23
    37bc:	36 2f       	mov	r19, r22
    37be:	49 2f       	mov	r20, r25
    37c0:	58 2f       	mov	r21, r24
    37c2:	67 2f       	mov	r22, r23
    37c4:	73 2f       	mov	r23, r19
    37c6:	89 2f       	mov	r24, r25
    37c8:	95 2f       	mov	r25, r21
    37ca:	0e 94 82 43 	call	0x8704	; 0x8704 <__mulsf3>
    37ce:	9b 01       	movw	r18, r22
    37d0:	ac 01       	movw	r20, r24
    37d2:	69 81       	ldd	r22, Y+1	; 0x01
    37d4:	7a 81       	ldd	r23, Y+2	; 0x02
    37d6:	8b 81       	ldd	r24, Y+3	; 0x03
    37d8:	9c 81       	ldd	r25, Y+4	; 0x04
    37da:	0e 94 43 40 	call	0x8086	; 0x8086 <__addsf3>
	stepTest = powf((xDirection + leg2.xRot),2) + powf((yDirection + leg2.yRot),2);
	stepMax = fmaxf(stepMax, stepTest);
    37de:	a3 01       	movw	r20, r6
    37e0:	92 01       	movw	r18, r4
    37e2:	0e 94 fd 41 	call	0x83fa	; 0x83fa <fmax>
    37e6:	2b 01       	movw	r4, r22
    37e8:	3c 01       	movw	r6, r24

	stepTest = powf((xDirection + leg3.xRot),2) + powf((yDirection + leg3.yRot),2);
    37ea:	ee e8       	ldi	r30, 0x8E	; 142
    37ec:	f7 e1       	ldi	r31, 0x17	; 23
    37ee:	20 81       	ld	r18, Z
    37f0:	31 81       	ldd	r19, Z+1	; 0x01
    37f2:	42 81       	ldd	r20, Z+2	; 0x02
    37f4:	53 81       	ldd	r21, Z+3	; 0x03
    37f6:	c5 01       	movw	r24, r10
    37f8:	b4 01       	movw	r22, r8
    37fa:	0e 94 43 40 	call	0x8086	; 0x8086 <__addsf3>
    37fe:	26 2e       	mov	r2, r22
    3800:	37 2e       	mov	r3, r23
    3802:	08 2f       	mov	r16, r24
    3804:	19 2f       	mov	r17, r25
    3806:	e2 e9       	ldi	r30, 0x92	; 146
    3808:	f7 e1       	ldi	r31, 0x17	; 23
    380a:	20 81       	ld	r18, Z
    380c:	31 81       	ldd	r19, Z+1	; 0x01
    380e:	42 81       	ldd	r20, Z+2	; 0x02
    3810:	53 81       	ldd	r21, Z+3	; 0x03
    3812:	c7 01       	movw	r24, r14
    3814:	b6 01       	movw	r22, r12
    3816:	0e 94 43 40 	call	0x8086	; 0x8086 <__addsf3>
    381a:	6b 8b       	std	Y+19, r22	; 0x13
    381c:	7a 8b       	std	Y+18, r23	; 0x12
    381e:	89 83       	std	Y+1, r24	; 0x01
    3820:	9d 83       	std	Y+5, r25	; 0x05
    3822:	22 2d       	mov	r18, r2
    3824:	33 2d       	mov	r19, r3
    3826:	40 2f       	mov	r20, r16
    3828:	51 2f       	mov	r21, r17
    382a:	62 2d       	mov	r22, r2
    382c:	73 2d       	mov	r23, r3
    382e:	80 2f       	mov	r24, r16
    3830:	91 2f       	mov	r25, r17
    3832:	0e 94 82 43 	call	0x8704	; 0x8704 <__mulsf3>
    3836:	6e 83       	std	Y+6, r22	; 0x06
    3838:	7f 83       	std	Y+7, r23	; 0x07
    383a:	88 87       	std	Y+8, r24	; 0x08
    383c:	99 87       	std	Y+9, r25	; 0x09
    383e:	7b 89       	ldd	r23, Y+19	; 0x13
    3840:	6a 89       	ldd	r22, Y+18	; 0x12
    3842:	99 81       	ldd	r25, Y+1	; 0x01
    3844:	8d 81       	ldd	r24, Y+5	; 0x05
    3846:	27 2f       	mov	r18, r23
    3848:	36 2f       	mov	r19, r22
    384a:	49 2f       	mov	r20, r25
    384c:	58 2f       	mov	r21, r24
    384e:	67 2f       	mov	r22, r23
    3850:	73 2f       	mov	r23, r19
    3852:	84 2f       	mov	r24, r20
    3854:	95 2f       	mov	r25, r21
    3856:	0e 94 82 43 	call	0x8704	; 0x8704 <__mulsf3>
    385a:	9b 01       	movw	r18, r22
    385c:	ac 01       	movw	r20, r24
    385e:	6e 81       	ldd	r22, Y+6	; 0x06
    3860:	7f 81       	ldd	r23, Y+7	; 0x07
    3862:	88 85       	ldd	r24, Y+8	; 0x08
    3864:	99 85       	ldd	r25, Y+9	; 0x09
    3866:	0e 94 43 40 	call	0x8086	; 0x8086 <__addsf3>
    386a:	9b 01       	movw	r18, r22
    386c:	ac 01       	movw	r20, r24
	stepMax = fmaxf(stepMax, stepTest);
    386e:	c3 01       	movw	r24, r6
    3870:	b2 01       	movw	r22, r4
    3872:	0e 94 fd 41 	call	0x83fa	; 0x83fa <fmax>
    3876:	2b 01       	movw	r4, r22
    3878:	3c 01       	movw	r6, r24

	stepTest = powf((xDirection + leg4.xRot),2) + powf((yDirection + leg4.yRot),2);
    387a:	ee ef       	ldi	r30, 0xFE	; 254
    387c:	f6 e1       	ldi	r31, 0x16	; 22
    387e:	20 81       	ld	r18, Z
    3880:	31 81       	ldd	r19, Z+1	; 0x01
    3882:	42 81       	ldd	r20, Z+2	; 0x02
    3884:	53 81       	ldd	r21, Z+3	; 0x03
    3886:	c5 01       	movw	r24, r10
    3888:	b4 01       	movw	r22, r8
    388a:	0e 94 43 40 	call	0x8086	; 0x8086 <__addsf3>
    388e:	26 2e       	mov	r2, r22
    3890:	37 2e       	mov	r3, r23
    3892:	08 2f       	mov	r16, r24
    3894:	19 2f       	mov	r17, r25
    3896:	e2 e0       	ldi	r30, 0x02	; 2
    3898:	f7 e1       	ldi	r31, 0x17	; 23
    389a:	20 81       	ld	r18, Z
    389c:	31 81       	ldd	r19, Z+1	; 0x01
    389e:	42 81       	ldd	r20, Z+2	; 0x02
    38a0:	53 81       	ldd	r21, Z+3	; 0x03
    38a2:	c7 01       	movw	r24, r14
    38a4:	b6 01       	movw	r22, r12
    38a6:	0e 94 43 40 	call	0x8086	; 0x8086 <__addsf3>
    38aa:	6b 8b       	std	Y+19, r22	; 0x13
    38ac:	7a 8b       	std	Y+18, r23	; 0x12
    38ae:	89 83       	std	Y+1, r24	; 0x01
    38b0:	9d 83       	std	Y+5, r25	; 0x05
    38b2:	22 2d       	mov	r18, r2
    38b4:	33 2d       	mov	r19, r3
    38b6:	40 2f       	mov	r20, r16
    38b8:	51 2f       	mov	r21, r17
    38ba:	62 2d       	mov	r22, r2
    38bc:	73 2d       	mov	r23, r3
    38be:	80 2f       	mov	r24, r16
    38c0:	91 2f       	mov	r25, r17
    38c2:	0e 94 82 43 	call	0x8704	; 0x8704 <__mulsf3>
    38c6:	6e 83       	std	Y+6, r22	; 0x06
    38c8:	7f 83       	std	Y+7, r23	; 0x07
    38ca:	88 87       	std	Y+8, r24	; 0x08
    38cc:	99 87       	std	Y+9, r25	; 0x09
    38ce:	7b 89       	ldd	r23, Y+19	; 0x13
    38d0:	6a 89       	ldd	r22, Y+18	; 0x12
    38d2:	99 81       	ldd	r25, Y+1	; 0x01
    38d4:	8d 81       	ldd	r24, Y+5	; 0x05
    38d6:	27 2f       	mov	r18, r23
    38d8:	36 2f       	mov	r19, r22
    38da:	49 2f       	mov	r20, r25
    38dc:	58 2f       	mov	r21, r24
    38de:	67 2f       	mov	r22, r23
    38e0:	73 2f       	mov	r23, r19
    38e2:	84 2f       	mov	r24, r20
    38e4:	95 2f       	mov	r25, r21
    38e6:	0e 94 82 43 	call	0x8704	; 0x8704 <__mulsf3>
    38ea:	9b 01       	movw	r18, r22
    38ec:	ac 01       	movw	r20, r24
    38ee:	6e 81       	ldd	r22, Y+6	; 0x06
    38f0:	7f 81       	ldd	r23, Y+7	; 0x07
    38f2:	88 85       	ldd	r24, Y+8	; 0x08
    38f4:	99 85       	ldd	r25, Y+9	; 0x09
    38f6:	0e 94 43 40 	call	0x8086	; 0x8086 <__addsf3>
    38fa:	9b 01       	movw	r18, r22
    38fc:	ac 01       	movw	r20, r24
	stepMax = fmaxf(stepMax, stepTest);
    38fe:	c3 01       	movw	r24, r6
    3900:	b2 01       	movw	r22, r4
    3902:	0e 94 fd 41 	call	0x83fa	; 0x83fa <fmax>
    3906:	2b 01       	movw	r4, r22
    3908:	3c 01       	movw	r6, r24

	stepTest = powf((xDirection + leg5.xRot),2) + powf((yDirection + leg5.yRot),2);
    390a:	ee e6       	ldi	r30, 0x6E	; 110
    390c:	f6 e1       	ldi	r31, 0x16	; 22
    390e:	20 81       	ld	r18, Z
    3910:	31 81       	ldd	r19, Z+1	; 0x01
    3912:	42 81       	ldd	r20, Z+2	; 0x02
    3914:	53 81       	ldd	r21, Z+3	; 0x03
    3916:	c5 01       	movw	r24, r10
    3918:	b4 01       	movw	r22, r8
    391a:	0e 94 43 40 	call	0x8086	; 0x8086 <__addsf3>
    391e:	26 2e       	mov	r2, r22
    3920:	37 2e       	mov	r3, r23
    3922:	08 2f       	mov	r16, r24
    3924:	19 2f       	mov	r17, r25
    3926:	e2 e7       	ldi	r30, 0x72	; 114
    3928:	f6 e1       	ldi	r31, 0x16	; 22
    392a:	20 81       	ld	r18, Z
    392c:	31 81       	ldd	r19, Z+1	; 0x01
    392e:	42 81       	ldd	r20, Z+2	; 0x02
    3930:	53 81       	ldd	r21, Z+3	; 0x03
    3932:	c7 01       	movw	r24, r14
    3934:	b6 01       	movw	r22, r12
    3936:	0e 94 43 40 	call	0x8086	; 0x8086 <__addsf3>
    393a:	6b 8b       	std	Y+19, r22	; 0x13
    393c:	7a 8b       	std	Y+18, r23	; 0x12
    393e:	89 83       	std	Y+1, r24	; 0x01
    3940:	9d 83       	std	Y+5, r25	; 0x05
    3942:	22 2d       	mov	r18, r2
    3944:	33 2d       	mov	r19, r3
    3946:	40 2f       	mov	r20, r16
    3948:	51 2f       	mov	r21, r17
    394a:	62 2d       	mov	r22, r2
    394c:	73 2d       	mov	r23, r3
    394e:	80 2f       	mov	r24, r16
    3950:	91 2f       	mov	r25, r17
    3952:	0e 94 82 43 	call	0x8704	; 0x8704 <__mulsf3>
    3956:	6e 83       	std	Y+6, r22	; 0x06
    3958:	7f 83       	std	Y+7, r23	; 0x07
    395a:	88 87       	std	Y+8, r24	; 0x08
    395c:	99 87       	std	Y+9, r25	; 0x09
    395e:	7b 89       	ldd	r23, Y+19	; 0x13
    3960:	6a 89       	ldd	r22, Y+18	; 0x12
    3962:	99 81       	ldd	r25, Y+1	; 0x01
    3964:	8d 81       	ldd	r24, Y+5	; 0x05
    3966:	27 2f       	mov	r18, r23
    3968:	36 2f       	mov	r19, r22
    396a:	49 2f       	mov	r20, r25
    396c:	58 2f       	mov	r21, r24
    396e:	67 2f       	mov	r22, r23
    3970:	73 2f       	mov	r23, r19
    3972:	84 2f       	mov	r24, r20
    3974:	95 2f       	mov	r25, r21
    3976:	0e 94 82 43 	call	0x8704	; 0x8704 <__mulsf3>
    397a:	9b 01       	movw	r18, r22
    397c:	ac 01       	movw	r20, r24
    397e:	6e 81       	ldd	r22, Y+6	; 0x06
    3980:	7f 81       	ldd	r23, Y+7	; 0x07
    3982:	88 85       	ldd	r24, Y+8	; 0x08
    3984:	99 85       	ldd	r25, Y+9	; 0x09
    3986:	0e 94 43 40 	call	0x8086	; 0x8086 <__addsf3>
    398a:	9b 01       	movw	r18, r22
    398c:	ac 01       	movw	r20, r24
	stepMax = fmaxf(stepMax, stepTest);
    398e:	c3 01       	movw	r24, r6
    3990:	b2 01       	movw	r22, r4
    3992:	0e 94 fd 41 	call	0x83fa	; 0x83fa <fmax>
    3996:	2b 01       	movw	r4, r22
    3998:	3c 01       	movw	r6, r24

	stepTest = powf((xDirection + leg6.xRot),2) + powf((yDirection + leg6.yRot),2);
    399a:	ee ed       	ldi	r30, 0xDE	; 222
    399c:	f5 e1       	ldi	r31, 0x15	; 21
    399e:	20 81       	ld	r18, Z
    39a0:	31 81       	ldd	r19, Z+1	; 0x01
    39a2:	42 81       	ldd	r20, Z+2	; 0x02
    39a4:	53 81       	ldd	r21, Z+3	; 0x03
    39a6:	c5 01       	movw	r24, r10
    39a8:	b4 01       	movw	r22, r8
    39aa:	0e 94 43 40 	call	0x8086	; 0x8086 <__addsf3>
    39ae:	06 2f       	mov	r16, r22
    39b0:	17 2f       	mov	r17, r23
    39b2:	a8 2e       	mov	r10, r24
    39b4:	b9 2e       	mov	r11, r25
    39b6:	a7 01       	movw	r20, r14
    39b8:	96 01       	movw	r18, r12
    39ba:	be 85       	ldd	r27, Y+14	; 0x0e
    39bc:	af 85       	ldd	r26, Y+15	; 0x0f
    39be:	f8 88       	ldd	r15, Y+16	; 0x10
    39c0:	e9 88       	ldd	r14, Y+17	; 0x11
    39c2:	6b 2f       	mov	r22, r27
    39c4:	7a 2f       	mov	r23, r26
    39c6:	8f 2d       	mov	r24, r15
    39c8:	9e 2d       	mov	r25, r14
    39ca:	0e 94 43 40 	call	0x8086	; 0x8086 <__addsf3>
    39ce:	26 2f       	mov	r18, r22
    39d0:	37 2f       	mov	r19, r23
    39d2:	48 2f       	mov	r20, r24
    39d4:	59 2f       	mov	r21, r25
    39d6:	0e 94 82 43 	call	0x8704	; 0x8704 <__mulsf3>
    39da:	6b 01       	movw	r12, r22
    39dc:	7c 01       	movw	r14, r24
    39de:	20 2f       	mov	r18, r16
    39e0:	31 2f       	mov	r19, r17
    39e2:	4a 2d       	mov	r20, r10
    39e4:	5b 2d       	mov	r21, r11
    39e6:	60 2f       	mov	r22, r16
    39e8:	71 2f       	mov	r23, r17
    39ea:	8a 2d       	mov	r24, r10
    39ec:	9b 2d       	mov	r25, r11
    39ee:	0e 94 82 43 	call	0x8704	; 0x8704 <__mulsf3>
    39f2:	9b 01       	movw	r18, r22
    39f4:	ac 01       	movw	r20, r24
    39f6:	c7 01       	movw	r24, r14
    39f8:	b6 01       	movw	r22, r12
    39fa:	0e 94 43 40 	call	0x8086	; 0x8086 <__addsf3>
    39fe:	26 2f       	mov	r18, r22
    3a00:	37 2f       	mov	r19, r23
    3a02:	46 2f       	mov	r20, r22
    3a04:	57 2f       	mov	r21, r23
    3a06:	68 2f       	mov	r22, r24
    3a08:	79 2f       	mov	r23, r25
    3a0a:	40 93 96 15 	sts	0x1596, r20
    3a0e:	50 93 97 15 	sts	0x1597, r21
    3a12:	60 93 98 15 	sts	0x1598, r22
    3a16:	70 93 99 15 	sts	0x1599, r23
	stepMax = fmaxf(stepMax, stepTest);
    3a1a:	48 2f       	mov	r20, r24
    3a1c:	59 2f       	mov	r21, r25
    3a1e:	c3 01       	movw	r24, r6
    3a20:	b2 01       	movw	r22, r4
    3a22:	0e 94 fd 41 	call	0x83fa	; 0x83fa <fmax>
	
	stepMax =sqrtf(stepMax);
    3a26:	0e 94 ef 43 	call	0x87de	; 0x87de <sqrt>
    3a2a:	60 93 9a 15 	sts	0x159A, r22
    3a2e:	70 93 9b 15 	sts	0x159B, r23
    3a32:	80 93 9c 15 	sts	0x159C, r24
    3a36:	90 93 9d 15 	sts	0x159D, r25


	//Stegskalning fr att inte alltid ta max lngd p steg;
	stepScaling = fmaxf(speedf/100, fabsf(rotation));
    3a3a:	ca 84       	ldd	r12, Y+10	; 0x0a
    3a3c:	db 84       	ldd	r13, Y+11	; 0x0b
    3a3e:	ec 84       	ldd	r14, Y+12	; 0x0c
    3a40:	fd 84       	ldd	r15, Y+13	; 0x0d
    3a42:	e8 94       	clt
    3a44:	f7 f8       	bld	r15, 7
    3a46:	20 e0       	ldi	r18, 0x00	; 0
    3a48:	30 e0       	ldi	r19, 0x00	; 0
    3a4a:	48 ec       	ldi	r20, 0xC8	; 200
    3a4c:	52 e4       	ldi	r21, 0x42	; 66
    3a4e:	60 91 a6 15 	lds	r22, 0x15A6
    3a52:	70 91 a7 15 	lds	r23, 0x15A7
    3a56:	80 91 a8 15 	lds	r24, 0x15A8
    3a5a:	90 91 a9 15 	lds	r25, 0x15A9
    3a5e:	0e 94 27 41 	call	0x824e	; 0x824e <__divsf3>
    3a62:	a7 01       	movw	r20, r14
    3a64:	96 01       	movw	r18, r12
    3a66:	0e 94 fd 41 	call	0x83fa	; 0x83fa <fmax>
    3a6a:	60 93 92 15 	sts	0x1592, r22
    3a6e:	70 93 93 15 	sts	0x1593, r23
    3a72:	80 93 94 15 	sts	0x1594, r24
    3a76:	90 93 95 15 	sts	0x1595, r25


	//Uppdatera vinklar fr nya steget


	step_part1_calculator(&leg1);
    3a7a:	86 ea       	ldi	r24, 0xA6	; 166
    3a7c:	98 e1       	ldi	r25, 0x18	; 24
    3a7e:	0e 94 2e 08 	call	0x105c	; 0x105c <_Z21step_part1_calculatorP7LegData>
	leg1.newPosx = basis_change_leg1x(newPosxWB,newPosyWB);
    3a82:	20 91 36 19 	lds	r18, 0x1936
    3a86:	30 91 37 19 	lds	r19, 0x1937
    3a8a:	40 91 38 19 	lds	r20, 0x1938
    3a8e:	50 91 39 19 	lds	r21, 0x1939
    3a92:	60 91 3a 19 	lds	r22, 0x193A
    3a96:	70 91 3b 19 	lds	r23, 0x193B
    3a9a:	80 91 3c 19 	lds	r24, 0x193C
    3a9e:	90 91 3d 19 	lds	r25, 0x193D
    3aa2:	0e 94 f2 2e 	call	0x5de4	; 0x5de4 <_Z18basis_change_leg1xff>
    3aa6:	60 93 ba 18 	sts	0x18BA, r22
    3aaa:	70 93 bb 18 	sts	0x18BB, r23
    3aae:	80 93 bc 18 	sts	0x18BC, r24
    3ab2:	90 93 bd 18 	sts	0x18BD, r25
	leg1.newPosy = basis_change_leg1y(newPosxWB,newPosyWB);
    3ab6:	20 91 36 19 	lds	r18, 0x1936
    3aba:	30 91 37 19 	lds	r19, 0x1937
    3abe:	40 91 38 19 	lds	r20, 0x1938
    3ac2:	50 91 39 19 	lds	r21, 0x1939
    3ac6:	60 91 3a 19 	lds	r22, 0x193A
    3aca:	70 91 3b 19 	lds	r23, 0x193B
    3ace:	80 91 3c 19 	lds	r24, 0x193C
    3ad2:	90 91 3d 19 	lds	r25, 0x193D
    3ad6:	0e 94 3b 2f 	call	0x5e76	; 0x5e76 <_Z18basis_change_leg1yff>
    3ada:	60 93 be 18 	sts	0x18BE, r22
    3ade:	70 93 bf 18 	sts	0x18BF, r23
    3ae2:	80 93 c0 18 	sts	0x18C0, r24
    3ae6:	90 93 c1 18 	sts	0x18C1, r25
	step_part2_calculator(&leg1);
    3aea:	86 ea       	ldi	r24, 0xA6	; 166
    3aec:	98 e1       	ldi	r25, 0x18	; 24
    3aee:	0e 94 ae 08 	call	0x115c	; 0x115c <_Z21step_part2_calculatorP7LegData>
	
	step_part1_calculator(&leg2);
    3af2:	86 e1       	ldi	r24, 0x16	; 22
    3af4:	98 e1       	ldi	r25, 0x18	; 24
    3af6:	0e 94 2e 08 	call	0x105c	; 0x105c <_Z21step_part1_calculatorP7LegData>
	leg2.newPosx = basis_change_leg2x(newPosxWB);
    3afa:	60 91 3a 19 	lds	r22, 0x193A
    3afe:	70 91 3b 19 	lds	r23, 0x193B
    3b02:	80 91 3c 19 	lds	r24, 0x193C
    3b06:	90 91 3d 19 	lds	r25, 0x193D
    3b0a:	0e 94 84 2f 	call	0x5f08	; 0x5f08 <_Z18basis_change_leg2xf>
    3b0e:	60 93 2a 18 	sts	0x182A, r22
    3b12:	70 93 2b 18 	sts	0x182B, r23
    3b16:	80 93 2c 18 	sts	0x182C, r24
    3b1a:	90 93 2d 18 	sts	0x182D, r25
	leg2.newPosy = basis_change_leg2y(newPosyWB);
    3b1e:	60 91 36 19 	lds	r22, 0x1936
    3b22:	70 91 37 19 	lds	r23, 0x1937
    3b26:	80 91 38 19 	lds	r24, 0x1938
    3b2a:	90 91 39 19 	lds	r25, 0x1939
    3b2e:	0e 94 9c 2f 	call	0x5f38	; 0x5f38 <_Z18basis_change_leg2yf>
    3b32:	60 93 2e 18 	sts	0x182E, r22
    3b36:	70 93 2f 18 	sts	0x182F, r23
    3b3a:	80 93 30 18 	sts	0x1830, r24
    3b3e:	90 93 31 18 	sts	0x1831, r25
	step_part2_calculator(&leg2);
    3b42:	86 e1       	ldi	r24, 0x16	; 22
    3b44:	98 e1       	ldi	r25, 0x18	; 24
    3b46:	0e 94 ae 08 	call	0x115c	; 0x115c <_Z21step_part2_calculatorP7LegData>
		
	step_part1_calculator(&leg3);
    3b4a:	86 e8       	ldi	r24, 0x86	; 134
    3b4c:	97 e1       	ldi	r25, 0x17	; 23
    3b4e:	0e 94 2e 08 	call	0x105c	; 0x105c <_Z21step_part1_calculatorP7LegData>
	leg3.newPosx = basis_change_leg3x(newPosxWB,newPosyWB);
    3b52:	20 91 36 19 	lds	r18, 0x1936
    3b56:	30 91 37 19 	lds	r19, 0x1937
    3b5a:	40 91 38 19 	lds	r20, 0x1938
    3b5e:	50 91 39 19 	lds	r21, 0x1939
    3b62:	60 91 3a 19 	lds	r22, 0x193A
    3b66:	70 91 3b 19 	lds	r23, 0x193B
    3b6a:	80 91 3c 19 	lds	r24, 0x193C
    3b6e:	90 91 3d 19 	lds	r25, 0x193D
    3b72:	0e 94 ae 2f 	call	0x5f5c	; 0x5f5c <_Z18basis_change_leg3xff>
    3b76:	60 93 9a 17 	sts	0x179A, r22
    3b7a:	70 93 9b 17 	sts	0x179B, r23
    3b7e:	80 93 9c 17 	sts	0x179C, r24
    3b82:	90 93 9d 17 	sts	0x179D, r25
	leg3.newPosy = basis_change_leg3y(newPosxWB,newPosyWB);
    3b86:	20 91 36 19 	lds	r18, 0x1936
    3b8a:	30 91 37 19 	lds	r19, 0x1937
    3b8e:	40 91 38 19 	lds	r20, 0x1938
    3b92:	50 91 39 19 	lds	r21, 0x1939
    3b96:	60 91 3a 19 	lds	r22, 0x193A
    3b9a:	70 91 3b 19 	lds	r23, 0x193B
    3b9e:	80 91 3c 19 	lds	r24, 0x193C
    3ba2:	90 91 3d 19 	lds	r25, 0x193D
    3ba6:	0e 94 f7 2f 	call	0x5fee	; 0x5fee <_Z18basis_change_leg3yff>
    3baa:	60 93 9e 17 	sts	0x179E, r22
    3bae:	70 93 9f 17 	sts	0x179F, r23
    3bb2:	80 93 a0 17 	sts	0x17A0, r24
    3bb6:	90 93 a1 17 	sts	0x17A1, r25
	step_part2_calculator(&leg3);
    3bba:	86 e8       	ldi	r24, 0x86	; 134
    3bbc:	97 e1       	ldi	r25, 0x17	; 23
    3bbe:	0e 94 ae 08 	call	0x115c	; 0x115c <_Z21step_part2_calculatorP7LegData>
			
	step_part1_calculator(&leg4);
    3bc2:	86 ef       	ldi	r24, 0xF6	; 246
    3bc4:	96 e1       	ldi	r25, 0x16	; 22
    3bc6:	0e 94 2e 08 	call	0x105c	; 0x105c <_Z21step_part1_calculatorP7LegData>
	leg4.newPosx = basis_change_leg4x(newPosxWB,newPosyWB);
    3bca:	20 91 36 19 	lds	r18, 0x1936
    3bce:	30 91 37 19 	lds	r19, 0x1937
    3bd2:	40 91 38 19 	lds	r20, 0x1938
    3bd6:	50 91 39 19 	lds	r21, 0x1939
    3bda:	60 91 3a 19 	lds	r22, 0x193A
    3bde:	70 91 3b 19 	lds	r23, 0x193B
    3be2:	80 91 3c 19 	lds	r24, 0x193C
    3be6:	90 91 3d 19 	lds	r25, 0x193D
    3bea:	0e 94 40 30 	call	0x6080	; 0x6080 <_Z18basis_change_leg4xff>
    3bee:	60 93 0a 17 	sts	0x170A, r22
    3bf2:	70 93 0b 17 	sts	0x170B, r23
    3bf6:	80 93 0c 17 	sts	0x170C, r24
    3bfa:	90 93 0d 17 	sts	0x170D, r25
	leg4.newPosy = basis_change_leg4y(newPosxWB,newPosyWB);
    3bfe:	20 91 36 19 	lds	r18, 0x1936
    3c02:	30 91 37 19 	lds	r19, 0x1937
    3c06:	40 91 38 19 	lds	r20, 0x1938
    3c0a:	50 91 39 19 	lds	r21, 0x1939
    3c0e:	60 91 3a 19 	lds	r22, 0x193A
    3c12:	70 91 3b 19 	lds	r23, 0x193B
    3c16:	80 91 3c 19 	lds	r24, 0x193C
    3c1a:	90 91 3d 19 	lds	r25, 0x193D
    3c1e:	0e 94 89 30 	call	0x6112	; 0x6112 <_Z18basis_change_leg4yff>
    3c22:	60 93 0e 17 	sts	0x170E, r22
    3c26:	70 93 0f 17 	sts	0x170F, r23
    3c2a:	80 93 10 17 	sts	0x1710, r24
    3c2e:	90 93 11 17 	sts	0x1711, r25
	step_part2_calculator(&leg4);
    3c32:	86 ef       	ldi	r24, 0xF6	; 246
    3c34:	96 e1       	ldi	r25, 0x16	; 22
    3c36:	0e 94 ae 08 	call	0x115c	; 0x115c <_Z21step_part2_calculatorP7LegData>
				
	step_part1_calculator(&leg5);
    3c3a:	86 e6       	ldi	r24, 0x66	; 102
    3c3c:	96 e1       	ldi	r25, 0x16	; 22
    3c3e:	0e 94 2e 08 	call	0x105c	; 0x105c <_Z21step_part1_calculatorP7LegData>
	leg5.newPosx = basis_change_leg5x(newPosxWB);
    3c42:	60 91 3a 19 	lds	r22, 0x193A
    3c46:	70 91 3b 19 	lds	r23, 0x193B
    3c4a:	80 91 3c 19 	lds	r24, 0x193C
    3c4e:	90 91 3d 19 	lds	r25, 0x193D
    3c52:	0e 94 d2 30 	call	0x61a4	; 0x61a4 <_Z18basis_change_leg5xf>
    3c56:	60 93 7a 16 	sts	0x167A, r22
    3c5a:	70 93 7b 16 	sts	0x167B, r23
    3c5e:	80 93 7c 16 	sts	0x167C, r24
    3c62:	90 93 7d 16 	sts	0x167D, r25
	leg5.newPosy = basis_change_leg5y(newPosyWB);
    3c66:	60 91 36 19 	lds	r22, 0x1936
    3c6a:	70 91 37 19 	lds	r23, 0x1937
    3c6e:	80 91 38 19 	lds	r24, 0x1938
    3c72:	90 91 39 19 	lds	r25, 0x1939
    3c76:	0e 94 e2 30 	call	0x61c4	; 0x61c4 <_Z18basis_change_leg5yf>
    3c7a:	60 93 7e 16 	sts	0x167E, r22
    3c7e:	70 93 7f 16 	sts	0x167F, r23
    3c82:	80 93 80 16 	sts	0x1680, r24
    3c86:	90 93 81 16 	sts	0x1681, r25
	step_part2_calculator(&leg5);
    3c8a:	86 e6       	ldi	r24, 0x66	; 102
    3c8c:	96 e1       	ldi	r25, 0x16	; 22
    3c8e:	0e 94 ae 08 	call	0x115c	; 0x115c <_Z21step_part2_calculatorP7LegData>
					
	step_part1_calculator(&leg6);
    3c92:	86 ed       	ldi	r24, 0xD6	; 214
    3c94:	95 e1       	ldi	r25, 0x15	; 21
    3c96:	0e 94 2e 08 	call	0x105c	; 0x105c <_Z21step_part1_calculatorP7LegData>
	leg6.newPosx = basis_change_leg6x(newPosxWB,newPosyWB);
    3c9a:	20 91 36 19 	lds	r18, 0x1936
    3c9e:	30 91 37 19 	lds	r19, 0x1937
    3ca2:	40 91 38 19 	lds	r20, 0x1938
    3ca6:	50 91 39 19 	lds	r21, 0x1939
    3caa:	60 91 3a 19 	lds	r22, 0x193A
    3cae:	70 91 3b 19 	lds	r23, 0x193B
    3cb2:	80 91 3c 19 	lds	r24, 0x193C
    3cb6:	90 91 3d 19 	lds	r25, 0x193D
    3cba:	0e 94 ec 30 	call	0x61d8	; 0x61d8 <_Z18basis_change_leg6xff>
    3cbe:	60 93 ea 15 	sts	0x15EA, r22
    3cc2:	70 93 eb 15 	sts	0x15EB, r23
    3cc6:	80 93 ec 15 	sts	0x15EC, r24
    3cca:	90 93 ed 15 	sts	0x15ED, r25
	leg6.newPosy = basis_change_leg6y(newPosxWB,newPosyWB);
    3cce:	20 91 36 19 	lds	r18, 0x1936
    3cd2:	30 91 37 19 	lds	r19, 0x1937
    3cd6:	40 91 38 19 	lds	r20, 0x1938
    3cda:	50 91 39 19 	lds	r21, 0x1939
    3cde:	60 91 3a 19 	lds	r22, 0x193A
    3ce2:	70 91 3b 19 	lds	r23, 0x193B
    3ce6:	80 91 3c 19 	lds	r24, 0x193C
    3cea:	90 91 3d 19 	lds	r25, 0x193D
    3cee:	0e 94 35 31 	call	0x626a	; 0x626a <_Z18basis_change_leg6yff>
    3cf2:	60 93 ee 15 	sts	0x15EE, r22
    3cf6:	70 93 ef 15 	sts	0x15EF, r23
    3cfa:	80 93 f0 15 	sts	0x15F0, r24
    3cfe:	90 93 f1 15 	sts	0x15F1, r25
	step_part2_calculator(&leg6);
    3d02:	86 ed       	ldi	r24, 0xD6	; 214
    3d04:	95 e1       	ldi	r25, 0x15	; 21
    3d06:	0e 94 ae 08 	call	0x115c	; 0x115c <_Z21step_part2_calculatorP7LegData>

	leg_motion();
    3d0a:	0e 94 d0 12 	call	0x25a0	; 0x25a0 <_Z10leg_motionv>
	}
}
    3d0e:	66 96       	adiw	r28, 0x16	; 22
    3d10:	0f b6       	in	r0, 0x3f	; 63
    3d12:	f8 94       	cli
    3d14:	de bf       	out	0x3e, r29	; 62
    3d16:	0f be       	out	0x3f, r0	; 63
    3d18:	cd bf       	out	0x3d, r28	; 61
    3d1a:	df 91       	pop	r29
    3d1c:	cf 91       	pop	r28
    3d1e:	1f 91       	pop	r17
    3d20:	0f 91       	pop	r16
    3d22:	ff 90       	pop	r15
    3d24:	ef 90       	pop	r14
    3d26:	df 90       	pop	r13
    3d28:	cf 90       	pop	r12
    3d2a:	bf 90       	pop	r11
    3d2c:	af 90       	pop	r10
    3d2e:	9f 90       	pop	r9
    3d30:	8f 90       	pop	r8
    3d32:	7f 90       	pop	r7
    3d34:	6f 90       	pop	r6
    3d36:	5f 90       	pop	r5
    3d38:	4f 90       	pop	r4
    3d3a:	3f 90       	pop	r3
    3d3c:	2f 90       	pop	r2
    3d3e:	08 95       	ret

00003d40 <_Z12turn_degreesja>:
	*/
/*
}*/

void turn_degrees(uint16_t degrees, int8_t dir)
{
    3d40:	2f 92       	push	r2
    3d42:	3f 92       	push	r3
    3d44:	4f 92       	push	r4
    3d46:	5f 92       	push	r5
    3d48:	6f 92       	push	r6
    3d4a:	7f 92       	push	r7
    3d4c:	8f 92       	push	r8
    3d4e:	9f 92       	push	r9
    3d50:	af 92       	push	r10
    3d52:	bf 92       	push	r11
    3d54:	cf 92       	push	r12
    3d56:	df 92       	push	r13
    3d58:	ef 92       	push	r14
    3d5a:	ff 92       	push	r15
    3d5c:	0f 93       	push	r16
    3d5e:	1f 93       	push	r17
    3d60:	cf 93       	push	r28
    3d62:	df 93       	push	r29
    3d64:	cd b7       	in	r28, 0x3d	; 61
    3d66:	de b7       	in	r29, 0x3e	; 62
    3d68:	27 97       	sbiw	r28, 0x07	; 7
    3d6a:	0f b6       	in	r0, 0x3f	; 63
    3d6c:	f8 94       	cli
    3d6e:	de bf       	out	0x3e, r29	; 62
    3d70:	0f be       	out	0x3f, r0	; 63
    3d72:	cd bf       	out	0x3d, r28	; 61
    3d74:	26 2e       	mov	r2, r22
	float radians = degrees * M_PI/180;
    3d76:	bc 01       	movw	r22, r24
    3d78:	80 e0       	ldi	r24, 0x00	; 0
    3d7a:	90 e0       	ldi	r25, 0x00	; 0
    3d7c:	0e 94 c0 41 	call	0x8380	; 0x8380 <__floatunsisf>
    3d80:	2b ed       	ldi	r18, 0xDB	; 219
    3d82:	3f e0       	ldi	r19, 0x0F	; 15
    3d84:	49 e4       	ldi	r20, 0x49	; 73
    3d86:	50 e4       	ldi	r21, 0x40	; 64
    3d88:	0e 94 82 43 	call	0x8704	; 0x8704 <__mulsf3>
    3d8c:	20 e0       	ldi	r18, 0x00	; 0
    3d8e:	30 e0       	ldi	r19, 0x00	; 0
    3d90:	44 e3       	ldi	r20, 0x34	; 52
    3d92:	53 e4       	ldi	r21, 0x43	; 67
    3d94:	0e 94 27 41 	call	0x824e	; 0x824e <__divsf3>
    3d98:	46 2f       	mov	r20, r22
    3d9a:	57 2f       	mov	r21, r23
    3d9c:	68 2f       	mov	r22, r24
    3d9e:	79 2f       	mov	r23, r25
    3da0:	4a 83       	std	Y+2, r20	; 0x02
    3da2:	5b 83       	std	Y+3, r21	; 0x03
    3da4:	6c 83       	std	Y+4, r22	; 0x04
    3da6:	7d 83       	std	Y+5, r23	; 0x05
	float tolerance = 4 * M_PI/180;
	wait(10);
    3da8:	8a e0       	ldi	r24, 0x0A	; 10
    3daa:	90 e0       	ldi	r25, 0x00	; 0
    3dac:	0e 94 47 05 	call	0xa8e	; 0xa8e <_Z4waitj>
	float startAngle = MPU_get_y();
    3db0:	0e 94 fa 39 	call	0x73f4	; 0x73f4 <_Z9MPU_get_yv>
    3db4:	36 2e       	mov	r3, r22
    3db6:	47 2e       	mov	r4, r23
    3db8:	58 2e       	mov	r5, r24
    3dba:	99 83       	std	Y+1, r25	; 0x01
	float newAngle;
	float angleLeft, move;
	USART_SendValue(startAngle*180/M_PI);
    3dbc:	20 e0       	ldi	r18, 0x00	; 0
    3dbe:	30 e0       	ldi	r19, 0x00	; 0
    3dc0:	44 e3       	ldi	r20, 0x34	; 52
    3dc2:	53 e4       	ldi	r21, 0x43	; 67
    3dc4:	0e 94 82 43 	call	0x8704	; 0x8704 <__mulsf3>
    3dc8:	2b ed       	ldi	r18, 0xDB	; 219
    3dca:	3f e0       	ldi	r19, 0x0F	; 15
    3dcc:	49 e4       	ldi	r20, 0x49	; 73
    3dce:	50 e4       	ldi	r21, 0x40	; 64
    3dd0:	0e 94 27 41 	call	0x824e	; 0x824e <__divsf3>
    3dd4:	0e 94 ff 3d 	call	0x7bfe	; 0x7bfe <_Z15USART_SendValuef>
	float diff, realDiff;
	
	do
	{
		reset_counter_1();
    3dd8:	0e 94 f6 04 	call	0x9ec	; 0x9ec <_Z15reset_counter_1v>
		wait(10);
    3ddc:	8a e0       	ldi	r24, 0x0A	; 10
    3dde:	90 e0       	ldi	r25, 0x00	; 0
    3de0:	0e 94 47 05 	call	0xa8e	; 0xa8e <_Z4waitj>
		newAngle = MPU_get_y();
    3de4:	0e 94 fa 39 	call	0x73f4	; 0x73f4 <_Z9MPU_get_yv>
    3de8:	06 2f       	mov	r16, r22
    3dea:	17 2f       	mov	r17, r23
    3dec:	68 2e       	mov	r6, r24
    3dee:	79 2e       	mov	r7, r25
		
		diff = newAngle - startAngle;
    3df0:	89 81       	ldd	r24, Y+1	; 0x01
    3df2:	23 2d       	mov	r18, r3
    3df4:	34 2d       	mov	r19, r4
    3df6:	45 2d       	mov	r20, r5
    3df8:	58 2f       	mov	r21, r24
    3dfa:	60 2f       	mov	r22, r16
    3dfc:	71 2f       	mov	r23, r17
    3dfe:	86 2d       	mov	r24, r6
    3e00:	97 2d       	mov	r25, r7
    3e02:	0e 94 42 40 	call	0x8084	; 0x8084 <__subsf3>
    3e06:	c6 2e       	mov	r12, r22
    3e08:	d7 2e       	mov	r13, r23
    3e0a:	e8 2e       	mov	r14, r24
    3e0c:	f9 2e       	mov	r15, r25
		
		if(fabs(diff) <= M_PI)
    3e0e:	46 01       	movw	r8, r12
    3e10:	57 01       	movw	r10, r14
    3e12:	e8 94       	clt
    3e14:	b7 f8       	bld	r11, 7
    3e16:	2b ed       	ldi	r18, 0xDB	; 219
    3e18:	3f e0       	ldi	r19, 0x0F	; 15
    3e1a:	49 e4       	ldi	r20, 0x49	; 73
    3e1c:	50 e4       	ldi	r21, 0x40	; 64
    3e1e:	c5 01       	movw	r24, r10
    3e20:	b4 01       	movw	r22, r8
    3e22:	0e 94 20 41 	call	0x8240	; 0x8240 <__cmpsf2>
    3e26:	18 16       	cp	r1, r24
    3e28:	cc f5       	brge	.+114    	; 0x3e9c <_Z12turn_degreesja+0x15c>
		{
			realDiff = fabs(diff);
		} else if(diff < 0) {
    3e2a:	20 e0       	ldi	r18, 0x00	; 0
    3e2c:	30 e0       	ldi	r19, 0x00	; 0
    3e2e:	a9 01       	movw	r20, r18
    3e30:	c7 01       	movw	r24, r14
    3e32:	b6 01       	movw	r22, r12
    3e34:	0e 94 20 41 	call	0x8240	; 0x8240 <__cmpsf2>
    3e38:	88 23       	and	r24, r24
    3e3a:	bc f4       	brge	.+46     	; 0x3e6a <_Z12turn_degreesja+0x12a>
			PORTC ^= (1<<PORTC6);
    3e3c:	88 b1       	in	r24, 0x08	; 8
    3e3e:	90 e4       	ldi	r25, 0x40	; 64
    3e40:	89 27       	eor	r24, r25
    3e42:	88 b9       	out	0x08, r24	; 8
			realDiff = M_PI + fmod(diff, M_PI);
    3e44:	2b ed       	ldi	r18, 0xDB	; 219
    3e46:	3f e0       	ldi	r19, 0x0F	; 15
    3e48:	49 e4       	ldi	r20, 0x49	; 73
    3e4a:	50 e4       	ldi	r21, 0x40	; 64
    3e4c:	c7 01       	movw	r24, r14
    3e4e:	b6 01       	movw	r22, r12
    3e50:	0e 94 23 42 	call	0x8446	; 0x8446 <fmod>
    3e54:	2b ed       	ldi	r18, 0xDB	; 219
    3e56:	3f e0       	ldi	r19, 0x0F	; 15
    3e58:	49 e4       	ldi	r20, 0x49	; 73
    3e5a:	50 e4       	ldi	r21, 0x40	; 64
    3e5c:	0e 94 43 40 	call	0x8086	; 0x8086 <__addsf3>
    3e60:	86 2e       	mov	r8, r22
    3e62:	97 2e       	mov	r9, r23
    3e64:	a8 2e       	mov	r10, r24
    3e66:	b9 2e       	mov	r11, r25
    3e68:	19 c0       	rjmp	.+50     	; 0x3e9c <_Z12turn_degreesja+0x15c>
		} else {
			PORTC ^= (1<<PORTC7);
    3e6a:	88 b1       	in	r24, 0x08	; 8
    3e6c:	80 58       	subi	r24, 0x80	; 128
    3e6e:	88 b9       	out	0x08, r24	; 8
			realDiff = M_PI - fmod(diff, M_PI);
    3e70:	2b ed       	ldi	r18, 0xDB	; 219
    3e72:	3f e0       	ldi	r19, 0x0F	; 15
    3e74:	49 e4       	ldi	r20, 0x49	; 73
    3e76:	50 e4       	ldi	r21, 0x40	; 64
    3e78:	c7 01       	movw	r24, r14
    3e7a:	b6 01       	movw	r22, r12
    3e7c:	0e 94 23 42 	call	0x8446	; 0x8446 <fmod>
    3e80:	26 2f       	mov	r18, r22
    3e82:	37 2f       	mov	r19, r23
    3e84:	48 2f       	mov	r20, r24
    3e86:	59 2f       	mov	r21, r25
    3e88:	6b ed       	ldi	r22, 0xDB	; 219
    3e8a:	7f e0       	ldi	r23, 0x0F	; 15
    3e8c:	89 e4       	ldi	r24, 0x49	; 73
    3e8e:	90 e4       	ldi	r25, 0x40	; 64
    3e90:	0e 94 42 40 	call	0x8084	; 0x8084 <__subsf3>
    3e94:	86 2e       	mov	r8, r22
    3e96:	97 2e       	mov	r9, r23
    3e98:	a8 2e       	mov	r10, r24
    3e9a:	b9 2e       	mov	r11, r25
		}
		angleLeft = radians - realDiff;
    3e9c:	a5 01       	movw	r20, r10
    3e9e:	94 01       	movw	r18, r8
    3ea0:	6a 81       	ldd	r22, Y+2	; 0x02
    3ea2:	7b 81       	ldd	r23, Y+3	; 0x03
    3ea4:	8c 81       	ldd	r24, Y+4	; 0x04
    3ea6:	9d 81       	ldd	r25, Y+5	; 0x05
    3ea8:	0e 94 42 40 	call	0x8084	; 0x8084 <__subsf3>
    3eac:	c6 2e       	mov	r12, r22
    3eae:	d7 2e       	mov	r13, r23
    3eb0:	e8 2e       	mov	r14, r24
    3eb2:	f9 2e       	mov	r15, r25
		
		
		if(fabs(realDiff) >= M_PI_2)
    3eb4:	c5 01       	movw	r24, r10
    3eb6:	b4 01       	movw	r22, r8
    3eb8:	9f 77       	andi	r25, 0x7F	; 127
    3eba:	2b ed       	ldi	r18, 0xDB	; 219
    3ebc:	3f e0       	ldi	r19, 0x0F	; 15
    3ebe:	49 ec       	ldi	r20, 0xC9	; 201
    3ec0:	5f e3       	ldi	r21, 0x3F	; 63
    3ec2:	0e 94 77 43 	call	0x86ee	; 0x86ee <__gesf2>
    3ec6:	88 23       	and	r24, r24
    3ec8:	04 f1       	brlt	.+64     	; 0x3f0a <_Z12turn_degreesja+0x1ca>
		{
			radians -= realDiff;
			startAngle = newAngle;
			
			if(radians < 0)
    3eca:	20 e0       	ldi	r18, 0x00	; 0
    3ecc:	30 e0       	ldi	r19, 0x00	; 0
    3ece:	a9 01       	movw	r20, r18
    3ed0:	c7 01       	movw	r24, r14
    3ed2:	b6 01       	movw	r22, r12
    3ed4:	0e 94 20 41 	call	0x8240	; 0x8240 <__cmpsf2>
    3ed8:	88 23       	and	r24, r24
    3eda:	7c f4       	brge	.+30     	; 0x3efa <_Z12turn_degreesja+0x1ba>
			{
				radians *= -1;
    3edc:	d7 01       	movw	r26, r14
    3ede:	c6 01       	movw	r24, r12
    3ee0:	b0 58       	subi	r27, 0x80	; 128
    3ee2:	8a 83       	std	Y+2, r24	; 0x02
    3ee4:	9b 83       	std	Y+3, r25	; 0x03
    3ee6:	ac 83       	std	Y+4, r26	; 0x04
    3ee8:	bd 83       	std	Y+5, r27	; 0x05
				dir *= -1;
    3eea:	21 94       	neg	r2
				angleLeft *= -1;
    3eec:	6c 01       	movw	r12, r24
    3eee:	7d 01       	movw	r14, r26
		
		
		if(fabs(realDiff) >= M_PI_2)
		{
			radians -= realDiff;
			startAngle = newAngle;
    3ef0:	30 2e       	mov	r3, r16
    3ef2:	41 2e       	mov	r4, r17
    3ef4:	56 2c       	mov	r5, r6
    3ef6:	79 82       	std	Y+1, r7	; 0x01
    3ef8:	08 c0       	rjmp	.+16     	; 0x3f0a <_Z12turn_degreesja+0x1ca>
    3efa:	30 2e       	mov	r3, r16
    3efc:	41 2e       	mov	r4, r17
    3efe:	56 2c       	mov	r5, r6
    3f00:	79 82       	std	Y+1, r7	; 0x01
		angleLeft = radians - realDiff;
		
		
		if(fabs(realDiff) >= M_PI_2)
		{
			radians -= realDiff;
    3f02:	ca 82       	std	Y+2, r12	; 0x02
    3f04:	db 82       	std	Y+3, r13	; 0x03
    3f06:	ec 82       	std	Y+4, r14	; 0x04
    3f08:	fd 82       	std	Y+5, r15	; 0x05
				radians *= -1;
				dir *= -1;
				angleLeft *= -1;
			}
		}
		move = 50 + dir * 40 * angleLeft * 6 / M_PI;
    3f0a:	62 2c       	mov	r6, r2
    3f0c:	77 24       	eor	r7, r7
    3f0e:	67 fc       	sbrc	r6, 7
    3f10:	70 94       	com	r7
    3f12:	98 e2       	ldi	r25, 0x28	; 40
    3f14:	96 9d       	mul	r25, r6
    3f16:	b0 01       	movw	r22, r0
    3f18:	97 9d       	mul	r25, r7
    3f1a:	70 0d       	add	r23, r0
    3f1c:	11 24       	eor	r1, r1
    3f1e:	88 27       	eor	r24, r24
    3f20:	77 fd       	sbrc	r23, 7
    3f22:	80 95       	com	r24
    3f24:	98 2f       	mov	r25, r24
    3f26:	0e 94 c2 41 	call	0x8384	; 0x8384 <__floatsisf>
    3f2a:	a7 01       	movw	r20, r14
    3f2c:	96 01       	movw	r18, r12
    3f2e:	0e 94 82 43 	call	0x8704	; 0x8704 <__mulsf3>
    3f32:	20 e0       	ldi	r18, 0x00	; 0
    3f34:	30 e0       	ldi	r19, 0x00	; 0
    3f36:	40 ec       	ldi	r20, 0xC0	; 192
    3f38:	50 e4       	ldi	r21, 0x40	; 64
    3f3a:	0e 94 82 43 	call	0x8704	; 0x8704 <__mulsf3>
    3f3e:	2b ed       	ldi	r18, 0xDB	; 219
    3f40:	3f e0       	ldi	r19, 0x0F	; 15
    3f42:	49 e4       	ldi	r20, 0x49	; 73
    3f44:	50 e4       	ldi	r21, 0x40	; 64
    3f46:	0e 94 27 41 	call	0x824e	; 0x824e <__divsf3>
    3f4a:	20 e0       	ldi	r18, 0x00	; 0
    3f4c:	30 e0       	ldi	r19, 0x00	; 0
    3f4e:	48 e4       	ldi	r20, 0x48	; 72
    3f50:	52 e4       	ldi	r21, 0x42	; 66
    3f52:	0e 94 43 40 	call	0x8086	; 0x8086 <__addsf3>
    3f56:	06 2f       	mov	r16, r22
    3f58:	17 2f       	mov	r17, r23
    3f5a:	8f 83       	std	Y+7, r24	; 0x07
    3f5c:	9e 83       	std	Y+6, r25	; 0x06
    3f5e:	86 2e       	mov	r8, r22
    3f60:	97 2e       	mov	r9, r23
    3f62:	a8 2e       	mov	r10, r24
    3f64:	b9 2e       	mov	r11, r25
		if(move > 45 && move < 55)
    3f66:	20 e0       	ldi	r18, 0x00	; 0
    3f68:	30 e0       	ldi	r19, 0x00	; 0
    3f6a:	44 e3       	ldi	r20, 0x34	; 52
    3f6c:	52 e4       	ldi	r21, 0x42	; 66
    3f6e:	0e 94 77 43 	call	0x86ee	; 0x86ee <__gesf2>
    3f72:	18 16       	cp	r1, r24
    3f74:	64 f5       	brge	.+88     	; 0x3fce <_Z12turn_degreesja+0x28e>
    3f76:	20 e0       	ldi	r18, 0x00	; 0
    3f78:	30 e0       	ldi	r19, 0x00	; 0
    3f7a:	4c e5       	ldi	r20, 0x5C	; 92
    3f7c:	52 e4       	ldi	r21, 0x42	; 66
    3f7e:	60 2f       	mov	r22, r16
    3f80:	71 2f       	mov	r23, r17
    3f82:	8a 2d       	mov	r24, r10
    3f84:	9b 2d       	mov	r25, r11
    3f86:	0e 94 20 41 	call	0x8240	; 0x8240 <__cmpsf2>
    3f8a:	88 23       	and	r24, r24
    3f8c:	04 f5       	brge	.+64     	; 0x3fce <_Z12turn_degreesja+0x28e>
		{
			move = 50 + 5 * dir * angleLeft / fabs(angleLeft);
    3f8e:	b3 01       	movw	r22, r6
    3f90:	66 0f       	add	r22, r22
    3f92:	77 1f       	adc	r23, r23
    3f94:	66 0f       	add	r22, r22
    3f96:	77 1f       	adc	r23, r23
    3f98:	66 0d       	add	r22, r6
    3f9a:	77 1d       	adc	r23, r7
    3f9c:	88 27       	eor	r24, r24
    3f9e:	77 fd       	sbrc	r23, 7
    3fa0:	80 95       	com	r24
    3fa2:	98 2f       	mov	r25, r24
    3fa4:	0e 94 c2 41 	call	0x8384	; 0x8384 <__floatsisf>
    3fa8:	a7 01       	movw	r20, r14
    3faa:	96 01       	movw	r18, r12
    3fac:	0e 94 82 43 	call	0x8704	; 0x8704 <__mulsf3>
    3fb0:	a7 01       	movw	r20, r14
    3fb2:	96 01       	movw	r18, r12
    3fb4:	5f 77       	andi	r21, 0x7F	; 127
    3fb6:	0e 94 27 41 	call	0x824e	; 0x824e <__divsf3>
    3fba:	20 e0       	ldi	r18, 0x00	; 0
    3fbc:	30 e0       	ldi	r19, 0x00	; 0
    3fbe:	48 e4       	ldi	r20, 0x48	; 72
    3fc0:	52 e4       	ldi	r21, 0x42	; 66
    3fc2:	0e 94 43 40 	call	0x8086	; 0x8086 <__addsf3>
    3fc6:	86 2e       	mov	r8, r22
    3fc8:	97 2e       	mov	r9, r23
    3fca:	a8 2e       	mov	r10, r24
    3fcc:	b9 2e       	mov	r11, r25
		}
		USART_SendValue(move);
    3fce:	68 2d       	mov	r22, r8
    3fd0:	79 2d       	mov	r23, r9
    3fd2:	8a 2d       	mov	r24, r10
    3fd4:	9b 2d       	mov	r25, r11
    3fd6:	0e 94 ff 3d 	call	0x7bfe	; 0x7bfe <_Z15USART_SendValuef>
		move_robot(0, move, 0);
    3fda:	68 2d       	mov	r22, r8
    3fdc:	79 2d       	mov	r23, r9
    3fde:	8a 2d       	mov	r24, r10
    3fe0:	9b 2d       	mov	r25, r11
    3fe2:	0e 94 8f 41 	call	0x831e	; 0x831e <__fixsfsi>
    3fe6:	40 e0       	ldi	r20, 0x00	; 0
    3fe8:	50 e0       	ldi	r21, 0x00	; 0
    3fea:	80 e0       	ldi	r24, 0x00	; 0
    3fec:	90 e0       	ldi	r25, 0x00	; 0
    3fee:	13 d9       	rcall	.-3546   	; 0x3216 <_Z10move_robotiii>
	} while(fabs(angleLeft) > tolerance);
    3ff0:	c7 01       	movw	r24, r14
    3ff2:	b6 01       	movw	r22, r12
    3ff4:	9f 77       	andi	r25, 0x7F	; 127
	float newAngle;
	float angleLeft, move;
	USART_SendValue(startAngle*180/M_PI);
	float diff, realDiff;
	
	do
    3ff6:	25 e3       	ldi	r18, 0x35	; 53
    3ff8:	3a ef       	ldi	r19, 0xFA	; 250
    3ffa:	4e e8       	ldi	r20, 0x8E	; 142
    3ffc:	5d e3       	ldi	r21, 0x3D	; 61
    3ffe:	0e 94 77 43 	call	0x86ee	; 0x86ee <__gesf2>
    4002:	18 16       	cp	r1, r24
    4004:	0c f4       	brge	.+2      	; 0x4008 <_Z12turn_degreesja+0x2c8>
    4006:	e8 ce       	rjmp	.-560    	; 0x3dd8 <_Z12turn_degreesja+0x98>
		}
		USART_SendValue(move);
		move_robot(0, move, 0);
	} while(fabs(angleLeft) > tolerance);
	
	USART_send_turn_done();
    4008:	0e 94 28 3e 	call	0x7c50	; 0x7c50 <_Z20USART_send_turn_donev>
}
    400c:	27 96       	adiw	r28, 0x07	; 7
    400e:	0f b6       	in	r0, 0x3f	; 63
    4010:	f8 94       	cli
    4012:	de bf       	out	0x3e, r29	; 62
    4014:	0f be       	out	0x3f, r0	; 63
    4016:	cd bf       	out	0x3d, r28	; 61
    4018:	df 91       	pop	r29
    401a:	cf 91       	pop	r28
    401c:	1f 91       	pop	r17
    401e:	0f 91       	pop	r16
    4020:	ff 90       	pop	r15
    4022:	ef 90       	pop	r14
    4024:	df 90       	pop	r13
    4026:	cf 90       	pop	r12
    4028:	bf 90       	pop	r11
    402a:	af 90       	pop	r10
    402c:	9f 90       	pop	r9
    402e:	8f 90       	pop	r8
    4030:	7f 90       	pop	r7
    4032:	6f 90       	pop	r6
    4034:	5f 90       	pop	r5
    4036:	4f 90       	pop	r4
    4038:	3f 90       	pop	r3
    403a:	2f 90       	pop	r2
    403c:	08 95       	ret

0000403e <_Z5climbv>:
		legsNotDown = 1;
	}
}

void climb()
{
    403e:	2f 92       	push	r2
    4040:	3f 92       	push	r3
    4042:	4f 92       	push	r4
    4044:	5f 92       	push	r5
    4046:	6f 92       	push	r6
    4048:	7f 92       	push	r7
    404a:	8f 92       	push	r8
    404c:	9f 92       	push	r9
    404e:	af 92       	push	r10
    4050:	bf 92       	push	r11
    4052:	cf 92       	push	r12
    4054:	df 92       	push	r13
    4056:	ef 92       	push	r14
    4058:	ff 92       	push	r15
    405a:	0f 93       	push	r16
    405c:	1f 93       	push	r17
    405e:	cf 93       	push	r28
    4060:	df 93       	push	r29
    4062:	00 d0       	rcall	.+0      	; 0x4064 <_Z5climbv+0x26>
    4064:	00 d0       	rcall	.+0      	; 0x4066 <_Z5climbv+0x28>
    4066:	cd b7       	in	r28, 0x3d	; 61
    4068:	de b7       	in	r29, 0x3e	; 62
	
	climbing_flag = 1;
    406a:	81 e0       	ldi	r24, 0x01	; 1
    406c:	90 e0       	ldi	r25, 0x00	; 0
    406e:	90 93 c5 15 	sts	0x15C5, r25
    4072:	80 93 c4 15 	sts	0x15C4, r24
	height = 70;
    4076:	80 e0       	ldi	r24, 0x00	; 0
    4078:	90 e0       	ldi	r25, 0x00	; 0
    407a:	ac e8       	ldi	r26, 0x8C	; 140
    407c:	b2 e4       	ldi	r27, 0x42	; 66
    407e:	80 93 65 19 	sts	0x1965, r24
    4082:	90 93 66 19 	sts	0x1966, r25
    4086:	a0 93 67 19 	sts	0x1967, r26
    408a:	b0 93 68 19 	sts	0x1968, r27
	climb_step = 0;
    408e:	10 92 61 19 	sts	0x1961, r1
    4092:	10 92 62 19 	sts	0x1962, r1
    4096:	10 92 63 19 	sts	0x1963, r1
    409a:	10 92 64 19 	sts	0x1964, r1
	climb_step2 = 0;
    409e:	10 92 5d 19 	sts	0x195D, r1
    40a2:	10 92 5e 19 	sts	0x195E, r1
    40a6:	10 92 5f 19 	sts	0x195F, r1
    40aa:	10 92 60 19 	sts	0x1960, r1
	climb_counter = 0;
    40ae:	10 92 3f 19 	sts	0x193F, r1
	
	z_in_use = -150;
    40b2:	80 e0       	ldi	r24, 0x00	; 0
    40b4:	90 e0       	ldi	r25, 0x00	; 0
    40b6:	a6 e1       	ldi	r26, 0x16	; 22
    40b8:	b3 ec       	ldi	r27, 0xC3	; 195
    40ba:	80 93 55 19 	sts	0x1955, r24
    40be:	90 93 56 19 	sts	0x1956, r25
    40c2:	a0 93 57 19 	sts	0x1957, r26
    40c6:	b0 93 58 19 	sts	0x1958, r27
	obstacle_height = z_in_use;
    40ca:	80 93 59 19 	sts	0x1959, r24
    40ce:	90 93 5a 19 	sts	0x195A, r25
    40d2:	a0 93 5b 19 	sts	0x195B, r26
    40d6:	b0 93 5c 19 	sts	0x195C, r27
	change_z(z_in_use);
    40da:	bc 01       	movw	r22, r24
    40dc:	cd 01       	movw	r24, r26
    40de:	0e 94 44 10 	call	0x2088	; 0x2088 <_Z8change_zf>
	
	move_to_std();
    40e2:	0e 94 bb 17 	call	0x2f76	; 0x2f76 <_Z11move_to_stdv>
	servo_speed = 100;
    40e6:	84 e6       	ldi	r24, 0x64	; 100
    40e8:	90 e0       	ldi	r25, 0x00	; 0
    40ea:	90 93 08 01 	sts	0x0108, r25
    40ee:	80 93 07 01 	sts	0x0107, r24
	
	MPU_update();
    40f2:	0e 94 53 3a 	call	0x74a6	; 0x74a6 <_Z10MPU_updatev>
	climb_start_control = MPU_get_y();
    40f6:	0e 94 fa 39 	call	0x73f4	; 0x73f4 <_Z9MPU_get_yv>
    40fa:	60 93 51 19 	sts	0x1951, r22
    40fe:	70 93 52 19 	sts	0x1952, r23
    4102:	80 93 53 19 	sts	0x1953, r24
    4106:	90 93 54 19 	sts	0x1954, r25
	climb_start_slope_r = MPU_get_r();
    410a:	0e 94 10 3a 	call	0x7420	; 0x7420 <_Z9MPU_get_rv>
    410e:	60 93 4d 19 	sts	0x194D, r22
    4112:	70 93 4e 19 	sts	0x194E, r23
    4116:	80 93 4f 19 	sts	0x194F, r24
    411a:	90 93 50 19 	sts	0x1950, r25
	climb_start_slope_p = MPU_get_p();
    411e:	0e 94 05 3a 	call	0x740a	; 0x740a <_Z9MPU_get_pv>
    4122:	60 93 49 19 	sts	0x1949, r22
    4126:	70 93 4a 19 	sts	0x194A, r23
    412a:	80 93 4b 19 	sts	0x194B, r24
    412e:	90 93 4c 19 	sts	0x194C, r25
	
	while(climbing_flag)
    4132:	80 91 c4 15 	lds	r24, 0x15C4
    4136:	90 91 c5 15 	lds	r25, 0x15C5
    413a:	89 2b       	or	r24, r25
    413c:	09 f4       	brne	.+2      	; 0x4140 <__stack+0x41>
    413e:	02 c6       	rjmp	.+3076   	; 0x4d44 <__stack+0xc45>
		else if (leg2.lift != 1 && climb_step == 1) // Leg5 has not found the obstacle.
		{
			leg2.climbing = 1;
			leg2.newPosz = obstacle_height;
		}
		else if (leg5.lift != 1 && climb_step == 1 && leg2.newPosz ==obstacle_height)
    4140:	0f 2e       	mov	r0, r31
    4142:	f6 e2       	ldi	r31, 0x26	; 38
    4144:	af 2e       	mov	r10, r31
    4146:	f8 e1       	ldi	r31, 0x18	; 24
    4148:	bf 2e       	mov	r11, r31
    414a:	f0 2d       	mov	r31, r0
			leg5.newPosz = obstacle_height;
			leg5.on_obstacle = 1;
		}
		else if (leg5.lift != 1 && climb_step == 1)
		{
			leg5.climbing = 1;
    414c:	0f 2e       	mov	r0, r31
    414e:	f8 ec       	ldi	r31, 0xC8	; 200
    4150:	2f 2e       	mov	r2, r31
    4152:	f6 e1       	ldi	r31, 0x16	; 22
    4154:	3f 2e       	mov	r3, r31
    4156:	f0 2d       	mov	r31, r0
			leg5.newPosz = obstacle_height;
    4158:	0f 2e       	mov	r0, r31
    415a:	f6 e7       	ldi	r31, 0x76	; 118
    415c:	cf 2e       	mov	r12, r31
    415e:	f6 e1       	ldi	r31, 0x16	; 22
    4160:	df 2e       	mov	r13, r31
    4162:	f0 2d       	mov	r31, r0
			leg2.newPosz = obstacle_height;
			leg2.on_obstacle = 1;
		}
		else if (leg2.lift != 1 && climb_step == 1) // Leg5 has not found the obstacle.
		{
			leg2.climbing = 1;
    4164:	0f 2e       	mov	r0, r31
    4166:	f8 e7       	ldi	r31, 0x78	; 120
    4168:	8f 2e       	mov	r8, r31
    416a:	f8 e1       	ldi	r31, 0x18	; 24
    416c:	9f 2e       	mov	r9, r31
    416e:	f0 2d       	mov	r31, r0
	climb_start_slope_r = MPU_get_r();
	climb_start_slope_p = MPU_get_p();
	
	while(climbing_flag)
	{
		if(leg6.lift != 1 && climb_step == 0 && obstacle_height == z_in_use)
    4170:	20 e0       	ldi	r18, 0x00	; 0
    4172:	30 e0       	ldi	r19, 0x00	; 0
    4174:	40 e8       	ldi	r20, 0x80	; 128
    4176:	5f e3       	ldi	r21, 0x3F	; 63
    4178:	aa ed       	ldi	r26, 0xDA	; 218
    417a:	b5 e1       	ldi	r27, 0x15	; 21
    417c:	6d 91       	ld	r22, X+
    417e:	7d 91       	ld	r23, X+
    4180:	8d 91       	ld	r24, X+
    4182:	9c 91       	ld	r25, X
    4184:	0e 94 20 41 	call	0x8240	; 0x8240 <__cmpsf2>
    4188:	88 23       	and	r24, r24
    418a:	09 f4       	brne	.+2      	; 0x418e <__stack+0x8f>
    418c:	4c c0       	rjmp	.+152    	; 0x4226 <__stack+0x127>
    418e:	20 e0       	ldi	r18, 0x00	; 0
    4190:	30 e0       	ldi	r19, 0x00	; 0
    4192:	a9 01       	movw	r20, r18
    4194:	60 91 61 19 	lds	r22, 0x1961
    4198:	70 91 62 19 	lds	r23, 0x1962
    419c:	80 91 63 19 	lds	r24, 0x1963
    41a0:	90 91 64 19 	lds	r25, 0x1964
    41a4:	0e 94 20 41 	call	0x8240	; 0x8240 <__cmpsf2>
    41a8:	81 11       	cpse	r24, r1
    41aa:	3d c0       	rjmp	.+122    	; 0x4226 <__stack+0x127>
    41ac:	40 90 59 19 	lds	r4, 0x1959
    41b0:	50 90 5a 19 	lds	r5, 0x195A
    41b4:	60 90 5b 19 	lds	r6, 0x195B
    41b8:	70 90 5c 19 	lds	r7, 0x195C
    41bc:	80 91 55 19 	lds	r24, 0x1955
    41c0:	90 91 56 19 	lds	r25, 0x1956
    41c4:	a0 91 57 19 	lds	r26, 0x1957
    41c8:	b0 91 58 19 	lds	r27, 0x1958
    41cc:	89 83       	std	Y+1, r24	; 0x01
    41ce:	9a 83       	std	Y+2, r25	; 0x02
    41d0:	ab 83       	std	Y+3, r26	; 0x03
    41d2:	bc 83       	std	Y+4, r27	; 0x04
    41d4:	9c 01       	movw	r18, r24
    41d6:	ad 01       	movw	r20, r26
    41d8:	c3 01       	movw	r24, r6
    41da:	b2 01       	movw	r22, r4
    41dc:	0e 94 20 41 	call	0x8240	; 0x8240 <__cmpsf2>
    41e0:	81 11       	cpse	r24, r1
    41e2:	e6 c5       	rjmp	.+3020   	; 0x4db0 <__stack+0xcb1>
		{
			leg6.climbing = 1;
    41e4:	81 e0       	ldi	r24, 0x01	; 1
    41e6:	90 e0       	ldi	r25, 0x00	; 0
    41e8:	90 93 39 16 	sts	0x1639, r25
    41ec:	80 93 38 16 	sts	0x1638, r24
			leg6.newPosz = z_in_use + height;
    41f0:	20 91 65 19 	lds	r18, 0x1965
    41f4:	30 91 66 19 	lds	r19, 0x1966
    41f8:	40 91 67 19 	lds	r20, 0x1967
    41fc:	50 91 68 19 	lds	r21, 0x1968
    4200:	69 81       	ldd	r22, Y+1	; 0x01
    4202:	7a 81       	ldd	r23, Y+2	; 0x02
    4204:	8b 81       	ldd	r24, Y+3	; 0x03
    4206:	9c 81       	ldd	r25, Y+4	; 0x04
    4208:	0e 94 43 40 	call	0x8086	; 0x8086 <__addsf3>
    420c:	60 93 e6 15 	sts	0x15E6, r22
    4210:	70 93 e7 15 	sts	0x15E7, r23
    4214:	80 93 e8 15 	sts	0x15E8, r24
    4218:	90 93 e9 15 	sts	0x15E9, r25
			height_change_leg6(obstacle_height);
    421c:	c3 01       	movw	r24, r6
    421e:	b2 01       	movw	r22, r4
    4220:	0e 94 30 2d 	call	0x5a60	; 0x5a60 <_Z18height_change_leg6f>
    4224:	1e c2       	rjmp	.+1084   	; 0x4662 <__stack+0x563>
			height_change_leg6(obstacle_height);
			leg6.climbing = 4;
			leg6.newPosz = obstacle_height;
			leg6.on_obstacle = 1;
		}
		else if (leg1.lift != 1 && climb_step == 0 && obstacle_height == z_in_use)
    4226:	20 e0       	ldi	r18, 0x00	; 0
    4228:	30 e0       	ldi	r19, 0x00	; 0
    422a:	40 e8       	ldi	r20, 0x80	; 128
    422c:	5f e3       	ldi	r21, 0x3F	; 63
    422e:	60 91 aa 18 	lds	r22, 0x18AA
    4232:	70 91 ab 18 	lds	r23, 0x18AB
    4236:	80 91 ac 18 	lds	r24, 0x18AC
    423a:	90 91 ad 18 	lds	r25, 0x18AD
    423e:	0e 94 20 41 	call	0x8240	; 0x8240 <__cmpsf2>
    4242:	88 23       	and	r24, r24
    4244:	09 f4       	brne	.+2      	; 0x4248 <__stack+0x149>
    4246:	4c c0       	rjmp	.+152    	; 0x42e0 <__stack+0x1e1>
    4248:	20 e0       	ldi	r18, 0x00	; 0
    424a:	30 e0       	ldi	r19, 0x00	; 0
    424c:	a9 01       	movw	r20, r18
    424e:	60 91 61 19 	lds	r22, 0x1961
    4252:	70 91 62 19 	lds	r23, 0x1962
    4256:	80 91 63 19 	lds	r24, 0x1963
    425a:	90 91 64 19 	lds	r25, 0x1964
    425e:	0e 94 20 41 	call	0x8240	; 0x8240 <__cmpsf2>
    4262:	81 11       	cpse	r24, r1
    4264:	3d c0       	rjmp	.+122    	; 0x42e0 <__stack+0x1e1>
    4266:	40 90 59 19 	lds	r4, 0x1959
    426a:	50 90 5a 19 	lds	r5, 0x195A
    426e:	60 90 5b 19 	lds	r6, 0x195B
    4272:	70 90 5c 19 	lds	r7, 0x195C
    4276:	80 91 55 19 	lds	r24, 0x1955
    427a:	90 91 56 19 	lds	r25, 0x1956
    427e:	a0 91 57 19 	lds	r26, 0x1957
    4282:	b0 91 58 19 	lds	r27, 0x1958
    4286:	89 83       	std	Y+1, r24	; 0x01
    4288:	9a 83       	std	Y+2, r25	; 0x02
    428a:	ab 83       	std	Y+3, r26	; 0x03
    428c:	bc 83       	std	Y+4, r27	; 0x04
    428e:	9c 01       	movw	r18, r24
    4290:	ad 01       	movw	r20, r26
    4292:	c3 01       	movw	r24, r6
    4294:	b2 01       	movw	r22, r4
    4296:	0e 94 20 41 	call	0x8240	; 0x8240 <__cmpsf2>
    429a:	81 11       	cpse	r24, r1
    429c:	af c5       	rjmp	.+2910   	; 0x4dfc <__stack+0xcfd>
		{
			leg1.climbing = 1;
    429e:	81 e0       	ldi	r24, 0x01	; 1
    42a0:	90 e0       	ldi	r25, 0x00	; 0
    42a2:	90 93 09 19 	sts	0x1909, r25
    42a6:	80 93 08 19 	sts	0x1908, r24
			leg1.newPosz = z_in_use + height;
    42aa:	20 91 65 19 	lds	r18, 0x1965
    42ae:	30 91 66 19 	lds	r19, 0x1966
    42b2:	40 91 67 19 	lds	r20, 0x1967
    42b6:	50 91 68 19 	lds	r21, 0x1968
    42ba:	69 81       	ldd	r22, Y+1	; 0x01
    42bc:	7a 81       	ldd	r23, Y+2	; 0x02
    42be:	8b 81       	ldd	r24, Y+3	; 0x03
    42c0:	9c 81       	ldd	r25, Y+4	; 0x04
    42c2:	0e 94 43 40 	call	0x8086	; 0x8086 <__addsf3>
    42c6:	60 93 b6 18 	sts	0x18B6, r22
    42ca:	70 93 b7 18 	sts	0x18B7, r23
    42ce:	80 93 b8 18 	sts	0x18B8, r24
    42d2:	90 93 b9 18 	sts	0x18B9, r25
			height_change_leg1(obstacle_height);
    42d6:	c3 01       	movw	r24, r6
    42d8:	b2 01       	movw	r22, r4
    42da:	0e 94 f7 2b 	call	0x57ee	; 0x57ee <_Z18height_change_leg1f>
    42de:	c1 c1       	rjmp	.+898    	; 0x4662 <__stack+0x563>
			height_change_leg1(obstacle_height);
			leg1.climbing = 4;
			leg1.newPosz = obstacle_height;
			leg1.on_obstacle = 1;
		}
		else if (leg2.lift != 1 && climb_step == 1 && leg5.newPosz == obstacle_height)
    42e0:	20 e0       	ldi	r18, 0x00	; 0
    42e2:	30 e0       	ldi	r19, 0x00	; 0
    42e4:	40 e8       	ldi	r20, 0x80	; 128
    42e6:	5f e3       	ldi	r21, 0x3F	; 63
    42e8:	60 91 1a 18 	lds	r22, 0x181A
    42ec:	70 91 1b 18 	lds	r23, 0x181B
    42f0:	80 91 1c 18 	lds	r24, 0x181C
    42f4:	90 91 1d 18 	lds	r25, 0x181D
    42f8:	0e 94 20 41 	call	0x8240	; 0x8240 <__cmpsf2>
    42fc:	88 23       	and	r24, r24
    42fe:	09 f4       	brne	.+2      	; 0x4302 <__stack+0x203>
    4300:	40 c0       	rjmp	.+128    	; 0x4382 <__stack+0x283>
    4302:	20 e0       	ldi	r18, 0x00	; 0
    4304:	30 e0       	ldi	r19, 0x00	; 0
    4306:	40 e8       	ldi	r20, 0x80	; 128
    4308:	5f e3       	ldi	r21, 0x3F	; 63
    430a:	60 91 61 19 	lds	r22, 0x1961
    430e:	70 91 62 19 	lds	r23, 0x1962
    4312:	80 91 63 19 	lds	r24, 0x1963
    4316:	90 91 64 19 	lds	r25, 0x1964
    431a:	0e 94 20 41 	call	0x8240	; 0x8240 <__cmpsf2>
    431e:	81 11       	cpse	r24, r1
    4320:	30 c0       	rjmp	.+96     	; 0x4382 <__stack+0x283>
    4322:	40 90 59 19 	lds	r4, 0x1959
    4326:	50 90 5a 19 	lds	r5, 0x195A
    432a:	60 90 5b 19 	lds	r6, 0x195B
    432e:	70 90 5c 19 	lds	r7, 0x195C
    4332:	a3 01       	movw	r20, r6
    4334:	92 01       	movw	r18, r4
    4336:	d6 01       	movw	r26, r12
    4338:	6d 91       	ld	r22, X+
    433a:	7d 91       	ld	r23, X+
    433c:	8d 91       	ld	r24, X+
    433e:	9c 91       	ld	r25, X
    4340:	0e 94 20 41 	call	0x8240	; 0x8240 <__cmpsf2>
    4344:	81 11       	cpse	r24, r1
    4346:	80 c5       	rjmp	.+2816   	; 0x4e48 <__stack+0xd49>
		{
			height_change_leg2(obstacle_height);
    4348:	c3 01       	movw	r24, r6
    434a:	b2 01       	movw	r22, r4
    434c:	0e 94 47 2c 	call	0x588e	; 0x588e <_Z18height_change_leg2f>
			leg2.climbing = 4;
    4350:	84 e0       	ldi	r24, 0x04	; 4
    4352:	90 e0       	ldi	r25, 0x00	; 0
    4354:	f4 01       	movw	r30, r8
    4356:	91 83       	std	Z+1, r25	; 0x01
    4358:	80 83       	st	Z, r24
			leg2.newPosz = obstacle_height;
    435a:	80 91 59 19 	lds	r24, 0x1959
    435e:	90 91 5a 19 	lds	r25, 0x195A
    4362:	a0 91 5b 19 	lds	r26, 0x195B
    4366:	b0 91 5c 19 	lds	r27, 0x195C
    436a:	f5 01       	movw	r30, r10
    436c:	80 83       	st	Z, r24
    436e:	91 83       	std	Z+1, r25	; 0x01
    4370:	a2 83       	std	Z+2, r26	; 0x02
    4372:	b3 83       	std	Z+3, r27	; 0x03
			leg2.on_obstacle = 1;
    4374:	81 e0       	ldi	r24, 0x01	; 1
    4376:	90 e0       	ldi	r25, 0x00	; 0
    4378:	90 93 7b 18 	sts	0x187B, r25
    437c:	80 93 7a 18 	sts	0x187A, r24
    4380:	70 c1       	rjmp	.+736    	; 0x4662 <__stack+0x563>
		else if (leg2.lift != 1 && climb_step == 1) // Leg5 has not found the obstacle.
		{
			leg2.climbing = 1;
			leg2.newPosz = obstacle_height;
		}
		else if (leg5.lift != 1 && climb_step == 1 && leg2.newPosz ==obstacle_height)
    4382:	20 e0       	ldi	r18, 0x00	; 0
    4384:	30 e0       	ldi	r19, 0x00	; 0
    4386:	40 e8       	ldi	r20, 0x80	; 128
    4388:	5f e3       	ldi	r21, 0x3F	; 63
    438a:	60 91 6a 16 	lds	r22, 0x166A
    438e:	70 91 6b 16 	lds	r23, 0x166B
    4392:	80 91 6c 16 	lds	r24, 0x166C
    4396:	90 91 6d 16 	lds	r25, 0x166D
    439a:	0e 94 20 41 	call	0x8240	; 0x8240 <__cmpsf2>
    439e:	88 23       	and	r24, r24
    43a0:	09 f4       	brne	.+2      	; 0x43a4 <__stack+0x2a5>
    43a2:	40 c0       	rjmp	.+128    	; 0x4424 <__stack+0x325>
    43a4:	20 e0       	ldi	r18, 0x00	; 0
    43a6:	30 e0       	ldi	r19, 0x00	; 0
    43a8:	40 e8       	ldi	r20, 0x80	; 128
    43aa:	5f e3       	ldi	r21, 0x3F	; 63
    43ac:	60 91 61 19 	lds	r22, 0x1961
    43b0:	70 91 62 19 	lds	r23, 0x1962
    43b4:	80 91 63 19 	lds	r24, 0x1963
    43b8:	90 91 64 19 	lds	r25, 0x1964
    43bc:	0e 94 20 41 	call	0x8240	; 0x8240 <__cmpsf2>
    43c0:	81 11       	cpse	r24, r1
    43c2:	30 c0       	rjmp	.+96     	; 0x4424 <__stack+0x325>
    43c4:	40 90 59 19 	lds	r4, 0x1959
    43c8:	50 90 5a 19 	lds	r5, 0x195A
    43cc:	60 90 5b 19 	lds	r6, 0x195B
    43d0:	70 90 5c 19 	lds	r7, 0x195C
    43d4:	a3 01       	movw	r20, r6
    43d6:	92 01       	movw	r18, r4
    43d8:	d5 01       	movw	r26, r10
    43da:	6d 91       	ld	r22, X+
    43dc:	7d 91       	ld	r23, X+
    43de:	8d 91       	ld	r24, X+
    43e0:	9c 91       	ld	r25, X
    43e2:	0e 94 20 41 	call	0x8240	; 0x8240 <__cmpsf2>
    43e6:	81 11       	cpse	r24, r1
    43e8:	42 c5       	rjmp	.+2692   	; 0x4e6e <__stack+0xd6f>
		{
			height_change_leg5(obstacle_height);
    43ea:	c3 01       	movw	r24, r6
    43ec:	b2 01       	movw	r22, r4
    43ee:	0e 94 0b 2d 	call	0x5a16	; 0x5a16 <_Z18height_change_leg5f>
			leg5.climbing = 4;
    43f2:	84 e0       	ldi	r24, 0x04	; 4
    43f4:	90 e0       	ldi	r25, 0x00	; 0
    43f6:	f1 01       	movw	r30, r2
    43f8:	91 83       	std	Z+1, r25	; 0x01
    43fa:	80 83       	st	Z, r24
			leg5.newPosz = obstacle_height;
    43fc:	80 91 59 19 	lds	r24, 0x1959
    4400:	90 91 5a 19 	lds	r25, 0x195A
    4404:	a0 91 5b 19 	lds	r26, 0x195B
    4408:	b0 91 5c 19 	lds	r27, 0x195C
    440c:	f6 01       	movw	r30, r12
    440e:	80 83       	st	Z, r24
    4410:	91 83       	std	Z+1, r25	; 0x01
    4412:	a2 83       	std	Z+2, r26	; 0x02
    4414:	b3 83       	std	Z+3, r27	; 0x03
			leg5.on_obstacle = 1;
    4416:	81 e0       	ldi	r24, 0x01	; 1
    4418:	90 e0       	ldi	r25, 0x00	; 0
    441a:	90 93 cb 16 	sts	0x16CB, r25
    441e:	80 93 ca 16 	sts	0x16CA, r24
    4422:	1f c1       	rjmp	.+574    	; 0x4662 <__stack+0x563>
		else if (leg5.lift != 1 && climb_step == 1)
		{
			leg5.climbing = 1;
			leg5.newPosz = obstacle_height;
		}
		else if(leg4.newPosz > z_in_use + 40 && leg3.newPosz > z_in_use + 40)
    4424:	40 90 06 17 	lds	r4, 0x1706
    4428:	50 90 07 17 	lds	r5, 0x1707
    442c:	60 90 08 17 	lds	r6, 0x1708
    4430:	70 90 09 17 	lds	r7, 0x1709
    4434:	20 e0       	ldi	r18, 0x00	; 0
    4436:	30 e0       	ldi	r19, 0x00	; 0
    4438:	40 e2       	ldi	r20, 0x20	; 32
    443a:	52 e4       	ldi	r21, 0x42	; 66
    443c:	60 91 55 19 	lds	r22, 0x1955
    4440:	70 91 56 19 	lds	r23, 0x1956
    4444:	80 91 57 19 	lds	r24, 0x1957
    4448:	90 91 58 19 	lds	r25, 0x1958
    444c:	0e 94 43 40 	call	0x8086	; 0x8086 <__addsf3>
    4450:	16 2f       	mov	r17, r22
    4452:	07 2f       	mov	r16, r23
    4454:	f8 2e       	mov	r15, r24
    4456:	e9 2e       	mov	r14, r25
    4458:	76 2f       	mov	r23, r22
    445a:	27 2f       	mov	r18, r23
    445c:	30 2f       	mov	r19, r16
    445e:	4f 2d       	mov	r20, r15
    4460:	5e 2d       	mov	r21, r14
    4462:	c3 01       	movw	r24, r6
    4464:	b2 01       	movw	r22, r4
    4466:	0e 94 77 43 	call	0x86ee	; 0x86ee <__gesf2>
    446a:	18 16       	cp	r1, r24
    446c:	0c f0       	brlt	.+2      	; 0x4470 <__stack+0x371>
    446e:	4e c0       	rjmp	.+156    	; 0x450c <__stack+0x40d>
    4470:	a6 e9       	ldi	r26, 0x96	; 150
    4472:	b7 e1       	ldi	r27, 0x17	; 23
    4474:	2d 91       	ld	r18, X+
    4476:	3d 91       	ld	r19, X+
    4478:	4d 91       	ld	r20, X+
    447a:	5c 91       	ld	r21, X
    447c:	61 2f       	mov	r22, r17
    447e:	70 2f       	mov	r23, r16
    4480:	8f 2d       	mov	r24, r15
    4482:	9e 2d       	mov	r25, r14
    4484:	0e 94 20 41 	call	0x8240	; 0x8240 <__cmpsf2>
    4488:	88 23       	and	r24, r24
    448a:	0c f0       	brlt	.+2      	; 0x448e <__stack+0x38f>
    448c:	3f c0       	rjmp	.+126    	; 0x450c <__stack+0x40d>
		{
			climb_step = 3;
    448e:	80 e0       	ldi	r24, 0x00	; 0
    4490:	90 e0       	ldi	r25, 0x00	; 0
    4492:	a0 e4       	ldi	r26, 0x40	; 64
    4494:	b0 e4       	ldi	r27, 0x40	; 64
    4496:	80 93 61 19 	sts	0x1961, r24
    449a:	90 93 62 19 	sts	0x1962, r25
    449e:	a0 93 63 19 	sts	0x1963, r26
    44a2:	b0 93 64 19 	sts	0x1964, r27
			
			height_change_leg4(obstacle_height);
    44a6:	60 91 59 19 	lds	r22, 0x1959
    44aa:	70 91 5a 19 	lds	r23, 0x195A
    44ae:	80 91 5b 19 	lds	r24, 0x195B
    44b2:	90 91 5c 19 	lds	r25, 0x195C
    44b6:	0e 94 b7 2c 	call	0x596e	; 0x596e <_Z18height_change_leg4f>
			leg4.climbing = 0;
    44ba:	10 92 59 17 	sts	0x1759, r1
    44be:	10 92 58 17 	sts	0x1758, r1
			leg4.newPosz = obstacle_height;
    44c2:	60 91 59 19 	lds	r22, 0x1959
    44c6:	70 91 5a 19 	lds	r23, 0x195A
    44ca:	80 91 5b 19 	lds	r24, 0x195B
    44ce:	90 91 5c 19 	lds	r25, 0x195C
    44d2:	60 93 06 17 	sts	0x1706, r22
    44d6:	70 93 07 17 	sts	0x1707, r23
    44da:	80 93 08 17 	sts	0x1708, r24
    44de:	90 93 09 17 	sts	0x1709, r25
			
			height_change_leg3(obstacle_height);
    44e2:	0e 94 6d 2c 	call	0x58da	; 0x58da <_Z18height_change_leg3f>
			leg3.climbing = 0;
    44e6:	e8 ee       	ldi	r30, 0xE8	; 232
    44e8:	f7 e1       	ldi	r31, 0x17	; 23
    44ea:	11 82       	std	Z+1, r1	; 0x01
    44ec:	10 82       	st	Z, r1
			leg3.newPosz = obstacle_height;
    44ee:	80 91 59 19 	lds	r24, 0x1959
    44f2:	90 91 5a 19 	lds	r25, 0x195A
    44f6:	a0 91 5b 19 	lds	r26, 0x195B
    44fa:	b0 91 5c 19 	lds	r27, 0x195C
    44fe:	e6 e9       	ldi	r30, 0x96	; 150
    4500:	f7 e1       	ldi	r31, 0x17	; 23
    4502:	80 83       	st	Z, r24
    4504:	91 83       	std	Z+1, r25	; 0x01
    4506:	a2 83       	std	Z+2, r26	; 0x02
    4508:	b3 83       	std	Z+3, r27	; 0x03
    450a:	ab c0       	rjmp	.+342    	; 0x4662 <__stack+0x563>
		}
		else if (leg4.lift != 1 && climb_step == 2 && leg3.newPosz == obstacle_height)
    450c:	20 e0       	ldi	r18, 0x00	; 0
    450e:	30 e0       	ldi	r19, 0x00	; 0
    4510:	40 e8       	ldi	r20, 0x80	; 128
    4512:	5f e3       	ldi	r21, 0x3F	; 63
    4514:	60 91 fa 16 	lds	r22, 0x16FA
    4518:	70 91 fb 16 	lds	r23, 0x16FB
    451c:	80 91 fc 16 	lds	r24, 0x16FC
    4520:	90 91 fd 16 	lds	r25, 0x16FD
    4524:	0e 94 20 41 	call	0x8240	; 0x8240 <__cmpsf2>
    4528:	88 23       	and	r24, r24
    452a:	09 f4       	brne	.+2      	; 0x452e <__stack+0x42f>
    452c:	45 c0       	rjmp	.+138    	; 0x45b8 <__stack+0x4b9>
    452e:	20 e0       	ldi	r18, 0x00	; 0
    4530:	30 e0       	ldi	r19, 0x00	; 0
    4532:	40 e0       	ldi	r20, 0x00	; 0
    4534:	50 e4       	ldi	r21, 0x40	; 64
    4536:	60 91 61 19 	lds	r22, 0x1961
    453a:	70 91 62 19 	lds	r23, 0x1962
    453e:	80 91 63 19 	lds	r24, 0x1963
    4542:	90 91 64 19 	lds	r25, 0x1964
    4546:	0e 94 20 41 	call	0x8240	; 0x8240 <__cmpsf2>
    454a:	81 11       	cpse	r24, r1
    454c:	35 c0       	rjmp	.+106    	; 0x45b8 <__stack+0x4b9>
    454e:	40 90 59 19 	lds	r4, 0x1959
    4552:	50 90 5a 19 	lds	r5, 0x195A
    4556:	60 90 5b 19 	lds	r6, 0x195B
    455a:	70 90 5c 19 	lds	r7, 0x195C
    455e:	a3 01       	movw	r20, r6
    4560:	92 01       	movw	r18, r4
    4562:	a6 e9       	ldi	r26, 0x96	; 150
    4564:	b7 e1       	ldi	r27, 0x17	; 23
    4566:	6d 91       	ld	r22, X+
    4568:	7d 91       	ld	r23, X+
    456a:	8d 91       	ld	r24, X+
    456c:	9c 91       	ld	r25, X
    456e:	0e 94 20 41 	call	0x8240	; 0x8240 <__cmpsf2>
    4572:	81 11       	cpse	r24, r1
    4574:	8f c4       	rjmp	.+2334   	; 0x4e94 <__stack+0xd95>
		{
			height_change_leg4(obstacle_height);
    4576:	c3 01       	movw	r24, r6
    4578:	b2 01       	movw	r22, r4
    457a:	0e 94 b7 2c 	call	0x596e	; 0x596e <_Z18height_change_leg4f>
			leg4.climbing = 4;
    457e:	84 e0       	ldi	r24, 0x04	; 4
    4580:	90 e0       	ldi	r25, 0x00	; 0
    4582:	90 93 59 17 	sts	0x1759, r25
    4586:	80 93 58 17 	sts	0x1758, r24
			leg4.newPosz = obstacle_height;
    458a:	80 91 59 19 	lds	r24, 0x1959
    458e:	90 91 5a 19 	lds	r25, 0x195A
    4592:	a0 91 5b 19 	lds	r26, 0x195B
    4596:	b0 91 5c 19 	lds	r27, 0x195C
    459a:	80 93 06 17 	sts	0x1706, r24
    459e:	90 93 07 17 	sts	0x1707, r25
    45a2:	a0 93 08 17 	sts	0x1708, r26
    45a6:	b0 93 09 17 	sts	0x1709, r27
			leg4.on_obstacle = 1;
    45aa:	81 e0       	ldi	r24, 0x01	; 1
    45ac:	90 e0       	ldi	r25, 0x00	; 0
    45ae:	90 93 5b 17 	sts	0x175B, r25
    45b2:	80 93 5a 17 	sts	0x175A, r24
    45b6:	55 c0       	rjmp	.+170    	; 0x4662 <__stack+0x563>
		{
			height_change_leg4(obstacle_height);
			leg4.climbing = 1;
			leg4.newPosz = obstacle_height;
		}
		else if (leg3.lift != 1 && climb_step == 2 && leg4.newPosz == obstacle_height)
    45b8:	20 e0       	ldi	r18, 0x00	; 0
    45ba:	30 e0       	ldi	r19, 0x00	; 0
    45bc:	40 e8       	ldi	r20, 0x80	; 128
    45be:	5f e3       	ldi	r21, 0x3F	; 63
    45c0:	60 91 8a 17 	lds	r22, 0x178A
    45c4:	70 91 8b 17 	lds	r23, 0x178B
    45c8:	80 91 8c 17 	lds	r24, 0x178C
    45cc:	90 91 8d 17 	lds	r25, 0x178D
    45d0:	0e 94 20 41 	call	0x8240	; 0x8240 <__cmpsf2>
    45d4:	88 23       	and	r24, r24
    45d6:	09 f4       	brne	.+2      	; 0x45da <__stack+0x4db>
    45d8:	44 c0       	rjmp	.+136    	; 0x4662 <__stack+0x563>
    45da:	20 e0       	ldi	r18, 0x00	; 0
    45dc:	30 e0       	ldi	r19, 0x00	; 0
    45de:	40 e0       	ldi	r20, 0x00	; 0
    45e0:	50 e4       	ldi	r21, 0x40	; 64
    45e2:	60 91 61 19 	lds	r22, 0x1961
    45e6:	70 91 62 19 	lds	r23, 0x1962
    45ea:	80 91 63 19 	lds	r24, 0x1963
    45ee:	90 91 64 19 	lds	r25, 0x1964
    45f2:	0e 94 20 41 	call	0x8240	; 0x8240 <__cmpsf2>
    45f6:	81 11       	cpse	r24, r1
    45f8:	34 c0       	rjmp	.+104    	; 0x4662 <__stack+0x563>
    45fa:	80 91 59 19 	lds	r24, 0x1959
    45fe:	90 91 5a 19 	lds	r25, 0x195A
    4602:	a0 91 5b 19 	lds	r26, 0x195B
    4606:	b0 91 5c 19 	lds	r27, 0x195C
    460a:	89 83       	std	Y+1, r24	; 0x01
    460c:	9a 83       	std	Y+2, r25	; 0x02
    460e:	ab 83       	std	Y+3, r26	; 0x03
    4610:	bc 83       	std	Y+4, r27	; 0x04
    4612:	9c 01       	movw	r18, r24
    4614:	ad 01       	movw	r20, r26
    4616:	c3 01       	movw	r24, r6
    4618:	b2 01       	movw	r22, r4
    461a:	0e 94 20 41 	call	0x8240	; 0x8240 <__cmpsf2>
    461e:	81 11       	cpse	r24, r1
    4620:	59 c4       	rjmp	.+2226   	; 0x4ed4 <__stack+0xdd5>
		{
			height_change_leg3(obstacle_height);
    4622:	69 81       	ldd	r22, Y+1	; 0x01
    4624:	7a 81       	ldd	r23, Y+2	; 0x02
    4626:	8b 81       	ldd	r24, Y+3	; 0x03
    4628:	9c 81       	ldd	r25, Y+4	; 0x04
    462a:	0e 94 6d 2c 	call	0x58da	; 0x58da <_Z18height_change_leg3f>
			leg3.climbing = 4;
    462e:	84 e0       	ldi	r24, 0x04	; 4
    4630:	90 e0       	ldi	r25, 0x00	; 0
    4632:	a8 ee       	ldi	r26, 0xE8	; 232
    4634:	b7 e1       	ldi	r27, 0x17	; 23
    4636:	8d 93       	st	X+, r24
    4638:	9c 93       	st	X, r25
			leg3.newPosz = obstacle_height;
    463a:	80 91 59 19 	lds	r24, 0x1959
    463e:	90 91 5a 19 	lds	r25, 0x195A
    4642:	a0 91 5b 19 	lds	r26, 0x195B
    4646:	b0 91 5c 19 	lds	r27, 0x195C
    464a:	e6 e9       	ldi	r30, 0x96	; 150
    464c:	f7 e1       	ldi	r31, 0x17	; 23
    464e:	80 83       	st	Z, r24
    4650:	91 83       	std	Z+1, r25	; 0x01
    4652:	a2 83       	std	Z+2, r26	; 0x02
    4654:	b3 83       	std	Z+3, r27	; 0x03
			leg3.on_obstacle = 1;
    4656:	81 e0       	ldi	r24, 0x01	; 1
    4658:	90 e0       	ldi	r25, 0x00	; 0
    465a:	90 93 eb 17 	sts	0x17EB, r25
    465e:	80 93 ea 17 	sts	0x17EA, r24
			leg3.climbing = 1;
			leg3.newPosz = obstacle_height;
		}
		
		// Here the part about climbing down starts. 
		if (leg1.lift != 1 && climb_step2 == 1 && leg6.newPosz == z_in_use)
    4662:	20 e0       	ldi	r18, 0x00	; 0
    4664:	30 e0       	ldi	r19, 0x00	; 0
    4666:	40 e8       	ldi	r20, 0x80	; 128
    4668:	5f e3       	ldi	r21, 0x3F	; 63
    466a:	60 91 aa 18 	lds	r22, 0x18AA
    466e:	70 91 ab 18 	lds	r23, 0x18AB
    4672:	80 91 ac 18 	lds	r24, 0x18AC
    4676:	90 91 ad 18 	lds	r25, 0x18AD
    467a:	0e 94 20 41 	call	0x8240	; 0x8240 <__cmpsf2>
    467e:	88 23       	and	r24, r24
    4680:	e9 f1       	breq	.+122    	; 0x46fc <__stack+0x5fd>
    4682:	20 e0       	ldi	r18, 0x00	; 0
    4684:	30 e0       	ldi	r19, 0x00	; 0
    4686:	40 e8       	ldi	r20, 0x80	; 128
    4688:	5f e3       	ldi	r21, 0x3F	; 63
    468a:	60 91 5d 19 	lds	r22, 0x195D
    468e:	70 91 5e 19 	lds	r23, 0x195E
    4692:	80 91 5f 19 	lds	r24, 0x195F
    4696:	90 91 60 19 	lds	r25, 0x1960
    469a:	0e 94 20 41 	call	0x8240	; 0x8240 <__cmpsf2>
    469e:	81 11       	cpse	r24, r1
    46a0:	2d c0       	rjmp	.+90     	; 0x46fc <__stack+0x5fd>
    46a2:	40 90 55 19 	lds	r4, 0x1955
    46a6:	50 90 56 19 	lds	r5, 0x1956
    46aa:	60 90 57 19 	lds	r6, 0x1957
    46ae:	70 90 58 19 	lds	r7, 0x1958
    46b2:	a3 01       	movw	r20, r6
    46b4:	92 01       	movw	r18, r4
    46b6:	60 91 e6 15 	lds	r22, 0x15E6
    46ba:	70 91 e7 15 	lds	r23, 0x15E7
    46be:	80 91 e8 15 	lds	r24, 0x15E8
    46c2:	90 91 e9 15 	lds	r25, 0x15E9
    46c6:	0e 94 20 41 	call	0x8240	; 0x8240 <__cmpsf2>
    46ca:	81 11       	cpse	r24, r1
    46cc:	21 c4       	rjmp	.+2114   	; 0x4f10 <__stack+0xe11>
		{
			leg1.climbing = 2;
    46ce:	82 e0       	ldi	r24, 0x02	; 2
    46d0:	90 e0       	ldi	r25, 0x00	; 0
    46d2:	90 93 09 19 	sts	0x1909, r25
    46d6:	80 93 08 19 	sts	0x1908, r24
			leg1.newPosz = z_in_use;
    46da:	40 92 b6 18 	sts	0x18B6, r4
    46de:	50 92 b7 18 	sts	0x18B7, r5
    46e2:	60 92 b8 18 	sts	0x18B8, r6
    46e6:	70 92 b9 18 	sts	0x18B9, r7
			height_change_leg1(z_in_use);
    46ea:	c3 01       	movw	r24, r6
    46ec:	b2 01       	movw	r22, r4
    46ee:	0e 94 f7 2b 	call	0x57ee	; 0x57ee <_Z18height_change_leg1f>
			leg1.on_obstacle = 0;
    46f2:	10 92 0b 19 	sts	0x190B, r1
    46f6:	10 92 0a 19 	sts	0x190A, r1
    46fa:	6c c1       	rjmp	.+728    	; 0x49d4 <__stack+0x8d5>
		else if (leg1.lift != 1 && climb_step2 == 1)
		{
			leg1.climbing = 1;
			leg1.newPosz = obstacle_height;
		}
		else if (leg6.lift != 1 && climb_step2 == 1 && leg1.newPosz == z_in_use)
    46fc:	20 e0       	ldi	r18, 0x00	; 0
    46fe:	30 e0       	ldi	r19, 0x00	; 0
    4700:	40 e8       	ldi	r20, 0x80	; 128
    4702:	5f e3       	ldi	r21, 0x3F	; 63
    4704:	aa ed       	ldi	r26, 0xDA	; 218
    4706:	b5 e1       	ldi	r27, 0x15	; 21
    4708:	6d 91       	ld	r22, X+
    470a:	7d 91       	ld	r23, X+
    470c:	8d 91       	ld	r24, X+
    470e:	9c 91       	ld	r25, X
    4710:	0e 94 20 41 	call	0x8240	; 0x8240 <__cmpsf2>
    4714:	88 23       	and	r24, r24
    4716:	e9 f1       	breq	.+122    	; 0x4792 <__stack+0x693>
    4718:	20 e0       	ldi	r18, 0x00	; 0
    471a:	30 e0       	ldi	r19, 0x00	; 0
    471c:	40 e8       	ldi	r20, 0x80	; 128
    471e:	5f e3       	ldi	r21, 0x3F	; 63
    4720:	60 91 5d 19 	lds	r22, 0x195D
    4724:	70 91 5e 19 	lds	r23, 0x195E
    4728:	80 91 5f 19 	lds	r24, 0x195F
    472c:	90 91 60 19 	lds	r25, 0x1960
    4730:	0e 94 20 41 	call	0x8240	; 0x8240 <__cmpsf2>
    4734:	81 11       	cpse	r24, r1
    4736:	2d c0       	rjmp	.+90     	; 0x4792 <__stack+0x693>
    4738:	40 90 55 19 	lds	r4, 0x1955
    473c:	50 90 56 19 	lds	r5, 0x1956
    4740:	60 90 57 19 	lds	r6, 0x1957
    4744:	70 90 58 19 	lds	r7, 0x1958
    4748:	a3 01       	movw	r20, r6
    474a:	92 01       	movw	r18, r4
    474c:	60 91 b6 18 	lds	r22, 0x18B6
    4750:	70 91 b7 18 	lds	r23, 0x18B7
    4754:	80 91 b8 18 	lds	r24, 0x18B8
    4758:	90 91 b9 18 	lds	r25, 0x18B9
    475c:	0e 94 20 41 	call	0x8240	; 0x8240 <__cmpsf2>
    4760:	81 11       	cpse	r24, r1
    4762:	ed c3       	rjmp	.+2010   	; 0x4f3e <__stack+0xe3f>
		{
			leg6.climbing = 2;
    4764:	82 e0       	ldi	r24, 0x02	; 2
    4766:	90 e0       	ldi	r25, 0x00	; 0
    4768:	90 93 39 16 	sts	0x1639, r25
    476c:	80 93 38 16 	sts	0x1638, r24
			leg6.newPosz = z_in_use;
    4770:	40 92 e6 15 	sts	0x15E6, r4
    4774:	50 92 e7 15 	sts	0x15E7, r5
    4778:	60 92 e8 15 	sts	0x15E8, r6
    477c:	70 92 e9 15 	sts	0x15E9, r7
			height_change_leg6(z_in_use);
    4780:	c3 01       	movw	r24, r6
    4782:	b2 01       	movw	r22, r4
    4784:	0e 94 30 2d 	call	0x5a60	; 0x5a60 <_Z18height_change_leg6f>
			leg6.on_obstacle = 0;
    4788:	10 92 3b 16 	sts	0x163B, r1
    478c:	10 92 3a 16 	sts	0x163A, r1
    4790:	21 c1       	rjmp	.+578    	; 0x49d4 <__stack+0x8d5>
		else if (leg6.lift != 1 && climb_step2 == 1)
		{
			leg6.climbing = 1;
			leg6.newPosz = obstacle_height;
		}
		else if (leg2.lift != 1 && climb_step2 == 2 && leg5.newPosz == z_in_use)
    4792:	20 e0       	ldi	r18, 0x00	; 0
    4794:	30 e0       	ldi	r19, 0x00	; 0
    4796:	40 e8       	ldi	r20, 0x80	; 128
    4798:	5f e3       	ldi	r21, 0x3F	; 63
    479a:	60 91 1a 18 	lds	r22, 0x181A
    479e:	70 91 1b 18 	lds	r23, 0x181B
    47a2:	80 91 1c 18 	lds	r24, 0x181C
    47a6:	90 91 1d 18 	lds	r25, 0x181D
    47aa:	0e 94 20 41 	call	0x8240	; 0x8240 <__cmpsf2>
    47ae:	88 23       	and	r24, r24
    47b0:	b1 f1       	breq	.+108    	; 0x481e <__stack+0x71f>
    47b2:	20 e0       	ldi	r18, 0x00	; 0
    47b4:	30 e0       	ldi	r19, 0x00	; 0
    47b6:	40 e0       	ldi	r20, 0x00	; 0
    47b8:	50 e4       	ldi	r21, 0x40	; 64
    47ba:	60 91 5d 19 	lds	r22, 0x195D
    47be:	70 91 5e 19 	lds	r23, 0x195E
    47c2:	80 91 5f 19 	lds	r24, 0x195F
    47c6:	90 91 60 19 	lds	r25, 0x1960
    47ca:	0e 94 20 41 	call	0x8240	; 0x8240 <__cmpsf2>
    47ce:	81 11       	cpse	r24, r1
    47d0:	26 c0       	rjmp	.+76     	; 0x481e <__stack+0x71f>
    47d2:	40 90 55 19 	lds	r4, 0x1955
    47d6:	50 90 56 19 	lds	r5, 0x1956
    47da:	60 90 57 19 	lds	r6, 0x1957
    47de:	70 90 58 19 	lds	r7, 0x1958
    47e2:	a3 01       	movw	r20, r6
    47e4:	92 01       	movw	r18, r4
    47e6:	f6 01       	movw	r30, r12
    47e8:	60 81       	ld	r22, Z
    47ea:	71 81       	ldd	r23, Z+1	; 0x01
    47ec:	82 81       	ldd	r24, Z+2	; 0x02
    47ee:	93 81       	ldd	r25, Z+3	; 0x03
    47f0:	0e 94 20 41 	call	0x8240	; 0x8240 <__cmpsf2>
    47f4:	81 11       	cpse	r24, r1
    47f6:	ba c3       	rjmp	.+1908   	; 0x4f6c <__stack+0xe6d>
		{
			leg2.climbing = 2;
    47f8:	82 e0       	ldi	r24, 0x02	; 2
    47fa:	90 e0       	ldi	r25, 0x00	; 0
    47fc:	d4 01       	movw	r26, r8
    47fe:	8d 93       	st	X+, r24
    4800:	9c 93       	st	X, r25
			leg2.newPosz = z_in_use;
    4802:	f5 01       	movw	r30, r10
    4804:	40 82       	st	Z, r4
    4806:	51 82       	std	Z+1, r5	; 0x01
    4808:	62 82       	std	Z+2, r6	; 0x02
    480a:	73 82       	std	Z+3, r7	; 0x03
			height_change_leg2(z_in_use);
    480c:	c3 01       	movw	r24, r6
    480e:	b2 01       	movw	r22, r4
    4810:	0e 94 47 2c 	call	0x588e	; 0x588e <_Z18height_change_leg2f>
			leg2.on_obstacle = 0;
    4814:	10 92 7b 18 	sts	0x187B, r1
    4818:	10 92 7a 18 	sts	0x187A, r1
    481c:	db c0       	rjmp	.+438    	; 0x49d4 <__stack+0x8d5>
		else if (leg2.lift != 1 && climb_step2 == 2)
		{
			leg2.climbing = 1;
			leg2.newPosz = obstacle_height;
		}
		else if (leg5.lift != 1 && climb_step2 == 2 && leg2.newPosz == z_in_use)
    481e:	20 e0       	ldi	r18, 0x00	; 0
    4820:	30 e0       	ldi	r19, 0x00	; 0
    4822:	40 e8       	ldi	r20, 0x80	; 128
    4824:	5f e3       	ldi	r21, 0x3F	; 63
    4826:	60 91 6a 16 	lds	r22, 0x166A
    482a:	70 91 6b 16 	lds	r23, 0x166B
    482e:	80 91 6c 16 	lds	r24, 0x166C
    4832:	90 91 6d 16 	lds	r25, 0x166D
    4836:	0e 94 20 41 	call	0x8240	; 0x8240 <__cmpsf2>
    483a:	88 23       	and	r24, r24
    483c:	b9 f1       	breq	.+110    	; 0x48ac <__stack+0x7ad>
    483e:	20 e0       	ldi	r18, 0x00	; 0
    4840:	30 e0       	ldi	r19, 0x00	; 0
    4842:	40 e0       	ldi	r20, 0x00	; 0
    4844:	50 e4       	ldi	r21, 0x40	; 64
    4846:	60 91 5d 19 	lds	r22, 0x195D
    484a:	70 91 5e 19 	lds	r23, 0x195E
    484e:	80 91 5f 19 	lds	r24, 0x195F
    4852:	90 91 60 19 	lds	r25, 0x1960
    4856:	0e 94 20 41 	call	0x8240	; 0x8240 <__cmpsf2>
    485a:	81 11       	cpse	r24, r1
    485c:	27 c0       	rjmp	.+78     	; 0x48ac <__stack+0x7ad>
    485e:	40 90 55 19 	lds	r4, 0x1955
    4862:	50 90 56 19 	lds	r5, 0x1956
    4866:	60 90 57 19 	lds	r6, 0x1957
    486a:	70 90 58 19 	lds	r7, 0x1958
    486e:	a3 01       	movw	r20, r6
    4870:	92 01       	movw	r18, r4
    4872:	d5 01       	movw	r26, r10
    4874:	6d 91       	ld	r22, X+
    4876:	7d 91       	ld	r23, X+
    4878:	8d 91       	ld	r24, X+
    487a:	9c 91       	ld	r25, X
    487c:	0e 94 20 41 	call	0x8240	; 0x8240 <__cmpsf2>
    4880:	81 11       	cpse	r24, r1
    4882:	87 c3       	rjmp	.+1806   	; 0x4f92 <__stack+0xe93>
		{
			leg5.climbing = 2;
    4884:	82 e0       	ldi	r24, 0x02	; 2
    4886:	90 e0       	ldi	r25, 0x00	; 0
    4888:	f1 01       	movw	r30, r2
    488a:	91 83       	std	Z+1, r25	; 0x01
    488c:	80 83       	st	Z, r24
			leg5.newPosz = z_in_use;
    488e:	d6 01       	movw	r26, r12
    4890:	4d 92       	st	X+, r4
    4892:	5d 92       	st	X+, r5
    4894:	6d 92       	st	X+, r6
    4896:	7c 92       	st	X, r7
    4898:	13 97       	sbiw	r26, 0x03	; 3
			height_change_leg5(z_in_use);
    489a:	c3 01       	movw	r24, r6
    489c:	b2 01       	movw	r22, r4
    489e:	0e 94 0b 2d 	call	0x5a16	; 0x5a16 <_Z18height_change_leg5f>
			leg5.on_obstacle = 0;
    48a2:	10 92 cb 16 	sts	0x16CB, r1
    48a6:	10 92 ca 16 	sts	0x16CA, r1
    48aa:	94 c0       	rjmp	.+296    	; 0x49d4 <__stack+0x8d5>
		else if (leg5.lift != 1 && climb_step2 == 2)
		{
			leg5.climbing = 1;
			leg5.newPosz = obstacle_height;
		}
		else if (leg4.lift != 1 && climb_step2 == 3 && leg3.newPosz == z_in_use)
    48ac:	20 e0       	ldi	r18, 0x00	; 0
    48ae:	30 e0       	ldi	r19, 0x00	; 0
    48b0:	40 e8       	ldi	r20, 0x80	; 128
    48b2:	5f e3       	ldi	r21, 0x3F	; 63
    48b4:	60 91 fa 16 	lds	r22, 0x16FA
    48b8:	70 91 fb 16 	lds	r23, 0x16FB
    48bc:	80 91 fc 16 	lds	r24, 0x16FC
    48c0:	90 91 fd 16 	lds	r25, 0x16FD
    48c4:	0e 94 20 41 	call	0x8240	; 0x8240 <__cmpsf2>
    48c8:	88 23       	and	r24, r24
    48ca:	d9 f1       	breq	.+118    	; 0x4942 <__stack+0x843>
    48cc:	20 e0       	ldi	r18, 0x00	; 0
    48ce:	30 e0       	ldi	r19, 0x00	; 0
    48d0:	40 e4       	ldi	r20, 0x40	; 64
    48d2:	50 e4       	ldi	r21, 0x40	; 64
    48d4:	60 91 5d 19 	lds	r22, 0x195D
    48d8:	70 91 5e 19 	lds	r23, 0x195E
    48dc:	80 91 5f 19 	lds	r24, 0x195F
    48e0:	90 91 60 19 	lds	r25, 0x1960
    48e4:	0e 94 20 41 	call	0x8240	; 0x8240 <__cmpsf2>
    48e8:	81 11       	cpse	r24, r1
    48ea:	2b c0       	rjmp	.+86     	; 0x4942 <__stack+0x843>
    48ec:	40 90 55 19 	lds	r4, 0x1955
    48f0:	50 90 56 19 	lds	r5, 0x1956
    48f4:	60 90 57 19 	lds	r6, 0x1957
    48f8:	70 90 58 19 	lds	r7, 0x1958
    48fc:	a3 01       	movw	r20, r6
    48fe:	92 01       	movw	r18, r4
    4900:	e6 e9       	ldi	r30, 0x96	; 150
    4902:	f7 e1       	ldi	r31, 0x17	; 23
    4904:	60 81       	ld	r22, Z
    4906:	71 81       	ldd	r23, Z+1	; 0x01
    4908:	82 81       	ldd	r24, Z+2	; 0x02
    490a:	93 81       	ldd	r25, Z+3	; 0x03
    490c:	0e 94 20 41 	call	0x8240	; 0x8240 <__cmpsf2>
    4910:	81 11       	cpse	r24, r1
    4912:	52 c3       	rjmp	.+1700   	; 0x4fb8 <__stack+0xeb9>
		{
			leg4.climbing = 2;
    4914:	82 e0       	ldi	r24, 0x02	; 2
    4916:	90 e0       	ldi	r25, 0x00	; 0
    4918:	90 93 59 17 	sts	0x1759, r25
    491c:	80 93 58 17 	sts	0x1758, r24
			leg4.newPosz = z_in_use;
    4920:	40 92 06 17 	sts	0x1706, r4
    4924:	50 92 07 17 	sts	0x1707, r5
    4928:	60 92 08 17 	sts	0x1708, r6
    492c:	70 92 09 17 	sts	0x1709, r7
			height_change_leg4(z_in_use);
    4930:	c3 01       	movw	r24, r6
    4932:	b2 01       	movw	r22, r4
    4934:	0e 94 b7 2c 	call	0x596e	; 0x596e <_Z18height_change_leg4f>
			leg4.on_obstacle = 0;
    4938:	10 92 5b 17 	sts	0x175B, r1
    493c:	10 92 5a 17 	sts	0x175A, r1
    4940:	49 c0       	rjmp	.+146    	; 0x49d4 <__stack+0x8d5>
		else if (leg4.lift != 1 && climb_step2 == 3)
		{
			leg4.climbing = 1;
			leg4.newPosz = obstacle_height;
		}
		else if (leg3.lift != 1 && climb_step2 == 3 && leg4.newPosz == z_in_use)
    4942:	20 e0       	ldi	r18, 0x00	; 0
    4944:	30 e0       	ldi	r19, 0x00	; 0
    4946:	40 e8       	ldi	r20, 0x80	; 128
    4948:	5f e3       	ldi	r21, 0x3F	; 63
    494a:	60 91 8a 17 	lds	r22, 0x178A
    494e:	70 91 8b 17 	lds	r23, 0x178B
    4952:	80 91 8c 17 	lds	r24, 0x178C
    4956:	90 91 8d 17 	lds	r25, 0x178D
    495a:	0e 94 20 41 	call	0x8240	; 0x8240 <__cmpsf2>
    495e:	88 23       	and	r24, r24
    4960:	c9 f1       	breq	.+114    	; 0x49d4 <__stack+0x8d5>
    4962:	20 e0       	ldi	r18, 0x00	; 0
    4964:	30 e0       	ldi	r19, 0x00	; 0
    4966:	40 e4       	ldi	r20, 0x40	; 64
    4968:	50 e4       	ldi	r21, 0x40	; 64
    496a:	60 91 5d 19 	lds	r22, 0x195D
    496e:	70 91 5e 19 	lds	r23, 0x195E
    4972:	80 91 5f 19 	lds	r24, 0x195F
    4976:	90 91 60 19 	lds	r25, 0x1960
    497a:	0e 94 20 41 	call	0x8240	; 0x8240 <__cmpsf2>
    497e:	81 11       	cpse	r24, r1
    4980:	29 c0       	rjmp	.+82     	; 0x49d4 <__stack+0x8d5>
    4982:	40 90 55 19 	lds	r4, 0x1955
    4986:	50 90 56 19 	lds	r5, 0x1956
    498a:	60 90 57 19 	lds	r6, 0x1957
    498e:	70 90 58 19 	lds	r7, 0x1958
    4992:	a3 01       	movw	r20, r6
    4994:	92 01       	movw	r18, r4
    4996:	60 91 06 17 	lds	r22, 0x1706
    499a:	70 91 07 17 	lds	r23, 0x1707
    499e:	80 91 08 17 	lds	r24, 0x1708
    49a2:	90 91 09 17 	lds	r25, 0x1709
    49a6:	0e 94 20 41 	call	0x8240	; 0x8240 <__cmpsf2>
    49aa:	81 11       	cpse	r24, r1
    49ac:	1c c3       	rjmp	.+1592   	; 0x4fe6 <__stack+0xee7>
		{
			leg3.climbing = 2;
    49ae:	82 e0       	ldi	r24, 0x02	; 2
    49b0:	90 e0       	ldi	r25, 0x00	; 0
    49b2:	a8 ee       	ldi	r26, 0xE8	; 232
    49b4:	b7 e1       	ldi	r27, 0x17	; 23
    49b6:	8d 93       	st	X+, r24
    49b8:	9c 93       	st	X, r25
			leg3.newPosz = z_in_use;
    49ba:	e6 e9       	ldi	r30, 0x96	; 150
    49bc:	f7 e1       	ldi	r31, 0x17	; 23
    49be:	40 82       	st	Z, r4
    49c0:	51 82       	std	Z+1, r5	; 0x01
    49c2:	62 82       	std	Z+2, r6	; 0x02
    49c4:	73 82       	std	Z+3, r7	; 0x03
			height_change_leg3(z_in_use);
    49c6:	c3 01       	movw	r24, r6
    49c8:	b2 01       	movw	r22, r4
    49ca:	87 d7       	rcall	.+3854   	; 0x58da <_Z18height_change_leg3f>
			leg3.on_obstacle = 0;
    49cc:	10 92 eb 17 	sts	0x17EB, r1
    49d0:	10 92 ea 17 	sts	0x17EA, r1
			leg3.climbing = 1;
			leg3.newPosz = obstacle_height;
		}
		
		//For safety when climbing down, if we fall.
		MPU_get_mean();
    49d4:	0e 94 76 10 	call	0x20ec	; 0x20ec <_Z12MPU_get_meanv>
		if(MPURMean - climb_start_slope_r > 0.10 && climb_step2 == 1)
    49d8:	20 91 4d 19 	lds	r18, 0x194D
    49dc:	30 91 4e 19 	lds	r19, 0x194E
    49e0:	40 91 4f 19 	lds	r20, 0x194F
    49e4:	50 91 50 19 	lds	r21, 0x1950
    49e8:	60 91 40 19 	lds	r22, 0x1940
    49ec:	70 91 41 19 	lds	r23, 0x1941
    49f0:	80 91 42 19 	lds	r24, 0x1942
    49f4:	90 91 43 19 	lds	r25, 0x1943
    49f8:	0e 94 42 40 	call	0x8084	; 0x8084 <__subsf3>
    49fc:	06 2f       	mov	r16, r22
    49fe:	17 2f       	mov	r17, r23
    4a00:	f8 2e       	mov	r15, r24
    4a02:	e9 2e       	mov	r14, r25
    4a04:	2d ec       	ldi	r18, 0xCD	; 205
    4a06:	3c ec       	ldi	r19, 0xCC	; 204
    4a08:	4c ec       	ldi	r20, 0xCC	; 204
    4a0a:	5d e3       	ldi	r21, 0x3D	; 61
    4a0c:	0e 94 77 43 	call	0x86ee	; 0x86ee <__gesf2>
    4a10:	18 16       	cp	r1, r24
    4a12:	dc f5       	brge	.+118    	; 0x4a8a <__stack+0x98b>
    4a14:	20 e0       	ldi	r18, 0x00	; 0
    4a16:	30 e0       	ldi	r19, 0x00	; 0
    4a18:	40 e8       	ldi	r20, 0x80	; 128
    4a1a:	5f e3       	ldi	r21, 0x3F	; 63
    4a1c:	60 91 5d 19 	lds	r22, 0x195D
    4a20:	70 91 5e 19 	lds	r23, 0x195E
    4a24:	80 91 5f 19 	lds	r24, 0x195F
    4a28:	90 91 60 19 	lds	r25, 0x1960
    4a2c:	0e 94 20 41 	call	0x8240	; 0x8240 <__cmpsf2>
    4a30:	81 11       	cpse	r24, r1
    4a32:	2b c0       	rjmp	.+86     	; 0x4a8a <__stack+0x98b>
		{
			leg1.newPosz = z_in_use;
    4a34:	60 91 55 19 	lds	r22, 0x1955
    4a38:	70 91 56 19 	lds	r23, 0x1956
    4a3c:	80 91 57 19 	lds	r24, 0x1957
    4a40:	90 91 58 19 	lds	r25, 0x1958
    4a44:	60 93 b6 18 	sts	0x18B6, r22
    4a48:	70 93 b7 18 	sts	0x18B7, r23
    4a4c:	80 93 b8 18 	sts	0x18B8, r24
    4a50:	90 93 b9 18 	sts	0x18B9, r25
			height_change_leg1(z_in_use);
    4a54:	cc d6       	rcall	.+3480   	; 0x57ee <_Z18height_change_leg1f>
			leg1.climbing = 0;
    4a56:	10 92 09 19 	sts	0x1909, r1
    4a5a:	10 92 08 19 	sts	0x1908, r1
			leg6.newPosz = z_in_use;
    4a5e:	60 91 55 19 	lds	r22, 0x1955
    4a62:	70 91 56 19 	lds	r23, 0x1956
    4a66:	80 91 57 19 	lds	r24, 0x1957
    4a6a:	90 91 58 19 	lds	r25, 0x1958
    4a6e:	60 93 e6 15 	sts	0x15E6, r22
    4a72:	70 93 e7 15 	sts	0x15E7, r23
    4a76:	80 93 e8 15 	sts	0x15E8, r24
    4a7a:	90 93 e9 15 	sts	0x15E9, r25
			height_change_leg6(z_in_use);
    4a7e:	f0 d7       	rcall	.+4064   	; 0x5a60 <_Z18height_change_leg6f>
			leg6.climbing = 0;
    4a80:	10 92 39 16 	sts	0x1639, r1
    4a84:	10 92 38 16 	sts	0x1638, r1
    4a88:	cd c0       	rjmp	.+410    	; 0x4c24 <__stack+0xb25>
		}
		else if(climb_step2 == 2 || climb_step == 2)
    4a8a:	40 90 5d 19 	lds	r4, 0x195D
    4a8e:	50 90 5e 19 	lds	r5, 0x195E
    4a92:	60 90 5f 19 	lds	r6, 0x195F
    4a96:	70 90 60 19 	lds	r7, 0x1960
    4a9a:	20 e0       	ldi	r18, 0x00	; 0
    4a9c:	30 e0       	ldi	r19, 0x00	; 0
    4a9e:	40 e0       	ldi	r20, 0x00	; 0
    4aa0:	50 e4       	ldi	r21, 0x40	; 64
    4aa2:	c3 01       	movw	r24, r6
    4aa4:	b2 01       	movw	r22, r4
    4aa6:	0e 94 20 41 	call	0x8240	; 0x8240 <__cmpsf2>
    4aaa:	88 23       	and	r24, r24
    4aac:	81 f0       	breq	.+32     	; 0x4ace <__stack+0x9cf>
    4aae:	20 e0       	ldi	r18, 0x00	; 0
    4ab0:	30 e0       	ldi	r19, 0x00	; 0
    4ab2:	40 e0       	ldi	r20, 0x00	; 0
    4ab4:	50 e4       	ldi	r21, 0x40	; 64
    4ab6:	60 91 61 19 	lds	r22, 0x1961
    4aba:	70 91 62 19 	lds	r23, 0x1962
    4abe:	80 91 63 19 	lds	r24, 0x1963
    4ac2:	90 91 64 19 	lds	r25, 0x1964
    4ac6:	0e 94 20 41 	call	0x8240	; 0x8240 <__cmpsf2>
    4aca:	81 11       	cpse	r24, r1
    4acc:	2f c0       	rjmp	.+94     	; 0x4b2c <__stack+0xa2d>
		{
			climb_counter += 1;
    4ace:	80 91 3f 19 	lds	r24, 0x193F
    4ad2:	8f 5f       	subi	r24, 0xFF	; 255
    4ad4:	80 93 3f 19 	sts	0x193F, r24
			if(climb_counter > 6)
    4ad8:	87 30       	cpi	r24, 0x07	; 7
    4ada:	08 f4       	brcc	.+2      	; 0x4ade <__stack+0x9df>
    4adc:	a3 c0       	rjmp	.+326    	; 0x4c24 <__stack+0xb25>
			{
				leg2.newPosz = z_in_use;
    4ade:	60 91 55 19 	lds	r22, 0x1955
    4ae2:	70 91 56 19 	lds	r23, 0x1956
    4ae6:	80 91 57 19 	lds	r24, 0x1957
    4aea:	90 91 58 19 	lds	r25, 0x1958
    4aee:	d5 01       	movw	r26, r10
    4af0:	6d 93       	st	X+, r22
    4af2:	7d 93       	st	X+, r23
    4af4:	8d 93       	st	X+, r24
    4af6:	9c 93       	st	X, r25
    4af8:	13 97       	sbiw	r26, 0x03	; 3
				height_change_leg2(z_in_use);
    4afa:	c9 d6       	rcall	.+3474   	; 0x588e <_Z18height_change_leg2f>
				leg2.climbing = 0;
    4afc:	f4 01       	movw	r30, r8
    4afe:	11 82       	std	Z+1, r1	; 0x01
    4b00:	10 82       	st	Z, r1
				leg5.newPosz = z_in_use;
    4b02:	60 91 55 19 	lds	r22, 0x1955
    4b06:	70 91 56 19 	lds	r23, 0x1956
    4b0a:	80 91 57 19 	lds	r24, 0x1957
    4b0e:	90 91 58 19 	lds	r25, 0x1958
    4b12:	d6 01       	movw	r26, r12
    4b14:	6d 93       	st	X+, r22
    4b16:	7d 93       	st	X+, r23
    4b18:	8d 93       	st	X+, r24
    4b1a:	9c 93       	st	X, r25
    4b1c:	13 97       	sbiw	r26, 0x03	; 3
				height_change_leg5(z_in_use);
    4b1e:	7b d7       	rcall	.+3830   	; 0x5a16 <_Z18height_change_leg5f>
				leg5.climbing = 0;
    4b20:	f1 01       	movw	r30, r2
    4b22:	11 82       	std	Z+1, r1	; 0x01
    4b24:	10 82       	st	Z, r1
				
				climb_counter = 0;
    4b26:	10 92 3f 19 	sts	0x193F, r1
    4b2a:	7c c0       	rjmp	.+248    	; 0x4c24 <__stack+0xb25>
			}
		}
		else if(MPURMean - climb_start_slope_r < -0.10 && climb_step2 == 3)
    4b2c:	2d ec       	ldi	r18, 0xCD	; 205
    4b2e:	3c ec       	ldi	r19, 0xCC	; 204
    4b30:	4c ec       	ldi	r20, 0xCC	; 204
    4b32:	5d eb       	ldi	r21, 0xBD	; 189
    4b34:	60 2f       	mov	r22, r16
    4b36:	71 2f       	mov	r23, r17
    4b38:	8f 2d       	mov	r24, r15
    4b3a:	9e 2d       	mov	r25, r14
    4b3c:	0e 94 20 41 	call	0x8240	; 0x8240 <__cmpsf2>
    4b40:	88 23       	and	r24, r24
    4b42:	a4 f5       	brge	.+104    	; 0x4bac <__stack+0xaad>
    4b44:	20 e0       	ldi	r18, 0x00	; 0
    4b46:	30 e0       	ldi	r19, 0x00	; 0
    4b48:	40 e4       	ldi	r20, 0x40	; 64
    4b4a:	50 e4       	ldi	r21, 0x40	; 64
    4b4c:	c3 01       	movw	r24, r6
    4b4e:	b2 01       	movw	r22, r4
    4b50:	0e 94 20 41 	call	0x8240	; 0x8240 <__cmpsf2>
    4b54:	81 11       	cpse	r24, r1
    4b56:	66 c0       	rjmp	.+204    	; 0x4c24 <__stack+0xb25>
		{
			leg3.newPosz = z_in_use;
    4b58:	60 91 55 19 	lds	r22, 0x1955
    4b5c:	70 91 56 19 	lds	r23, 0x1956
    4b60:	80 91 57 19 	lds	r24, 0x1957
    4b64:	90 91 58 19 	lds	r25, 0x1958
    4b68:	a6 e9       	ldi	r26, 0x96	; 150
    4b6a:	b7 e1       	ldi	r27, 0x17	; 23
    4b6c:	6d 93       	st	X+, r22
    4b6e:	7d 93       	st	X+, r23
    4b70:	8d 93       	st	X+, r24
    4b72:	9c 93       	st	X, r25
    4b74:	13 97       	sbiw	r26, 0x03	; 3
			height_change_leg3(z_in_use);
    4b76:	b1 d6       	rcall	.+3426   	; 0x58da <_Z18height_change_leg3f>
			leg3.climbing = 0;
    4b78:	e8 ee       	ldi	r30, 0xE8	; 232
    4b7a:	f7 e1       	ldi	r31, 0x17	; 23
    4b7c:	11 82       	std	Z+1, r1	; 0x01
    4b7e:	10 82       	st	Z, r1
			leg4.newPosz = z_in_use;
    4b80:	60 91 55 19 	lds	r22, 0x1955
    4b84:	70 91 56 19 	lds	r23, 0x1956
    4b88:	80 91 57 19 	lds	r24, 0x1957
    4b8c:	90 91 58 19 	lds	r25, 0x1958
    4b90:	60 93 06 17 	sts	0x1706, r22
    4b94:	70 93 07 17 	sts	0x1707, r23
    4b98:	80 93 08 17 	sts	0x1708, r24
    4b9c:	90 93 09 17 	sts	0x1709, r25
			height_change_leg4(z_in_use);
    4ba0:	e6 d6       	rcall	.+3532   	; 0x596e <_Z18height_change_leg4f>
			leg4.climbing = 0;
    4ba2:	10 92 59 17 	sts	0x1759, r1
    4ba6:	10 92 58 17 	sts	0x1758, r1
    4baa:	3c c0       	rjmp	.+120    	; 0x4c24 <__stack+0xb25>
		}
		else if(climb_step2 == 3)
    4bac:	20 e0       	ldi	r18, 0x00	; 0
    4bae:	30 e0       	ldi	r19, 0x00	; 0
    4bb0:	40 e4       	ldi	r20, 0x40	; 64
    4bb2:	50 e4       	ldi	r21, 0x40	; 64
    4bb4:	c3 01       	movw	r24, r6
    4bb6:	b2 01       	movw	r22, r4
    4bb8:	0e 94 20 41 	call	0x8240	; 0x8240 <__cmpsf2>
    4bbc:	81 11       	cpse	r24, r1
    4bbe:	32 c0       	rjmp	.+100    	; 0x4c24 <__stack+0xb25>
		{
			climb_counter += 1;
    4bc0:	80 91 3f 19 	lds	r24, 0x193F
    4bc4:	8f 5f       	subi	r24, 0xFF	; 255
    4bc6:	80 93 3f 19 	sts	0x193F, r24
			if(climb_counter > 4)
    4bca:	85 30       	cpi	r24, 0x05	; 5
    4bcc:	58 f1       	brcs	.+86     	; 0x4c24 <__stack+0xb25>
			{
				leg3.newPosz = z_in_use;
    4bce:	60 91 55 19 	lds	r22, 0x1955
    4bd2:	70 91 56 19 	lds	r23, 0x1956
    4bd6:	80 91 57 19 	lds	r24, 0x1957
    4bda:	90 91 58 19 	lds	r25, 0x1958
    4bde:	a6 e9       	ldi	r26, 0x96	; 150
    4be0:	b7 e1       	ldi	r27, 0x17	; 23
    4be2:	6d 93       	st	X+, r22
    4be4:	7d 93       	st	X+, r23
    4be6:	8d 93       	st	X+, r24
    4be8:	9c 93       	st	X, r25
    4bea:	13 97       	sbiw	r26, 0x03	; 3
				height_change_leg3(z_in_use);
    4bec:	76 d6       	rcall	.+3308   	; 0x58da <_Z18height_change_leg3f>
				leg3.climbing = 0;
    4bee:	e8 ee       	ldi	r30, 0xE8	; 232
    4bf0:	f7 e1       	ldi	r31, 0x17	; 23
    4bf2:	11 82       	std	Z+1, r1	; 0x01
    4bf4:	10 82       	st	Z, r1
				leg4.newPosz = z_in_use;
    4bf6:	60 91 55 19 	lds	r22, 0x1955
    4bfa:	70 91 56 19 	lds	r23, 0x1956
    4bfe:	80 91 57 19 	lds	r24, 0x1957
    4c02:	90 91 58 19 	lds	r25, 0x1958
    4c06:	60 93 06 17 	sts	0x1706, r22
    4c0a:	70 93 07 17 	sts	0x1707, r23
    4c0e:	80 93 08 17 	sts	0x1708, r24
    4c12:	90 93 09 17 	sts	0x1709, r25
				height_change_leg4(z_in_use);
    4c16:	ab d6       	rcall	.+3414   	; 0x596e <_Z18height_change_leg4f>
				leg4.climbing = 0;
    4c18:	10 92 59 17 	sts	0x1759, r1
    4c1c:	10 92 58 17 	sts	0x1758, r1
				
				climb_counter = 0;
    4c20:	10 92 3f 19 	sts	0x193F, r1
			}
		}
		
		move_robot(0,50,100);
    4c24:	44 e6       	ldi	r20, 0x64	; 100
    4c26:	50 e0       	ldi	r21, 0x00	; 0
    4c28:	62 e3       	ldi	r22, 0x32	; 50
    4c2a:	70 e0       	ldi	r23, 0x00	; 0
    4c2c:	80 e0       	ldi	r24, 0x00	; 0
    4c2e:	90 e0       	ldi	r25, 0x00	; 0
    4c30:	0e 94 0b 19 	call	0x3216	; 0x3216 <_Z10move_robotiii>
		wait(200);
    4c34:	88 ec       	ldi	r24, 0xC8	; 200
    4c36:	90 e0       	ldi	r25, 0x00	; 0
    4c38:	0e 94 47 05 	call	0xa8e	; 0xa8e <_Z4waitj>
		
		climb_rotation_counter = 0;
    4c3c:	10 92 3e 19 	sts	0x193E, r1
				leg2.climbing = 0;
				leg5.newPosz = z_in_use;
				height_change_leg5(z_in_use);
				leg5.climbing = 0;
				leg3.climbing = 0;
				leg4.climbing = 0;
    4c40:	0f 2e       	mov	r0, r31
    4c42:	f8 e5       	ldi	r31, 0x58	; 88
    4c44:	ef 2e       	mov	r14, r31
    4c46:	f7 e1       	ldi	r31, 0x17	; 23
    4c48:	ff 2e       	mov	r15, r31
    4c4a:	f0 2d       	mov	r31, r0
			else
			{
				move_robot(0, 60, 0);
			}
			climb_rotation_counter += 1;
			if(climb_rotation_counter > 8 && (leg3.newPosz > z_in_use || leg4.newPosz > z_in_use))
    4c4c:	06 e0       	ldi	r16, 0x06	; 6
    4c4e:	17 e1       	ldi	r17, 0x17	; 23
		
		move_robot(0,50,100);
		wait(200);
		
		climb_rotation_counter = 0;
		while(fabs(MPU_get_y() - climb_start_control) > 0.10 && rotation_flag)
    4c50:	5f c0       	rjmp	.+190    	; 0x4d10 <__stack+0xc11>
		{
			MPU_update();
			if (MPU_get_y() - climb_start_control > 0)
			{
				move_robot(0, 40, 0);
    4c52:	40 e0       	ldi	r20, 0x00	; 0
    4c54:	50 e0       	ldi	r21, 0x00	; 0
    4c56:	68 e2       	ldi	r22, 0x28	; 40
    4c58:	70 e0       	ldi	r23, 0x00	; 0
    4c5a:	80 e0       	ldi	r24, 0x00	; 0
    4c5c:	90 e0       	ldi	r25, 0x00	; 0
    4c5e:	0e 94 0b 19 	call	0x3216	; 0x3216 <_Z10move_robotiii>
    4c62:	08 c0       	rjmp	.+16     	; 0x4c74 <__stack+0xb75>
			}
			else
			{
				move_robot(0, 60, 0);
    4c64:	40 e0       	ldi	r20, 0x00	; 0
    4c66:	50 e0       	ldi	r21, 0x00	; 0
    4c68:	6c e3       	ldi	r22, 0x3C	; 60
    4c6a:	70 e0       	ldi	r23, 0x00	; 0
    4c6c:	80 e0       	ldi	r24, 0x00	; 0
    4c6e:	90 e0       	ldi	r25, 0x00	; 0
    4c70:	0e 94 0b 19 	call	0x3216	; 0x3216 <_Z10move_robotiii>
			}
			climb_rotation_counter += 1;
    4c74:	80 91 3e 19 	lds	r24, 0x193E
    4c78:	8f 5f       	subi	r24, 0xFF	; 255
    4c7a:	80 93 3e 19 	sts	0x193E, r24
			if(climb_rotation_counter > 8 && (leg3.newPosz > z_in_use || leg4.newPosz > z_in_use))
    4c7e:	89 30       	cpi	r24, 0x09	; 9
    4c80:	08 f4       	brcc	.+2      	; 0x4c84 <__stack+0xb85>
    4c82:	46 c0       	rjmp	.+140    	; 0x4d10 <__stack+0xc11>
    4c84:	40 90 55 19 	lds	r4, 0x1955
    4c88:	50 90 56 19 	lds	r5, 0x1956
    4c8c:	60 90 57 19 	lds	r6, 0x1957
    4c90:	70 90 58 19 	lds	r7, 0x1958
    4c94:	a3 01       	movw	r20, r6
    4c96:	92 01       	movw	r18, r4
    4c98:	a6 e9       	ldi	r26, 0x96	; 150
    4c9a:	b7 e1       	ldi	r27, 0x17	; 23
    4c9c:	6d 91       	ld	r22, X+
    4c9e:	7d 91       	ld	r23, X+
    4ca0:	8d 91       	ld	r24, X+
    4ca2:	9c 91       	ld	r25, X
    4ca4:	0e 94 77 43 	call	0x86ee	; 0x86ee <__gesf2>
    4ca8:	18 16       	cp	r1, r24
    4caa:	5c f0       	brlt	.+22     	; 0x4cc2 <__stack+0xbc3>
    4cac:	f8 01       	movw	r30, r16
    4cae:	20 81       	ld	r18, Z
    4cb0:	31 81       	ldd	r19, Z+1	; 0x01
    4cb2:	42 81       	ldd	r20, Z+2	; 0x02
    4cb4:	53 81       	ldd	r21, Z+3	; 0x03
    4cb6:	c3 01       	movw	r24, r6
    4cb8:	b2 01       	movw	r22, r4
    4cba:	0e 94 20 41 	call	0x8240	; 0x8240 <__cmpsf2>
    4cbe:	88 23       	and	r24, r24
    4cc0:	3c f5       	brge	.+78     	; 0x4d10 <__stack+0xc11>
			{
				leg2.newPosz = z_in_use;
    4cc2:	d5 01       	movw	r26, r10
    4cc4:	4d 92       	st	X+, r4
    4cc6:	5d 92       	st	X+, r5
    4cc8:	6d 92       	st	X+, r6
    4cca:	7c 92       	st	X, r7
    4ccc:	13 97       	sbiw	r26, 0x03	; 3
				height_change_leg2(z_in_use);
    4cce:	c3 01       	movw	r24, r6
    4cd0:	b2 01       	movw	r22, r4
    4cd2:	dd d5       	rcall	.+3002   	; 0x588e <_Z18height_change_leg2f>
				leg2.climbing = 0;
    4cd4:	f4 01       	movw	r30, r8
    4cd6:	11 82       	std	Z+1, r1	; 0x01
    4cd8:	10 82       	st	Z, r1
				leg5.newPosz = z_in_use;
    4cda:	60 91 55 19 	lds	r22, 0x1955
    4cde:	70 91 56 19 	lds	r23, 0x1956
    4ce2:	80 91 57 19 	lds	r24, 0x1957
    4ce6:	90 91 58 19 	lds	r25, 0x1958
    4cea:	d6 01       	movw	r26, r12
    4cec:	6d 93       	st	X+, r22
    4cee:	7d 93       	st	X+, r23
    4cf0:	8d 93       	st	X+, r24
    4cf2:	9c 93       	st	X, r25
    4cf4:	13 97       	sbiw	r26, 0x03	; 3
				height_change_leg5(z_in_use);
    4cf6:	8f d6       	rcall	.+3358   	; 0x5a16 <_Z18height_change_leg5f>
				leg5.climbing = 0;
    4cf8:	f1 01       	movw	r30, r2
    4cfa:	11 82       	std	Z+1, r1	; 0x01
    4cfc:	10 82       	st	Z, r1
				leg3.climbing = 0;
    4cfe:	a8 ee       	ldi	r26, 0xE8	; 232
    4d00:	b7 e1       	ldi	r27, 0x17	; 23
    4d02:	1d 92       	st	X+, r1
    4d04:	1c 92       	st	X, r1
				leg4.climbing = 0;
    4d06:	f7 01       	movw	r30, r14
    4d08:	11 82       	std	Z+1, r1	; 0x01
    4d0a:	10 82       	st	Z, r1
				
				rotation_flag = 0;
    4d0c:	10 92 48 19 	sts	0x1948, r1
		
		move_robot(0,50,100);
		wait(200);
		
		climb_rotation_counter = 0;
		while(fabs(MPU_get_y() - climb_start_control) > 0.10 && rotation_flag)
    4d10:	0e 94 fa 39 	call	0x73f4	; 0x73f4 <_Z9MPU_get_yv>
    4d14:	20 91 51 19 	lds	r18, 0x1951
    4d18:	30 91 52 19 	lds	r19, 0x1952
    4d1c:	40 91 53 19 	lds	r20, 0x1953
    4d20:	50 91 54 19 	lds	r21, 0x1954
    4d24:	0e 94 42 40 	call	0x8084	; 0x8084 <__subsf3>
    4d28:	9f 77       	andi	r25, 0x7F	; 127
    4d2a:	2d ec       	ldi	r18, 0xCD	; 205
    4d2c:	3c ec       	ldi	r19, 0xCC	; 204
    4d2e:	4c ec       	ldi	r20, 0xCC	; 204
    4d30:	5d e3       	ldi	r21, 0x3D	; 61
    4d32:	0e 94 77 43 	call	0x86ee	; 0x86ee <__gesf2>
    4d36:	18 16       	cp	r1, r24
    4d38:	d4 f4       	brge	.+52     	; 0x4d6e <__stack+0xc6f>
    4d3a:	80 91 48 19 	lds	r24, 0x1948
    4d3e:	81 11       	cpse	r24, r1
    4d40:	20 c0       	rjmp	.+64     	; 0x4d82 <__stack+0xc83>
    4d42:	15 c0       	rjmp	.+42     	; 0x4d6e <__stack+0xc6f>
			}
		}
		rotation_flag = 0;
	}
	//take another step for good measure
	move_robot(0,50,100);
    4d44:	44 e6       	ldi	r20, 0x64	; 100
    4d46:	50 e0       	ldi	r21, 0x00	; 0
    4d48:	62 e3       	ldi	r22, 0x32	; 50
    4d4a:	70 e0       	ldi	r23, 0x00	; 0
    4d4c:	80 e0       	ldi	r24, 0x00	; 0
    4d4e:	90 e0       	ldi	r25, 0x00	; 0
    4d50:	0e 94 0b 19 	call	0x3216	; 0x3216 <_Z10move_robotiii>
	wait(30);
    4d54:	8e e1       	ldi	r24, 0x1E	; 30
    4d56:	90 e0       	ldi	r25, 0x00	; 0
    4d58:	0e 94 47 05 	call	0xa8e	; 0xa8e <_Z4waitj>
	move_robot(0,50,100);
    4d5c:	44 e6       	ldi	r20, 0x64	; 100
    4d5e:	50 e0       	ldi	r21, 0x00	; 0
    4d60:	62 e3       	ldi	r22, 0x32	; 50
    4d62:	70 e0       	ldi	r23, 0x00	; 0
    4d64:	80 e0       	ldi	r24, 0x00	; 0
    4d66:	90 e0       	ldi	r25, 0x00	; 0
    4d68:	0e 94 0b 19 	call	0x3216	; 0x3216 <_Z10move_robotiii>
    4d6c:	51 c1       	rjmp	.+674    	; 0x5010 <__stack+0xf11>
				leg4.climbing = 0;
				
				rotation_flag = 0;
			}
		}
		rotation_flag = 0;
    4d6e:	10 92 48 19 	sts	0x1948, r1
	MPU_update();
	climb_start_control = MPU_get_y();
	climb_start_slope_r = MPU_get_r();
	climb_start_slope_p = MPU_get_p();
	
	while(climbing_flag)
    4d72:	80 91 c4 15 	lds	r24, 0x15C4
    4d76:	90 91 c5 15 	lds	r25, 0x15C5
    4d7a:	89 2b       	or	r24, r25
    4d7c:	09 f0       	breq	.+2      	; 0x4d80 <__stack+0xc81>
    4d7e:	f8 c9       	rjmp	.-3088   	; 0x4170 <__stack+0x71>
    4d80:	e1 cf       	rjmp	.-62     	; 0x4d44 <__stack+0xc45>
		wait(200);
		
		climb_rotation_counter = 0;
		while(fabs(MPU_get_y() - climb_start_control) > 0.10 && rotation_flag)
		{
			MPU_update();
    4d82:	0e 94 53 3a 	call	0x74a6	; 0x74a6 <_Z10MPU_updatev>
			if (MPU_get_y() - climb_start_control > 0)
    4d86:	0e 94 fa 39 	call	0x73f4	; 0x73f4 <_Z9MPU_get_yv>
    4d8a:	20 91 51 19 	lds	r18, 0x1951
    4d8e:	30 91 52 19 	lds	r19, 0x1952
    4d92:	40 91 53 19 	lds	r20, 0x1953
    4d96:	50 91 54 19 	lds	r21, 0x1954
    4d9a:	0e 94 42 40 	call	0x8084	; 0x8084 <__subsf3>
    4d9e:	20 e0       	ldi	r18, 0x00	; 0
    4da0:	30 e0       	ldi	r19, 0x00	; 0
    4da2:	a9 01       	movw	r20, r18
    4da4:	0e 94 77 43 	call	0x86ee	; 0x86ee <__gesf2>
    4da8:	18 16       	cp	r1, r24
    4daa:	0c f4       	brge	.+2      	; 0x4dae <__stack+0xcaf>
    4dac:	52 cf       	rjmp	.-348    	; 0x4c52 <__stack+0xb53>
    4dae:	5a cf       	rjmp	.-332    	; 0x4c64 <__stack+0xb65>
			leg6.newPosz = z_in_use + height;
			height_change_leg6(obstacle_height);
		}
		else if(leg6.lift != 1 && climb_step == 0) // If leg1 has found the obstacle.
		{
			height_change_leg6(obstacle_height);
    4db0:	60 91 59 19 	lds	r22, 0x1959
    4db4:	70 91 5a 19 	lds	r23, 0x195A
    4db8:	80 91 5b 19 	lds	r24, 0x195B
    4dbc:	90 91 5c 19 	lds	r25, 0x195C
    4dc0:	4f d6       	rcall	.+3230   	; 0x5a60 <_Z18height_change_leg6f>
			leg6.climbing = 4;
    4dc2:	84 e0       	ldi	r24, 0x04	; 4
    4dc4:	90 e0       	ldi	r25, 0x00	; 0
    4dc6:	90 93 39 16 	sts	0x1639, r25
    4dca:	80 93 38 16 	sts	0x1638, r24
			leg6.newPosz = obstacle_height;
    4dce:	80 91 59 19 	lds	r24, 0x1959
    4dd2:	90 91 5a 19 	lds	r25, 0x195A
    4dd6:	a0 91 5b 19 	lds	r26, 0x195B
    4dda:	b0 91 5c 19 	lds	r27, 0x195C
    4dde:	80 93 e6 15 	sts	0x15E6, r24
    4de2:	90 93 e7 15 	sts	0x15E7, r25
    4de6:	a0 93 e8 15 	sts	0x15E8, r26
    4dea:	b0 93 e9 15 	sts	0x15E9, r27
			leg6.on_obstacle = 1;
    4dee:	81 e0       	ldi	r24, 0x01	; 1
    4df0:	90 e0       	ldi	r25, 0x00	; 0
    4df2:	90 93 3b 16 	sts	0x163B, r25
    4df6:	80 93 3a 16 	sts	0x163A, r24
    4dfa:	33 cc       	rjmp	.-1946   	; 0x4662 <__stack+0x563>
			leg1.newPosz = z_in_use + height;
			height_change_leg1(obstacle_height);
		}
		else if (leg1.lift != 1 && climb_step == 0) // If leg6 has found the obstacle.
		{
			height_change_leg1(obstacle_height);
    4dfc:	60 91 59 19 	lds	r22, 0x1959
    4e00:	70 91 5a 19 	lds	r23, 0x195A
    4e04:	80 91 5b 19 	lds	r24, 0x195B
    4e08:	90 91 5c 19 	lds	r25, 0x195C
    4e0c:	f0 d4       	rcall	.+2528   	; 0x57ee <_Z18height_change_leg1f>
			leg1.climbing = 4;
    4e0e:	84 e0       	ldi	r24, 0x04	; 4
    4e10:	90 e0       	ldi	r25, 0x00	; 0
    4e12:	90 93 09 19 	sts	0x1909, r25
    4e16:	80 93 08 19 	sts	0x1908, r24
			leg1.newPosz = obstacle_height;
    4e1a:	80 91 59 19 	lds	r24, 0x1959
    4e1e:	90 91 5a 19 	lds	r25, 0x195A
    4e22:	a0 91 5b 19 	lds	r26, 0x195B
    4e26:	b0 91 5c 19 	lds	r27, 0x195C
    4e2a:	80 93 b6 18 	sts	0x18B6, r24
    4e2e:	90 93 b7 18 	sts	0x18B7, r25
    4e32:	a0 93 b8 18 	sts	0x18B8, r26
    4e36:	b0 93 b9 18 	sts	0x18B9, r27
			leg1.on_obstacle = 1;
    4e3a:	81 e0       	ldi	r24, 0x01	; 1
    4e3c:	90 e0       	ldi	r25, 0x00	; 0
    4e3e:	90 93 0b 19 	sts	0x190B, r25
    4e42:	80 93 0a 19 	sts	0x190A, r24
    4e46:	0d cc       	rjmp	.-2022   	; 0x4662 <__stack+0x563>
			leg2.newPosz = obstacle_height;
			leg2.on_obstacle = 1;
		}
		else if (leg2.lift != 1 && climb_step == 1) // Leg5 has not found the obstacle.
		{
			leg2.climbing = 1;
    4e48:	81 e0       	ldi	r24, 0x01	; 1
    4e4a:	90 e0       	ldi	r25, 0x00	; 0
    4e4c:	d4 01       	movw	r26, r8
    4e4e:	8d 93       	st	X+, r24
    4e50:	9c 93       	st	X, r25
			leg2.newPosz = obstacle_height;
    4e52:	80 91 59 19 	lds	r24, 0x1959
    4e56:	90 91 5a 19 	lds	r25, 0x195A
    4e5a:	a0 91 5b 19 	lds	r26, 0x195B
    4e5e:	b0 91 5c 19 	lds	r27, 0x195C
    4e62:	f5 01       	movw	r30, r10
    4e64:	80 83       	st	Z, r24
    4e66:	91 83       	std	Z+1, r25	; 0x01
    4e68:	a2 83       	std	Z+2, r26	; 0x02
    4e6a:	b3 83       	std	Z+3, r27	; 0x03
    4e6c:	fa cb       	rjmp	.-2060   	; 0x4662 <__stack+0x563>
			leg5.newPosz = obstacle_height;
			leg5.on_obstacle = 1;
		}
		else if (leg5.lift != 1 && climb_step == 1)
		{
			leg5.climbing = 1;
    4e6e:	81 e0       	ldi	r24, 0x01	; 1
    4e70:	90 e0       	ldi	r25, 0x00	; 0
    4e72:	d1 01       	movw	r26, r2
    4e74:	8d 93       	st	X+, r24
    4e76:	9c 93       	st	X, r25
			leg5.newPosz = obstacle_height;
    4e78:	80 91 59 19 	lds	r24, 0x1959
    4e7c:	90 91 5a 19 	lds	r25, 0x195A
    4e80:	a0 91 5b 19 	lds	r26, 0x195B
    4e84:	b0 91 5c 19 	lds	r27, 0x195C
    4e88:	f6 01       	movw	r30, r12
    4e8a:	80 83       	st	Z, r24
    4e8c:	91 83       	std	Z+1, r25	; 0x01
    4e8e:	a2 83       	std	Z+2, r26	; 0x02
    4e90:	b3 83       	std	Z+3, r27	; 0x03
    4e92:	e7 cb       	rjmp	.-2098   	; 0x4662 <__stack+0x563>
			leg4.newPosz = obstacle_height;
			leg4.on_obstacle = 1;
		}
		else if (leg4.lift != 1 && climb_step == 2)
		{
			height_change_leg4(obstacle_height);
    4e94:	60 91 59 19 	lds	r22, 0x1959
    4e98:	70 91 5a 19 	lds	r23, 0x195A
    4e9c:	80 91 5b 19 	lds	r24, 0x195B
    4ea0:	90 91 5c 19 	lds	r25, 0x195C
    4ea4:	64 d5       	rcall	.+2760   	; 0x596e <_Z18height_change_leg4f>
			leg4.climbing = 1;
    4ea6:	81 e0       	ldi	r24, 0x01	; 1
    4ea8:	90 e0       	ldi	r25, 0x00	; 0
    4eaa:	90 93 59 17 	sts	0x1759, r25
    4eae:	80 93 58 17 	sts	0x1758, r24
			leg4.newPosz = obstacle_height;
    4eb2:	80 91 59 19 	lds	r24, 0x1959
    4eb6:	90 91 5a 19 	lds	r25, 0x195A
    4eba:	a0 91 5b 19 	lds	r26, 0x195B
    4ebe:	b0 91 5c 19 	lds	r27, 0x195C
    4ec2:	80 93 06 17 	sts	0x1706, r24
    4ec6:	90 93 07 17 	sts	0x1707, r25
    4eca:	a0 93 08 17 	sts	0x1708, r26
    4ece:	b0 93 09 17 	sts	0x1709, r27
    4ed2:	c7 cb       	rjmp	.-2162   	; 0x4662 <__stack+0x563>
			leg3.newPosz = obstacle_height;
			leg3.on_obstacle = 1;
		}
		else if (leg3.lift != 1 && climb_step == 2)
		{
			height_change_leg3(obstacle_height);
    4ed4:	60 91 59 19 	lds	r22, 0x1959
    4ed8:	70 91 5a 19 	lds	r23, 0x195A
    4edc:	80 91 5b 19 	lds	r24, 0x195B
    4ee0:	90 91 5c 19 	lds	r25, 0x195C
    4ee4:	fa d4       	rcall	.+2548   	; 0x58da <_Z18height_change_leg3f>
			leg3.climbing = 1;
    4ee6:	81 e0       	ldi	r24, 0x01	; 1
    4ee8:	90 e0       	ldi	r25, 0x00	; 0
    4eea:	a8 ee       	ldi	r26, 0xE8	; 232
    4eec:	b7 e1       	ldi	r27, 0x17	; 23
    4eee:	8d 93       	st	X+, r24
    4ef0:	9c 93       	st	X, r25
			leg3.newPosz = obstacle_height;
    4ef2:	80 91 59 19 	lds	r24, 0x1959
    4ef6:	90 91 5a 19 	lds	r25, 0x195A
    4efa:	a0 91 5b 19 	lds	r26, 0x195B
    4efe:	b0 91 5c 19 	lds	r27, 0x195C
    4f02:	e6 e9       	ldi	r30, 0x96	; 150
    4f04:	f7 e1       	ldi	r31, 0x17	; 23
    4f06:	80 83       	st	Z, r24
    4f08:	91 83       	std	Z+1, r25	; 0x01
    4f0a:	a2 83       	std	Z+2, r26	; 0x02
    4f0c:	b3 83       	std	Z+3, r27	; 0x03
    4f0e:	a9 cb       	rjmp	.-2222   	; 0x4662 <__stack+0x563>
			height_change_leg1(z_in_use);
			leg1.on_obstacle = 0;
		}
		else if (leg1.lift != 1 && climb_step2 == 1)
		{
			leg1.climbing = 1;
    4f10:	81 e0       	ldi	r24, 0x01	; 1
    4f12:	90 e0       	ldi	r25, 0x00	; 0
    4f14:	90 93 09 19 	sts	0x1909, r25
    4f18:	80 93 08 19 	sts	0x1908, r24
			leg1.newPosz = obstacle_height;
    4f1c:	80 91 59 19 	lds	r24, 0x1959
    4f20:	90 91 5a 19 	lds	r25, 0x195A
    4f24:	a0 91 5b 19 	lds	r26, 0x195B
    4f28:	b0 91 5c 19 	lds	r27, 0x195C
    4f2c:	80 93 b6 18 	sts	0x18B6, r24
    4f30:	90 93 b7 18 	sts	0x18B7, r25
    4f34:	a0 93 b8 18 	sts	0x18B8, r26
    4f38:	b0 93 b9 18 	sts	0x18B9, r27
    4f3c:	4b cd       	rjmp	.-1386   	; 0x49d4 <__stack+0x8d5>
			height_change_leg6(z_in_use);
			leg6.on_obstacle = 0;
		}
		else if (leg6.lift != 1 && climb_step2 == 1)
		{
			leg6.climbing = 1;
    4f3e:	81 e0       	ldi	r24, 0x01	; 1
    4f40:	90 e0       	ldi	r25, 0x00	; 0
    4f42:	90 93 39 16 	sts	0x1639, r25
    4f46:	80 93 38 16 	sts	0x1638, r24
			leg6.newPosz = obstacle_height;
    4f4a:	80 91 59 19 	lds	r24, 0x1959
    4f4e:	90 91 5a 19 	lds	r25, 0x195A
    4f52:	a0 91 5b 19 	lds	r26, 0x195B
    4f56:	b0 91 5c 19 	lds	r27, 0x195C
    4f5a:	80 93 e6 15 	sts	0x15E6, r24
    4f5e:	90 93 e7 15 	sts	0x15E7, r25
    4f62:	a0 93 e8 15 	sts	0x15E8, r26
    4f66:	b0 93 e9 15 	sts	0x15E9, r27
    4f6a:	34 cd       	rjmp	.-1432   	; 0x49d4 <__stack+0x8d5>
			height_change_leg2(z_in_use);
			leg2.on_obstacle = 0;
		}
		else if (leg2.lift != 1 && climb_step2 == 2)
		{
			leg2.climbing = 1;
    4f6c:	81 e0       	ldi	r24, 0x01	; 1
    4f6e:	90 e0       	ldi	r25, 0x00	; 0
    4f70:	d4 01       	movw	r26, r8
    4f72:	8d 93       	st	X+, r24
    4f74:	9c 93       	st	X, r25
			leg2.newPosz = obstacle_height;
    4f76:	80 91 59 19 	lds	r24, 0x1959
    4f7a:	90 91 5a 19 	lds	r25, 0x195A
    4f7e:	a0 91 5b 19 	lds	r26, 0x195B
    4f82:	b0 91 5c 19 	lds	r27, 0x195C
    4f86:	f5 01       	movw	r30, r10
    4f88:	80 83       	st	Z, r24
    4f8a:	91 83       	std	Z+1, r25	; 0x01
    4f8c:	a2 83       	std	Z+2, r26	; 0x02
    4f8e:	b3 83       	std	Z+3, r27	; 0x03
    4f90:	21 cd       	rjmp	.-1470   	; 0x49d4 <__stack+0x8d5>
			height_change_leg5(z_in_use);
			leg5.on_obstacle = 0;
		}
		else if (leg5.lift != 1 && climb_step2 == 2)
		{
			leg5.climbing = 1;
    4f92:	81 e0       	ldi	r24, 0x01	; 1
    4f94:	90 e0       	ldi	r25, 0x00	; 0
    4f96:	d1 01       	movw	r26, r2
    4f98:	8d 93       	st	X+, r24
    4f9a:	9c 93       	st	X, r25
			leg5.newPosz = obstacle_height;
    4f9c:	80 91 59 19 	lds	r24, 0x1959
    4fa0:	90 91 5a 19 	lds	r25, 0x195A
    4fa4:	a0 91 5b 19 	lds	r26, 0x195B
    4fa8:	b0 91 5c 19 	lds	r27, 0x195C
    4fac:	f6 01       	movw	r30, r12
    4fae:	80 83       	st	Z, r24
    4fb0:	91 83       	std	Z+1, r25	; 0x01
    4fb2:	a2 83       	std	Z+2, r26	; 0x02
    4fb4:	b3 83       	std	Z+3, r27	; 0x03
    4fb6:	0e cd       	rjmp	.-1508   	; 0x49d4 <__stack+0x8d5>
			height_change_leg4(z_in_use);
			leg4.on_obstacle = 0;
		}
		else if (leg4.lift != 1 && climb_step2 == 3)
		{
			leg4.climbing = 1;
    4fb8:	81 e0       	ldi	r24, 0x01	; 1
    4fba:	90 e0       	ldi	r25, 0x00	; 0
    4fbc:	90 93 59 17 	sts	0x1759, r25
    4fc0:	80 93 58 17 	sts	0x1758, r24
			leg4.newPosz = obstacle_height;
    4fc4:	80 91 59 19 	lds	r24, 0x1959
    4fc8:	90 91 5a 19 	lds	r25, 0x195A
    4fcc:	a0 91 5b 19 	lds	r26, 0x195B
    4fd0:	b0 91 5c 19 	lds	r27, 0x195C
    4fd4:	80 93 06 17 	sts	0x1706, r24
    4fd8:	90 93 07 17 	sts	0x1707, r25
    4fdc:	a0 93 08 17 	sts	0x1708, r26
    4fe0:	b0 93 09 17 	sts	0x1709, r27
    4fe4:	f7 cc       	rjmp	.-1554   	; 0x49d4 <__stack+0x8d5>
			height_change_leg3(z_in_use);
			leg3.on_obstacle = 0;
		}
		else if (leg3.lift != 1 && climb_step2 == 3)
		{
			leg3.climbing = 1;
    4fe6:	81 e0       	ldi	r24, 0x01	; 1
    4fe8:	90 e0       	ldi	r25, 0x00	; 0
    4fea:	a8 ee       	ldi	r26, 0xE8	; 232
    4fec:	b7 e1       	ldi	r27, 0x17	; 23
    4fee:	8d 93       	st	X+, r24
    4ff0:	9c 93       	st	X, r25
			leg3.newPosz = obstacle_height;
    4ff2:	80 91 59 19 	lds	r24, 0x1959
    4ff6:	90 91 5a 19 	lds	r25, 0x195A
    4ffa:	a0 91 5b 19 	lds	r26, 0x195B
    4ffe:	b0 91 5c 19 	lds	r27, 0x195C
    5002:	e6 e9       	ldi	r30, 0x96	; 150
    5004:	f7 e1       	ldi	r31, 0x17	; 23
    5006:	80 83       	st	Z, r24
    5008:	91 83       	std	Z+1, r25	; 0x01
    500a:	a2 83       	std	Z+2, r26	; 0x02
    500c:	b3 83       	std	Z+3, r27	; 0x03
    500e:	e2 cc       	rjmp	.-1596   	; 0x49d4 <__stack+0x8d5>
	}
	//take another step for good measure
	move_robot(0,50,100);
	wait(30);
	move_robot(0,50,100);
}
    5010:	0f 90       	pop	r0
    5012:	0f 90       	pop	r0
    5014:	0f 90       	pop	r0
    5016:	0f 90       	pop	r0
    5018:	df 91       	pop	r29
    501a:	cf 91       	pop	r28
    501c:	1f 91       	pop	r17
    501e:	0f 91       	pop	r16
    5020:	ff 90       	pop	r15
    5022:	ef 90       	pop	r14
    5024:	df 90       	pop	r13
    5026:	cf 90       	pop	r12
    5028:	bf 90       	pop	r11
    502a:	af 90       	pop	r10
    502c:	9f 90       	pop	r9
    502e:	8f 90       	pop	r8
    5030:	7f 90       	pop	r7
    5032:	6f 90       	pop	r6
    5034:	5f 90       	pop	r5
    5036:	4f 90       	pop	r4
    5038:	3f 90       	pop	r3
    503a:	2f 90       	pop	r2
    503c:	08 95       	ret

0000503e <__vector_18>:
bool I2Cdev::writeBitW(uint8_t devAddr, uint8_t regAddr, uint8_t bitNum, uint16_t data) {
    uint16_t w;
    readWord(devAddr, regAddr, &w);
    w = (data != 0) ? (w | (1 << bitNum)) : (w & ~(1 << bitNum));
    return writeWord(devAddr, regAddr, w);
}
    503e:	1f 92       	push	r1
    5040:	0f 92       	push	r0
    5042:	0f b6       	in	r0, 0x3f	; 63
    5044:	0f 92       	push	r0
    5046:	11 24       	eor	r1, r1
    5048:	2f 93       	push	r18
    504a:	3f 93       	push	r19
    504c:	8f 93       	push	r24
    504e:	9f 93       	push	r25
    5050:	af 93       	push	r26
    5052:	bf 93       	push	r27
    5054:	80 91 6f 19 	lds	r24, 0x196F
    5058:	90 91 70 19 	lds	r25, 0x1970
    505c:	a0 91 71 19 	lds	r26, 0x1971
    5060:	b0 91 72 19 	lds	r27, 0x1972
    5064:	30 91 77 19 	lds	r19, 0x1977
    5068:	23 2f       	mov	r18, r19
    506a:	2d 5f       	subi	r18, 0xFD	; 253
    506c:	2d 37       	cpi	r18, 0x7D	; 125
    506e:	20 f4       	brcc	.+8      	; 0x5078 <__vector_18+0x3a>
    5070:	01 96       	adiw	r24, 0x01	; 1
    5072:	a1 1d       	adc	r26, r1
    5074:	b1 1d       	adc	r27, r1
    5076:	05 c0       	rjmp	.+10     	; 0x5082 <__vector_18+0x44>
    5078:	23 2f       	mov	r18, r19
    507a:	2a 57       	subi	r18, 0x7A	; 122
    507c:	02 96       	adiw	r24, 0x02	; 2
    507e:	a1 1d       	adc	r26, r1
    5080:	b1 1d       	adc	r27, r1
    5082:	20 93 77 19 	sts	0x1977, r18
    5086:	80 93 6f 19 	sts	0x196F, r24
    508a:	90 93 70 19 	sts	0x1970, r25
    508e:	a0 93 71 19 	sts	0x1971, r26
    5092:	b0 93 72 19 	sts	0x1972, r27
    5096:	80 91 73 19 	lds	r24, 0x1973
    509a:	90 91 74 19 	lds	r25, 0x1974
    509e:	a0 91 75 19 	lds	r26, 0x1975
    50a2:	b0 91 76 19 	lds	r27, 0x1976
    50a6:	01 96       	adiw	r24, 0x01	; 1
    50a8:	a1 1d       	adc	r26, r1
    50aa:	b1 1d       	adc	r27, r1
    50ac:	80 93 73 19 	sts	0x1973, r24
    50b0:	90 93 74 19 	sts	0x1974, r25
    50b4:	a0 93 75 19 	sts	0x1975, r26
    50b8:	b0 93 76 19 	sts	0x1976, r27
    50bc:	bf 91       	pop	r27
    50be:	af 91       	pop	r26
    50c0:	9f 91       	pop	r25
    50c2:	8f 91       	pop	r24
    50c4:	3f 91       	pop	r19
    50c6:	2f 91       	pop	r18
    50c8:	0f 90       	pop	r0
    50ca:	0f be       	out	0x3f, r0	; 63
    50cc:	0f 90       	pop	r0
    50ce:	1f 90       	pop	r1
    50d0:	18 95       	reti

000050d2 <_Z6millisv>:
    50d2:	0f 93       	push	r16
    50d4:	1f 93       	push	r17
    50d6:	8f b7       	in	r24, 0x3f	; 63
    50d8:	f8 94       	cli
    50da:	00 91 6f 19 	lds	r16, 0x196F
    50de:	10 91 70 19 	lds	r17, 0x1970
    50e2:	20 91 71 19 	lds	r18, 0x1971
    50e6:	30 91 72 19 	lds	r19, 0x1972
    50ea:	8f bf       	out	0x3f, r24	; 63
    50ec:	78 94       	sei
    50ee:	60 2f       	mov	r22, r16
    50f0:	71 2f       	mov	r23, r17
    50f2:	82 2f       	mov	r24, r18
    50f4:	93 2f       	mov	r25, r19
    50f6:	1f 91       	pop	r17
    50f8:	0f 91       	pop	r16
    50fa:	08 95       	ret

000050fc <_ZN8Fastwire7waitIntEv>:
    50fc:	2a ef       	ldi	r18, 0xFA	; 250
    50fe:	30 e0       	ldi	r19, 0x00	; 0
    5100:	ec eb       	ldi	r30, 0xBC	; 188
    5102:	f0 e0       	ldi	r31, 0x00	; 0
    5104:	80 81       	ld	r24, Z
    5106:	88 23       	and	r24, r24
    5108:	1c f0       	brlt	.+6      	; 0x5110 <_ZN8Fastwire7waitIntEv+0x14>
    510a:	21 50       	subi	r18, 0x01	; 1
    510c:	31 09       	sbc	r19, r1
    510e:	d0 f7       	brcc	.-12     	; 0x5104 <_ZN8Fastwire7waitIntEv+0x8>
    5110:	81 e0       	ldi	r24, 0x01	; 1
    5112:	12 16       	cp	r1, r18
    5114:	13 06       	cpc	r1, r19
    5116:	0c f0       	brlt	.+2      	; 0x511a <_ZN8Fastwire7waitIntEv+0x1e>
    5118:	80 e0       	ldi	r24, 0x00	; 0
    511a:	08 95       	ret

0000511c <_ZN8Fastwire5setupEih>:
    511c:	9c 01       	movw	r18, r24
    511e:	10 92 bc 00 	sts	0x00BC, r1
    5122:	66 23       	and	r22, r22
    5124:	21 f0       	breq	.+8      	; 0x512e <_ZN8Fastwire5setupEih+0x12>
    5126:	8b b1       	in	r24, 0x0b	; 11
    5128:	83 60       	ori	r24, 0x03	; 3
    512a:	8b b9       	out	0x0b, r24	; 11
    512c:	03 c0       	rjmp	.+6      	; 0x5134 <_ZN8Fastwire5setupEih+0x18>
    512e:	8b b1       	in	r24, 0x0b	; 11
    5130:	8c 7f       	andi	r24, 0xFC	; 252
    5132:	8b b9       	out	0x0b, r24	; 11
    5134:	10 92 b9 00 	sts	0x00B9, r1
    5138:	44 27       	eor	r20, r20
    513a:	37 fd       	sbrc	r19, 7
    513c:	40 95       	com	r20
    513e:	54 2f       	mov	r21, r20
    5140:	60 e8       	ldi	r22, 0x80	; 128
    5142:	7e e3       	ldi	r23, 0x3E	; 62
    5144:	80 e0       	ldi	r24, 0x00	; 0
    5146:	90 e0       	ldi	r25, 0x00	; 0
    5148:	0e 94 37 44 	call	0x886e	; 0x886e <__divmodsi4>
    514c:	da 01       	movw	r26, r20
    514e:	c9 01       	movw	r24, r18
    5150:	40 97       	sbiw	r24, 0x10	; 16
    5152:	a1 09       	sbc	r26, r1
    5154:	b1 09       	sbc	r27, r1
    5156:	ac 01       	movw	r20, r24
    5158:	bd 01       	movw	r22, r26
    515a:	22 f4       	brpl	.+8      	; 0x5164 <_ZN8Fastwire5setupEih+0x48>
    515c:	4f 5f       	subi	r20, 0xFF	; 255
    515e:	5f 4f       	sbci	r21, 0xFF	; 255
    5160:	6f 4f       	sbci	r22, 0xFF	; 255
    5162:	7f 4f       	sbci	r23, 0xFF	; 255
    5164:	db 01       	movw	r26, r22
    5166:	ca 01       	movw	r24, r20
    5168:	b5 95       	asr	r27
    516a:	a7 95       	ror	r26
    516c:	97 95       	ror	r25
    516e:	87 95       	ror	r24
    5170:	80 93 b8 00 	sts	0x00B8, r24
    5174:	84 e0       	ldi	r24, 0x04	; 4
    5176:	80 93 bc 00 	sts	0x00BC, r24
    517a:	08 95       	ret

0000517c <_ZN8Fastwire17beginTransmissionEh>:
    517c:	af 92       	push	r10
    517e:	bf 92       	push	r11
    5180:	cf 92       	push	r12
    5182:	df 92       	push	r13
    5184:	ef 92       	push	r14
    5186:	ff 92       	push	r15
    5188:	0f 93       	push	r16
    518a:	1f 93       	push	r17
    518c:	cf 93       	push	r28
    518e:	df 93       	push	r29
    5190:	b8 2e       	mov	r11, r24
    5192:	bb 0c       	add	r11, r11
    5194:	0f 2e       	mov	r0, r31
    5196:	f3 e0       	ldi	r31, 0x03	; 3
    5198:	af 2e       	mov	r10, r31
    519a:	f0 2d       	mov	r31, r0
    519c:	cc eb       	ldi	r28, 0xBC	; 188
    519e:	d0 e0       	ldi	r29, 0x00	; 0
    51a0:	0f 2e       	mov	r0, r31
    51a2:	f4 eb       	ldi	r31, 0xB4	; 180
    51a4:	df 2e       	mov	r13, r31
    51a6:	f0 2d       	mov	r31, r0
    51a8:	09 eb       	ldi	r16, 0xB9	; 185
    51aa:	10 e0       	ldi	r17, 0x00	; 0
    51ac:	0f 2e       	mov	r0, r31
    51ae:	fb eb       	ldi	r31, 0xBB	; 187
    51b0:	ef 2e       	mov	r14, r31
    51b2:	f1 2c       	mov	r15, r1
    51b4:	f0 2d       	mov	r31, r0
    51b6:	0f 2e       	mov	r0, r31
    51b8:	f4 e8       	ldi	r31, 0x84	; 132
    51ba:	cf 2e       	mov	r12, r31
    51bc:	f0 2d       	mov	r31, r0
    51be:	d8 82       	st	Y, r13
    51c0:	9d df       	rcall	.-198    	; 0x50fc <_ZN8Fastwire7waitIntEv>
    51c2:	88 23       	and	r24, r24
    51c4:	b1 f0       	breq	.+44     	; 0x51f2 <_ZN8Fastwire17beginTransmissionEh+0x76>
    51c6:	f8 01       	movw	r30, r16
    51c8:	90 81       	ld	r25, Z
    51ca:	98 7f       	andi	r25, 0xF8	; 248
    51cc:	98 30       	cpi	r25, 0x08	; 8
    51ce:	11 f0       	breq	.+4      	; 0x51d4 <_ZN8Fastwire17beginTransmissionEh+0x58>
    51d0:	90 31       	cpi	r25, 0x10	; 16
    51d2:	89 f4       	brne	.+34     	; 0x51f6 <_ZN8Fastwire17beginTransmissionEh+0x7a>
    51d4:	f7 01       	movw	r30, r14
    51d6:	b0 82       	st	Z, r11
    51d8:	c8 82       	st	Y, r12
    51da:	90 df       	rcall	.-224    	; 0x50fc <_ZN8Fastwire7waitIntEv>
    51dc:	88 23       	and	r24, r24
    51de:	69 f0       	breq	.+26     	; 0x51fa <_ZN8Fastwire17beginTransmissionEh+0x7e>
    51e0:	f8 01       	movw	r30, r16
    51e2:	90 81       	ld	r25, Z
    51e4:	98 7f       	andi	r25, 0xF8	; 248
    51e6:	90 32       	cpi	r25, 0x20	; 32
    51e8:	61 f4       	brne	.+24     	; 0x5202 <_ZN8Fastwire17beginTransmissionEh+0x86>
    51ea:	aa 94       	dec	r10
    51ec:	41 f7       	brne	.-48     	; 0x51be <_ZN8Fastwire17beginTransmissionEh+0x42>
    51ee:	84 e0       	ldi	r24, 0x04	; 4
    51f0:	0b c0       	rjmp	.+22     	; 0x5208 <_ZN8Fastwire17beginTransmissionEh+0x8c>
    51f2:	81 e0       	ldi	r24, 0x01	; 1
    51f4:	09 c0       	rjmp	.+18     	; 0x5208 <_ZN8Fastwire17beginTransmissionEh+0x8c>
    51f6:	82 e0       	ldi	r24, 0x02	; 2
    51f8:	07 c0       	rjmp	.+14     	; 0x5208 <_ZN8Fastwire17beginTransmissionEh+0x8c>
    51fa:	83 e0       	ldi	r24, 0x03	; 3
    51fc:	05 c0       	rjmp	.+10     	; 0x5208 <_ZN8Fastwire17beginTransmissionEh+0x8c>
    51fe:	80 e0       	ldi	r24, 0x00	; 0
    5200:	03 c0       	rjmp	.+6      	; 0x5208 <_ZN8Fastwire17beginTransmissionEh+0x8c>
    5202:	98 31       	cpi	r25, 0x18	; 24
    5204:	e1 f3       	breq	.-8      	; 0x51fe <_ZN8Fastwire17beginTransmissionEh+0x82>
    5206:	84 e0       	ldi	r24, 0x04	; 4
    5208:	df 91       	pop	r29
    520a:	cf 91       	pop	r28
    520c:	1f 91       	pop	r17
    520e:	0f 91       	pop	r16
    5210:	ff 90       	pop	r15
    5212:	ef 90       	pop	r14
    5214:	df 90       	pop	r13
    5216:	cf 90       	pop	r12
    5218:	bf 90       	pop	r11
    521a:	af 90       	pop	r10
    521c:	08 95       	ret

0000521e <_ZN8Fastwire5writeEh>:
    521e:	80 93 bb 00 	sts	0x00BB, r24
    5222:	84 e8       	ldi	r24, 0x84	; 132
    5224:	80 93 bc 00 	sts	0x00BC, r24
    5228:	69 df       	rcall	.-302    	; 0x50fc <_ZN8Fastwire7waitIntEv>
    522a:	88 23       	and	r24, r24
    522c:	39 f0       	breq	.+14     	; 0x523c <_ZN8Fastwire5writeEh+0x1e>
    522e:	80 91 b9 00 	lds	r24, 0x00B9
    5232:	88 7f       	andi	r24, 0xF8	; 248
    5234:	88 32       	cpi	r24, 0x28	; 40
    5236:	21 f0       	breq	.+8      	; 0x5240 <_ZN8Fastwire5writeEh+0x22>
    5238:	82 e0       	ldi	r24, 0x02	; 2
    523a:	08 95       	ret
    523c:	81 e0       	ldi	r24, 0x01	; 1
    523e:	08 95       	ret
    5240:	80 e0       	ldi	r24, 0x00	; 0
    5242:	08 95       	ret

00005244 <_ZN8Fastwire4stopEv>:
    5244:	84 e9       	ldi	r24, 0x94	; 148
    5246:	80 93 bc 00 	sts	0x00BC, r24
    524a:	58 df       	rcall	.-336    	; 0x50fc <_ZN8Fastwire7waitIntEv>
    524c:	91 e0       	ldi	r25, 0x01	; 1
    524e:	81 11       	cpse	r24, r1
    5250:	90 e0       	ldi	r25, 0x00	; 0
    5252:	89 2f       	mov	r24, r25
    5254:	08 95       	ret

00005256 <_ZN8Fastwire7readBufEhhPhh>:
    5256:	2f 92       	push	r2
    5258:	3f 92       	push	r3
    525a:	4f 92       	push	r4
    525c:	5f 92       	push	r5
    525e:	6f 92       	push	r6
    5260:	7f 92       	push	r7
    5262:	8f 92       	push	r8
    5264:	9f 92       	push	r9
    5266:	af 92       	push	r10
    5268:	bf 92       	push	r11
    526a:	cf 92       	push	r12
    526c:	ef 92       	push	r14
    526e:	ff 92       	push	r15
    5270:	0f 93       	push	r16
    5272:	1f 93       	push	r17
    5274:	cf 93       	push	r28
    5276:	df 93       	push	r29
    5278:	08 2f       	mov	r16, r24
    527a:	46 2e       	mov	r4, r22
    527c:	b4 2e       	mov	r11, r20
    527e:	a5 2e       	mov	r10, r21
    5280:	c2 2e       	mov	r12, r18
    5282:	0f 2e       	mov	r0, r31
    5284:	f3 e0       	ldi	r31, 0x03	; 3
    5286:	5f 2e       	mov	r5, r31
    5288:	f0 2d       	mov	r31, r0
    528a:	cc eb       	ldi	r28, 0xBC	; 188
    528c:	d0 e0       	ldi	r29, 0x00	; 0
    528e:	0f 2e       	mov	r0, r31
    5290:	f4 eb       	ldi	r31, 0xB4	; 180
    5292:	9f 2e       	mov	r9, r31
    5294:	f0 2d       	mov	r31, r0
    5296:	0f 2e       	mov	r0, r31
    5298:	f9 eb       	ldi	r31, 0xB9	; 185
    529a:	2f 2e       	mov	r2, r31
    529c:	31 2c       	mov	r3, r1
    529e:	f0 2d       	mov	r31, r0
    52a0:	0f 2e       	mov	r0, r31
    52a2:	fe ef       	ldi	r31, 0xFE	; 254
    52a4:	6f 2e       	mov	r6, r31
    52a6:	f0 2d       	mov	r31, r0
    52a8:	68 22       	and	r6, r24
    52aa:	0f 2e       	mov	r0, r31
    52ac:	fb eb       	ldi	r31, 0xBB	; 187
    52ae:	ef 2e       	mov	r14, r31
    52b0:	f1 2c       	mov	r15, r1
    52b2:	f0 2d       	mov	r31, r0
    52b4:	0f 2e       	mov	r0, r31
    52b6:	f4 e8       	ldi	r31, 0x84	; 132
    52b8:	7f 2e       	mov	r7, r31
    52ba:	f0 2d       	mov	r31, r0
    52bc:	98 82       	st	Y, r9
    52be:	1e df       	rcall	.-452    	; 0x50fc <_ZN8Fastwire7waitIntEv>
    52c0:	88 23       	and	r24, r24
    52c2:	09 f4       	brne	.+2      	; 0x52c6 <_ZN8Fastwire7readBufEhhPhh+0x70>
    52c4:	9c c0       	rjmp	.+312    	; 0x53fe <_ZN8Fastwire7readBufEhhPhh+0x1a8>
    52c6:	f1 01       	movw	r30, r2
    52c8:	90 81       	ld	r25, Z
    52ca:	98 7f       	andi	r25, 0xF8	; 248
    52cc:	98 30       	cpi	r25, 0x08	; 8
    52ce:	19 f0       	breq	.+6      	; 0x52d6 <_ZN8Fastwire7readBufEhhPhh+0x80>
    52d0:	90 31       	cpi	r25, 0x10	; 16
    52d2:	09 f0       	breq	.+2      	; 0x52d6 <_ZN8Fastwire7readBufEhhPhh+0x80>
    52d4:	96 c0       	rjmp	.+300    	; 0x5402 <_ZN8Fastwire7readBufEhhPhh+0x1ac>
    52d6:	f7 01       	movw	r30, r14
    52d8:	60 82       	st	Z, r6
    52da:	78 82       	st	Y, r7
    52dc:	0f df       	rcall	.-482    	; 0x50fc <_ZN8Fastwire7waitIntEv>
    52de:	88 23       	and	r24, r24
    52e0:	09 f4       	brne	.+2      	; 0x52e4 <_ZN8Fastwire7readBufEhhPhh+0x8e>
    52e2:	91 c0       	rjmp	.+290    	; 0x5406 <_ZN8Fastwire7readBufEhhPhh+0x1b0>
    52e4:	f1 01       	movw	r30, r2
    52e6:	80 81       	ld	r24, Z
    52e8:	18 2f       	mov	r17, r24
    52ea:	18 7f       	andi	r17, 0xF8	; 248
    52ec:	10 32       	cpi	r17, 0x20	; 32
    52ee:	09 f0       	breq	.+2      	; 0x52f2 <_ZN8Fastwire7readBufEhhPhh+0x9c>
    52f0:	9a c0       	rjmp	.+308    	; 0x5426 <_ZN8Fastwire7readBufEhhPhh+0x1d0>
    52f2:	5a 94       	dec	r5
    52f4:	19 f7       	brne	.-58     	; 0x52bc <_ZN8Fastwire7readBufEhhPhh+0x66>
    52f6:	13 e1       	ldi	r17, 0x13	; 19
    52f8:	9c c0       	rjmp	.+312    	; 0x5432 <_ZN8Fastwire7readBufEhhPhh+0x1dc>
    52fa:	40 92 bb 00 	sts	0x00BB, r4
    52fe:	84 e8       	ldi	r24, 0x84	; 132
    5300:	80 93 bc 00 	sts	0x00BC, r24
    5304:	fb de       	rcall	.-522    	; 0x50fc <_ZN8Fastwire7waitIntEv>
    5306:	88 23       	and	r24, r24
    5308:	09 f4       	brne	.+2      	; 0x530c <_ZN8Fastwire7readBufEhhPhh+0xb6>
    530a:	7f c0       	rjmp	.+254    	; 0x540a <_ZN8Fastwire7readBufEhhPhh+0x1b4>
    530c:	80 91 b9 00 	lds	r24, 0x00B9
    5310:	88 7f       	andi	r24, 0xF8	; 248
    5312:	88 32       	cpi	r24, 0x28	; 40
    5314:	09 f0       	breq	.+2      	; 0x5318 <_ZN8Fastwire7readBufEhhPhh+0xc2>
    5316:	7b c0       	rjmp	.+246    	; 0x540e <_ZN8Fastwire7readBufEhhPhh+0x1b8>
    5318:	0f 2e       	mov	r0, r31
    531a:	f3 e0       	ldi	r31, 0x03	; 3
    531c:	9f 2e       	mov	r9, r31
    531e:	f0 2d       	mov	r31, r0
    5320:	0f 2e       	mov	r0, r31
    5322:	fc eb       	ldi	r31, 0xBC	; 188
    5324:	4f 2e       	mov	r4, r31
    5326:	51 2c       	mov	r5, r1
    5328:	f0 2d       	mov	r31, r0
    532a:	0f 2e       	mov	r0, r31
    532c:	f4 eb       	ldi	r31, 0xB4	; 180
    532e:	6f 2e       	mov	r6, r31
    5330:	f0 2d       	mov	r31, r0
    5332:	c9 eb       	ldi	r28, 0xB9	; 185
    5334:	d0 e0       	ldi	r29, 0x00	; 0
    5336:	88 24       	eor	r8, r8
    5338:	83 94       	inc	r8
    533a:	80 2a       	or	r8, r16
    533c:	0f 2e       	mov	r0, r31
    533e:	fb eb       	ldi	r31, 0xBB	; 187
    5340:	ef 2e       	mov	r14, r31
    5342:	f1 2c       	mov	r15, r1
    5344:	f0 2d       	mov	r31, r0
    5346:	04 e8       	ldi	r16, 0x84	; 132
    5348:	f2 01       	movw	r30, r4
    534a:	60 82       	st	Z, r6
    534c:	d7 de       	rcall	.-594    	; 0x50fc <_ZN8Fastwire7waitIntEv>
    534e:	88 23       	and	r24, r24
    5350:	09 f4       	brne	.+2      	; 0x5354 <_ZN8Fastwire7readBufEhhPhh+0xfe>
    5352:	5f c0       	rjmp	.+190    	; 0x5412 <_ZN8Fastwire7readBufEhhPhh+0x1bc>
    5354:	88 81       	ld	r24, Y
    5356:	88 7f       	andi	r24, 0xF8	; 248
    5358:	88 30       	cpi	r24, 0x08	; 8
    535a:	19 f0       	breq	.+6      	; 0x5362 <_ZN8Fastwire7readBufEhhPhh+0x10c>
    535c:	80 31       	cpi	r24, 0x10	; 16
    535e:	09 f0       	breq	.+2      	; 0x5362 <_ZN8Fastwire7readBufEhhPhh+0x10c>
    5360:	5a c0       	rjmp	.+180    	; 0x5416 <_ZN8Fastwire7readBufEhhPhh+0x1c0>
    5362:	f7 01       	movw	r30, r14
    5364:	80 82       	st	Z, r8
    5366:	f2 01       	movw	r30, r4
    5368:	00 83       	st	Z, r16
    536a:	c8 de       	rcall	.-624    	; 0x50fc <_ZN8Fastwire7waitIntEv>
    536c:	88 23       	and	r24, r24
    536e:	09 f4       	brne	.+2      	; 0x5372 <_ZN8Fastwire7readBufEhhPhh+0x11c>
    5370:	60 c0       	rjmp	.+192    	; 0x5432 <_ZN8Fastwire7readBufEhhPhh+0x1dc>
    5372:	88 81       	ld	r24, Y
    5374:	88 7f       	andi	r24, 0xF8	; 248
    5376:	88 34       	cpi	r24, 0x48	; 72
    5378:	09 f0       	breq	.+2      	; 0x537c <_ZN8Fastwire7readBufEhhPhh+0x126>
    537a:	58 c0       	rjmp	.+176    	; 0x542c <_ZN8Fastwire7readBufEhhPhh+0x1d6>
    537c:	9a 94       	dec	r9
    537e:	21 f7       	brne	.-56     	; 0x5348 <_ZN8Fastwire7readBufEhhPhh+0xf2>
    5380:	19 e1       	ldi	r17, 0x19	; 25
    5382:	57 c0       	rjmp	.+174    	; 0x5432 <_ZN8Fastwire7readBufEhhPhh+0x1dc>
    5384:	cc 20       	and	r12, r12
    5386:	c1 f1       	breq	.+112    	; 0x53f8 <_ZN8Fastwire7readBufEhhPhh+0x1a2>
    5388:	cb 2d       	mov	r28, r11
    538a:	da 2d       	mov	r29, r10
    538c:	21 2c       	mov	r2, r1
    538e:	31 2c       	mov	r3, r1
    5390:	ec 2c       	mov	r14, r12
    5392:	f1 2c       	mov	r15, r1
    5394:	f1 e0       	ldi	r31, 0x01	; 1
    5396:	ef 1a       	sub	r14, r31
    5398:	f1 08       	sbc	r15, r1
    539a:	0f 2e       	mov	r0, r31
    539c:	fc eb       	ldi	r31, 0xBC	; 188
    539e:	4f 2e       	mov	r4, r31
    53a0:	51 2c       	mov	r5, r1
    53a2:	f0 2d       	mov	r31, r0
    53a4:	0f 2e       	mov	r0, r31
    53a6:	f4 ec       	ldi	r31, 0xC4	; 196
    53a8:	af 2e       	mov	r10, r31
    53aa:	f0 2d       	mov	r31, r0
    53ac:	04 e8       	ldi	r16, 0x84	; 132
    53ae:	0f 2e       	mov	r0, r31
    53b0:	f9 eb       	ldi	r31, 0xB9	; 185
    53b2:	6f 2e       	mov	r6, r31
    53b4:	71 2c       	mov	r7, r1
    53b6:	f0 2d       	mov	r31, r0
    53b8:	0f 2e       	mov	r0, r31
    53ba:	fb eb       	ldi	r31, 0xBB	; 187
    53bc:	8f 2e       	mov	r8, r31
    53be:	91 2c       	mov	r9, r1
    53c0:	f0 2d       	mov	r31, r0
    53c2:	2e 14       	cp	r2, r14
    53c4:	3f 04       	cpc	r3, r15
    53c6:	19 f4       	brne	.+6      	; 0x53ce <_ZN8Fastwire7readBufEhhPhh+0x178>
    53c8:	f2 01       	movw	r30, r4
    53ca:	00 83       	st	Z, r16
    53cc:	02 c0       	rjmp	.+4      	; 0x53d2 <_ZN8Fastwire7readBufEhhPhh+0x17c>
    53ce:	f2 01       	movw	r30, r4
    53d0:	a0 82       	st	Z, r10
    53d2:	94 de       	rcall	.-728    	; 0x50fc <_ZN8Fastwire7waitIntEv>
    53d4:	88 23       	and	r24, r24
    53d6:	09 f1       	breq	.+66     	; 0x541a <_ZN8Fastwire7readBufEhhPhh+0x1c4>
    53d8:	f3 01       	movw	r30, r6
    53da:	80 81       	ld	r24, Z
    53dc:	18 2f       	mov	r17, r24
    53de:	18 7f       	andi	r17, 0xF8	; 248
    53e0:	10 35       	cpi	r17, 0x50	; 80
    53e2:	11 f0       	breq	.+4      	; 0x53e8 <_ZN8Fastwire7readBufEhhPhh+0x192>
    53e4:	18 35       	cpi	r17, 0x58	; 88
    53e6:	29 f5       	brne	.+74     	; 0x5432 <_ZN8Fastwire7readBufEhhPhh+0x1dc>
    53e8:	f4 01       	movw	r30, r8
    53ea:	80 81       	ld	r24, Z
    53ec:	89 93       	st	Y+, r24
    53ee:	ff ef       	ldi	r31, 0xFF	; 255
    53f0:	2f 1a       	sub	r2, r31
    53f2:	3f 0a       	sbc	r3, r31
    53f4:	2c 14       	cp	r2, r12
    53f6:	28 f3       	brcs	.-54     	; 0x53c2 <_ZN8Fastwire7readBufEhhPhh+0x16c>
    53f8:	25 df       	rcall	.-438    	; 0x5244 <_ZN8Fastwire4stopEv>
    53fa:	10 e0       	ldi	r17, 0x00	; 0
    53fc:	1a c0       	rjmp	.+52     	; 0x5432 <_ZN8Fastwire7readBufEhhPhh+0x1dc>
    53fe:	10 e1       	ldi	r17, 0x10	; 16
    5400:	18 c0       	rjmp	.+48     	; 0x5432 <_ZN8Fastwire7readBufEhhPhh+0x1dc>
    5402:	11 e1       	ldi	r17, 0x11	; 17
    5404:	16 c0       	rjmp	.+44     	; 0x5432 <_ZN8Fastwire7readBufEhhPhh+0x1dc>
    5406:	12 e1       	ldi	r17, 0x12	; 18
    5408:	14 c0       	rjmp	.+40     	; 0x5432 <_ZN8Fastwire7readBufEhhPhh+0x1dc>
    540a:	14 e1       	ldi	r17, 0x14	; 20
    540c:	12 c0       	rjmp	.+36     	; 0x5432 <_ZN8Fastwire7readBufEhhPhh+0x1dc>
    540e:	15 e1       	ldi	r17, 0x15	; 21
    5410:	10 c0       	rjmp	.+32     	; 0x5432 <_ZN8Fastwire7readBufEhhPhh+0x1dc>
    5412:	16 e1       	ldi	r17, 0x16	; 22
    5414:	0e c0       	rjmp	.+28     	; 0x5432 <_ZN8Fastwire7readBufEhhPhh+0x1dc>
    5416:	17 e1       	ldi	r17, 0x17	; 23
    5418:	0c c0       	rjmp	.+24     	; 0x5432 <_ZN8Fastwire7readBufEhhPhh+0x1dc>
    541a:	1a e1       	ldi	r17, 0x1A	; 26
    541c:	0a c0       	rjmp	.+20     	; 0x5432 <_ZN8Fastwire7readBufEhhPhh+0x1dc>
    541e:	13 e1       	ldi	r17, 0x13	; 19
    5420:	08 c0       	rjmp	.+16     	; 0x5432 <_ZN8Fastwire7readBufEhhPhh+0x1dc>
    5422:	19 e1       	ldi	r17, 0x19	; 25
    5424:	06 c0       	rjmp	.+12     	; 0x5432 <_ZN8Fastwire7readBufEhhPhh+0x1dc>
    5426:	18 31       	cpi	r17, 0x18	; 24
    5428:	d1 f7       	brne	.-12     	; 0x541e <_ZN8Fastwire7readBufEhhPhh+0x1c8>
    542a:	67 cf       	rjmp	.-306    	; 0x52fa <_ZN8Fastwire7readBufEhhPhh+0xa4>
    542c:	80 34       	cpi	r24, 0x40	; 64
    542e:	c9 f7       	brne	.-14     	; 0x5422 <_ZN8Fastwire7readBufEhhPhh+0x1cc>
    5430:	a9 cf       	rjmp	.-174    	; 0x5384 <_ZN8Fastwire7readBufEhhPhh+0x12e>
    5432:	81 2f       	mov	r24, r17
    5434:	df 91       	pop	r29
    5436:	cf 91       	pop	r28
    5438:	1f 91       	pop	r17
    543a:	0f 91       	pop	r16
    543c:	ff 90       	pop	r15
    543e:	ef 90       	pop	r14
    5440:	cf 90       	pop	r12
    5442:	bf 90       	pop	r11
    5444:	af 90       	pop	r10
    5446:	9f 90       	pop	r9
    5448:	8f 90       	pop	r8
    544a:	7f 90       	pop	r7
    544c:	6f 90       	pop	r6
    544e:	5f 90       	pop	r5
    5450:	4f 90       	pop	r4
    5452:	3f 90       	pop	r3
    5454:	2f 90       	pop	r2
    5456:	08 95       	ret

00005458 <_ZN6I2Cdev9readBytesEhhhPhj>:
    5458:	9f 92       	push	r9
    545a:	af 92       	push	r10
    545c:	bf 92       	push	r11
    545e:	cf 92       	push	r12
    5460:	df 92       	push	r13
    5462:	ef 92       	push	r14
    5464:	ff 92       	push	r15
    5466:	0f 93       	push	r16
    5468:	1f 93       	push	r17
    546a:	cf 93       	push	r28
    546c:	df 93       	push	r29
    546e:	d8 2f       	mov	r29, r24
    5470:	96 2e       	mov	r9, r22
    5472:	c4 2f       	mov	r28, r20
    5474:	59 01       	movw	r10, r18
    5476:	2d de       	rcall	.-934    	; 0x50d2 <_Z6millisv>
    5478:	6b 01       	movw	r12, r22
    547a:	7c 01       	movw	r14, r24
    547c:	2c 2f       	mov	r18, r28
    547e:	a5 01       	movw	r20, r10
    5480:	69 2d       	mov	r22, r9
    5482:	8d 2f       	mov	r24, r29
    5484:	88 0f       	add	r24, r24
    5486:	e7 de       	rcall	.-562    	; 0x5256 <_ZN8Fastwire7readBufEhhPhh>
    5488:	81 11       	cpse	r24, r1
    548a:	02 c0       	rjmp	.+4      	; 0x5490 <_ZN6I2Cdev9readBytesEhhhPhj+0x38>
    548c:	dc 2f       	mov	r29, r28
    548e:	01 c0       	rjmp	.+2      	; 0x5492 <_ZN6I2Cdev9readBytesEhhhPhj+0x3a>
    5490:	df ef       	ldi	r29, 0xFF	; 255
    5492:	01 15       	cp	r16, r1
    5494:	11 05       	cpc	r17, r1
    5496:	c9 f0       	breq	.+50     	; 0x54ca <_ZN6I2Cdev9readBytesEhhhPhj+0x72>
    5498:	1c de       	rcall	.-968    	; 0x50d2 <_Z6millisv>
    549a:	9b 01       	movw	r18, r22
    549c:	ac 01       	movw	r20, r24
    549e:	2c 19       	sub	r18, r12
    54a0:	3d 09       	sbc	r19, r13
    54a2:	4e 09       	sbc	r20, r14
    54a4:	5f 09       	sbc	r21, r15
    54a6:	c8 01       	movw	r24, r16
    54a8:	a0 e0       	ldi	r26, 0x00	; 0
    54aa:	b0 e0       	ldi	r27, 0x00	; 0
    54ac:	28 17       	cp	r18, r24
    54ae:	39 07       	cpc	r19, r25
    54b0:	4a 07       	cpc	r20, r26
    54b2:	5b 07       	cpc	r21, r27
    54b4:	50 f0       	brcs	.+20     	; 0x54ca <_ZN6I2Cdev9readBytesEhhhPhj+0x72>
    54b6:	2d 2f       	mov	r18, r29
    54b8:	33 27       	eor	r19, r19
    54ba:	27 fd       	sbrc	r18, 7
    54bc:	30 95       	com	r19
    54be:	8c 2f       	mov	r24, r28
    54c0:	90 e0       	ldi	r25, 0x00	; 0
    54c2:	28 17       	cp	r18, r24
    54c4:	39 07       	cpc	r19, r25
    54c6:	0c f4       	brge	.+2      	; 0x54ca <_ZN6I2Cdev9readBytesEhhhPhj+0x72>
    54c8:	df ef       	ldi	r29, 0xFF	; 255
    54ca:	8d 2f       	mov	r24, r29
    54cc:	df 91       	pop	r29
    54ce:	cf 91       	pop	r28
    54d0:	1f 91       	pop	r17
    54d2:	0f 91       	pop	r16
    54d4:	ff 90       	pop	r15
    54d6:	ef 90       	pop	r14
    54d8:	df 90       	pop	r13
    54da:	cf 90       	pop	r12
    54dc:	bf 90       	pop	r11
    54de:	af 90       	pop	r10
    54e0:	9f 90       	pop	r9
    54e2:	08 95       	ret

000054e4 <_ZN6I2Cdev8readByteEhhPhj>:
    54e4:	0f 93       	push	r16
    54e6:	1f 93       	push	r17
    54e8:	89 01       	movw	r16, r18
    54ea:	9a 01       	movw	r18, r20
    54ec:	41 e0       	ldi	r20, 0x01	; 1
    54ee:	b4 df       	rcall	.-152    	; 0x5458 <_ZN6I2Cdev9readBytesEhhhPhj>
    54f0:	1f 91       	pop	r17
    54f2:	0f 91       	pop	r16
    54f4:	08 95       	ret

000054f6 <_ZN6I2Cdev8readBitsEhhhhPhj>:
    54f6:	cf 92       	push	r12
    54f8:	df 92       	push	r13
    54fa:	ef 92       	push	r14
    54fc:	ff 92       	push	r15
    54fe:	0f 93       	push	r16
    5500:	1f 93       	push	r17
    5502:	cf 93       	push	r28
    5504:	df 93       	push	r29
    5506:	1f 92       	push	r1
    5508:	cd b7       	in	r28, 0x3d	; 61
    550a:	de b7       	in	r29, 0x3e	; 62
    550c:	c4 2e       	mov	r12, r20
    550e:	d2 2e       	mov	r13, r18
    5510:	97 01       	movw	r18, r14
    5512:	ae 01       	movw	r20, r28
    5514:	4f 5f       	subi	r20, 0xFF	; 255
    5516:	5f 4f       	sbci	r21, 0xFF	; 255
    5518:	e5 df       	rcall	.-54     	; 0x54e4 <_ZN6I2Cdev8readByteEhhPhj>
    551a:	88 23       	and	r24, r24
    551c:	09 f1       	breq	.+66     	; 0x5560 <_ZN6I2Cdev8readBitsEhhhhPhj+0x6a>
    551e:	4c 2d       	mov	r20, r12
    5520:	50 e0       	ldi	r21, 0x00	; 0
    5522:	4d 19       	sub	r20, r13
    5524:	51 09       	sbc	r21, r1
    5526:	4f 5f       	subi	r20, 0xFF	; 255
    5528:	5f 4f       	sbci	r21, 0xFF	; 255
    552a:	61 e0       	ldi	r22, 0x01	; 1
    552c:	70 e0       	ldi	r23, 0x00	; 0
    552e:	9b 01       	movw	r18, r22
    5530:	02 c0       	rjmp	.+4      	; 0x5536 <_ZN6I2Cdev8readBitsEhhhhPhj+0x40>
    5532:	22 0f       	add	r18, r18
    5534:	33 1f       	adc	r19, r19
    5536:	da 94       	dec	r13
    5538:	e2 f7       	brpl	.-8      	; 0x5532 <_ZN6I2Cdev8readBitsEhhhhPhj+0x3c>
    553a:	21 50       	subi	r18, 0x01	; 1
    553c:	31 09       	sbc	r19, r1
    553e:	04 2e       	mov	r0, r20
    5540:	02 c0       	rjmp	.+4      	; 0x5546 <_ZN6I2Cdev8readBitsEhhhhPhj+0x50>
    5542:	22 0f       	add	r18, r18
    5544:	33 1f       	adc	r19, r19
    5546:	0a 94       	dec	r0
    5548:	e2 f7       	brpl	.-8      	; 0x5542 <_ZN6I2Cdev8readBitsEhhhhPhj+0x4c>
    554a:	99 81       	ldd	r25, Y+1	; 0x01
    554c:	29 23       	and	r18, r25
    554e:	30 e0       	ldi	r19, 0x00	; 0
    5550:	b9 01       	movw	r22, r18
    5552:	02 c0       	rjmp	.+4      	; 0x5558 <_ZN6I2Cdev8readBitsEhhhhPhj+0x62>
    5554:	75 95       	asr	r23
    5556:	67 95       	ror	r22
    5558:	4a 95       	dec	r20
    555a:	e2 f7       	brpl	.-8      	; 0x5554 <_ZN6I2Cdev8readBitsEhhhhPhj+0x5e>
    555c:	f8 01       	movw	r30, r16
    555e:	60 83       	st	Z, r22
    5560:	0f 90       	pop	r0
    5562:	df 91       	pop	r29
    5564:	cf 91       	pop	r28
    5566:	1f 91       	pop	r17
    5568:	0f 91       	pop	r16
    556a:	ff 90       	pop	r15
    556c:	ef 90       	pop	r14
    556e:	df 90       	pop	r13
    5570:	cf 90       	pop	r12
    5572:	08 95       	ret

00005574 <_ZN6I2Cdev7readBitEhhhPhj>:
    5574:	df 92       	push	r13
    5576:	ef 92       	push	r14
    5578:	ff 92       	push	r15
    557a:	0f 93       	push	r16
    557c:	1f 93       	push	r17
    557e:	cf 93       	push	r28
    5580:	df 93       	push	r29
    5582:	1f 92       	push	r1
    5584:	cd b7       	in	r28, 0x3d	; 61
    5586:	de b7       	in	r29, 0x3e	; 62
    5588:	d4 2e       	mov	r13, r20
    558a:	79 01       	movw	r14, r18
    558c:	98 01       	movw	r18, r16
    558e:	ae 01       	movw	r20, r28
    5590:	4f 5f       	subi	r20, 0xFF	; 255
    5592:	5f 4f       	sbci	r21, 0xFF	; 255
    5594:	a7 df       	rcall	.-178    	; 0x54e4 <_ZN6I2Cdev8readByteEhhPhj>
    5596:	21 e0       	ldi	r18, 0x01	; 1
    5598:	30 e0       	ldi	r19, 0x00	; 0
    559a:	a9 01       	movw	r20, r18
    559c:	02 c0       	rjmp	.+4      	; 0x55a2 <_ZN6I2Cdev7readBitEhhhPhj+0x2e>
    559e:	44 0f       	add	r20, r20
    55a0:	55 1f       	adc	r21, r21
    55a2:	da 94       	dec	r13
    55a4:	e2 f7       	brpl	.-8      	; 0x559e <_ZN6I2Cdev7readBitEhhhPhj+0x2a>
    55a6:	99 81       	ldd	r25, Y+1	; 0x01
    55a8:	49 23       	and	r20, r25
    55aa:	f7 01       	movw	r30, r14
    55ac:	40 83       	st	Z, r20
    55ae:	0f 90       	pop	r0
    55b0:	df 91       	pop	r29
    55b2:	cf 91       	pop	r28
    55b4:	1f 91       	pop	r17
    55b6:	0f 91       	pop	r16
    55b8:	ff 90       	pop	r15
    55ba:	ef 90       	pop	r14
    55bc:	df 90       	pop	r13
    55be:	08 95       	ret

000055c0 <_ZN6I2Cdev10writeWordsEhhhPj>:
    55c0:	df 92       	push	r13
    55c2:	ef 92       	push	r14
    55c4:	ff 92       	push	r15
    55c6:	0f 93       	push	r16
    55c8:	1f 93       	push	r17
    55ca:	cf 93       	push	r28
    55cc:	df 93       	push	r29
    55ce:	c6 2f       	mov	r28, r22
    55d0:	04 2f       	mov	r16, r20
    55d2:	79 01       	movw	r14, r18
    55d4:	d3 dd       	rcall	.-1114   	; 0x517c <_ZN8Fastwire17beginTransmissionEh>
    55d6:	8c 2f       	mov	r24, r28
    55d8:	22 de       	rcall	.-956    	; 0x521e <_ZN8Fastwire5writeEh>
    55da:	10 e0       	ldi	r17, 0x00	; 0
    55dc:	00 0f       	add	r16, r16
    55de:	11 1f       	adc	r17, r17
    55e0:	10 16       	cp	r1, r16
    55e2:	11 06       	cpc	r1, r17
    55e4:	b4 f4       	brge	.+44     	; 0x5612 <_ZN6I2Cdev10writeWordsEhhhPj+0x52>
    55e6:	d1 2c       	mov	r13, r1
    55e8:	cd 2d       	mov	r28, r13
    55ea:	d0 e0       	ldi	r29, 0x00	; 0
    55ec:	cc 0f       	add	r28, r28
    55ee:	dd 1f       	adc	r29, r29
    55f0:	ce 0d       	add	r28, r14
    55f2:	df 1d       	adc	r29, r15
    55f4:	89 81       	ldd	r24, Y+1	; 0x01
    55f6:	13 de       	rcall	.-986    	; 0x521e <_ZN8Fastwire5writeEh>
    55f8:	88 81       	ld	r24, Y
    55fa:	11 de       	rcall	.-990    	; 0x521e <_ZN8Fastwire5writeEh>
    55fc:	c8 2f       	mov	r28, r24
    55fe:	81 11       	cpse	r24, r1
    5600:	09 c0       	rjmp	.+18     	; 0x5614 <_ZN6I2Cdev10writeWordsEhhhPj+0x54>
    5602:	d3 94       	inc	r13
    5604:	d3 94       	inc	r13
    5606:	2d 2d       	mov	r18, r13
    5608:	30 e0       	ldi	r19, 0x00	; 0
    560a:	20 17       	cp	r18, r16
    560c:	31 07       	cpc	r19, r17
    560e:	64 f3       	brlt	.-40     	; 0x55e8 <_ZN6I2Cdev10writeWordsEhhhPj+0x28>
    5610:	01 c0       	rjmp	.+2      	; 0x5614 <_ZN6I2Cdev10writeWordsEhhhPj+0x54>
    5612:	c0 e0       	ldi	r28, 0x00	; 0
    5614:	17 de       	rcall	.-978    	; 0x5244 <_ZN8Fastwire4stopEv>
    5616:	81 e0       	ldi	r24, 0x01	; 1
    5618:	c1 11       	cpse	r28, r1
    561a:	80 e0       	ldi	r24, 0x00	; 0
    561c:	df 91       	pop	r29
    561e:	cf 91       	pop	r28
    5620:	1f 91       	pop	r17
    5622:	0f 91       	pop	r16
    5624:	ff 90       	pop	r15
    5626:	ef 90       	pop	r14
    5628:	df 90       	pop	r13
    562a:	08 95       	ret

0000562c <_ZN6I2Cdev9writeWordEhhj>:
    562c:	cf 93       	push	r28
    562e:	df 93       	push	r29
    5630:	00 d0       	rcall	.+0      	; 0x5632 <_ZN6I2Cdev9writeWordEhhj+0x6>
    5632:	cd b7       	in	r28, 0x3d	; 61
    5634:	de b7       	in	r29, 0x3e	; 62
    5636:	5a 83       	std	Y+2, r21	; 0x02
    5638:	49 83       	std	Y+1, r20	; 0x01
    563a:	9e 01       	movw	r18, r28
    563c:	2f 5f       	subi	r18, 0xFF	; 255
    563e:	3f 4f       	sbci	r19, 0xFF	; 255
    5640:	41 e0       	ldi	r20, 0x01	; 1
    5642:	be df       	rcall	.-132    	; 0x55c0 <_ZN6I2Cdev10writeWordsEhhhPj>
    5644:	0f 90       	pop	r0
    5646:	0f 90       	pop	r0
    5648:	df 91       	pop	r29
    564a:	cf 91       	pop	r28
    564c:	08 95       	ret

0000564e <_ZN6I2Cdev10writeBytesEhhhPh>:
 * @param regAddr First register address to write to
 * @param length Number of bytes to write
 * @param data Buffer to copy new data from
 * @return Status of operation (true = success)
 */
bool I2Cdev::writeBytes(uint8_t devAddr, uint8_t regAddr, uint8_t length, uint8_t* data) {
    564e:	ff 92       	push	r15
    5650:	0f 93       	push	r16
    5652:	1f 93       	push	r17
    5654:	cf 93       	push	r28
    5656:	df 93       	push	r29
    5658:	c6 2f       	mov	r28, r22
    565a:	14 2f       	mov	r17, r20
    565c:	f2 2e       	mov	r15, r18
    565e:	03 2f       	mov	r16, r19
        Wire.send((uint8_t) regAddr); // send address
    #elif (I2CDEV_IMPLEMENTATION == I2CDEV_ARDUINO_WIRE && ARDUINO >= 100)
        Wire.beginTransmission(devAddr);
        Wire.write((uint8_t) regAddr); // send address
    #elif (I2CDEV_IMPLEMENTATION == I2CDEV_BUILTIN_FASTWIRE)
        Fastwire::beginTransmission(devAddr);
    5660:	8d dd       	rcall	.-1254   	; 0x517c <_ZN8Fastwire17beginTransmissionEh>
        Fastwire::write(regAddr);
    5662:	8c 2f       	mov	r24, r28
    5664:	dc dd       	rcall	.-1096   	; 0x521e <_ZN8Fastwire5writeEh>
    #endif
    for (uint8_t i = 0; i < length; i++) {
    5666:	11 23       	and	r17, r17
    5668:	71 f0       	breq	.+28     	; 0x5686 <_ZN6I2Cdev10writeBytesEhhhPh+0x38>
    566a:	cf 2d       	mov	r28, r15
    566c:	d0 2f       	mov	r29, r16
 * @param regAddr First register address to write to
 * @param length Number of bytes to write
 * @param data Buffer to copy new data from
 * @return Status of operation (true = success)
 */
bool I2Cdev::writeBytes(uint8_t devAddr, uint8_t regAddr, uint8_t length, uint8_t* data) {
    566e:	11 50       	subi	r17, 0x01	; 1
    5670:	ce 01       	movw	r24, r28
    5672:	81 0f       	add	r24, r17
    5674:	91 1d       	adc	r25, r1
    5676:	8c 01       	movw	r16, r24
    5678:	0f 5f       	subi	r16, 0xFF	; 255
    567a:	1f 4f       	sbci	r17, 0xFF	; 255
        #if ((I2CDEV_IMPLEMENTATION == I2CDEV_ARDUINO_WIRE && ARDUINO < 100) || I2CDEV_IMPLEMENTATION == I2CDEV_BUILTIN_NBWIRE)
            Wire.send((uint8_t) data[i]);
        #elif (I2CDEV_IMPLEMENTATION == I2CDEV_ARDUINO_WIRE && ARDUINO >= 100)
            Wire.write((uint8_t) data[i]);
        #elif (I2CDEV_IMPLEMENTATION == I2CDEV_BUILTIN_FASTWIRE)
            Fastwire::write((uint8_t) data[i]);
    567c:	89 91       	ld	r24, Y+
    567e:	cf dd       	rcall	.-1122   	; 0x521e <_ZN8Fastwire5writeEh>
        Wire.write((uint8_t) regAddr); // send address
    #elif (I2CDEV_IMPLEMENTATION == I2CDEV_BUILTIN_FASTWIRE)
        Fastwire::beginTransmission(devAddr);
        Fastwire::write(regAddr);
    #endif
    for (uint8_t i = 0; i < length; i++) {
    5680:	c0 17       	cp	r28, r16
    5682:	d1 07       	cpc	r29, r17
    5684:	d9 f7       	brne	.-10     	; 0x567c <_ZN6I2Cdev10writeBytesEhhhPh+0x2e>
    #if ((I2CDEV_IMPLEMENTATION == I2CDEV_ARDUINO_WIRE && ARDUINO < 100) || I2CDEV_IMPLEMENTATION == I2CDEV_BUILTIN_NBWIRE)
        Wire.endTransmission();
    #elif (I2CDEV_IMPLEMENTATION == I2CDEV_ARDUINO_WIRE && ARDUINO >= 100)
        status = Wire.endTransmission();
    #elif (I2CDEV_IMPLEMENTATION == I2CDEV_BUILTIN_FASTWIRE)
        Fastwire::stop();
    5686:	de dd       	rcall	.-1092   	; 0x5244 <_ZN8Fastwire4stopEv>
    #endif
    #ifdef I2CDEV_SERIAL_DEBUG
        Serial.println(". Done.");
    #endif
    return status == 0;
}
    5688:	81 e0       	ldi	r24, 0x01	; 1
    568a:	df 91       	pop	r29
    568c:	cf 91       	pop	r28
    568e:	1f 91       	pop	r17
    5690:	0f 91       	pop	r16
    5692:	ff 90       	pop	r15
    5694:	08 95       	ret

00005696 <_ZN6I2Cdev9writeByteEhhh>:
 * @param devAddr I2C slave device address
 * @param regAddr Register address to write to
 * @param data New byte value to write
 * @return Status of operation (true = success)
 */
bool I2Cdev::writeByte(uint8_t devAddr, uint8_t regAddr, uint8_t data) {
    5696:	cf 93       	push	r28
    5698:	df 93       	push	r29
    569a:	1f 92       	push	r1
    569c:	cd b7       	in	r28, 0x3d	; 61
    569e:	de b7       	in	r29, 0x3e	; 62
    56a0:	49 83       	std	Y+1, r20	; 0x01
    return writeBytes(devAddr, regAddr, 1, &data);
    56a2:	9e 01       	movw	r18, r28
    56a4:	2f 5f       	subi	r18, 0xFF	; 255
    56a6:	3f 4f       	sbci	r19, 0xFF	; 255
    56a8:	41 e0       	ldi	r20, 0x01	; 1
    56aa:	d1 df       	rcall	.-94     	; 0x564e <_ZN6I2Cdev10writeBytesEhhhPh>
}
    56ac:	0f 90       	pop	r0
    56ae:	df 91       	pop	r29
    56b0:	cf 91       	pop	r28
    56b2:	08 95       	ret

000056b4 <_ZN6I2Cdev9writeBitsEhhhhh>:
 * @param bitStart First bit position to write (0-7)
 * @param length Number of bits to write (not more than 8)
 * @param data Right-aligned value to write
 * @return Status of operation (true = success)
 */
bool I2Cdev::writeBits(uint8_t devAddr, uint8_t regAddr, uint8_t bitStart, uint8_t length, uint8_t data) {
    56b4:	df 92       	push	r13
    56b6:	ef 92       	push	r14
    56b8:	ff 92       	push	r15
    56ba:	0f 93       	push	r16
    56bc:	1f 93       	push	r17
    56be:	cf 93       	push	r28
    56c0:	df 93       	push	r29
    56c2:	1f 92       	push	r1
    56c4:	cd b7       	in	r28, 0x3d	; 61
    56c6:	de b7       	in	r29, 0x3e	; 62
    56c8:	18 2f       	mov	r17, r24
    56ca:	f6 2e       	mov	r15, r22
    56cc:	d4 2e       	mov	r13, r20
    56ce:	e2 2e       	mov	r14, r18
    // 00011100 mask byte
    // 10101111 original value (sample)
    // 10100011 original & ~mask
    // 10101011 masked | value
    uint8_t b;
    if (readByte(devAddr, regAddr, &b) != 0) {
    56d0:	20 91 09 01 	lds	r18, 0x0109
    56d4:	30 91 0a 01 	lds	r19, 0x010A
    56d8:	ae 01       	movw	r20, r28
    56da:	4f 5f       	subi	r20, 0xFF	; 255
    56dc:	5f 4f       	sbci	r21, 0xFF	; 255
    56de:	02 df       	rcall	.-508    	; 0x54e4 <_ZN6I2Cdev8readByteEhhPhj>
    56e0:	88 23       	and	r24, r24
    56e2:	19 f1       	breq	.+70     	; 0x572a <_ZN6I2Cdev9writeBitsEhhhhh+0x76>
        uint8_t mask = ((1 << length) - 1) << (bitStart - length + 1);
    56e4:	ed 2d       	mov	r30, r13
    56e6:	f0 e0       	ldi	r31, 0x00	; 0
    56e8:	ee 19       	sub	r30, r14
    56ea:	f1 09       	sbc	r31, r1
    56ec:	31 96       	adiw	r30, 0x01	; 1
    56ee:	a1 e0       	ldi	r26, 0x01	; 1
    56f0:	b0 e0       	ldi	r27, 0x00	; 0
    56f2:	9d 01       	movw	r18, r26
    56f4:	02 c0       	rjmp	.+4      	; 0x56fa <_ZN6I2Cdev9writeBitsEhhhhh+0x46>
    56f6:	22 0f       	add	r18, r18
    56f8:	33 1f       	adc	r19, r19
    56fa:	ea 94       	dec	r14
    56fc:	e2 f7       	brpl	.-8      	; 0x56f6 <_ZN6I2Cdev9writeBitsEhhhhh+0x42>
    56fe:	21 50       	subi	r18, 0x01	; 1
    5700:	31 09       	sbc	r19, r1
    5702:	0e 2e       	mov	r0, r30
    5704:	01 c0       	rjmp	.+2      	; 0x5708 <_ZN6I2Cdev9writeBitsEhhhhh+0x54>
    5706:	22 0f       	add	r18, r18
    5708:	0a 94       	dec	r0
    570a:	ea f7       	brpl	.-6      	; 0x5706 <_ZN6I2Cdev9writeBitsEhhhhh+0x52>
        data <<= (bitStart - length + 1); // shift data into correct position
    570c:	01 c0       	rjmp	.+2      	; 0x5710 <_ZN6I2Cdev9writeBitsEhhhhh+0x5c>
    570e:	00 0f       	add	r16, r16
    5710:	ea 95       	dec	r30
    5712:	ea f7       	brpl	.-6      	; 0x570e <_ZN6I2Cdev9writeBitsEhhhhh+0x5a>
        data &= mask; // zero all non-important bits in data
        b &= ~(mask); // zero all important bits in existing byte
    5714:	42 2f       	mov	r20, r18
    5716:	40 95       	com	r20
    5718:	89 81       	ldd	r24, Y+1	; 0x01
    571a:	48 23       	and	r20, r24
    // 10101011 masked | value
    uint8_t b;
    if (readByte(devAddr, regAddr, &b) != 0) {
        uint8_t mask = ((1 << length) - 1) << (bitStart - length + 1);
        data <<= (bitStart - length + 1); // shift data into correct position
        data &= mask; // zero all non-important bits in data
    571c:	20 23       	and	r18, r16
        b &= ~(mask); // zero all important bits in existing byte
        b |= data; // combine data with existing byte
    571e:	42 2b       	or	r20, r18
    5720:	49 83       	std	Y+1, r20	; 0x01
        return writeByte(devAddr, regAddr, b);
    5722:	6f 2d       	mov	r22, r15
    5724:	81 2f       	mov	r24, r17
    5726:	b7 df       	rcall	.-146    	; 0x5696 <_ZN6I2Cdev9writeByteEhhh>
    5728:	01 c0       	rjmp	.+2      	; 0x572c <_ZN6I2Cdev9writeBitsEhhhhh+0x78>
    } else {
        return false;
    572a:	80 e0       	ldi	r24, 0x00	; 0
    }
}
    572c:	0f 90       	pop	r0
    572e:	df 91       	pop	r29
    5730:	cf 91       	pop	r28
    5732:	1f 91       	pop	r17
    5734:	0f 91       	pop	r16
    5736:	ff 90       	pop	r15
    5738:	ef 90       	pop	r14
    573a:	df 90       	pop	r13
    573c:	08 95       	ret

0000573e <_ZN6I2Cdev8writeBitEhhhh>:
 * @param regAddr Register regAddr to write to
 * @param bitNum Bit position to write (0-7)
 * @param value New bit value to write
 * @return Status of operation (true = success)
 */
bool I2Cdev::writeBit(uint8_t devAddr, uint8_t regAddr, uint8_t bitNum, uint8_t data) {
    573e:	ef 92       	push	r14
    5740:	ff 92       	push	r15
    5742:	0f 93       	push	r16
    5744:	1f 93       	push	r17
    5746:	cf 93       	push	r28
    5748:	df 93       	push	r29
    574a:	1f 92       	push	r1
    574c:	cd b7       	in	r28, 0x3d	; 61
    574e:	de b7       	in	r29, 0x3e	; 62
    5750:	18 2f       	mov	r17, r24
    5752:	06 2f       	mov	r16, r22
    5754:	f4 2e       	mov	r15, r20
    5756:	e2 2e       	mov	r14, r18
    uint8_t b;
    readByte(devAddr, regAddr, &b);
    5758:	20 91 09 01 	lds	r18, 0x0109
    575c:	30 91 0a 01 	lds	r19, 0x010A
    5760:	ae 01       	movw	r20, r28
    5762:	4f 5f       	subi	r20, 0xFF	; 255
    5764:	5f 4f       	sbci	r21, 0xFF	; 255
    5766:	be de       	rcall	.-644    	; 0x54e4 <_ZN6I2Cdev8readByteEhhPhj>
    b = (data != 0) ? (b | (1 << bitNum)) : (b & ~(1 << bitNum));
    5768:	ee 20       	and	r14, r14
    576a:	59 f0       	breq	.+22     	; 0x5782 <_ZN6I2Cdev8writeBitEhhhh+0x44>
    576c:	21 e0       	ldi	r18, 0x01	; 1
    576e:	30 e0       	ldi	r19, 0x00	; 0
    5770:	a9 01       	movw	r20, r18
    5772:	02 c0       	rjmp	.+4      	; 0x5778 <_ZN6I2Cdev8writeBitEhhhh+0x3a>
    5774:	44 0f       	add	r20, r20
    5776:	55 1f       	adc	r21, r21
    5778:	fa 94       	dec	r15
    577a:	e2 f7       	brpl	.-8      	; 0x5774 <_ZN6I2Cdev8writeBitEhhhh+0x36>
    577c:	89 81       	ldd	r24, Y+1	; 0x01
    577e:	48 2b       	or	r20, r24
    5780:	0b c0       	rjmp	.+22     	; 0x5798 <_ZN6I2Cdev8writeBitEhhhh+0x5a>
    5782:	21 e0       	ldi	r18, 0x01	; 1
    5784:	30 e0       	ldi	r19, 0x00	; 0
    5786:	a9 01       	movw	r20, r18
    5788:	02 c0       	rjmp	.+4      	; 0x578e <_ZN6I2Cdev8writeBitEhhhh+0x50>
    578a:	44 0f       	add	r20, r20
    578c:	55 1f       	adc	r21, r21
    578e:	fa 94       	dec	r15
    5790:	e2 f7       	brpl	.-8      	; 0x578a <_ZN6I2Cdev8writeBitEhhhh+0x4c>
    5792:	40 95       	com	r20
    5794:	89 81       	ldd	r24, Y+1	; 0x01
    5796:	48 23       	and	r20, r24
    5798:	49 83       	std	Y+1, r20	; 0x01
    return writeByte(devAddr, regAddr, b);
    579a:	60 2f       	mov	r22, r16
    579c:	81 2f       	mov	r24, r17
    579e:	7b df       	rcall	.-266    	; 0x5696 <_ZN6I2Cdev9writeByteEhhh>
}
    57a0:	0f 90       	pop	r0
    57a2:	df 91       	pop	r29
    57a4:	cf 91       	pop	r28
    57a6:	1f 91       	pop	r17
    57a8:	0f 91       	pop	r16
    57aa:	ff 90       	pop	r15
    57ac:	ef 90       	pop	r14
    57ae:	08 95       	ret

000057b0 <_Z16height_change_x0f>:
float y0 = 0;
float z0 = -120;

void height_change_x0(float new_z)
{
	x0 = 120 + 0.4*(new_z - z0);
    57b0:	20 91 0b 01 	lds	r18, 0x010B
    57b4:	30 91 0c 01 	lds	r19, 0x010C
    57b8:	40 91 0d 01 	lds	r20, 0x010D
    57bc:	50 91 0e 01 	lds	r21, 0x010E
    57c0:	0e 94 42 40 	call	0x8084	; 0x8084 <__subsf3>
    57c4:	2d ec       	ldi	r18, 0xCD	; 205
    57c6:	3c ec       	ldi	r19, 0xCC	; 204
    57c8:	4c ec       	ldi	r20, 0xCC	; 204
    57ca:	5e e3       	ldi	r21, 0x3E	; 62
    57cc:	0e 94 82 43 	call	0x8704	; 0x8704 <__mulsf3>
    57d0:	20 e0       	ldi	r18, 0x00	; 0
    57d2:	30 e0       	ldi	r19, 0x00	; 0
    57d4:	40 ef       	ldi	r20, 0xF0	; 240
    57d6:	52 e4       	ldi	r21, 0x42	; 66
    57d8:	0e 94 43 40 	call	0x8086	; 0x8086 <__addsf3>
    57dc:	60 93 0f 01 	sts	0x010F, r22
    57e0:	70 93 10 01 	sts	0x0110, r23
    57e4:	80 93 11 01 	sts	0x0111, r24
    57e8:	90 93 12 01 	sts	0x0112, r25
    57ec:	08 95       	ret

000057ee <_Z18height_change_leg1f>:
}

void height_change_leg1(float new_z)
{
    57ee:	cf 92       	push	r12
    57f0:	df 92       	push	r13
    57f2:	ef 92       	push	r14
    57f4:	ff 92       	push	r15
	x0_1 = -(120 + 0.4*(new_z - z0))/sqrt2-61.85; 
    57f6:	20 91 0b 01 	lds	r18, 0x010B
    57fa:	30 91 0c 01 	lds	r19, 0x010C
    57fe:	40 91 0d 01 	lds	r20, 0x010D
    5802:	50 91 0e 01 	lds	r21, 0x010E
    5806:	0e 94 42 40 	call	0x8084	; 0x8084 <__subsf3>
    580a:	2d ec       	ldi	r18, 0xCD	; 205
    580c:	3c ec       	ldi	r19, 0xCC	; 204
    580e:	4c ec       	ldi	r20, 0xCC	; 204
    5810:	5e e3       	ldi	r21, 0x3E	; 62
    5812:	0e 94 82 43 	call	0x8704	; 0x8704 <__mulsf3>
    5816:	20 e0       	ldi	r18, 0x00	; 0
    5818:	30 e0       	ldi	r19, 0x00	; 0
    581a:	40 ef       	ldi	r20, 0xF0	; 240
    581c:	52 e4       	ldi	r21, 0x42	; 66
    581e:	0e 94 43 40 	call	0x8086	; 0x8086 <__addsf3>
    5822:	c6 2e       	mov	r12, r22
    5824:	d7 2e       	mov	r13, r23
    5826:	e8 2e       	mov	r14, r24
    5828:	f9 2e       	mov	r15, r25
    582a:	c7 01       	movw	r24, r14
    582c:	b6 01       	movw	r22, r12
    582e:	90 58       	subi	r25, 0x80	; 128
    5830:	23 ef       	ldi	r18, 0xF3	; 243
    5832:	34 e0       	ldi	r19, 0x04	; 4
    5834:	45 eb       	ldi	r20, 0xB5	; 181
    5836:	5f e3       	ldi	r21, 0x3F	; 63
    5838:	0e 94 27 41 	call	0x824e	; 0x824e <__divsf3>
    583c:	26 e6       	ldi	r18, 0x66	; 102
    583e:	36 e6       	ldi	r19, 0x66	; 102
    5840:	47 e7       	ldi	r20, 0x77	; 119
    5842:	52 e4       	ldi	r21, 0x42	; 66
    5844:	0e 94 42 40 	call	0x8084	; 0x8084 <__subsf3>
    5848:	60 93 37 01 	sts	0x0137, r22
    584c:	70 93 38 01 	sts	0x0138, r23
    5850:	80 93 39 01 	sts	0x0139, r24
    5854:	90 93 3a 01 	sts	0x013A, r25
	y0_1 = (120 + 0.4*(new_z - z0))/sqrt2+120;
    5858:	23 ef       	ldi	r18, 0xF3	; 243
    585a:	34 e0       	ldi	r19, 0x04	; 4
    585c:	45 eb       	ldi	r20, 0xB5	; 181
    585e:	5f e3       	ldi	r21, 0x3F	; 63
    5860:	c7 01       	movw	r24, r14
    5862:	b6 01       	movw	r22, r12
    5864:	0e 94 27 41 	call	0x824e	; 0x824e <__divsf3>
    5868:	20 e0       	ldi	r18, 0x00	; 0
    586a:	30 e0       	ldi	r19, 0x00	; 0
    586c:	40 ef       	ldi	r20, 0xF0	; 240
    586e:	52 e4       	ldi	r21, 0x42	; 66
    5870:	0e 94 43 40 	call	0x8086	; 0x8086 <__addsf3>
    5874:	60 93 33 01 	sts	0x0133, r22
    5878:	70 93 34 01 	sts	0x0134, r23
    587c:	80 93 35 01 	sts	0x0135, r24
    5880:	90 93 36 01 	sts	0x0136, r25
}
    5884:	ff 90       	pop	r15
    5886:	ef 90       	pop	r14
    5888:	df 90       	pop	r13
    588a:	cf 90       	pop	r12
    588c:	08 95       	ret

0000588e <_Z18height_change_leg2f>:

void height_change_leg2(float new_z)
{
	x0_2 = -(120 + 0.4*(new_z - z0))-100;
    588e:	20 91 0b 01 	lds	r18, 0x010B
    5892:	30 91 0c 01 	lds	r19, 0x010C
    5896:	40 91 0d 01 	lds	r20, 0x010D
    589a:	50 91 0e 01 	lds	r21, 0x010E
    589e:	0e 94 42 40 	call	0x8084	; 0x8084 <__subsf3>
    58a2:	2d ec       	ldi	r18, 0xCD	; 205
    58a4:	3c ec       	ldi	r19, 0xCC	; 204
    58a6:	4c ec       	ldi	r20, 0xCC	; 204
    58a8:	5e e3       	ldi	r21, 0x3E	; 62
    58aa:	0e 94 82 43 	call	0x8704	; 0x8704 <__mulsf3>
    58ae:	20 e0       	ldi	r18, 0x00	; 0
    58b0:	30 e0       	ldi	r19, 0x00	; 0
    58b2:	40 ef       	ldi	r20, 0xF0	; 240
    58b4:	52 e4       	ldi	r21, 0x42	; 66
    58b6:	0e 94 43 40 	call	0x8086	; 0x8086 <__addsf3>
    58ba:	90 58       	subi	r25, 0x80	; 128
    58bc:	20 e0       	ldi	r18, 0x00	; 0
    58be:	30 e0       	ldi	r19, 0x00	; 0
    58c0:	48 ec       	ldi	r20, 0xC8	; 200
    58c2:	52 e4       	ldi	r21, 0x42	; 66
    58c4:	0e 94 42 40 	call	0x8084	; 0x8084 <__subsf3>
    58c8:	60 93 2f 01 	sts	0x012F, r22
    58cc:	70 93 30 01 	sts	0x0130, r23
    58d0:	80 93 31 01 	sts	0x0131, r24
    58d4:	90 93 32 01 	sts	0x0132, r25
    58d8:	08 95       	ret

000058da <_Z18height_change_leg3f>:
}

void height_change_leg3(float new_z)
{
    58da:	0f 93       	push	r16
    58dc:	1f 93       	push	r17
    58de:	cf 93       	push	r28
    58e0:	df 93       	push	r29
	x0_3 = -(120 + 0.4*(new_z - z0))/sqrt2-61.85;
    58e2:	20 91 0b 01 	lds	r18, 0x010B
    58e6:	30 91 0c 01 	lds	r19, 0x010C
    58ea:	40 91 0d 01 	lds	r20, 0x010D
    58ee:	50 91 0e 01 	lds	r21, 0x010E
    58f2:	0e 94 42 40 	call	0x8084	; 0x8084 <__subsf3>
    58f6:	2d ec       	ldi	r18, 0xCD	; 205
    58f8:	3c ec       	ldi	r19, 0xCC	; 204
    58fa:	4c ec       	ldi	r20, 0xCC	; 204
    58fc:	5e e3       	ldi	r21, 0x3E	; 62
    58fe:	0e 94 82 43 	call	0x8704	; 0x8704 <__mulsf3>
    5902:	20 e0       	ldi	r18, 0x00	; 0
    5904:	30 e0       	ldi	r19, 0x00	; 0
    5906:	40 ef       	ldi	r20, 0xF0	; 240
    5908:	52 e4       	ldi	r21, 0x42	; 66
    590a:	0e 94 43 40 	call	0x8086	; 0x8086 <__addsf3>
    590e:	90 58       	subi	r25, 0x80	; 128
    5910:	23 ef       	ldi	r18, 0xF3	; 243
    5912:	34 e0       	ldi	r19, 0x04	; 4
    5914:	45 eb       	ldi	r20, 0xB5	; 181
    5916:	5f e3       	ldi	r21, 0x3F	; 63
    5918:	0e 94 27 41 	call	0x824e	; 0x824e <__divsf3>
    591c:	06 2f       	mov	r16, r22
    591e:	17 2f       	mov	r17, r23
    5920:	d8 2f       	mov	r29, r24
    5922:	c9 2f       	mov	r28, r25
    5924:	26 e6       	ldi	r18, 0x66	; 102
    5926:	36 e6       	ldi	r19, 0x66	; 102
    5928:	47 e7       	ldi	r20, 0x77	; 119
    592a:	52 e4       	ldi	r21, 0x42	; 66
    592c:	0e 94 42 40 	call	0x8084	; 0x8084 <__subsf3>
    5930:	60 93 2b 01 	sts	0x012B, r22
    5934:	70 93 2c 01 	sts	0x012C, r23
    5938:	80 93 2d 01 	sts	0x012D, r24
    593c:	90 93 2e 01 	sts	0x012E, r25
	y0_3 = -(120 + 0.4*(new_z - z0))/sqrt2-120; 
    5940:	20 e0       	ldi	r18, 0x00	; 0
    5942:	30 e0       	ldi	r19, 0x00	; 0
    5944:	40 ef       	ldi	r20, 0xF0	; 240
    5946:	52 e4       	ldi	r21, 0x42	; 66
    5948:	60 2f       	mov	r22, r16
    594a:	71 2f       	mov	r23, r17
    594c:	8d 2f       	mov	r24, r29
    594e:	9c 2f       	mov	r25, r28
    5950:	0e 94 42 40 	call	0x8084	; 0x8084 <__subsf3>
    5954:	60 93 27 01 	sts	0x0127, r22
    5958:	70 93 28 01 	sts	0x0128, r23
    595c:	80 93 29 01 	sts	0x0129, r24
    5960:	90 93 2a 01 	sts	0x012A, r25
}
    5964:	df 91       	pop	r29
    5966:	cf 91       	pop	r28
    5968:	1f 91       	pop	r17
    596a:	0f 91       	pop	r16
    596c:	08 95       	ret

0000596e <_Z18height_change_leg4f>:

void height_change_leg4(float new_z)
{
    596e:	cf 92       	push	r12
    5970:	df 92       	push	r13
    5972:	ef 92       	push	r14
    5974:	ff 92       	push	r15
	x0_4 = (120 + 0.4*(new_z - z0))/sqrt2+61.85;
    5976:	20 91 0b 01 	lds	r18, 0x010B
    597a:	30 91 0c 01 	lds	r19, 0x010C
    597e:	40 91 0d 01 	lds	r20, 0x010D
    5982:	50 91 0e 01 	lds	r21, 0x010E
    5986:	0e 94 42 40 	call	0x8084	; 0x8084 <__subsf3>
    598a:	2d ec       	ldi	r18, 0xCD	; 205
    598c:	3c ec       	ldi	r19, 0xCC	; 204
    598e:	4c ec       	ldi	r20, 0xCC	; 204
    5990:	5e e3       	ldi	r21, 0x3E	; 62
    5992:	0e 94 82 43 	call	0x8704	; 0x8704 <__mulsf3>
    5996:	20 e0       	ldi	r18, 0x00	; 0
    5998:	30 e0       	ldi	r19, 0x00	; 0
    599a:	40 ef       	ldi	r20, 0xF0	; 240
    599c:	52 e4       	ldi	r21, 0x42	; 66
    599e:	0e 94 43 40 	call	0x8086	; 0x8086 <__addsf3>
    59a2:	b6 2f       	mov	r27, r22
    59a4:	a7 2f       	mov	r26, r23
    59a6:	46 2f       	mov	r20, r22
    59a8:	57 2f       	mov	r21, r23
    59aa:	68 2f       	mov	r22, r24
    59ac:	79 2f       	mov	r23, r25
    59ae:	6a 01       	movw	r12, r20
    59b0:	7b 01       	movw	r14, r22
    59b2:	23 ef       	ldi	r18, 0xF3	; 243
    59b4:	34 e0       	ldi	r19, 0x04	; 4
    59b6:	45 eb       	ldi	r20, 0xB5	; 181
    59b8:	5f e3       	ldi	r21, 0x3F	; 63
    59ba:	6b 2f       	mov	r22, r27
    59bc:	7a 2f       	mov	r23, r26
    59be:	0e 94 27 41 	call	0x824e	; 0x824e <__divsf3>
    59c2:	26 e6       	ldi	r18, 0x66	; 102
    59c4:	36 e6       	ldi	r19, 0x66	; 102
    59c6:	47 e7       	ldi	r20, 0x77	; 119
    59c8:	52 e4       	ldi	r21, 0x42	; 66
    59ca:	0e 94 43 40 	call	0x8086	; 0x8086 <__addsf3>
    59ce:	60 93 23 01 	sts	0x0123, r22
    59d2:	70 93 24 01 	sts	0x0124, r23
    59d6:	80 93 25 01 	sts	0x0125, r24
    59da:	90 93 26 01 	sts	0x0126, r25
	y0_4 = -(120 + 0.4*(new_z - z0))/sqrt2-120; 
    59de:	c7 01       	movw	r24, r14
    59e0:	b6 01       	movw	r22, r12
    59e2:	90 58       	subi	r25, 0x80	; 128
    59e4:	23 ef       	ldi	r18, 0xF3	; 243
    59e6:	34 e0       	ldi	r19, 0x04	; 4
    59e8:	45 eb       	ldi	r20, 0xB5	; 181
    59ea:	5f e3       	ldi	r21, 0x3F	; 63
    59ec:	0e 94 27 41 	call	0x824e	; 0x824e <__divsf3>
    59f0:	20 e0       	ldi	r18, 0x00	; 0
    59f2:	30 e0       	ldi	r19, 0x00	; 0
    59f4:	40 ef       	ldi	r20, 0xF0	; 240
    59f6:	52 e4       	ldi	r21, 0x42	; 66
    59f8:	0e 94 42 40 	call	0x8084	; 0x8084 <__subsf3>
    59fc:	60 93 1f 01 	sts	0x011F, r22
    5a00:	70 93 20 01 	sts	0x0120, r23
    5a04:	80 93 21 01 	sts	0x0121, r24
    5a08:	90 93 22 01 	sts	0x0122, r25
}
    5a0c:	ff 90       	pop	r15
    5a0e:	ef 90       	pop	r14
    5a10:	df 90       	pop	r13
    5a12:	cf 90       	pop	r12
    5a14:	08 95       	ret

00005a16 <_Z18height_change_leg5f>:

void height_change_leg5(float new_z)
{
	x0_5 = (120 + 0.4*(new_z - z0))+100;
    5a16:	20 91 0b 01 	lds	r18, 0x010B
    5a1a:	30 91 0c 01 	lds	r19, 0x010C
    5a1e:	40 91 0d 01 	lds	r20, 0x010D
    5a22:	50 91 0e 01 	lds	r21, 0x010E
    5a26:	0e 94 42 40 	call	0x8084	; 0x8084 <__subsf3>
    5a2a:	2d ec       	ldi	r18, 0xCD	; 205
    5a2c:	3c ec       	ldi	r19, 0xCC	; 204
    5a2e:	4c ec       	ldi	r20, 0xCC	; 204
    5a30:	5e e3       	ldi	r21, 0x3E	; 62
    5a32:	0e 94 82 43 	call	0x8704	; 0x8704 <__mulsf3>
    5a36:	20 e0       	ldi	r18, 0x00	; 0
    5a38:	30 e0       	ldi	r19, 0x00	; 0
    5a3a:	40 ef       	ldi	r20, 0xF0	; 240
    5a3c:	52 e4       	ldi	r21, 0x42	; 66
    5a3e:	0e 94 43 40 	call	0x8086	; 0x8086 <__addsf3>
    5a42:	20 e0       	ldi	r18, 0x00	; 0
    5a44:	30 e0       	ldi	r19, 0x00	; 0
    5a46:	48 ec       	ldi	r20, 0xC8	; 200
    5a48:	52 e4       	ldi	r21, 0x42	; 66
    5a4a:	0e 94 43 40 	call	0x8086	; 0x8086 <__addsf3>
    5a4e:	60 93 1b 01 	sts	0x011B, r22
    5a52:	70 93 1c 01 	sts	0x011C, r23
    5a56:	80 93 1d 01 	sts	0x011D, r24
    5a5a:	90 93 1e 01 	sts	0x011E, r25
    5a5e:	08 95       	ret

00005a60 <_Z18height_change_leg6f>:
}

void height_change_leg6(float new_z)
{
    5a60:	0f 93       	push	r16
    5a62:	1f 93       	push	r17
    5a64:	cf 93       	push	r28
    5a66:	df 93       	push	r29
	x0_6 = (120 + 0.7*(new_z - z0))/sqrt2+61.85;
    5a68:	20 91 0b 01 	lds	r18, 0x010B
    5a6c:	30 91 0c 01 	lds	r19, 0x010C
    5a70:	40 91 0d 01 	lds	r20, 0x010D
    5a74:	50 91 0e 01 	lds	r21, 0x010E
    5a78:	0e 94 42 40 	call	0x8084	; 0x8084 <__subsf3>
    5a7c:	23 e3       	ldi	r18, 0x33	; 51
    5a7e:	33 e3       	ldi	r19, 0x33	; 51
    5a80:	43 e3       	ldi	r20, 0x33	; 51
    5a82:	5f e3       	ldi	r21, 0x3F	; 63
    5a84:	0e 94 82 43 	call	0x8704	; 0x8704 <__mulsf3>
    5a88:	20 e0       	ldi	r18, 0x00	; 0
    5a8a:	30 e0       	ldi	r19, 0x00	; 0
    5a8c:	40 ef       	ldi	r20, 0xF0	; 240
    5a8e:	52 e4       	ldi	r21, 0x42	; 66
    5a90:	0e 94 43 40 	call	0x8086	; 0x8086 <__addsf3>
    5a94:	23 ef       	ldi	r18, 0xF3	; 243
    5a96:	34 e0       	ldi	r19, 0x04	; 4
    5a98:	45 eb       	ldi	r20, 0xB5	; 181
    5a9a:	5f e3       	ldi	r21, 0x3F	; 63
    5a9c:	0e 94 27 41 	call	0x824e	; 0x824e <__divsf3>
    5aa0:	06 2f       	mov	r16, r22
    5aa2:	17 2f       	mov	r17, r23
    5aa4:	d8 2f       	mov	r29, r24
    5aa6:	c9 2f       	mov	r28, r25
    5aa8:	26 e6       	ldi	r18, 0x66	; 102
    5aaa:	36 e6       	ldi	r19, 0x66	; 102
    5aac:	47 e7       	ldi	r20, 0x77	; 119
    5aae:	52 e4       	ldi	r21, 0x42	; 66
    5ab0:	0e 94 43 40 	call	0x8086	; 0x8086 <__addsf3>
    5ab4:	60 93 17 01 	sts	0x0117, r22
    5ab8:	70 93 18 01 	sts	0x0118, r23
    5abc:	80 93 19 01 	sts	0x0119, r24
    5ac0:	90 93 1a 01 	sts	0x011A, r25
	y0_6 = (120 + 0.7*(new_z - z0))/sqrt2+120;
    5ac4:	20 e0       	ldi	r18, 0x00	; 0
    5ac6:	30 e0       	ldi	r19, 0x00	; 0
    5ac8:	40 ef       	ldi	r20, 0xF0	; 240
    5aca:	52 e4       	ldi	r21, 0x42	; 66
    5acc:	60 2f       	mov	r22, r16
    5ace:	71 2f       	mov	r23, r17
    5ad0:	8d 2f       	mov	r24, r29
    5ad2:	9c 2f       	mov	r25, r28
    5ad4:	0e 94 43 40 	call	0x8086	; 0x8086 <__addsf3>
    5ad8:	60 93 13 01 	sts	0x0113, r22
    5adc:	70 93 14 01 	sts	0x0114, r23
    5ae0:	80 93 15 01 	sts	0x0115, r24
    5ae4:	90 93 16 01 	sts	0x0116, r25
}
    5ae8:	df 91       	pop	r29
    5aea:	cf 91       	pop	r28
    5aec:	1f 91       	pop	r17
    5aee:	0f 91       	pop	r16
    5af0:	08 95       	ret

00005af2 <_Z17height_change_allf>:

void height_change_all(float new_z)
{
    5af2:	cf 92       	push	r12
    5af4:	df 92       	push	r13
    5af6:	ef 92       	push	r14
    5af8:	ff 92       	push	r15
    5afa:	6b 01       	movw	r12, r22
    5afc:	7c 01       	movw	r14, r24
	height_change_x0(new_z);
    5afe:	58 de       	rcall	.-848    	; 0x57b0 <_Z16height_change_x0f>
	height_change_leg1(new_z);
    5b00:	c7 01       	movw	r24, r14
    5b02:	b6 01       	movw	r22, r12
    5b04:	74 de       	rcall	.-792    	; 0x57ee <_Z18height_change_leg1f>
	height_change_leg2(new_z);
    5b06:	c7 01       	movw	r24, r14
    5b08:	b6 01       	movw	r22, r12
    5b0a:	c1 de       	rcall	.-638    	; 0x588e <_Z18height_change_leg2f>
	height_change_leg3(new_z);
    5b0c:	c7 01       	movw	r24, r14
    5b0e:	b6 01       	movw	r22, r12
    5b10:	e4 de       	rcall	.-568    	; 0x58da <_Z18height_change_leg3f>
	height_change_leg4(new_z);
    5b12:	c7 01       	movw	r24, r14
    5b14:	b6 01       	movw	r22, r12
    5b16:	2b df       	rcall	.-426    	; 0x596e <_Z18height_change_leg4f>
	height_change_leg5(new_z);
    5b18:	c7 01       	movw	r24, r14
    5b1a:	b6 01       	movw	r22, r12
    5b1c:	7c df       	rcall	.-264    	; 0x5a16 <_Z18height_change_leg5f>
	height_change_leg6(new_z);
    5b1e:	c7 01       	movw	r24, r14
    5b20:	b6 01       	movw	r22, r12
    5b22:	9e df       	rcall	.-196    	; 0x5a60 <_Z18height_change_leg6f>

}
    5b24:	ff 90       	pop	r15
    5b26:	ef 90       	pop	r14
    5b28:	df 90       	pop	r13
    5b2a:	cf 90       	pop	r12
    5b2c:	08 95       	ret

00005b2e <_Z8get_x0_1v>:

float get_x0_1()
{
	return x0_1;
}
    5b2e:	50 91 37 01 	lds	r21, 0x0137
    5b32:	40 91 38 01 	lds	r20, 0x0138
    5b36:	30 91 39 01 	lds	r19, 0x0139
    5b3a:	20 91 3a 01 	lds	r18, 0x013A
    5b3e:	65 2f       	mov	r22, r21
    5b40:	74 2f       	mov	r23, r20
    5b42:	83 2f       	mov	r24, r19
    5b44:	92 2f       	mov	r25, r18
    5b46:	08 95       	ret

00005b48 <_Z8get_y0_1v>:

float get_y0_1()
{
	return y0_1;
}
    5b48:	50 91 33 01 	lds	r21, 0x0133
    5b4c:	40 91 34 01 	lds	r20, 0x0134
    5b50:	30 91 35 01 	lds	r19, 0x0135
    5b54:	20 91 36 01 	lds	r18, 0x0136
    5b58:	65 2f       	mov	r22, r21
    5b5a:	74 2f       	mov	r23, r20
    5b5c:	83 2f       	mov	r24, r19
    5b5e:	92 2f       	mov	r25, r18
    5b60:	08 95       	ret

00005b62 <_Z6get_x0v>:

float get_x0()
{
	return x0;
}
    5b62:	50 91 0f 01 	lds	r21, 0x010F
    5b66:	40 91 10 01 	lds	r20, 0x0110
    5b6a:	30 91 11 01 	lds	r19, 0x0111
    5b6e:	20 91 12 01 	lds	r18, 0x0112
    5b72:	65 2f       	mov	r22, r21
    5b74:	74 2f       	mov	r23, r20
    5b76:	83 2f       	mov	r24, r19
    5b78:	92 2f       	mov	r25, r18
    5b7a:	08 95       	ret

00005b7c <_Z6get_y0v>:

float get_y0()
{
	return y0;
}
    5b7c:	50 91 78 19 	lds	r21, 0x1978
    5b80:	40 91 79 19 	lds	r20, 0x1979
    5b84:	30 91 7a 19 	lds	r19, 0x197A
    5b88:	20 91 7b 19 	lds	r18, 0x197B
    5b8c:	65 2f       	mov	r22, r21
    5b8e:	74 2f       	mov	r23, r20
    5b90:	83 2f       	mov	r24, r19
    5b92:	92 2f       	mov	r25, r18
    5b94:	08 95       	ret

00005b96 <_Z6get_z0v>:

float get_z0()
{
	return z0;
}
    5b96:	50 91 0b 01 	lds	r21, 0x010B
    5b9a:	40 91 0c 01 	lds	r20, 0x010C
    5b9e:	30 91 0d 01 	lds	r19, 0x010D
    5ba2:	20 91 0e 01 	lds	r18, 0x010E
    5ba6:	65 2f       	mov	r22, r21
    5ba8:	74 2f       	mov	r23, r20
    5baa:	83 2f       	mov	r24, r19
    5bac:	92 2f       	mov	r25, r18
    5bae:	08 95       	ret

00005bb0 <_Z6calc_dfff>:

void calc_d(float x,float y,float z)
{
    5bb0:	4f 92       	push	r4
    5bb2:	5f 92       	push	r5
    5bb4:	6f 92       	push	r6
    5bb6:	7f 92       	push	r7
    5bb8:	8f 92       	push	r8
    5bba:	9f 92       	push	r9
    5bbc:	af 92       	push	r10
    5bbe:	bf 92       	push	r11
    5bc0:	cf 92       	push	r12
    5bc2:	df 92       	push	r13
    5bc4:	ef 92       	push	r14
    5bc6:	ff 92       	push	r15
    5bc8:	0f 93       	push	r16
    5bca:	1f 93       	push	r17
    5bcc:	49 01       	movw	r8, r18
    5bce:	5a 01       	movw	r10, r20
    5bd0:	67 01       	movw	r12, r14
    5bd2:	78 01       	movw	r14, r16
	d = sqrtf(powf(sqrtf(x*x + y*y)-coxa, 2) + z*z);
    5bd4:	9b 01       	movw	r18, r22
    5bd6:	ac 01       	movw	r20, r24
    5bd8:	0e 94 82 43 	call	0x8704	; 0x8704 <__mulsf3>
    5bdc:	2b 01       	movw	r4, r22
    5bde:	3c 01       	movw	r6, r24
    5be0:	a5 01       	movw	r20, r10
    5be2:	94 01       	movw	r18, r8
    5be4:	c5 01       	movw	r24, r10
    5be6:	b4 01       	movw	r22, r8
    5be8:	0e 94 82 43 	call	0x8704	; 0x8704 <__mulsf3>
    5bec:	9b 01       	movw	r18, r22
    5bee:	ac 01       	movw	r20, r24
    5bf0:	c3 01       	movw	r24, r6
    5bf2:	b2 01       	movw	r22, r4
    5bf4:	0e 94 43 40 	call	0x8086	; 0x8086 <__addsf3>
    5bf8:	0e 94 ef 43 	call	0x87de	; 0x87de <sqrt>
    5bfc:	20 e0       	ldi	r18, 0x00	; 0
    5bfe:	30 e0       	ldi	r19, 0x00	; 0
    5c00:	48 e5       	ldi	r20, 0x58	; 88
    5c02:	52 e4       	ldi	r21, 0x42	; 66
    5c04:	0e 94 42 40 	call	0x8084	; 0x8084 <__subsf3>
    5c08:	86 2e       	mov	r8, r22
    5c0a:	97 2e       	mov	r9, r23
    5c0c:	a8 2e       	mov	r10, r24
    5c0e:	b9 2e       	mov	r11, r25
    5c10:	a7 01       	movw	r20, r14
    5c12:	96 01       	movw	r18, r12
    5c14:	c7 01       	movw	r24, r14
    5c16:	b6 01       	movw	r22, r12
    5c18:	0e 94 82 43 	call	0x8704	; 0x8704 <__mulsf3>
    5c1c:	6b 01       	movw	r12, r22
    5c1e:	7c 01       	movw	r14, r24
    5c20:	28 2d       	mov	r18, r8
    5c22:	39 2d       	mov	r19, r9
    5c24:	4a 2d       	mov	r20, r10
    5c26:	5b 2d       	mov	r21, r11
    5c28:	68 2d       	mov	r22, r8
    5c2a:	79 2d       	mov	r23, r9
    5c2c:	8a 2d       	mov	r24, r10
    5c2e:	9b 2d       	mov	r25, r11
    5c30:	0e 94 82 43 	call	0x8704	; 0x8704 <__mulsf3>
    5c34:	9b 01       	movw	r18, r22
    5c36:	ac 01       	movw	r20, r24
    5c38:	c7 01       	movw	r24, r14
    5c3a:	b6 01       	movw	r22, r12
    5c3c:	0e 94 43 40 	call	0x8086	; 0x8086 <__addsf3>
    5c40:	0e 94 ef 43 	call	0x87de	; 0x87de <sqrt>
    5c44:	60 93 84 19 	sts	0x1984, r22
    5c48:	70 93 85 19 	sts	0x1985, r23
    5c4c:	80 93 86 19 	sts	0x1986, r24
    5c50:	90 93 87 19 	sts	0x1987, r25
}
    5c54:	1f 91       	pop	r17
    5c56:	0f 91       	pop	r16
    5c58:	ff 90       	pop	r15
    5c5a:	ef 90       	pop	r14
    5c5c:	df 90       	pop	r13
    5c5e:	cf 90       	pop	r12
    5c60:	bf 90       	pop	r11
    5c62:	af 90       	pop	r10
    5c64:	9f 90       	pop	r9
    5c66:	8f 90       	pop	r8
    5c68:	7f 90       	pop	r7
    5c6a:	6f 90       	pop	r6
    5c6c:	5f 90       	pop	r5
    5c6e:	4f 90       	pop	r4
    5c70:	08 95       	ret

00005c72 <_Z9get_gammaff>:

float get_gamma(float x,float y)
{
    5c72:	cf 92       	push	r12
    5c74:	df 92       	push	r13
    5c76:	ef 92       	push	r14
    5c78:	ff 92       	push	r15
    5c7a:	6b 01       	movw	r12, r22
    5c7c:	7c 01       	movw	r14, r24
    5c7e:	ca 01       	movw	r24, r20
    5c80:	b9 01       	movw	r22, r18
gamma = atanf(y/x);
    5c82:	a7 01       	movw	r20, r14
    5c84:	96 01       	movw	r18, r12
    5c86:	0e 94 27 41 	call	0x824e	; 0x824e <__divsf3>
    5c8a:	0e 94 f8 40 	call	0x81f0	; 0x81f0 <atan>
    5c8e:	26 2f       	mov	r18, r22
    5c90:	37 2f       	mov	r19, r23
    5c92:	46 2f       	mov	r20, r22
    5c94:	57 2f       	mov	r21, r23
    5c96:	68 2f       	mov	r22, r24
    5c98:	79 2f       	mov	r23, r25
    5c9a:	40 93 88 19 	sts	0x1988, r20
    5c9e:	50 93 89 19 	sts	0x1989, r21
    5ca2:	60 93 8a 19 	sts	0x198A, r22
    5ca6:	70 93 8b 19 	sts	0x198B, r23
return gamma;
}
    5caa:	62 2f       	mov	r22, r18
    5cac:	73 2f       	mov	r23, r19
    5cae:	ff 90       	pop	r15
    5cb0:	ef 90       	pop	r14
    5cb2:	df 90       	pop	r13
    5cb4:	cf 90       	pop	r12
    5cb6:	08 95       	ret

00005cb8 <_Z8get_betav>:

float get_beta()
{
	beta = pi - acosf((femur*femur+tibia*tibia-d*d)/(2*femur*tibia));
    5cb8:	60 91 84 19 	lds	r22, 0x1984
    5cbc:	70 91 85 19 	lds	r23, 0x1985
    5cc0:	80 91 86 19 	lds	r24, 0x1986
    5cc4:	90 91 87 19 	lds	r25, 0x1987
    5cc8:	9b 01       	movw	r18, r22
    5cca:	ac 01       	movw	r20, r24
    5ccc:	0e 94 82 43 	call	0x8704	; 0x8704 <__mulsf3>
    5cd0:	9b 01       	movw	r18, r22
    5cd2:	ac 01       	movw	r20, r24
    5cd4:	60 e0       	ldi	r22, 0x00	; 0
    5cd6:	72 e3       	ldi	r23, 0x32	; 50
    5cd8:	8b ea       	ldi	r24, 0xAB	; 171
    5cda:	96 e4       	ldi	r25, 0x46	; 70
    5cdc:	0e 94 42 40 	call	0x8084	; 0x8084 <__subsf3>
    5ce0:	20 e0       	ldi	r18, 0x00	; 0
    5ce2:	30 e3       	ldi	r19, 0x30	; 48
    5ce4:	4a e8       	ldi	r20, 0x8A	; 138
    5ce6:	56 e4       	ldi	r21, 0x46	; 70
    5ce8:	0e 94 27 41 	call	0x824e	; 0x824e <__divsf3>
    5cec:	0e 94 34 40 	call	0x8068	; 0x8068 <acos>
    5cf0:	9b 01       	movw	r18, r22
    5cf2:	ac 01       	movw	r20, r24
    5cf4:	6b ed       	ldi	r22, 0xDB	; 219
    5cf6:	7f e0       	ldi	r23, 0x0F	; 15
    5cf8:	89 e4       	ldi	r24, 0x49	; 73
    5cfa:	90 e4       	ldi	r25, 0x40	; 64
    5cfc:	0e 94 42 40 	call	0x8084	; 0x8084 <__subsf3>
    5d00:	26 2f       	mov	r18, r22
    5d02:	37 2f       	mov	r19, r23
    5d04:	46 2f       	mov	r20, r22
    5d06:	57 2f       	mov	r21, r23
    5d08:	68 2f       	mov	r22, r24
    5d0a:	79 2f       	mov	r23, r25
    5d0c:	40 93 8c 19 	sts	0x198C, r20
    5d10:	50 93 8d 19 	sts	0x198D, r21
    5d14:	60 93 8e 19 	sts	0x198E, r22
    5d18:	70 93 8f 19 	sts	0x198F, r23
	return beta;
}
    5d1c:	62 2f       	mov	r22, r18
    5d1e:	73 2f       	mov	r23, r19
    5d20:	08 95       	ret

00005d22 <_Z9get_alphaf>:

float get_alpha(float z)
{
    5d22:	4f 92       	push	r4
    5d24:	5f 92       	push	r5
    5d26:	6f 92       	push	r6
    5d28:	7f 92       	push	r7
    5d2a:	8f 92       	push	r8
    5d2c:	9f 92       	push	r9
    5d2e:	af 92       	push	r10
    5d30:	bf 92       	push	r11
    5d32:	cf 92       	push	r12
    5d34:	df 92       	push	r13
    5d36:	ef 92       	push	r14
    5d38:	ff 92       	push	r15
    5d3a:	2b 01       	movw	r4, r22
    5d3c:	3c 01       	movw	r6, r24
	alpha = acosf((femur*femur-tibia*tibia+d*d)/(2*femur*d))+asinf(z/d);
    5d3e:	c0 90 84 19 	lds	r12, 0x1984
    5d42:	d0 90 85 19 	lds	r13, 0x1985
    5d46:	e0 90 86 19 	lds	r14, 0x1986
    5d4a:	f0 90 87 19 	lds	r15, 0x1987
    5d4e:	a7 01       	movw	r20, r14
    5d50:	96 01       	movw	r18, r12
    5d52:	c7 01       	movw	r24, r14
    5d54:	b6 01       	movw	r22, r12
    5d56:	0e 94 82 43 	call	0x8704	; 0x8704 <__mulsf3>
    5d5a:	20 e0       	ldi	r18, 0x00	; 0
    5d5c:	3c e1       	ldi	r19, 0x1C	; 28
    5d5e:	4a e4       	ldi	r20, 0x4A	; 74
    5d60:	56 e4       	ldi	r21, 0x46	; 70
    5d62:	0e 94 42 40 	call	0x8084	; 0x8084 <__subsf3>
    5d66:	4b 01       	movw	r8, r22
    5d68:	5c 01       	movw	r10, r24
    5d6a:	20 e0       	ldi	r18, 0x00	; 0
    5d6c:	30 e0       	ldi	r19, 0x00	; 0
    5d6e:	46 e0       	ldi	r20, 0x06	; 6
    5d70:	53 e4       	ldi	r21, 0x43	; 67
    5d72:	c7 01       	movw	r24, r14
    5d74:	b6 01       	movw	r22, r12
    5d76:	0e 94 82 43 	call	0x8704	; 0x8704 <__mulsf3>
    5d7a:	9b 01       	movw	r18, r22
    5d7c:	ac 01       	movw	r20, r24
    5d7e:	c5 01       	movw	r24, r10
    5d80:	b4 01       	movw	r22, r8
    5d82:	0e 94 27 41 	call	0x824e	; 0x824e <__divsf3>
    5d86:	0e 94 34 40 	call	0x8068	; 0x8068 <acos>
    5d8a:	4b 01       	movw	r8, r22
    5d8c:	5c 01       	movw	r10, r24
    5d8e:	a7 01       	movw	r20, r14
    5d90:	96 01       	movw	r18, r12
    5d92:	c3 01       	movw	r24, r6
    5d94:	b2 01       	movw	r22, r4
    5d96:	0e 94 27 41 	call	0x824e	; 0x824e <__divsf3>
    5d9a:	0e 94 a7 40 	call	0x814e	; 0x814e <asin>
    5d9e:	9b 01       	movw	r18, r22
    5da0:	ac 01       	movw	r20, r24
    5da2:	c5 01       	movw	r24, r10
    5da4:	b4 01       	movw	r22, r8
    5da6:	0e 94 43 40 	call	0x8086	; 0x8086 <__addsf3>
    5daa:	26 2f       	mov	r18, r22
    5dac:	37 2f       	mov	r19, r23
    5dae:	46 2f       	mov	r20, r22
    5db0:	57 2f       	mov	r21, r23
    5db2:	68 2f       	mov	r22, r24
    5db4:	79 2f       	mov	r23, r25
    5db6:	40 93 90 19 	sts	0x1990, r20
    5dba:	50 93 91 19 	sts	0x1991, r21
    5dbe:	60 93 92 19 	sts	0x1992, r22
    5dc2:	70 93 93 19 	sts	0x1993, r23
	return alpha;
}
    5dc6:	62 2f       	mov	r22, r18
    5dc8:	73 2f       	mov	r23, r19
    5dca:	ff 90       	pop	r15
    5dcc:	ef 90       	pop	r14
    5dce:	df 90       	pop	r13
    5dd0:	cf 90       	pop	r12
    5dd2:	bf 90       	pop	r11
    5dd4:	af 90       	pop	r10
    5dd6:	9f 90       	pop	r9
    5dd8:	8f 90       	pop	r8
    5dda:	7f 90       	pop	r7
    5ddc:	6f 90       	pop	r6
    5dde:	5f 90       	pop	r5
    5de0:	4f 90       	pop	r4
    5de2:	08 95       	ret

00005de4 <_Z18basis_change_leg1xff>:


float basis_change_leg1x(float x, float y) {
    5de4:	8f 92       	push	r8
    5de6:	9f 92       	push	r9
    5de8:	af 92       	push	r10
    5dea:	bf 92       	push	r11
    5dec:	cf 92       	push	r12
    5dee:	df 92       	push	r13
    5df0:	ef 92       	push	r14
    5df2:	ff 92       	push	r15
    5df4:	49 01       	movw	r8, r18
    5df6:	5a 01       	movw	r10, r20
return (x + x0_1 + centerToFrontLegsX)/(-sqrt2)-(y + y0_1 - centerToFrontLegsY)/(-sqrt2);}
    5df8:	20 91 37 01 	lds	r18, 0x0137
    5dfc:	30 91 38 01 	lds	r19, 0x0138
    5e00:	40 91 39 01 	lds	r20, 0x0139
    5e04:	50 91 3a 01 	lds	r21, 0x013A
    5e08:	0e 94 43 40 	call	0x8086	; 0x8086 <__addsf3>
    5e0c:	26 e6       	ldi	r18, 0x66	; 102
    5e0e:	36 e6       	ldi	r19, 0x66	; 102
    5e10:	47 e7       	ldi	r20, 0x77	; 119
    5e12:	52 e4       	ldi	r21, 0x42	; 66
    5e14:	0e 94 43 40 	call	0x8086	; 0x8086 <__addsf3>
    5e18:	23 ef       	ldi	r18, 0xF3	; 243
    5e1a:	34 e0       	ldi	r19, 0x04	; 4
    5e1c:	45 eb       	ldi	r20, 0xB5	; 181
    5e1e:	5f eb       	ldi	r21, 0xBF	; 191
    5e20:	0e 94 27 41 	call	0x824e	; 0x824e <__divsf3>
    5e24:	6b 01       	movw	r12, r22
    5e26:	7c 01       	movw	r14, r24
    5e28:	20 91 33 01 	lds	r18, 0x0133
    5e2c:	30 91 34 01 	lds	r19, 0x0134
    5e30:	40 91 35 01 	lds	r20, 0x0135
    5e34:	50 91 36 01 	lds	r21, 0x0136
    5e38:	c5 01       	movw	r24, r10
    5e3a:	b4 01       	movw	r22, r8
    5e3c:	0e 94 43 40 	call	0x8086	; 0x8086 <__addsf3>
    5e40:	20 e0       	ldi	r18, 0x00	; 0
    5e42:	30 e0       	ldi	r19, 0x00	; 0
    5e44:	40 ef       	ldi	r20, 0xF0	; 240
    5e46:	52 e4       	ldi	r21, 0x42	; 66
    5e48:	0e 94 42 40 	call	0x8084	; 0x8084 <__subsf3>
    5e4c:	23 ef       	ldi	r18, 0xF3	; 243
    5e4e:	34 e0       	ldi	r19, 0x04	; 4
    5e50:	45 eb       	ldi	r20, 0xB5	; 181
    5e52:	5f e3       	ldi	r21, 0x3F	; 63
    5e54:	0e 94 27 41 	call	0x824e	; 0x824e <__divsf3>
    5e58:	9b 01       	movw	r18, r22
    5e5a:	ac 01       	movw	r20, r24
    5e5c:	c7 01       	movw	r24, r14
    5e5e:	b6 01       	movw	r22, r12
    5e60:	0e 94 43 40 	call	0x8086	; 0x8086 <__addsf3>
    5e64:	ff 90       	pop	r15
    5e66:	ef 90       	pop	r14
    5e68:	df 90       	pop	r13
    5e6a:	cf 90       	pop	r12
    5e6c:	bf 90       	pop	r11
    5e6e:	af 90       	pop	r10
    5e70:	9f 90       	pop	r9
    5e72:	8f 90       	pop	r8
    5e74:	08 95       	ret

00005e76 <_Z18basis_change_leg1yff>:

float basis_change_leg1y(float x, float y) {
    5e76:	8f 92       	push	r8
    5e78:	9f 92       	push	r9
    5e7a:	af 92       	push	r10
    5e7c:	bf 92       	push	r11
    5e7e:	cf 92       	push	r12
    5e80:	df 92       	push	r13
    5e82:	ef 92       	push	r14
    5e84:	ff 92       	push	r15
    5e86:	49 01       	movw	r8, r18
    5e88:	5a 01       	movw	r10, r20
return (x + x0_1 + centerToFrontLegsX)/(-sqrt2)+(y + y0_1 - centerToFrontLegsY)/(-sqrt2);}
    5e8a:	20 91 37 01 	lds	r18, 0x0137
    5e8e:	30 91 38 01 	lds	r19, 0x0138
    5e92:	40 91 39 01 	lds	r20, 0x0139
    5e96:	50 91 3a 01 	lds	r21, 0x013A
    5e9a:	0e 94 43 40 	call	0x8086	; 0x8086 <__addsf3>
    5e9e:	26 e6       	ldi	r18, 0x66	; 102
    5ea0:	36 e6       	ldi	r19, 0x66	; 102
    5ea2:	47 e7       	ldi	r20, 0x77	; 119
    5ea4:	52 e4       	ldi	r21, 0x42	; 66
    5ea6:	0e 94 43 40 	call	0x8086	; 0x8086 <__addsf3>
    5eaa:	23 ef       	ldi	r18, 0xF3	; 243
    5eac:	34 e0       	ldi	r19, 0x04	; 4
    5eae:	45 eb       	ldi	r20, 0xB5	; 181
    5eb0:	5f eb       	ldi	r21, 0xBF	; 191
    5eb2:	0e 94 27 41 	call	0x824e	; 0x824e <__divsf3>
    5eb6:	6b 01       	movw	r12, r22
    5eb8:	7c 01       	movw	r14, r24
    5eba:	20 91 33 01 	lds	r18, 0x0133
    5ebe:	30 91 34 01 	lds	r19, 0x0134
    5ec2:	40 91 35 01 	lds	r20, 0x0135
    5ec6:	50 91 36 01 	lds	r21, 0x0136
    5eca:	c5 01       	movw	r24, r10
    5ecc:	b4 01       	movw	r22, r8
    5ece:	0e 94 43 40 	call	0x8086	; 0x8086 <__addsf3>
    5ed2:	20 e0       	ldi	r18, 0x00	; 0
    5ed4:	30 e0       	ldi	r19, 0x00	; 0
    5ed6:	40 ef       	ldi	r20, 0xF0	; 240
    5ed8:	52 e4       	ldi	r21, 0x42	; 66
    5eda:	0e 94 42 40 	call	0x8084	; 0x8084 <__subsf3>
    5ede:	23 ef       	ldi	r18, 0xF3	; 243
    5ee0:	34 e0       	ldi	r19, 0x04	; 4
    5ee2:	45 eb       	ldi	r20, 0xB5	; 181
    5ee4:	5f eb       	ldi	r21, 0xBF	; 191
    5ee6:	0e 94 27 41 	call	0x824e	; 0x824e <__divsf3>
    5eea:	9b 01       	movw	r18, r22
    5eec:	ac 01       	movw	r20, r24
    5eee:	c7 01       	movw	r24, r14
    5ef0:	b6 01       	movw	r22, r12
    5ef2:	0e 94 43 40 	call	0x8086	; 0x8086 <__addsf3>
    5ef6:	ff 90       	pop	r15
    5ef8:	ef 90       	pop	r14
    5efa:	df 90       	pop	r13
    5efc:	cf 90       	pop	r12
    5efe:	bf 90       	pop	r11
    5f00:	af 90       	pop	r10
    5f02:	9f 90       	pop	r9
    5f04:	8f 90       	pop	r8
    5f06:	08 95       	ret

00005f08 <_Z18basis_change_leg2xf>:


float basis_change_leg2x(float x) {
return -(x + x0_2 + centerToSideLegs);}
    5f08:	20 91 2f 01 	lds	r18, 0x012F
    5f0c:	30 91 30 01 	lds	r19, 0x0130
    5f10:	40 91 31 01 	lds	r20, 0x0131
    5f14:	50 91 32 01 	lds	r21, 0x0132
    5f18:	0e 94 43 40 	call	0x8086	; 0x8086 <__addsf3>
    5f1c:	20 e0       	ldi	r18, 0x00	; 0
    5f1e:	30 e0       	ldi	r19, 0x00	; 0
    5f20:	48 ec       	ldi	r20, 0xC8	; 200
    5f22:	52 e4       	ldi	r21, 0x42	; 66
    5f24:	0e 94 43 40 	call	0x8086	; 0x8086 <__addsf3>
    5f28:	dc 01       	movw	r26, r24
    5f2a:	cb 01       	movw	r24, r22
    5f2c:	b0 58       	subi	r27, 0x80	; 128
    5f2e:	68 2f       	mov	r22, r24
    5f30:	79 2f       	mov	r23, r25
    5f32:	8a 2f       	mov	r24, r26
    5f34:	9b 2f       	mov	r25, r27
    5f36:	08 95       	ret

00005f38 <_Z18basis_change_leg2yf>:

float basis_change_leg2y(float y) {
return -(y + y0_2);}
    5f38:	20 91 80 19 	lds	r18, 0x1980
    5f3c:	30 91 81 19 	lds	r19, 0x1981
    5f40:	40 91 82 19 	lds	r20, 0x1982
    5f44:	50 91 83 19 	lds	r21, 0x1983
    5f48:	0e 94 43 40 	call	0x8086	; 0x8086 <__addsf3>
    5f4c:	dc 01       	movw	r26, r24
    5f4e:	cb 01       	movw	r24, r22
    5f50:	b0 58       	subi	r27, 0x80	; 128
    5f52:	68 2f       	mov	r22, r24
    5f54:	79 2f       	mov	r23, r25
    5f56:	8a 2f       	mov	r24, r26
    5f58:	9b 2f       	mov	r25, r27
    5f5a:	08 95       	ret

00005f5c <_Z18basis_change_leg3xff>:


float basis_change_leg3x(float x, float y) {
    5f5c:	8f 92       	push	r8
    5f5e:	9f 92       	push	r9
    5f60:	af 92       	push	r10
    5f62:	bf 92       	push	r11
    5f64:	cf 92       	push	r12
    5f66:	df 92       	push	r13
    5f68:	ef 92       	push	r14
    5f6a:	ff 92       	push	r15
    5f6c:	49 01       	movw	r8, r18
    5f6e:	5a 01       	movw	r10, r20
return (x + x0_3 + centerToFrontLegsX)/(-sqrt2)-(y + y0_3 +centerToFrontLegsY)/sqrt2;}
    5f70:	20 91 2b 01 	lds	r18, 0x012B
    5f74:	30 91 2c 01 	lds	r19, 0x012C
    5f78:	40 91 2d 01 	lds	r20, 0x012D
    5f7c:	50 91 2e 01 	lds	r21, 0x012E
    5f80:	0e 94 43 40 	call	0x8086	; 0x8086 <__addsf3>
    5f84:	26 e6       	ldi	r18, 0x66	; 102
    5f86:	36 e6       	ldi	r19, 0x66	; 102
    5f88:	47 e7       	ldi	r20, 0x77	; 119
    5f8a:	52 e4       	ldi	r21, 0x42	; 66
    5f8c:	0e 94 43 40 	call	0x8086	; 0x8086 <__addsf3>
    5f90:	23 ef       	ldi	r18, 0xF3	; 243
    5f92:	34 e0       	ldi	r19, 0x04	; 4
    5f94:	45 eb       	ldi	r20, 0xB5	; 181
    5f96:	5f eb       	ldi	r21, 0xBF	; 191
    5f98:	0e 94 27 41 	call	0x824e	; 0x824e <__divsf3>
    5f9c:	6b 01       	movw	r12, r22
    5f9e:	7c 01       	movw	r14, r24
    5fa0:	20 91 27 01 	lds	r18, 0x0127
    5fa4:	30 91 28 01 	lds	r19, 0x0128
    5fa8:	40 91 29 01 	lds	r20, 0x0129
    5fac:	50 91 2a 01 	lds	r21, 0x012A
    5fb0:	c5 01       	movw	r24, r10
    5fb2:	b4 01       	movw	r22, r8
    5fb4:	0e 94 43 40 	call	0x8086	; 0x8086 <__addsf3>
    5fb8:	20 e0       	ldi	r18, 0x00	; 0
    5fba:	30 e0       	ldi	r19, 0x00	; 0
    5fbc:	40 ef       	ldi	r20, 0xF0	; 240
    5fbe:	52 e4       	ldi	r21, 0x42	; 66
    5fc0:	0e 94 43 40 	call	0x8086	; 0x8086 <__addsf3>
    5fc4:	23 ef       	ldi	r18, 0xF3	; 243
    5fc6:	34 e0       	ldi	r19, 0x04	; 4
    5fc8:	45 eb       	ldi	r20, 0xB5	; 181
    5fca:	5f e3       	ldi	r21, 0x3F	; 63
    5fcc:	0e 94 27 41 	call	0x824e	; 0x824e <__divsf3>
    5fd0:	9b 01       	movw	r18, r22
    5fd2:	ac 01       	movw	r20, r24
    5fd4:	c7 01       	movw	r24, r14
    5fd6:	b6 01       	movw	r22, r12
    5fd8:	0e 94 42 40 	call	0x8084	; 0x8084 <__subsf3>
    5fdc:	ff 90       	pop	r15
    5fde:	ef 90       	pop	r14
    5fe0:	df 90       	pop	r13
    5fe2:	cf 90       	pop	r12
    5fe4:	bf 90       	pop	r11
    5fe6:	af 90       	pop	r10
    5fe8:	9f 90       	pop	r9
    5fea:	8f 90       	pop	r8
    5fec:	08 95       	ret

00005fee <_Z18basis_change_leg3yff>:

float basis_change_leg3y(float x, float y) {
    5fee:	8f 92       	push	r8
    5ff0:	9f 92       	push	r9
    5ff2:	af 92       	push	r10
    5ff4:	bf 92       	push	r11
    5ff6:	cf 92       	push	r12
    5ff8:	df 92       	push	r13
    5ffa:	ef 92       	push	r14
    5ffc:	ff 92       	push	r15
    5ffe:	49 01       	movw	r8, r18
    6000:	5a 01       	movw	r10, r20
return (x + x0_3 + centerToFrontLegsX)/sqrt2+(y + y0_3 + centerToFrontLegsY)/(-sqrt2);}
    6002:	20 91 2b 01 	lds	r18, 0x012B
    6006:	30 91 2c 01 	lds	r19, 0x012C
    600a:	40 91 2d 01 	lds	r20, 0x012D
    600e:	50 91 2e 01 	lds	r21, 0x012E
    6012:	0e 94 43 40 	call	0x8086	; 0x8086 <__addsf3>
    6016:	26 e6       	ldi	r18, 0x66	; 102
    6018:	36 e6       	ldi	r19, 0x66	; 102
    601a:	47 e7       	ldi	r20, 0x77	; 119
    601c:	52 e4       	ldi	r21, 0x42	; 66
    601e:	0e 94 43 40 	call	0x8086	; 0x8086 <__addsf3>
    6022:	23 ef       	ldi	r18, 0xF3	; 243
    6024:	34 e0       	ldi	r19, 0x04	; 4
    6026:	45 eb       	ldi	r20, 0xB5	; 181
    6028:	5f e3       	ldi	r21, 0x3F	; 63
    602a:	0e 94 27 41 	call	0x824e	; 0x824e <__divsf3>
    602e:	6b 01       	movw	r12, r22
    6030:	7c 01       	movw	r14, r24
    6032:	20 91 27 01 	lds	r18, 0x0127
    6036:	30 91 28 01 	lds	r19, 0x0128
    603a:	40 91 29 01 	lds	r20, 0x0129
    603e:	50 91 2a 01 	lds	r21, 0x012A
    6042:	c5 01       	movw	r24, r10
    6044:	b4 01       	movw	r22, r8
    6046:	0e 94 43 40 	call	0x8086	; 0x8086 <__addsf3>
    604a:	20 e0       	ldi	r18, 0x00	; 0
    604c:	30 e0       	ldi	r19, 0x00	; 0
    604e:	40 ef       	ldi	r20, 0xF0	; 240
    6050:	52 e4       	ldi	r21, 0x42	; 66
    6052:	0e 94 43 40 	call	0x8086	; 0x8086 <__addsf3>
    6056:	23 ef       	ldi	r18, 0xF3	; 243
    6058:	34 e0       	ldi	r19, 0x04	; 4
    605a:	45 eb       	ldi	r20, 0xB5	; 181
    605c:	5f eb       	ldi	r21, 0xBF	; 191
    605e:	0e 94 27 41 	call	0x824e	; 0x824e <__divsf3>
    6062:	9b 01       	movw	r18, r22
    6064:	ac 01       	movw	r20, r24
    6066:	c7 01       	movw	r24, r14
    6068:	b6 01       	movw	r22, r12
    606a:	0e 94 43 40 	call	0x8086	; 0x8086 <__addsf3>
    606e:	ff 90       	pop	r15
    6070:	ef 90       	pop	r14
    6072:	df 90       	pop	r13
    6074:	cf 90       	pop	r12
    6076:	bf 90       	pop	r11
    6078:	af 90       	pop	r10
    607a:	9f 90       	pop	r9
    607c:	8f 90       	pop	r8
    607e:	08 95       	ret

00006080 <_Z18basis_change_leg4xff>:


float basis_change_leg4x(float x, float y) {
    6080:	8f 92       	push	r8
    6082:	9f 92       	push	r9
    6084:	af 92       	push	r10
    6086:	bf 92       	push	r11
    6088:	cf 92       	push	r12
    608a:	df 92       	push	r13
    608c:	ef 92       	push	r14
    608e:	ff 92       	push	r15
    6090:	49 01       	movw	r8, r18
    6092:	5a 01       	movw	r10, r20
return (x + x0_4 - centerToFrontLegsX)/sqrt2-(y + y0_4 + centerToFrontLegsY)/sqrt2;}
    6094:	20 91 23 01 	lds	r18, 0x0123
    6098:	30 91 24 01 	lds	r19, 0x0124
    609c:	40 91 25 01 	lds	r20, 0x0125
    60a0:	50 91 26 01 	lds	r21, 0x0126
    60a4:	0e 94 43 40 	call	0x8086	; 0x8086 <__addsf3>
    60a8:	26 e6       	ldi	r18, 0x66	; 102
    60aa:	36 e6       	ldi	r19, 0x66	; 102
    60ac:	47 e7       	ldi	r20, 0x77	; 119
    60ae:	52 e4       	ldi	r21, 0x42	; 66
    60b0:	0e 94 42 40 	call	0x8084	; 0x8084 <__subsf3>
    60b4:	23 ef       	ldi	r18, 0xF3	; 243
    60b6:	34 e0       	ldi	r19, 0x04	; 4
    60b8:	45 eb       	ldi	r20, 0xB5	; 181
    60ba:	5f e3       	ldi	r21, 0x3F	; 63
    60bc:	0e 94 27 41 	call	0x824e	; 0x824e <__divsf3>
    60c0:	6b 01       	movw	r12, r22
    60c2:	7c 01       	movw	r14, r24
    60c4:	20 91 1f 01 	lds	r18, 0x011F
    60c8:	30 91 20 01 	lds	r19, 0x0120
    60cc:	40 91 21 01 	lds	r20, 0x0121
    60d0:	50 91 22 01 	lds	r21, 0x0122
    60d4:	c5 01       	movw	r24, r10
    60d6:	b4 01       	movw	r22, r8
    60d8:	0e 94 43 40 	call	0x8086	; 0x8086 <__addsf3>
    60dc:	20 e0       	ldi	r18, 0x00	; 0
    60de:	30 e0       	ldi	r19, 0x00	; 0
    60e0:	40 ef       	ldi	r20, 0xF0	; 240
    60e2:	52 e4       	ldi	r21, 0x42	; 66
    60e4:	0e 94 43 40 	call	0x8086	; 0x8086 <__addsf3>
    60e8:	23 ef       	ldi	r18, 0xF3	; 243
    60ea:	34 e0       	ldi	r19, 0x04	; 4
    60ec:	45 eb       	ldi	r20, 0xB5	; 181
    60ee:	5f e3       	ldi	r21, 0x3F	; 63
    60f0:	0e 94 27 41 	call	0x824e	; 0x824e <__divsf3>
    60f4:	9b 01       	movw	r18, r22
    60f6:	ac 01       	movw	r20, r24
    60f8:	c7 01       	movw	r24, r14
    60fa:	b6 01       	movw	r22, r12
    60fc:	0e 94 42 40 	call	0x8084	; 0x8084 <__subsf3>
    6100:	ff 90       	pop	r15
    6102:	ef 90       	pop	r14
    6104:	df 90       	pop	r13
    6106:	cf 90       	pop	r12
    6108:	bf 90       	pop	r11
    610a:	af 90       	pop	r10
    610c:	9f 90       	pop	r9
    610e:	8f 90       	pop	r8
    6110:	08 95       	ret

00006112 <_Z18basis_change_leg4yff>:

float basis_change_leg4y(float x, float y) {
    6112:	8f 92       	push	r8
    6114:	9f 92       	push	r9
    6116:	af 92       	push	r10
    6118:	bf 92       	push	r11
    611a:	cf 92       	push	r12
    611c:	df 92       	push	r13
    611e:	ef 92       	push	r14
    6120:	ff 92       	push	r15
    6122:	49 01       	movw	r8, r18
    6124:	5a 01       	movw	r10, r20
return (x + x0_4 - centerToFrontLegsX)/sqrt2+(y + y0_4 + centerToFrontLegsY)/sqrt2;}
    6126:	20 91 23 01 	lds	r18, 0x0123
    612a:	30 91 24 01 	lds	r19, 0x0124
    612e:	40 91 25 01 	lds	r20, 0x0125
    6132:	50 91 26 01 	lds	r21, 0x0126
    6136:	0e 94 43 40 	call	0x8086	; 0x8086 <__addsf3>
    613a:	26 e6       	ldi	r18, 0x66	; 102
    613c:	36 e6       	ldi	r19, 0x66	; 102
    613e:	47 e7       	ldi	r20, 0x77	; 119
    6140:	52 e4       	ldi	r21, 0x42	; 66
    6142:	0e 94 42 40 	call	0x8084	; 0x8084 <__subsf3>
    6146:	23 ef       	ldi	r18, 0xF3	; 243
    6148:	34 e0       	ldi	r19, 0x04	; 4
    614a:	45 eb       	ldi	r20, 0xB5	; 181
    614c:	5f e3       	ldi	r21, 0x3F	; 63
    614e:	0e 94 27 41 	call	0x824e	; 0x824e <__divsf3>
    6152:	6b 01       	movw	r12, r22
    6154:	7c 01       	movw	r14, r24
    6156:	20 91 1f 01 	lds	r18, 0x011F
    615a:	30 91 20 01 	lds	r19, 0x0120
    615e:	40 91 21 01 	lds	r20, 0x0121
    6162:	50 91 22 01 	lds	r21, 0x0122
    6166:	c5 01       	movw	r24, r10
    6168:	b4 01       	movw	r22, r8
    616a:	0e 94 43 40 	call	0x8086	; 0x8086 <__addsf3>
    616e:	20 e0       	ldi	r18, 0x00	; 0
    6170:	30 e0       	ldi	r19, 0x00	; 0
    6172:	40 ef       	ldi	r20, 0xF0	; 240
    6174:	52 e4       	ldi	r21, 0x42	; 66
    6176:	0e 94 43 40 	call	0x8086	; 0x8086 <__addsf3>
    617a:	23 ef       	ldi	r18, 0xF3	; 243
    617c:	34 e0       	ldi	r19, 0x04	; 4
    617e:	45 eb       	ldi	r20, 0xB5	; 181
    6180:	5f e3       	ldi	r21, 0x3F	; 63
    6182:	0e 94 27 41 	call	0x824e	; 0x824e <__divsf3>
    6186:	9b 01       	movw	r18, r22
    6188:	ac 01       	movw	r20, r24
    618a:	c7 01       	movw	r24, r14
    618c:	b6 01       	movw	r22, r12
    618e:	0e 94 43 40 	call	0x8086	; 0x8086 <__addsf3>
    6192:	ff 90       	pop	r15
    6194:	ef 90       	pop	r14
    6196:	df 90       	pop	r13
    6198:	cf 90       	pop	r12
    619a:	bf 90       	pop	r11
    619c:	af 90       	pop	r10
    619e:	9f 90       	pop	r9
    61a0:	8f 90       	pop	r8
    61a2:	08 95       	ret

000061a4 <_Z18basis_change_leg5xf>:


float basis_change_leg5x(float x) {
return (x + x0_5 - centerToSideLegs);}
    61a4:	20 91 1b 01 	lds	r18, 0x011B
    61a8:	30 91 1c 01 	lds	r19, 0x011C
    61ac:	40 91 1d 01 	lds	r20, 0x011D
    61b0:	50 91 1e 01 	lds	r21, 0x011E
    61b4:	0e 94 43 40 	call	0x8086	; 0x8086 <__addsf3>
    61b8:	20 e0       	ldi	r18, 0x00	; 0
    61ba:	30 e0       	ldi	r19, 0x00	; 0
    61bc:	48 ec       	ldi	r20, 0xC8	; 200
    61be:	52 e4       	ldi	r21, 0x42	; 66
    61c0:	0c 94 42 40 	jmp	0x8084	; 0x8084 <__subsf3>

000061c4 <_Z18basis_change_leg5yf>:

float basis_change_leg5y(float y) {
return (y + y0_5);}
    61c4:	20 91 7c 19 	lds	r18, 0x197C
    61c8:	30 91 7d 19 	lds	r19, 0x197D
    61cc:	40 91 7e 19 	lds	r20, 0x197E
    61d0:	50 91 7f 19 	lds	r21, 0x197F
    61d4:	0c 94 43 40 	jmp	0x8086	; 0x8086 <__addsf3>

000061d8 <_Z18basis_change_leg6xff>:


float basis_change_leg6x(float x, float y) {
    61d8:	8f 92       	push	r8
    61da:	9f 92       	push	r9
    61dc:	af 92       	push	r10
    61de:	bf 92       	push	r11
    61e0:	cf 92       	push	r12
    61e2:	df 92       	push	r13
    61e4:	ef 92       	push	r14
    61e6:	ff 92       	push	r15
    61e8:	49 01       	movw	r8, r18
    61ea:	5a 01       	movw	r10, r20
return (x + x0_6 - centerToFrontLegsX)/sqrt2-(y + y0_6 - centerToFrontLegsY)/(-sqrt2);}
    61ec:	20 91 17 01 	lds	r18, 0x0117
    61f0:	30 91 18 01 	lds	r19, 0x0118
    61f4:	40 91 19 01 	lds	r20, 0x0119
    61f8:	50 91 1a 01 	lds	r21, 0x011A
    61fc:	0e 94 43 40 	call	0x8086	; 0x8086 <__addsf3>
    6200:	26 e6       	ldi	r18, 0x66	; 102
    6202:	36 e6       	ldi	r19, 0x66	; 102
    6204:	47 e7       	ldi	r20, 0x77	; 119
    6206:	52 e4       	ldi	r21, 0x42	; 66
    6208:	0e 94 42 40 	call	0x8084	; 0x8084 <__subsf3>
    620c:	23 ef       	ldi	r18, 0xF3	; 243
    620e:	34 e0       	ldi	r19, 0x04	; 4
    6210:	45 eb       	ldi	r20, 0xB5	; 181
    6212:	5f e3       	ldi	r21, 0x3F	; 63
    6214:	0e 94 27 41 	call	0x824e	; 0x824e <__divsf3>
    6218:	6b 01       	movw	r12, r22
    621a:	7c 01       	movw	r14, r24
    621c:	20 91 13 01 	lds	r18, 0x0113
    6220:	30 91 14 01 	lds	r19, 0x0114
    6224:	40 91 15 01 	lds	r20, 0x0115
    6228:	50 91 16 01 	lds	r21, 0x0116
    622c:	c5 01       	movw	r24, r10
    622e:	b4 01       	movw	r22, r8
    6230:	0e 94 43 40 	call	0x8086	; 0x8086 <__addsf3>
    6234:	20 e0       	ldi	r18, 0x00	; 0
    6236:	30 e0       	ldi	r19, 0x00	; 0
    6238:	40 ef       	ldi	r20, 0xF0	; 240
    623a:	52 e4       	ldi	r21, 0x42	; 66
    623c:	0e 94 42 40 	call	0x8084	; 0x8084 <__subsf3>
    6240:	23 ef       	ldi	r18, 0xF3	; 243
    6242:	34 e0       	ldi	r19, 0x04	; 4
    6244:	45 eb       	ldi	r20, 0xB5	; 181
    6246:	5f e3       	ldi	r21, 0x3F	; 63
    6248:	0e 94 27 41 	call	0x824e	; 0x824e <__divsf3>
    624c:	9b 01       	movw	r18, r22
    624e:	ac 01       	movw	r20, r24
    6250:	c7 01       	movw	r24, r14
    6252:	b6 01       	movw	r22, r12
    6254:	0e 94 43 40 	call	0x8086	; 0x8086 <__addsf3>
    6258:	ff 90       	pop	r15
    625a:	ef 90       	pop	r14
    625c:	df 90       	pop	r13
    625e:	cf 90       	pop	r12
    6260:	bf 90       	pop	r11
    6262:	af 90       	pop	r10
    6264:	9f 90       	pop	r9
    6266:	8f 90       	pop	r8
    6268:	08 95       	ret

0000626a <_Z18basis_change_leg6yff>:

float basis_change_leg6y(float x, float y) {
    626a:	8f 92       	push	r8
    626c:	9f 92       	push	r9
    626e:	af 92       	push	r10
    6270:	bf 92       	push	r11
    6272:	cf 92       	push	r12
    6274:	df 92       	push	r13
    6276:	ef 92       	push	r14
    6278:	ff 92       	push	r15
    627a:	49 01       	movw	r8, r18
    627c:	5a 01       	movw	r10, r20
    627e:	20 91 17 01 	lds	r18, 0x0117
    6282:	30 91 18 01 	lds	r19, 0x0118
    6286:	40 91 19 01 	lds	r20, 0x0119
    628a:	50 91 1a 01 	lds	r21, 0x011A
    628e:	0e 94 43 40 	call	0x8086	; 0x8086 <__addsf3>
    6292:	26 e6       	ldi	r18, 0x66	; 102
    6294:	36 e6       	ldi	r19, 0x66	; 102
    6296:	47 e7       	ldi	r20, 0x77	; 119
    6298:	52 e4       	ldi	r21, 0x42	; 66
    629a:	0e 94 42 40 	call	0x8084	; 0x8084 <__subsf3>
    629e:	23 ef       	ldi	r18, 0xF3	; 243
    62a0:	34 e0       	ldi	r19, 0x04	; 4
    62a2:	45 eb       	ldi	r20, 0xB5	; 181
    62a4:	5f eb       	ldi	r21, 0xBF	; 191
    62a6:	0e 94 27 41 	call	0x824e	; 0x824e <__divsf3>
    62aa:	6b 01       	movw	r12, r22
    62ac:	7c 01       	movw	r14, r24
    62ae:	20 91 13 01 	lds	r18, 0x0113
    62b2:	30 91 14 01 	lds	r19, 0x0114
    62b6:	40 91 15 01 	lds	r20, 0x0115
    62ba:	50 91 16 01 	lds	r21, 0x0116
    62be:	c5 01       	movw	r24, r10
    62c0:	b4 01       	movw	r22, r8
    62c2:	0e 94 43 40 	call	0x8086	; 0x8086 <__addsf3>
    62c6:	20 e0       	ldi	r18, 0x00	; 0
    62c8:	30 e0       	ldi	r19, 0x00	; 0
    62ca:	40 ef       	ldi	r20, 0xF0	; 240
    62cc:	52 e4       	ldi	r21, 0x42	; 66
    62ce:	0e 94 42 40 	call	0x8084	; 0x8084 <__subsf3>
    62d2:	23 ef       	ldi	r18, 0xF3	; 243
    62d4:	34 e0       	ldi	r19, 0x04	; 4
    62d6:	45 eb       	ldi	r20, 0xB5	; 181
    62d8:	5f e3       	ldi	r21, 0x3F	; 63
    62da:	0e 94 27 41 	call	0x824e	; 0x824e <__divsf3>
    62de:	9b 01       	movw	r18, r22
    62e0:	ac 01       	movw	r20, r24
    62e2:	c7 01       	movw	r24, r14
    62e4:	b6 01       	movw	r22, r12
    62e6:	0e 94 43 40 	call	0x8086	; 0x8086 <__addsf3>
    62ea:	ff 90       	pop	r15
    62ec:	ef 90       	pop	r14
    62ee:	df 90       	pop	r13
    62f0:	cf 90       	pop	r12
    62f2:	bf 90       	pop	r11
    62f4:	af 90       	pop	r10
    62f6:	9f 90       	pop	r9
    62f8:	8f 90       	pop	r8
    62fa:	08 95       	ret

000062fc <_ZN7MPU6050C1Ev>:
// DMP_CFG_2 register

uint8_t MPU6050::getDMPConfig2() {
    I2Cdev::readByte(devAddr, MPU6050_RA_DMP_CFG_2, buffer);
    return buffer[0];
}
    62fc:	28 e6       	ldi	r18, 0x68	; 104
    62fe:	fc 01       	movw	r30, r24
    6300:	20 83       	st	Z, r18
    6302:	08 95       	ret

00006304 <_ZN7MPU60507setRateEh>:
    6304:	46 2f       	mov	r20, r22
    6306:	69 e1       	ldi	r22, 0x19	; 25
    6308:	fc 01       	movw	r30, r24
    630a:	80 81       	ld	r24, Z
    630c:	c4 c9       	rjmp	.-3192   	; 0x5696 <_ZN6I2Cdev9writeByteEhhh>

0000630e <_ZN7MPU605020setExternalFrameSyncEh>:
    630e:	0f 93       	push	r16
    6310:	06 2f       	mov	r16, r22
    6312:	23 e0       	ldi	r18, 0x03	; 3
    6314:	45 e0       	ldi	r20, 0x05	; 5
    6316:	6a e1       	ldi	r22, 0x1A	; 26
    6318:	fc 01       	movw	r30, r24
    631a:	80 81       	ld	r24, Z
    631c:	cb d9       	rcall	.-3178   	; 0x56b4 <_ZN6I2Cdev9writeBitsEhhhhh>
    631e:	0f 91       	pop	r16
    6320:	08 95       	ret

00006322 <_ZN7MPU605011setDLPFModeEh>:
    6322:	0f 93       	push	r16
    6324:	06 2f       	mov	r16, r22
    6326:	23 e0       	ldi	r18, 0x03	; 3
    6328:	42 e0       	ldi	r20, 0x02	; 2
    632a:	6a e1       	ldi	r22, 0x1A	; 26
    632c:	fc 01       	movw	r30, r24
    632e:	80 81       	ld	r24, Z
    6330:	c1 d9       	rcall	.-3198   	; 0x56b4 <_ZN6I2Cdev9writeBitsEhhhhh>
    6332:	0f 91       	pop	r16
    6334:	08 95       	ret

00006336 <_ZN7MPU605021setFullScaleGyroRangeEh>:
    6336:	0f 93       	push	r16
    6338:	06 2f       	mov	r16, r22
    633a:	22 e0       	ldi	r18, 0x02	; 2
    633c:	44 e0       	ldi	r20, 0x04	; 4
    633e:	6b e1       	ldi	r22, 0x1B	; 27
    6340:	fc 01       	movw	r30, r24
    6342:	80 81       	ld	r24, Z
    6344:	b7 d9       	rcall	.-3218   	; 0x56b4 <_ZN6I2Cdev9writeBitsEhhhhh>
    6346:	0f 91       	pop	r16
    6348:	08 95       	ret

0000634a <_ZN7MPU605027setMotionDetectionThresholdEh>:
    634a:	46 2f       	mov	r20, r22
    634c:	6f e1       	ldi	r22, 0x1F	; 31
    634e:	fc 01       	movw	r30, r24
    6350:	80 81       	ld	r24, Z
    6352:	a1 c9       	rjmp	.-3262   	; 0x5696 <_ZN6I2Cdev9writeByteEhhh>

00006354 <_ZN7MPU605026setMotionDetectionDurationEh>:
    6354:	46 2f       	mov	r20, r22
    6356:	60 e2       	ldi	r22, 0x20	; 32
    6358:	fc 01       	movw	r30, r24
    635a:	80 81       	ld	r24, Z
    635c:	9c c9       	rjmp	.-3272   	; 0x5696 <_ZN6I2Cdev9writeByteEhhh>

0000635e <_ZN7MPU605031setZeroMotionDetectionThresholdEh>:
    635e:	46 2f       	mov	r20, r22
    6360:	61 e2       	ldi	r22, 0x21	; 33
    6362:	fc 01       	movw	r30, r24
    6364:	80 81       	ld	r24, Z
    6366:	97 c9       	rjmp	.-3282   	; 0x5696 <_ZN6I2Cdev9writeByteEhhh>

00006368 <_ZN7MPU605030setZeroMotionDetectionDurationEh>:
    6368:	46 2f       	mov	r20, r22
    636a:	62 e2       	ldi	r22, 0x22	; 34
    636c:	fc 01       	movw	r30, r24
    636e:	80 81       	ld	r24, Z
    6370:	92 c9       	rjmp	.-3292   	; 0x5696 <_ZN6I2Cdev9writeByteEhhh>

00006372 <_ZN7MPU605015setSlaveAddressEhh>:
    6372:	64 30       	cpi	r22, 0x04	; 4
    6374:	38 f4       	brcc	.+14     	; 0x6384 <_ZN7MPU605015setSlaveAddressEhh+0x12>
    6376:	26 2f       	mov	r18, r22
    6378:	22 0f       	add	r18, r18
    637a:	62 0f       	add	r22, r18
    637c:	6b 5d       	subi	r22, 0xDB	; 219
    637e:	fc 01       	movw	r30, r24
    6380:	80 81       	ld	r24, Z
    6382:	89 c9       	rjmp	.-3310   	; 0x5696 <_ZN6I2Cdev9writeByteEhhh>
    6384:	08 95       	ret

00006386 <_ZN7MPU605013setIntEnabledEh>:
    6386:	46 2f       	mov	r20, r22
    6388:	68 e3       	ldi	r22, 0x38	; 56
    638a:	fc 01       	movw	r30, r24
    638c:	80 81       	ld	r24, Z
    638e:	83 c9       	rjmp	.-3322   	; 0x5696 <_ZN6I2Cdev9writeByteEhhh>

00006390 <_ZN7MPU605012getIntStatusEv>:
    6390:	cf 93       	push	r28
    6392:	df 93       	push	r29
    6394:	ec 01       	movw	r28, r24
    6396:	20 91 09 01 	lds	r18, 0x0109
    639a:	30 91 0a 01 	lds	r19, 0x010A
    639e:	ac 01       	movw	r20, r24
    63a0:	4f 5f       	subi	r20, 0xFF	; 255
    63a2:	5f 4f       	sbci	r21, 0xFF	; 255
    63a4:	6a e3       	ldi	r22, 0x3A	; 58
    63a6:	88 81       	ld	r24, Y
    63a8:	9d d8       	rcall	.-3782   	; 0x54e4 <_ZN6I2Cdev8readByteEhhPhj>
    63aa:	89 81       	ldd	r24, Y+1	; 0x01
    63ac:	df 91       	pop	r29
    63ae:	cf 91       	pop	r28
    63b0:	08 95       	ret

000063b2 <_ZN7MPU605014setFIFOEnabledEb>:
    63b2:	26 2f       	mov	r18, r22
    63b4:	46 e0       	ldi	r20, 0x06	; 6
    63b6:	6a e6       	ldi	r22, 0x6A	; 106
    63b8:	fc 01       	movw	r30, r24
    63ba:	80 81       	ld	r24, Z
    63bc:	c0 c9       	rjmp	.-3200   	; 0x573e <_ZN6I2Cdev8writeBitEhhhh>

000063be <_ZN7MPU605023setI2CMasterModeEnabledEb>:
    63be:	26 2f       	mov	r18, r22
    63c0:	45 e0       	ldi	r20, 0x05	; 5
    63c2:	6a e6       	ldi	r22, 0x6A	; 106
    63c4:	fc 01       	movw	r30, r24
    63c6:	80 81       	ld	r24, Z
    63c8:	ba c9       	rjmp	.-3212   	; 0x573e <_ZN6I2Cdev8writeBitEhhhh>

000063ca <_ZN7MPU60509resetFIFOEv>:
    63ca:	21 e0       	ldi	r18, 0x01	; 1
    63cc:	42 e0       	ldi	r20, 0x02	; 2
    63ce:	6a e6       	ldi	r22, 0x6A	; 106
    63d0:	fc 01       	movw	r30, r24
    63d2:	80 81       	ld	r24, Z
    63d4:	b4 c9       	rjmp	.-3224   	; 0x573e <_ZN6I2Cdev8writeBitEhhhh>

000063d6 <_ZN7MPU605014resetI2CMasterEv>:
    63d6:	21 e0       	ldi	r18, 0x01	; 1
    63d8:	41 e0       	ldi	r20, 0x01	; 1
    63da:	6a e6       	ldi	r22, 0x6A	; 106
    63dc:	fc 01       	movw	r30, r24
    63de:	80 81       	ld	r24, Z
    63e0:	ae c9       	rjmp	.-3236   	; 0x573e <_ZN6I2Cdev8writeBitEhhhh>

000063e2 <_ZN7MPU60505resetEv>:
    63e2:	21 e0       	ldi	r18, 0x01	; 1
    63e4:	47 e0       	ldi	r20, 0x07	; 7
    63e6:	6b e6       	ldi	r22, 0x6B	; 107
    63e8:	fc 01       	movw	r30, r24
    63ea:	80 81       	ld	r24, Z
    63ec:	a8 c9       	rjmp	.-3248   	; 0x573e <_ZN6I2Cdev8writeBitEhhhh>

000063ee <_ZN7MPU605015setSleepEnabledEb>:
    63ee:	26 2f       	mov	r18, r22
    63f0:	46 e0       	ldi	r20, 0x06	; 6
    63f2:	6b e6       	ldi	r22, 0x6B	; 107
    63f4:	fc 01       	movw	r30, r24
    63f6:	80 81       	ld	r24, Z
    63f8:	a2 c9       	rjmp	.-3260   	; 0x573e <_ZN6I2Cdev8writeBitEhhhh>

000063fa <_ZN7MPU605014setClockSourceEh>:
    63fa:	0f 93       	push	r16
    63fc:	06 2f       	mov	r16, r22
    63fe:	23 e0       	ldi	r18, 0x03	; 3
    6400:	42 e0       	ldi	r20, 0x02	; 2
    6402:	6b e6       	ldi	r22, 0x6B	; 107
    6404:	fc 01       	movw	r30, r24
    6406:	80 81       	ld	r24, Z
    6408:	55 d9       	rcall	.-3414   	; 0x56b4 <_ZN6I2Cdev9writeBitsEhhhhh>
    640a:	0f 91       	pop	r16
    640c:	08 95       	ret

0000640e <_ZN7MPU605012getFIFOCountEv>:
    640e:	0f 93       	push	r16
    6410:	1f 93       	push	r17
    6412:	cf 93       	push	r28
    6414:	df 93       	push	r29
    6416:	ec 01       	movw	r28, r24
    6418:	00 91 09 01 	lds	r16, 0x0109
    641c:	10 91 0a 01 	lds	r17, 0x010A
    6420:	9c 01       	movw	r18, r24
    6422:	2f 5f       	subi	r18, 0xFF	; 255
    6424:	3f 4f       	sbci	r19, 0xFF	; 255
    6426:	42 e0       	ldi	r20, 0x02	; 2
    6428:	62 e7       	ldi	r22, 0x72	; 114
    642a:	88 81       	ld	r24, Y
    642c:	15 d8       	rcall	.-4054   	; 0x5458 <_ZN6I2Cdev9readBytesEhhhPhj>
    642e:	99 81       	ldd	r25, Y+1	; 0x01
    6430:	80 e0       	ldi	r24, 0x00	; 0
    6432:	2a 81       	ldd	r18, Y+2	; 0x02
    6434:	ac 01       	movw	r20, r24
    6436:	42 2b       	or	r20, r18
    6438:	9a 01       	movw	r18, r20
    643a:	82 2f       	mov	r24, r18
    643c:	93 2f       	mov	r25, r19
    643e:	df 91       	pop	r29
    6440:	cf 91       	pop	r28
    6442:	1f 91       	pop	r17
    6444:	0f 91       	pop	r16
    6446:	08 95       	ret

00006448 <_ZN7MPU605012getFIFOBytesEPhj>:
    6448:	0f 93       	push	r16
    644a:	1f 93       	push	r17
    644c:	41 15       	cp	r20, r1
    644e:	51 05       	cpc	r21, r1
    6450:	79 f0       	breq	.+30     	; 0x6470 <_ZN7MPU605012getFIFOBytesEPhj+0x28>
    6452:	00 91 09 01 	lds	r16, 0x0109
    6456:	10 91 0a 01 	lds	r17, 0x010A
    645a:	40 38       	cpi	r20, 0x80	; 128
    645c:	51 05       	cpc	r21, r1
    645e:	10 f0       	brcs	.+4      	; 0x6464 <_ZN7MPU605012getFIFOBytesEPhj+0x1c>
    6460:	4f e7       	ldi	r20, 0x7F	; 127
    6462:	50 e0       	ldi	r21, 0x00	; 0
    6464:	9b 01       	movw	r18, r22
    6466:	64 e7       	ldi	r22, 0x74	; 116
    6468:	fc 01       	movw	r30, r24
    646a:	80 81       	ld	r24, Z
    646c:	0e 94 2c 2a 	call	0x5458	; 0x5458 <_ZN6I2Cdev9readBytesEhhhPhj>
    6470:	1f 91       	pop	r17
    6472:	0f 91       	pop	r16
    6474:	08 95       	ret

00006476 <_ZN7MPU605015getOTPBankValidEv>:
    6476:	0f 93       	push	r16
    6478:	1f 93       	push	r17
    647a:	cf 93       	push	r28
    647c:	df 93       	push	r29
    647e:	ec 01       	movw	r28, r24
    6480:	00 91 09 01 	lds	r16, 0x0109
    6484:	10 91 0a 01 	lds	r17, 0x010A
    6488:	9c 01       	movw	r18, r24
    648a:	2f 5f       	subi	r18, 0xFF	; 255
    648c:	3f 4f       	sbci	r19, 0xFF	; 255
    648e:	40 e0       	ldi	r20, 0x00	; 0
    6490:	60 e0       	ldi	r22, 0x00	; 0
    6492:	88 81       	ld	r24, Y
    6494:	6f d8       	rcall	.-3874   	; 0x5574 <_ZN6I2Cdev7readBitEhhhPhj>
    6496:	89 81       	ldd	r24, Y+1	; 0x01
    6498:	df 91       	pop	r29
    649a:	cf 91       	pop	r28
    649c:	1f 91       	pop	r17
    649e:	0f 91       	pop	r16
    64a0:	08 95       	ret

000064a2 <_ZN7MPU605015setOTPBankValidEb>:
    64a2:	26 2f       	mov	r18, r22
    64a4:	40 e0       	ldi	r20, 0x00	; 0
    64a6:	60 e0       	ldi	r22, 0x00	; 0
    64a8:	fc 01       	movw	r30, r24
    64aa:	80 81       	ld	r24, Z
    64ac:	48 c9       	rjmp	.-3440   	; 0x573e <_ZN6I2Cdev8writeBitEhhhh>

000064ae <_ZN7MPU605016getXGyroOffsetTCEv>:
    64ae:	ef 92       	push	r14
    64b0:	ff 92       	push	r15
    64b2:	0f 93       	push	r16
    64b4:	1f 93       	push	r17
    64b6:	cf 93       	push	r28
    64b8:	df 93       	push	r29
    64ba:	ec 01       	movw	r28, r24
    64bc:	e0 90 09 01 	lds	r14, 0x0109
    64c0:	f0 90 0a 01 	lds	r15, 0x010A
    64c4:	8c 01       	movw	r16, r24
    64c6:	0f 5f       	subi	r16, 0xFF	; 255
    64c8:	1f 4f       	sbci	r17, 0xFF	; 255
    64ca:	26 e0       	ldi	r18, 0x06	; 6
    64cc:	46 e0       	ldi	r20, 0x06	; 6
    64ce:	60 e0       	ldi	r22, 0x00	; 0
    64d0:	88 81       	ld	r24, Y
    64d2:	11 d8       	rcall	.-4062   	; 0x54f6 <_ZN6I2Cdev8readBitsEhhhhPhj>
    64d4:	89 81       	ldd	r24, Y+1	; 0x01
    64d6:	df 91       	pop	r29
    64d8:	cf 91       	pop	r28
    64da:	1f 91       	pop	r17
    64dc:	0f 91       	pop	r16
    64de:	ff 90       	pop	r15
    64e0:	ef 90       	pop	r14
    64e2:	08 95       	ret

000064e4 <_ZN7MPU605016setXGyroOffsetTCEa>:
    64e4:	0f 93       	push	r16
    64e6:	06 2f       	mov	r16, r22
    64e8:	26 e0       	ldi	r18, 0x06	; 6
    64ea:	46 e0       	ldi	r20, 0x06	; 6
    64ec:	60 e0       	ldi	r22, 0x00	; 0
    64ee:	fc 01       	movw	r30, r24
    64f0:	80 81       	ld	r24, Z
    64f2:	e0 d8       	rcall	.-3648   	; 0x56b4 <_ZN6I2Cdev9writeBitsEhhhhh>
    64f4:	0f 91       	pop	r16
    64f6:	08 95       	ret

000064f8 <_ZN7MPU605016getYGyroOffsetTCEv>:
    64f8:	ef 92       	push	r14
    64fa:	ff 92       	push	r15
    64fc:	0f 93       	push	r16
    64fe:	1f 93       	push	r17
    6500:	cf 93       	push	r28
    6502:	df 93       	push	r29
    6504:	ec 01       	movw	r28, r24
    6506:	e0 90 09 01 	lds	r14, 0x0109
    650a:	f0 90 0a 01 	lds	r15, 0x010A
    650e:	8c 01       	movw	r16, r24
    6510:	0f 5f       	subi	r16, 0xFF	; 255
    6512:	1f 4f       	sbci	r17, 0xFF	; 255
    6514:	26 e0       	ldi	r18, 0x06	; 6
    6516:	46 e0       	ldi	r20, 0x06	; 6
    6518:	61 e0       	ldi	r22, 0x01	; 1
    651a:	88 81       	ld	r24, Y
    651c:	0e 94 7b 2a 	call	0x54f6	; 0x54f6 <_ZN6I2Cdev8readBitsEhhhhPhj>
    6520:	89 81       	ldd	r24, Y+1	; 0x01
    6522:	df 91       	pop	r29
    6524:	cf 91       	pop	r28
    6526:	1f 91       	pop	r17
    6528:	0f 91       	pop	r16
    652a:	ff 90       	pop	r15
    652c:	ef 90       	pop	r14
    652e:	08 95       	ret

00006530 <_ZN7MPU605016setYGyroOffsetTCEa>:
    6530:	0f 93       	push	r16
    6532:	06 2f       	mov	r16, r22
    6534:	26 e0       	ldi	r18, 0x06	; 6
    6536:	46 e0       	ldi	r20, 0x06	; 6
    6538:	61 e0       	ldi	r22, 0x01	; 1
    653a:	fc 01       	movw	r30, r24
    653c:	80 81       	ld	r24, Z
    653e:	ba d8       	rcall	.-3724   	; 0x56b4 <_ZN6I2Cdev9writeBitsEhhhhh>
    6540:	0f 91       	pop	r16
    6542:	08 95       	ret

00006544 <_ZN7MPU605016getZGyroOffsetTCEv>:
    6544:	ef 92       	push	r14
    6546:	ff 92       	push	r15
    6548:	0f 93       	push	r16
    654a:	1f 93       	push	r17
    654c:	cf 93       	push	r28
    654e:	df 93       	push	r29
    6550:	ec 01       	movw	r28, r24
    6552:	e0 90 09 01 	lds	r14, 0x0109
    6556:	f0 90 0a 01 	lds	r15, 0x010A
    655a:	8c 01       	movw	r16, r24
    655c:	0f 5f       	subi	r16, 0xFF	; 255
    655e:	1f 4f       	sbci	r17, 0xFF	; 255
    6560:	26 e0       	ldi	r18, 0x06	; 6
    6562:	46 e0       	ldi	r20, 0x06	; 6
    6564:	62 e0       	ldi	r22, 0x02	; 2
    6566:	88 81       	ld	r24, Y
    6568:	0e 94 7b 2a 	call	0x54f6	; 0x54f6 <_ZN6I2Cdev8readBitsEhhhhPhj>
    656c:	89 81       	ldd	r24, Y+1	; 0x01
    656e:	df 91       	pop	r29
    6570:	cf 91       	pop	r28
    6572:	1f 91       	pop	r17
    6574:	0f 91       	pop	r16
    6576:	ff 90       	pop	r15
    6578:	ef 90       	pop	r14
    657a:	08 95       	ret

0000657c <_ZN7MPU605016setZGyroOffsetTCEa>:
    657c:	0f 93       	push	r16
    657e:	06 2f       	mov	r16, r22
    6580:	26 e0       	ldi	r18, 0x06	; 6
    6582:	46 e0       	ldi	r20, 0x06	; 6
    6584:	62 e0       	ldi	r22, 0x02	; 2
    6586:	fc 01       	movw	r30, r24
    6588:	80 81       	ld	r24, Z
    658a:	94 d8       	rcall	.-3800   	; 0x56b4 <_ZN6I2Cdev9writeBitsEhhhhh>
    658c:	0f 91       	pop	r16
    658e:	08 95       	ret

00006590 <_ZN7MPU605015setZAccelOffsetEi>:
    6590:	ab 01       	movw	r20, r22
    6592:	6a e0       	ldi	r22, 0x0A	; 10
    6594:	fc 01       	movw	r30, r24
    6596:	80 81       	ld	r24, Z
    6598:	49 c8       	rjmp	.-3950   	; 0x562c <_ZN6I2Cdev9writeWordEhhj>

0000659a <_ZN7MPU605014setXGyroOffsetEi>:
    659a:	ab 01       	movw	r20, r22
    659c:	63 e1       	ldi	r22, 0x13	; 19
    659e:	fc 01       	movw	r30, r24
    65a0:	80 81       	ld	r24, Z
    65a2:	44 c8       	rjmp	.-3960   	; 0x562c <_ZN6I2Cdev9writeWordEhhj>

000065a4 <_ZN7MPU605014setYGyroOffsetEi>:
    65a4:	ab 01       	movw	r20, r22
    65a6:	65 e1       	ldi	r22, 0x15	; 21
    65a8:	fc 01       	movw	r30, r24
    65aa:	80 81       	ld	r24, Z
    65ac:	3f c8       	rjmp	.-3970   	; 0x562c <_ZN6I2Cdev9writeWordEhhj>

000065ae <_ZN7MPU605014setZGyroOffsetEi>:
    65ae:	ab 01       	movw	r20, r22
    65b0:	67 e1       	ldi	r22, 0x17	; 23
    65b2:	fc 01       	movw	r30, r24
    65b4:	80 81       	ld	r24, Z
    65b6:	3a c8       	rjmp	.-3980   	; 0x562c <_ZN6I2Cdev9writeWordEhhj>

000065b8 <_ZN7MPU605013setDMPEnabledEb>:
    65b8:	26 2f       	mov	r18, r22
    65ba:	47 e0       	ldi	r20, 0x07	; 7
    65bc:	6a e6       	ldi	r22, 0x6A	; 106
    65be:	fc 01       	movw	r30, r24
    65c0:	80 81       	ld	r24, Z
    65c2:	bd c8       	rjmp	.-3718   	; 0x573e <_ZN6I2Cdev8writeBitEhhhh>

000065c4 <_ZN7MPU60508resetDMPEv>:
    65c4:	21 e0       	ldi	r18, 0x01	; 1
    65c6:	43 e0       	ldi	r20, 0x03	; 3
    65c8:	6a e6       	ldi	r22, 0x6A	; 106
    65ca:	fc 01       	movw	r30, r24
    65cc:	80 81       	ld	r24, Z
    65ce:	b7 c8       	rjmp	.-3730   	; 0x573e <_ZN6I2Cdev8writeBitEhhhh>

000065d0 <_ZN7MPU605013setMemoryBankEhbb>:
    65d0:	6f 71       	andi	r22, 0x1F	; 31
    65d2:	21 11       	cpse	r18, r1
    65d4:	60 62       	ori	r22, 0x20	; 32
    65d6:	41 11       	cpse	r20, r1
    65d8:	60 64       	ori	r22, 0x40	; 64
    65da:	46 2f       	mov	r20, r22
    65dc:	6d e6       	ldi	r22, 0x6D	; 109
    65de:	fc 01       	movw	r30, r24
    65e0:	80 81       	ld	r24, Z
    65e2:	59 c8       	rjmp	.-3918   	; 0x5696 <_ZN6I2Cdev9writeByteEhhh>

000065e4 <_ZN7MPU605021setMemoryStartAddressEh>:
    65e4:	46 2f       	mov	r20, r22
    65e6:	6e e6       	ldi	r22, 0x6E	; 110
    65e8:	fc 01       	movw	r30, r24
    65ea:	80 81       	ld	r24, Z
    65ec:	54 c8       	rjmp	.-3928   	; 0x5696 <_ZN6I2Cdev9writeByteEhhh>

000065ee <_ZN7MPU605014readMemoryByteEv>:
    65ee:	cf 93       	push	r28
    65f0:	df 93       	push	r29
    65f2:	ec 01       	movw	r28, r24
    65f4:	20 91 09 01 	lds	r18, 0x0109
    65f8:	30 91 0a 01 	lds	r19, 0x010A
    65fc:	ac 01       	movw	r20, r24
    65fe:	4f 5f       	subi	r20, 0xFF	; 255
    6600:	5f 4f       	sbci	r21, 0xFF	; 255
    6602:	6f e6       	ldi	r22, 0x6F	; 111
    6604:	88 81       	ld	r24, Y
    6606:	0e 94 72 2a 	call	0x54e4	; 0x54e4 <_ZN6I2Cdev8readByteEhhPhj>
    660a:	89 81       	ldd	r24, Y+1	; 0x01
    660c:	df 91       	pop	r29
    660e:	cf 91       	pop	r28
    6610:	08 95       	ret

00006612 <_ZN7MPU605015readMemoryBlockEPhjhh>:
    6612:	4f 92       	push	r4
    6614:	5f 92       	push	r5
    6616:	6f 92       	push	r6
    6618:	7f 92       	push	r7
    661a:	8f 92       	push	r8
    661c:	9f 92       	push	r9
    661e:	af 92       	push	r10
    6620:	bf 92       	push	r11
    6622:	cf 92       	push	r12
    6624:	df 92       	push	r13
    6626:	ef 92       	push	r14
    6628:	ff 92       	push	r15
    662a:	0f 93       	push	r16
    662c:	1f 93       	push	r17
    662e:	cf 93       	push	r28
    6630:	df 93       	push	r29
    6632:	6c 01       	movw	r12, r24
    6634:	5b 01       	movw	r10, r22
    6636:	7a 01       	movw	r14, r20
    6638:	52 2e       	mov	r5, r18
    663a:	60 2e       	mov	r6, r16
    663c:	20 e0       	ldi	r18, 0x00	; 0
    663e:	40 e0       	ldi	r20, 0x00	; 0
    6640:	65 2d       	mov	r22, r5
    6642:	c6 df       	rcall	.-116    	; 0x65d0 <_ZN7MPU605013setMemoryBankEhbb>
    6644:	60 2f       	mov	r22, r16
    6646:	c6 01       	movw	r24, r12
    6648:	cd df       	rcall	.-102    	; 0x65e4 <_ZN7MPU605021setMemoryStartAddressEh>
    664a:	e1 14       	cp	r14, r1
    664c:	f1 04       	cpc	r15, r1
    664e:	c9 f1       	breq	.+114    	; 0x66c2 <_ZN7MPU605015readMemoryBlockEPhjhh+0xb0>
    6650:	c0 e0       	ldi	r28, 0x00	; 0
    6652:	d0 e0       	ldi	r29, 0x00	; 0
    6654:	68 94       	set
    6656:	44 24       	eor	r4, r4
    6658:	44 f8       	bld	r4, 4
    665a:	81 2c       	mov	r8, r1
    665c:	99 24       	eor	r9, r9
    665e:	93 94       	inc	r9
    6660:	ce 01       	movw	r24, r28
    6662:	40 96       	adiw	r24, 0x10	; 16
    6664:	e8 16       	cp	r14, r24
    6666:	f9 06       	cpc	r15, r25
    6668:	18 f4       	brcc	.+6      	; 0x6670 <_ZN7MPU605015readMemoryBlockEPhjhh+0x5e>
    666a:	7e 2c       	mov	r7, r14
    666c:	7c 1a       	sub	r7, r28
    666e:	01 c0       	rjmp	.+2      	; 0x6672 <_ZN7MPU605015readMemoryBlockEPhjhh+0x60>
    6670:	74 2c       	mov	r7, r4
    6672:	27 2d       	mov	r18, r7
    6674:	30 e0       	ldi	r19, 0x00	; 0
    6676:	c4 01       	movw	r24, r8
    6678:	86 19       	sub	r24, r6
    667a:	91 09       	sbc	r25, r1
    667c:	82 17       	cp	r24, r18
    667e:	93 07       	cpc	r25, r19
    6680:	14 f4       	brge	.+4      	; 0x6686 <_ZN7MPU605015readMemoryBlockEPhjhh+0x74>
    6682:	76 2c       	mov	r7, r6
    6684:	71 94       	neg	r7
    6686:	00 91 09 01 	lds	r16, 0x0109
    668a:	10 91 0a 01 	lds	r17, 0x010A
    668e:	95 01       	movw	r18, r10
    6690:	2c 0f       	add	r18, r28
    6692:	3d 1f       	adc	r19, r29
    6694:	47 2d       	mov	r20, r7
    6696:	6f e6       	ldi	r22, 0x6F	; 111
    6698:	f6 01       	movw	r30, r12
    669a:	80 81       	ld	r24, Z
    669c:	0e 94 2c 2a 	call	0x5458	; 0x5458 <_ZN6I2Cdev9readBytesEhhhPhj>
    66a0:	c7 0d       	add	r28, r7
    66a2:	d1 1d       	adc	r29, r1
    66a4:	ce 15       	cp	r28, r14
    66a6:	df 05       	cpc	r29, r15
    66a8:	60 f4       	brcc	.+24     	; 0x66c2 <_ZN7MPU605015readMemoryBlockEPhjhh+0xb0>
    66aa:	67 0c       	add	r6, r7
    66ac:	09 f4       	brne	.+2      	; 0x66b0 <_ZN7MPU605015readMemoryBlockEPhjhh+0x9e>
    66ae:	53 94       	inc	r5
    66b0:	20 e0       	ldi	r18, 0x00	; 0
    66b2:	40 e0       	ldi	r20, 0x00	; 0
    66b4:	65 2d       	mov	r22, r5
    66b6:	c6 01       	movw	r24, r12
    66b8:	8b df       	rcall	.-234    	; 0x65d0 <_ZN7MPU605013setMemoryBankEhbb>
    66ba:	66 2d       	mov	r22, r6
    66bc:	c6 01       	movw	r24, r12
    66be:	92 df       	rcall	.-220    	; 0x65e4 <_ZN7MPU605021setMemoryStartAddressEh>
    66c0:	cf cf       	rjmp	.-98     	; 0x6660 <_ZN7MPU605015readMemoryBlockEPhjhh+0x4e>
    66c2:	df 91       	pop	r29
    66c4:	cf 91       	pop	r28
    66c6:	1f 91       	pop	r17
    66c8:	0f 91       	pop	r16
    66ca:	ff 90       	pop	r15
    66cc:	ef 90       	pop	r14
    66ce:	df 90       	pop	r13
    66d0:	cf 90       	pop	r12
    66d2:	bf 90       	pop	r11
    66d4:	af 90       	pop	r10
    66d6:	9f 90       	pop	r9
    66d8:	8f 90       	pop	r8
    66da:	7f 90       	pop	r7
    66dc:	6f 90       	pop	r6
    66de:	5f 90       	pop	r5
    66e0:	4f 90       	pop	r4
    66e2:	08 95       	ret

000066e4 <_ZN7MPU605016writeMemoryBlockEPKhjhhbb>:
    66e4:	2f 92       	push	r2
    66e6:	3f 92       	push	r3
    66e8:	4f 92       	push	r4
    66ea:	5f 92       	push	r5
    66ec:	6f 92       	push	r6
    66ee:	7f 92       	push	r7
    66f0:	8f 92       	push	r8
    66f2:	9f 92       	push	r9
    66f4:	af 92       	push	r10
    66f6:	bf 92       	push	r11
    66f8:	cf 92       	push	r12
    66fa:	df 92       	push	r13
    66fc:	ef 92       	push	r14
    66fe:	ff 92       	push	r15
    6700:	0f 93       	push	r16
    6702:	1f 93       	push	r17
    6704:	cf 93       	push	r28
    6706:	df 93       	push	r29
    6708:	00 d0       	rcall	.+0      	; 0x670a <_ZN7MPU605016writeMemoryBlockEPKhjhhbb+0x26>
    670a:	00 d0       	rcall	.+0      	; 0x670c <_ZN7MPU605016writeMemoryBlockEPKhjhhbb+0x28>
    670c:	1f 92       	push	r1
    670e:	cd b7       	in	r28, 0x3d	; 61
    6710:	de b7       	in	r29, 0x3e	; 62
    6712:	4c 01       	movw	r8, r24
    6714:	2b 01       	movw	r4, r22
    6716:	3a 01       	movw	r6, r20
    6718:	29 83       	std	Y+1, r18	; 0x01
    671a:	d0 2e       	mov	r13, r16
    671c:	eb 82       	std	Y+3, r14	; 0x03
    671e:	ca 82       	std	Y+2, r12	; 0x02
    6720:	20 e0       	ldi	r18, 0x00	; 0
    6722:	40 e0       	ldi	r20, 0x00	; 0
    6724:	69 81       	ldd	r22, Y+1	; 0x01
    6726:	54 df       	rcall	.-344    	; 0x65d0 <_ZN7MPU605013setMemoryBankEhbb>
    6728:	60 2f       	mov	r22, r16
    672a:	c4 01       	movw	r24, r8
    672c:	5b df       	rcall	.-330    	; 0x65e4 <_ZN7MPU605021setMemoryStartAddressEh>
    672e:	eb 80       	ldd	r14, Y+3	; 0x03
    6730:	ee 20       	and	r14, r14
    6732:	31 f0       	breq	.+12     	; 0x6740 <_ZN7MPU605016writeMemoryBlockEPKhjhhbb+0x5c>
    6734:	80 e1       	ldi	r24, 0x10	; 16
    6736:	90 e0       	ldi	r25, 0x00	; 0
    6738:	0e 94 78 44 	call	0x88f0	; 0x88f0 <malloc>
    673c:	28 2e       	mov	r2, r24
    673e:	39 2e       	mov	r3, r25
    6740:	8a 81       	ldd	r24, Y+2	; 0x02
    6742:	88 23       	and	r24, r24
    6744:	31 f0       	breq	.+12     	; 0x6752 <_ZN7MPU605016writeMemoryBlockEPKhjhhbb+0x6e>
    6746:	80 e1       	ldi	r24, 0x10	; 16
    6748:	90 e0       	ldi	r25, 0x00	; 0
    674a:	0e 94 78 44 	call	0x88f0	; 0x88f0 <malloc>
    674e:	a8 2e       	mov	r10, r24
    6750:	b9 2e       	mov	r11, r25
    6752:	61 14       	cp	r6, r1
    6754:	71 04       	cpc	r7, r1
    6756:	09 f4       	brne	.+2      	; 0x675a <_ZN7MPU605016writeMemoryBlockEPKhjhhbb+0x76>
    6758:	80 c0       	rjmp	.+256    	; 0x685a <_ZN7MPU605016writeMemoryBlockEPKhjhhbb+0x176>
    675a:	1d 82       	std	Y+5, r1	; 0x05
    675c:	1c 82       	std	Y+4, r1	; 0x04
    675e:	e1 2c       	mov	r14, r1
    6760:	ff 24       	eor	r15, r15
    6762:	f3 94       	inc	r15
    6764:	8c 81       	ldd	r24, Y+4	; 0x04
    6766:	9d 81       	ldd	r25, Y+5	; 0x05
    6768:	40 96       	adiw	r24, 0x10	; 16
    676a:	68 16       	cp	r6, r24
    676c:	79 06       	cpc	r7, r25
    676e:	20 f4       	brcc	.+8      	; 0x6778 <_ZN7MPU605016writeMemoryBlockEPKhjhhbb+0x94>
    6770:	c6 2c       	mov	r12, r6
    6772:	9c 81       	ldd	r25, Y+4	; 0x04
    6774:	c9 1a       	sub	r12, r25
    6776:	03 c0       	rjmp	.+6      	; 0x677e <_ZN7MPU605016writeMemoryBlockEPKhjhhbb+0x9a>
    6778:	68 94       	set
    677a:	cc 24       	eor	r12, r12
    677c:	c4 f8       	bld	r12, 4
    677e:	2c 2d       	mov	r18, r12
    6780:	30 e0       	ldi	r19, 0x00	; 0
    6782:	c7 01       	movw	r24, r14
    6784:	8d 19       	sub	r24, r13
    6786:	91 09       	sbc	r25, r1
    6788:	82 17       	cp	r24, r18
    678a:	93 07       	cpc	r25, r19
    678c:	14 f4       	brge	.+4      	; 0x6792 <_ZN7MPU605016writeMemoryBlockEPKhjhhbb+0xae>
    678e:	cd 2c       	mov	r12, r13
    6790:	c1 94       	neg	r12
    6792:	ea 81       	ldd	r30, Y+2	; 0x02
    6794:	ee 23       	and	r30, r30
    6796:	89 f0       	breq	.+34     	; 0x67ba <_ZN7MPU605016writeMemoryBlockEPKhjhhbb+0xd6>
    6798:	cc 20       	and	r12, r12
    679a:	99 f0       	breq	.+38     	; 0x67c2 <_ZN7MPU605016writeMemoryBlockEPKhjhhbb+0xde>
    679c:	ec 81       	ldd	r30, Y+4	; 0x04
    679e:	fd 81       	ldd	r31, Y+5	; 0x05
    67a0:	e4 0d       	add	r30, r4
    67a2:	f5 1d       	adc	r31, r5
    67a4:	9a 2d       	mov	r25, r10
    67a6:	aa 2d       	mov	r26, r10
    67a8:	bb 2d       	mov	r27, r11
    67aa:	84 91       	lpm	r24, Z
    67ac:	8d 93       	st	X+, r24
    67ae:	31 96       	adiw	r30, 0x01	; 1
    67b0:	8a 2f       	mov	r24, r26
    67b2:	89 1b       	sub	r24, r25
    67b4:	8c 15       	cp	r24, r12
    67b6:	c8 f3       	brcs	.-14     	; 0x67aa <_ZN7MPU605016writeMemoryBlockEPKhjhhbb+0xc6>
    67b8:	04 c0       	rjmp	.+8      	; 0x67c2 <_ZN7MPU605016writeMemoryBlockEPKhjhhbb+0xde>
    67ba:	ac 80       	ldd	r10, Y+4	; 0x04
    67bc:	bd 80       	ldd	r11, Y+5	; 0x05
    67be:	a4 0c       	add	r10, r4
    67c0:	b5 1c       	adc	r11, r5
    67c2:	95 01       	movw	r18, r10
    67c4:	4c 2d       	mov	r20, r12
    67c6:	6f e6       	ldi	r22, 0x6F	; 111
    67c8:	f4 01       	movw	r30, r8
    67ca:	80 81       	ld	r24, Z
    67cc:	0e 94 27 2b 	call	0x564e	; 0x564e <_ZN6I2Cdev10writeBytesEhhhPh>
    67d0:	fb 81       	ldd	r31, Y+3	; 0x03
    67d2:	ff 23       	and	r31, r31
    67d4:	59 f1       	breq	.+86     	; 0x682c <_ZN7MPU605016writeMemoryBlockEPKhjhhbb+0x148>
    67d6:	21 14       	cp	r2, r1
    67d8:	31 04       	cpc	r3, r1
    67da:	41 f1       	breq	.+80     	; 0x682c <_ZN7MPU605016writeMemoryBlockEPKhjhhbb+0x148>
    67dc:	20 e0       	ldi	r18, 0x00	; 0
    67de:	40 e0       	ldi	r20, 0x00	; 0
    67e0:	69 81       	ldd	r22, Y+1	; 0x01
    67e2:	c4 01       	movw	r24, r8
    67e4:	f5 de       	rcall	.-534    	; 0x65d0 <_ZN7MPU605013setMemoryBankEhbb>
    67e6:	6d 2d       	mov	r22, r13
    67e8:	c4 01       	movw	r24, r8
    67ea:	fc de       	rcall	.-520    	; 0x65e4 <_ZN7MPU605021setMemoryStartAddressEh>
    67ec:	00 91 09 01 	lds	r16, 0x0109
    67f0:	10 91 0a 01 	lds	r17, 0x010A
    67f4:	91 01       	movw	r18, r2
    67f6:	4c 2d       	mov	r20, r12
    67f8:	6f e6       	ldi	r22, 0x6F	; 111
    67fa:	f4 01       	movw	r30, r8
    67fc:	80 81       	ld	r24, Z
    67fe:	0e 94 2c 2a 	call	0x5458	; 0x5458 <_ZN6I2Cdev9readBytesEhhhPhj>
    6802:	4c 2d       	mov	r20, r12
    6804:	50 e0       	ldi	r21, 0x00	; 0
    6806:	b1 01       	movw	r22, r2
    6808:	c5 01       	movw	r24, r10
    680a:	0e 94 91 46 	call	0x8d22	; 0x8d22 <memcmp>
    680e:	28 2f       	mov	r18, r24
    6810:	39 2f       	mov	r19, r25
    6812:	23 2b       	or	r18, r19
    6814:	59 f0       	breq	.+22     	; 0x682c <_ZN7MPU605016writeMemoryBlockEPKhjhhbb+0x148>
    6816:	c1 01       	movw	r24, r2
    6818:	0e 94 13 45 	call	0x8a26	; 0x8a26 <free>
    681c:	fa 81       	ldd	r31, Y+2	; 0x02
    681e:	ff 23       	and	r31, r31
    6820:	51 f1       	breq	.+84     	; 0x6876 <_ZN7MPU605016writeMemoryBlockEPKhjhhbb+0x192>
    6822:	c5 01       	movw	r24, r10
    6824:	0e 94 13 45 	call	0x8a26	; 0x8a26 <free>
    6828:	80 e0       	ldi	r24, 0x00	; 0
    682a:	28 c0       	rjmp	.+80     	; 0x687c <_ZN7MPU605016writeMemoryBlockEPKhjhhbb+0x198>
    682c:	8c 81       	ldd	r24, Y+4	; 0x04
    682e:	9d 81       	ldd	r25, Y+5	; 0x05
    6830:	8c 0d       	add	r24, r12
    6832:	91 1d       	adc	r25, r1
    6834:	9d 83       	std	Y+5, r25	; 0x05
    6836:	8c 83       	std	Y+4, r24	; 0x04
    6838:	86 15       	cp	r24, r6
    683a:	97 05       	cpc	r25, r7
    683c:	70 f4       	brcc	.+28     	; 0x685a <_ZN7MPU605016writeMemoryBlockEPKhjhhbb+0x176>
    683e:	dc 0c       	add	r13, r12
    6840:	19 f4       	brne	.+6      	; 0x6848 <_ZN7MPU605016writeMemoryBlockEPKhjhhbb+0x164>
    6842:	99 81       	ldd	r25, Y+1	; 0x01
    6844:	9f 5f       	subi	r25, 0xFF	; 255
    6846:	99 83       	std	Y+1, r25	; 0x01
    6848:	20 e0       	ldi	r18, 0x00	; 0
    684a:	40 e0       	ldi	r20, 0x00	; 0
    684c:	69 81       	ldd	r22, Y+1	; 0x01
    684e:	c4 01       	movw	r24, r8
    6850:	bf de       	rcall	.-642    	; 0x65d0 <_ZN7MPU605013setMemoryBankEhbb>
    6852:	6d 2d       	mov	r22, r13
    6854:	c4 01       	movw	r24, r8
    6856:	c6 de       	rcall	.-628    	; 0x65e4 <_ZN7MPU605021setMemoryStartAddressEh>
    6858:	85 cf       	rjmp	.-246    	; 0x6764 <_ZN7MPU605016writeMemoryBlockEPKhjhhbb+0x80>
    685a:	eb 81       	ldd	r30, Y+3	; 0x03
    685c:	ee 23       	and	r30, r30
    685e:	19 f0       	breq	.+6      	; 0x6866 <_ZN7MPU605016writeMemoryBlockEPKhjhhbb+0x182>
    6860:	c1 01       	movw	r24, r2
    6862:	0e 94 13 45 	call	0x8a26	; 0x8a26 <free>
    6866:	fa 81       	ldd	r31, Y+2	; 0x02
    6868:	ff 23       	and	r31, r31
    686a:	39 f0       	breq	.+14     	; 0x687a <_ZN7MPU605016writeMemoryBlockEPKhjhhbb+0x196>
    686c:	c5 01       	movw	r24, r10
    686e:	0e 94 13 45 	call	0x8a26	; 0x8a26 <free>
    6872:	81 e0       	ldi	r24, 0x01	; 1
    6874:	03 c0       	rjmp	.+6      	; 0x687c <_ZN7MPU605016writeMemoryBlockEPKhjhhbb+0x198>
    6876:	80 e0       	ldi	r24, 0x00	; 0
    6878:	01 c0       	rjmp	.+2      	; 0x687c <_ZN7MPU605016writeMemoryBlockEPKhjhhbb+0x198>
    687a:	81 e0       	ldi	r24, 0x01	; 1
    687c:	0f 90       	pop	r0
    687e:	0f 90       	pop	r0
    6880:	0f 90       	pop	r0
    6882:	0f 90       	pop	r0
    6884:	0f 90       	pop	r0
    6886:	df 91       	pop	r29
    6888:	cf 91       	pop	r28
    688a:	1f 91       	pop	r17
    688c:	0f 91       	pop	r16
    688e:	ff 90       	pop	r15
    6890:	ef 90       	pop	r14
    6892:	df 90       	pop	r13
    6894:	cf 90       	pop	r12
    6896:	bf 90       	pop	r11
    6898:	af 90       	pop	r10
    689a:	9f 90       	pop	r9
    689c:	8f 90       	pop	r8
    689e:	7f 90       	pop	r7
    68a0:	6f 90       	pop	r6
    68a2:	5f 90       	pop	r5
    68a4:	4f 90       	pop	r4
    68a6:	3f 90       	pop	r3
    68a8:	2f 90       	pop	r2
    68aa:	08 95       	ret

000068ac <_ZN7MPU605020writeProgMemoryBlockEPKhjhhb>:
    68ac:	cf 92       	push	r12
    68ae:	ef 92       	push	r14
    68b0:	0f 93       	push	r16
    68b2:	cc 24       	eor	r12, r12
    68b4:	c3 94       	inc	r12
    68b6:	16 df       	rcall	.-468    	; 0x66e4 <_ZN7MPU605016writeMemoryBlockEPKhjhhbb>
    68b8:	0f 91       	pop	r16
    68ba:	ef 90       	pop	r14
    68bc:	cf 90       	pop	r12
    68be:	08 95       	ret

000068c0 <_ZN7MPU605024writeDMPConfigurationSetEPKhjb>:
    68c0:	2f 92       	push	r2
    68c2:	3f 92       	push	r3
    68c4:	4f 92       	push	r4
    68c6:	5f 92       	push	r5
    68c8:	6f 92       	push	r6
    68ca:	7f 92       	push	r7
    68cc:	8f 92       	push	r8
    68ce:	9f 92       	push	r9
    68d0:	af 92       	push	r10
    68d2:	bf 92       	push	r11
    68d4:	cf 92       	push	r12
    68d6:	ef 92       	push	r14
    68d8:	ff 92       	push	r15
    68da:	0f 93       	push	r16
    68dc:	1f 93       	push	r17
    68de:	cf 93       	push	r28
    68e0:	df 93       	push	r29
    68e2:	1c 01       	movw	r2, r24
    68e4:	eb 01       	movw	r28, r22
    68e6:	2a 01       	movw	r4, r20
    68e8:	12 2f       	mov	r17, r18
    68ea:	22 23       	and	r18, r18
    68ec:	09 f4       	brne	.+2      	; 0x68f0 <_ZN7MPU605024writeDMPConfigurationSetEPKhjb+0x30>
    68ee:	7c c0       	rjmp	.+248    	; 0x69e8 <_ZN7MPU605024writeDMPConfigurationSetEPKhjb+0x128>
    68f0:	88 e0       	ldi	r24, 0x08	; 8
    68f2:	90 e0       	ldi	r25, 0x00	; 0
    68f4:	0e 94 78 44 	call	0x88f0	; 0x88f0 <malloc>
    68f8:	68 2e       	mov	r6, r24
    68fa:	79 2e       	mov	r7, r25
    68fc:	75 c0       	rjmp	.+234    	; 0x69e8 <_ZN7MPU605024writeDMPConfigurationSetEPKhjb+0x128>
    68fe:	81 2c       	mov	r8, r1
    6900:	91 2c       	mov	r9, r1
    6902:	11 23       	and	r17, r17
    6904:	a9 f0       	breq	.+42     	; 0x6930 <_ZN7MPU605024writeDMPConfigurationSetEPKhjb+0x70>
    6906:	fe 01       	movw	r30, r28
    6908:	e8 0d       	add	r30, r8
    690a:	f9 1d       	adc	r31, r9
    690c:	e4 90       	lpm	r14, Z
    690e:	f4 01       	movw	r30, r8
    6910:	31 96       	adiw	r30, 0x01	; 1
    6912:	ec 0f       	add	r30, r28
    6914:	fd 1f       	adc	r31, r29
    6916:	f4 90       	lpm	r15, Z
    6918:	54 01       	movw	r10, r8
    691a:	83 e0       	ldi	r24, 0x03	; 3
    691c:	a8 0e       	add	r10, r24
    691e:	b1 1c       	adc	r11, r1
    6920:	f4 01       	movw	r30, r8
    6922:	32 96       	adiw	r30, 0x02	; 2
    6924:	ec 0f       	add	r30, r28
    6926:	fd 1f       	adc	r31, r29
    6928:	04 91       	lpm	r16, Z
    692a:	01 11       	cpse	r16, r1
    692c:	75 c0       	rjmp	.+234    	; 0x6a18 <_ZN7MPU605024writeDMPConfigurationSetEPKhjb+0x158>
    692e:	3d c0       	rjmp	.+122    	; 0x69aa <_ZN7MPU605024writeDMPConfigurationSetEPKhjb+0xea>
    6930:	fe 01       	movw	r30, r28
    6932:	e8 0d       	add	r30, r8
    6934:	f9 1d       	adc	r31, r9
    6936:	20 81       	ld	r18, Z
    6938:	01 81       	ldd	r16, Z+1	; 0x01
    693a:	82 81       	ldd	r24, Z+2	; 0x02
    693c:	54 01       	movw	r10, r8
    693e:	93 e0       	ldi	r25, 0x03	; 3
    6940:	a9 0e       	add	r10, r25
    6942:	b1 1c       	adc	r11, r1
    6944:	81 11       	cpse	r24, r1
    6946:	64 c0       	rjmp	.+200    	; 0x6a10 <_ZN7MPU605024writeDMPConfigurationSetEPKhjb+0x150>
    6948:	38 c0       	rjmp	.+112    	; 0x69ba <_ZN7MPU605024writeDMPConfigurationSetEPKhjb+0xfa>
    694a:	60 2f       	mov	r22, r16
    694c:	70 e0       	ldi	r23, 0x00	; 0
    694e:	c3 01       	movw	r24, r6
    6950:	0e 94 b2 45 	call	0x8b64	; 0x8b64 <realloc>
    6954:	68 2e       	mov	r6, r24
    6956:	79 2e       	mov	r7, r25
    6958:	20 2f       	mov	r18, r16
    695a:	30 e0       	ldi	r19, 0x00	; 0
    695c:	21 15       	cp	r18, r1
    695e:	31 05       	cpc	r19, r1
    6960:	99 f0       	breq	.+38     	; 0x6988 <_ZN7MPU605024writeDMPConfigurationSetEPKhjb+0xc8>
    6962:	d3 01       	movw	r26, r6
    6964:	80 e0       	ldi	r24, 0x00	; 0
    6966:	90 e0       	ldi	r25, 0x00	; 0
    6968:	ae 01       	movw	r20, r28
    696a:	4a 0d       	add	r20, r10
    696c:	5b 1d       	adc	r21, r11
    696e:	fa 01       	movw	r30, r20
    6970:	e8 0f       	add	r30, r24
    6972:	f9 1f       	adc	r31, r25
    6974:	e4 91       	lpm	r30, Z
    6976:	ed 93       	st	X+, r30
    6978:	01 96       	adiw	r24, 0x01	; 1
    697a:	82 17       	cp	r24, r18
    697c:	93 07       	cpc	r25, r19
    697e:	b8 f3       	brcs	.-18     	; 0x696e <_ZN7MPU605024writeDMPConfigurationSetEPKhjb+0xae>
    6980:	80 2f       	mov	r24, r16
    6982:	0f 2d       	mov	r16, r15
    6984:	2e 2d       	mov	r18, r14
    6986:	03 c0       	rjmp	.+6      	; 0x698e <_ZN7MPU605024writeDMPConfigurationSetEPKhjb+0xce>
    6988:	80 2f       	mov	r24, r16
    698a:	0f 2d       	mov	r16, r15
    698c:	2e 2d       	mov	r18, r14
    698e:	88 2e       	mov	r8, r24
    6990:	91 2c       	mov	r9, r1
    6992:	c1 2c       	mov	r12, r1
    6994:	ee 24       	eor	r14, r14
    6996:	e3 94       	inc	r14
    6998:	a4 01       	movw	r20, r8
    699a:	b3 01       	movw	r22, r6
    699c:	c1 01       	movw	r24, r2
    699e:	a2 de       	rcall	.-700    	; 0x66e4 <_ZN7MPU605016writeMemoryBlockEPKhjhhbb>
    69a0:	8a 0c       	add	r8, r10
    69a2:	9b 1c       	adc	r9, r11
    69a4:	81 11       	cpse	r24, r1
    69a6:	25 c0       	rjmp	.+74     	; 0x69f2 <_ZN7MPU605024writeDMPConfigurationSetEPKhjb+0x132>
    69a8:	18 c0       	rjmp	.+48     	; 0x69da <_ZN7MPU605024writeDMPConfigurationSetEPKhjb+0x11a>
    69aa:	e4 e0       	ldi	r30, 0x04	; 4
    69ac:	8e 0e       	add	r8, r30
    69ae:	91 1c       	adc	r9, r1
    69b0:	fe 01       	movw	r30, r28
    69b2:	ea 0d       	add	r30, r10
    69b4:	fb 1d       	adc	r31, r11
    69b6:	84 91       	lpm	r24, Z
    69b8:	07 c0       	rjmp	.+14     	; 0x69c8 <_ZN7MPU605024writeDMPConfigurationSetEPKhjb+0x108>
    69ba:	fe 01       	movw	r30, r28
    69bc:	ea 0d       	add	r30, r10
    69be:	fb 1d       	adc	r31, r11
    69c0:	80 81       	ld	r24, Z
    69c2:	f4 e0       	ldi	r31, 0x04	; 4
    69c4:	8f 0e       	add	r8, r31
    69c6:	91 1c       	adc	r9, r1
    69c8:	81 30       	cpi	r24, 0x01	; 1
    69ca:	39 f4       	brne	.+14     	; 0x69da <_ZN7MPU605024writeDMPConfigurationSetEPKhjb+0x11a>
    69cc:	42 e3       	ldi	r20, 0x32	; 50
    69ce:	68 e3       	ldi	r22, 0x38	; 56
    69d0:	f1 01       	movw	r30, r2
    69d2:	80 81       	ld	r24, Z
    69d4:	0e 94 4b 2b 	call	0x5696	; 0x5696 <_ZN6I2Cdev9writeByteEhhh>
    69d8:	0c c0       	rjmp	.+24     	; 0x69f2 <_ZN7MPU605024writeDMPConfigurationSetEPKhjb+0x132>
    69da:	11 23       	and	r17, r17
    69dc:	a9 f0       	breq	.+42     	; 0x6a08 <_ZN7MPU605024writeDMPConfigurationSetEPKhjb+0x148>
    69de:	c3 01       	movw	r24, r6
    69e0:	0e 94 13 45 	call	0x8a26	; 0x8a26 <free>
    69e4:	80 e0       	ldi	r24, 0x00	; 0
    69e6:	1c c0       	rjmp	.+56     	; 0x6a20 <_ZN7MPU605024writeDMPConfigurationSetEPKhjb+0x160>
    69e8:	41 14       	cp	r4, r1
    69ea:	51 04       	cpc	r5, r1
    69ec:	09 f0       	breq	.+2      	; 0x69f0 <_ZN7MPU605024writeDMPConfigurationSetEPKhjb+0x130>
    69ee:	87 cf       	rjmp	.-242    	; 0x68fe <_ZN7MPU605024writeDMPConfigurationSetEPKhjb+0x3e>
    69f0:	04 c0       	rjmp	.+8      	; 0x69fa <_ZN7MPU605024writeDMPConfigurationSetEPKhjb+0x13a>
    69f2:	84 14       	cp	r8, r4
    69f4:	95 04       	cpc	r9, r5
    69f6:	08 f4       	brcc	.+2      	; 0x69fa <_ZN7MPU605024writeDMPConfigurationSetEPKhjb+0x13a>
    69f8:	84 cf       	rjmp	.-248    	; 0x6902 <_ZN7MPU605024writeDMPConfigurationSetEPKhjb+0x42>
    69fa:	11 23       	and	r17, r17
    69fc:	39 f0       	breq	.+14     	; 0x6a0c <_ZN7MPU605024writeDMPConfigurationSetEPKhjb+0x14c>
    69fe:	c3 01       	movw	r24, r6
    6a00:	0e 94 13 45 	call	0x8a26	; 0x8a26 <free>
    6a04:	81 e0       	ldi	r24, 0x01	; 1
    6a06:	0c c0       	rjmp	.+24     	; 0x6a20 <_ZN7MPU605024writeDMPConfigurationSetEPKhjb+0x160>
    6a08:	80 e0       	ldi	r24, 0x00	; 0
    6a0a:	0a c0       	rjmp	.+20     	; 0x6a20 <_ZN7MPU605024writeDMPConfigurationSetEPKhjb+0x160>
    6a0c:	81 e0       	ldi	r24, 0x01	; 1
    6a0e:	08 c0       	rjmp	.+16     	; 0x6a20 <_ZN7MPU605024writeDMPConfigurationSetEPKhjb+0x160>
    6a10:	3e 01       	movw	r6, r28
    6a12:	6a 0c       	add	r6, r10
    6a14:	7b 1c       	adc	r7, r11
    6a16:	bb cf       	rjmp	.-138    	; 0x698e <_ZN7MPU605024writeDMPConfigurationSetEPKhjb+0xce>
    6a18:	03 30       	cpi	r16, 0x03	; 3
    6a1a:	08 f4       	brcc	.+2      	; 0x6a1e <_ZN7MPU605024writeDMPConfigurationSetEPKhjb+0x15e>
    6a1c:	9d cf       	rjmp	.-198    	; 0x6958 <_ZN7MPU605024writeDMPConfigurationSetEPKhjb+0x98>
    6a1e:	95 cf       	rjmp	.-214    	; 0x694a <_ZN7MPU605024writeDMPConfigurationSetEPKhjb+0x8a>
    6a20:	df 91       	pop	r29
    6a22:	cf 91       	pop	r28
    6a24:	1f 91       	pop	r17
    6a26:	0f 91       	pop	r16
    6a28:	ff 90       	pop	r15
    6a2a:	ef 90       	pop	r14
    6a2c:	cf 90       	pop	r12
    6a2e:	bf 90       	pop	r11
    6a30:	af 90       	pop	r10
    6a32:	9f 90       	pop	r9
    6a34:	8f 90       	pop	r8
    6a36:	7f 90       	pop	r7
    6a38:	6f 90       	pop	r6
    6a3a:	5f 90       	pop	r5
    6a3c:	4f 90       	pop	r4
    6a3e:	3f 90       	pop	r3
    6a40:	2f 90       	pop	r2
    6a42:	08 95       	ret

00006a44 <_ZN7MPU605028writeProgDMPConfigurationSetEPKhj>:
    6a44:	21 e0       	ldi	r18, 0x01	; 1
    6a46:	3c cf       	rjmp	.-392    	; 0x68c0 <_ZN7MPU605024writeDMPConfigurationSetEPKhjb>

00006a48 <_ZN7MPU605013setDMPConfig1Eh>:
    6a48:	46 2f       	mov	r20, r22
    6a4a:	60 e7       	ldi	r22, 0x70	; 112
    6a4c:	fc 01       	movw	r30, r24
    6a4e:	80 81       	ld	r24, Z
    6a50:	0c 94 4b 2b 	jmp	0x5696	; 0x5696 <_ZN6I2Cdev9writeByteEhhh>

00006a54 <_ZN7MPU605013setDMPConfig2Eh>:
void MPU6050::setDMPConfig2(uint8_t config) {
    6a54:	46 2f       	mov	r20, r22
    I2Cdev::writeByte(devAddr, MPU6050_RA_DMP_CFG_2, config);
    6a56:	61 e7       	ldi	r22, 0x71	; 113
    6a58:	fc 01       	movw	r30, r24
    6a5a:	80 81       	ld	r24, Z
    6a5c:	0c 94 4b 2b 	jmp	0x5696	; 0x5696 <_ZN6I2Cdev9writeByteEhhh>

00006a60 <_ZN7MPU605013dmpInitializeEv>:
    return 0; // success
}

bool MPU6050::dmpPacketAvailable() {
    return getFIFOCount() >= dmpGetFIFOPacketSize();
}
    6a60:	8f 92       	push	r8
    6a62:	9f 92       	push	r9
    6a64:	af 92       	push	r10
    6a66:	bf 92       	push	r11
    6a68:	cf 92       	push	r12
    6a6a:	ef 92       	push	r14
    6a6c:	0f 93       	push	r16
    6a6e:	1f 93       	push	r17
    6a70:	cf 93       	push	r28
    6a72:	df 93       	push	r29
    6a74:	cd b7       	in	r28, 0x3d	; 61
    6a76:	de b7       	in	r29, 0x3e	; 62
    6a78:	c0 59       	subi	r28, 0x90	; 144
    6a7a:	d1 09       	sbc	r29, r1
    6a7c:	0f b6       	in	r0, 0x3f	; 63
    6a7e:	f8 94       	cli
    6a80:	de bf       	out	0x3e, r29	; 62
    6a82:	0f be       	out	0x3f, r0	; 63
    6a84:	cd bf       	out	0x3d, r28	; 61
    6a86:	5c 01       	movw	r10, r24
    6a88:	ac dc       	rcall	.-1704   	; 0x63e2 <_ZN7MPU60505resetEv>
    6a8a:	2f ef       	ldi	r18, 0xFF	; 255
    6a8c:	86 e7       	ldi	r24, 0x76	; 118
    6a8e:	91 e0       	ldi	r25, 0x01	; 1
    6a90:	21 50       	subi	r18, 0x01	; 1
    6a92:	80 40       	sbci	r24, 0x00	; 0
    6a94:	90 40       	sbci	r25, 0x00	; 0
    6a96:	e1 f7       	brne	.-8      	; 0x6a90 <_ZN7MPU605013dmpInitializeEv+0x30>
    6a98:	00 c0       	rjmp	.+0      	; 0x6a9a <_ZN7MPU605013dmpInitializeEv+0x3a>
    6a9a:	00 00       	nop
    6a9c:	60 e0       	ldi	r22, 0x00	; 0
    6a9e:	c5 01       	movw	r24, r10
    6aa0:	a6 dc       	rcall	.-1716   	; 0x63ee <_ZN7MPU605015setSleepEnabledEb>
    6aa2:	21 e0       	ldi	r18, 0x01	; 1
    6aa4:	41 e0       	ldi	r20, 0x01	; 1
    6aa6:	60 e1       	ldi	r22, 0x10	; 16
    6aa8:	c5 01       	movw	r24, r10
    6aaa:	92 dd       	rcall	.-1244   	; 0x65d0 <_ZN7MPU605013setMemoryBankEhbb>
    6aac:	66 e0       	ldi	r22, 0x06	; 6
    6aae:	c5 01       	movw	r24, r10
    6ab0:	99 dd       	rcall	.-1230   	; 0x65e4 <_ZN7MPU605021setMemoryStartAddressEh>
    6ab2:	c5 01       	movw	r24, r10
    6ab4:	9c dd       	rcall	.-1224   	; 0x65ee <_ZN7MPU605014readMemoryByteEv>
    6ab6:	20 e0       	ldi	r18, 0x00	; 0
    6ab8:	40 e0       	ldi	r20, 0x00	; 0
    6aba:	60 e0       	ldi	r22, 0x00	; 0
    6abc:	c5 01       	movw	r24, r10
    6abe:	88 dd       	rcall	.-1264   	; 0x65d0 <_ZN7MPU605013setMemoryBankEhbb>
    6ac0:	c5 01       	movw	r24, r10
    6ac2:	d9 dc       	rcall	.-1614   	; 0x6476 <_ZN7MPU605015getOTPBankValidEv>
    6ac4:	c5 01       	movw	r24, r10
    6ac6:	f3 dc       	rcall	.-1562   	; 0x64ae <_ZN7MPU605016getXGyroOffsetTCEv>
    6ac8:	18 2f       	mov	r17, r24
    6aca:	c5 01       	movw	r24, r10
    6acc:	15 dd       	rcall	.-1494   	; 0x64f8 <_ZN7MPU605016getYGyroOffsetTCEv>
    6ace:	88 2e       	mov	r8, r24
    6ad0:	c5 01       	movw	r24, r10
    6ad2:	38 dd       	rcall	.-1424   	; 0x6544 <_ZN7MPU605016getZGyroOffsetTCEv>
    6ad4:	98 2e       	mov	r9, r24
    6ad6:	4f e7       	ldi	r20, 0x7F	; 127
    6ad8:	60 e0       	ldi	r22, 0x00	; 0
    6ada:	c5 01       	movw	r24, r10
    6adc:	4a dc       	rcall	.-1900   	; 0x6372 <_ZN7MPU605015setSlaveAddressEhh>
    6ade:	60 e0       	ldi	r22, 0x00	; 0
    6ae0:	c5 01       	movw	r24, r10
    6ae2:	6d dc       	rcall	.-1830   	; 0x63be <_ZN7MPU605023setI2CMasterModeEnabledEb>
    6ae4:	48 e6       	ldi	r20, 0x68	; 104
    6ae6:	60 e0       	ldi	r22, 0x00	; 0
    6ae8:	c5 01       	movw	r24, r10
    6aea:	43 dc       	rcall	.-1914   	; 0x6372 <_ZN7MPU605015setSlaveAddressEhh>
    6aec:	c5 01       	movw	r24, r10
    6aee:	73 dc       	rcall	.-1818   	; 0x63d6 <_ZN7MPU605014resetI2CMasterEv>
    6af0:	ef ef       	ldi	r30, 0xFF	; 255
    6af2:	f9 ef       	ldi	r31, 0xF9	; 249
    6af4:	20 e0       	ldi	r18, 0x00	; 0
    6af6:	e1 50       	subi	r30, 0x01	; 1
    6af8:	f0 40       	sbci	r31, 0x00	; 0
    6afa:	20 40       	sbci	r18, 0x00	; 0
    6afc:	e1 f7       	brne	.-8      	; 0x6af6 <_ZN7MPU605013dmpInitializeEv+0x96>
    6afe:	00 c0       	rjmp	.+0      	; 0x6b00 <_ZN7MPU605013dmpInitializeEv+0xa0>
    6b00:	00 00       	nop
    6b02:	ee 24       	eor	r14, r14
    6b04:	e3 94       	inc	r14
    6b06:	00 e0       	ldi	r16, 0x00	; 0
    6b08:	20 e0       	ldi	r18, 0x00	; 0
    6b0a:	49 e8       	ldi	r20, 0x89	; 137
    6b0c:	57 e0       	ldi	r21, 0x07	; 7
    6b0e:	63 e1       	ldi	r22, 0x13	; 19
    6b10:	71 e0       	ldi	r23, 0x01	; 1
    6b12:	c5 01       	movw	r24, r10
    6b14:	cb de       	rcall	.-618    	; 0x68ac <_ZN7MPU605020writeProgMemoryBlockEPKhjhhb>
    6b16:	88 23       	and	r24, r24
    6b18:	09 f4       	brne	.+2      	; 0x6b1c <_ZN7MPU605013dmpInitializeEv+0xbc>
    6b1a:	e7 c1       	rjmp	.+974    	; 0x6eea <_ZN7MPU605013dmpInitializeEv+0x48a>
    6b1c:	40 ec       	ldi	r20, 0xC0	; 192
    6b1e:	50 e0       	ldi	r21, 0x00	; 0
    6b20:	6c e9       	ldi	r22, 0x9C	; 156
    6b22:	78 e0       	ldi	r23, 0x08	; 8
    6b24:	c5 01       	movw	r24, r10
    6b26:	8e df       	rcall	.-228    	; 0x6a44 <_ZN7MPU605028writeProgDMPConfigurationSetEPKhj>
    6b28:	88 23       	and	r24, r24
    6b2a:	09 f4       	brne	.+2      	; 0x6b2e <_ZN7MPU605013dmpInitializeEv+0xce>
    6b2c:	e0 c1       	rjmp	.+960    	; 0x6eee <_ZN7MPU605013dmpInitializeEv+0x48e>
    6b2e:	63 e0       	ldi	r22, 0x03	; 3
    6b30:	c5 01       	movw	r24, r10
    6b32:	63 dc       	rcall	.-1850   	; 0x63fa <_ZN7MPU605014setClockSourceEh>
    6b34:	62 e1       	ldi	r22, 0x12	; 18
    6b36:	c5 01       	movw	r24, r10
    6b38:	26 dc       	rcall	.-1972   	; 0x6386 <_ZN7MPU605013setIntEnabledEh>
    6b3a:	64 e0       	ldi	r22, 0x04	; 4
    6b3c:	c5 01       	movw	r24, r10
    6b3e:	e2 db       	rcall	.-2108   	; 0x6304 <_ZN7MPU60507setRateEh>
    6b40:	61 e0       	ldi	r22, 0x01	; 1
    6b42:	c5 01       	movw	r24, r10
    6b44:	e4 db       	rcall	.-2104   	; 0x630e <_ZN7MPU605020setExternalFrameSyncEh>
    6b46:	63 e0       	ldi	r22, 0x03	; 3
    6b48:	c5 01       	movw	r24, r10
    6b4a:	eb db       	rcall	.-2090   	; 0x6322 <_ZN7MPU605011setDLPFModeEh>
    6b4c:	63 e0       	ldi	r22, 0x03	; 3
    6b4e:	c5 01       	movw	r24, r10
    6b50:	f2 db       	rcall	.-2076   	; 0x6336 <_ZN7MPU605021setFullScaleGyroRangeEh>
    6b52:	63 e0       	ldi	r22, 0x03	; 3
    6b54:	c5 01       	movw	r24, r10
    6b56:	78 df       	rcall	.-272    	; 0x6a48 <_ZN7MPU605013setDMPConfig1Eh>
    6b58:	60 e0       	ldi	r22, 0x00	; 0
    6b5a:	c5 01       	movw	r24, r10
    6b5c:	7b df       	rcall	.-266    	; 0x6a54 <_ZN7MPU605013setDMPConfig2Eh>
    6b5e:	60 e0       	ldi	r22, 0x00	; 0
    6b60:	c5 01       	movw	r24, r10
    6b62:	9f dc       	rcall	.-1730   	; 0x64a2 <_ZN7MPU605015setOTPBankValidEb>
    6b64:	61 2f       	mov	r22, r17
    6b66:	c5 01       	movw	r24, r10
    6b68:	bd dc       	rcall	.-1670   	; 0x64e4 <_ZN7MPU605016setXGyroOffsetTCEa>
    6b6a:	68 2d       	mov	r22, r8
    6b6c:	c5 01       	movw	r24, r10
    6b6e:	e0 dc       	rcall	.-1600   	; 0x6530 <_ZN7MPU605016setYGyroOffsetTCEa>
    6b70:	69 2d       	mov	r22, r9
    6b72:	c5 01       	movw	r24, r10
    6b74:	03 dd       	rcall	.-1530   	; 0x657c <_ZN7MPU605016setZGyroOffsetTCEa>
    6b76:	81 2c       	mov	r8, r1
    6b78:	91 2c       	mov	r9, r1
    6b7a:	0e c0       	rjmp	.+28     	; 0x6b98 <_ZN7MPU605013dmpInitializeEv+0x138>
    6b7c:	f4 01       	movw	r30, r8
    6b7e:	e4 5a       	subi	r30, 0xA4	; 164
    6b80:	f6 4f       	sbci	r31, 0xF6	; 246
    6b82:	e4 91       	lpm	r30, Z
    6b84:	a1 e8       	ldi	r26, 0x81	; 129
    6b86:	b0 e0       	ldi	r27, 0x00	; 0
    6b88:	ac 0f       	add	r26, r28
    6b8a:	bd 1f       	adc	r27, r29
    6b8c:	a8 0d       	add	r26, r8
    6b8e:	b1 1d       	adc	r27, r1
    6b90:	ec 93       	st	X, r30
    6b92:	8f ef       	ldi	r24, 0xFF	; 255
    6b94:	88 1a       	sub	r8, r24
    6b96:	98 0a       	sbc	r9, r24
    6b98:	93 e0       	ldi	r25, 0x03	; 3
    6b9a:	98 15       	cp	r25, r8
    6b9c:	78 f7       	brcc	.-34     	; 0x6b7c <_ZN7MPU605013dmpInitializeEv+0x11c>
    6b9e:	cd 57       	subi	r28, 0x7D	; 125
    6ba0:	df 4f       	sbci	r29, 0xFF	; 255
    6ba2:	48 81       	ld	r20, Y
    6ba4:	c3 58       	subi	r28, 0x83	; 131
    6ba6:	d0 40       	sbci	r29, 0x00	; 0
    6ba8:	94 01       	movw	r18, r8
    6baa:	33 27       	eor	r19, r19
    6bac:	84 2f       	mov	r24, r20
    6bae:	90 e0       	ldi	r25, 0x00	; 0
    6bb0:	03 96       	adiw	r24, 0x03	; 3
    6bb2:	28 17       	cp	r18, r24
    6bb4:	39 07       	cpc	r19, r25
    6bb6:	14 f3       	brlt	.-60     	; 0x6b7c <_ZN7MPU605013dmpInitializeEv+0x11c>
    6bb8:	61 e8       	ldi	r22, 0x81	; 129
    6bba:	70 e0       	ldi	r23, 0x00	; 0
    6bbc:	6c 0f       	add	r22, r28
    6bbe:	7d 1f       	adc	r23, r29
    6bc0:	6d 5f       	subi	r22, 0xFD	; 253
    6bc2:	7f 4f       	sbci	r23, 0xFF	; 255
    6bc4:	c1 2c       	mov	r12, r1
    6bc6:	ee 24       	eor	r14, r14
    6bc8:	e3 94       	inc	r14
    6bca:	ce 57       	subi	r28, 0x7E	; 126
    6bcc:	df 4f       	sbci	r29, 0xFF	; 255
    6bce:	08 81       	ld	r16, Y
    6bd0:	c2 58       	subi	r28, 0x82	; 130
    6bd2:	d0 40       	sbci	r29, 0x00	; 0
    6bd4:	cf 57       	subi	r28, 0x7F	; 127
    6bd6:	df 4f       	sbci	r29, 0xFF	; 255
    6bd8:	28 81       	ld	r18, Y
    6bda:	c1 58       	subi	r28, 0x81	; 129
    6bdc:	d0 40       	sbci	r29, 0x00	; 0
    6bde:	50 e0       	ldi	r21, 0x00	; 0
    6be0:	c5 01       	movw	r24, r10
    6be2:	80 dd       	rcall	.-1280   	; 0x66e4 <_ZN7MPU605016writeMemoryBlockEPKhjhhbb>
    6be4:	50 e0       	ldi	r21, 0x00	; 0
    6be6:	f4 01       	movw	r30, r8
    6be8:	e4 5a       	subi	r30, 0xA4	; 164
    6bea:	f6 4f       	sbci	r31, 0xF6	; 246
    6bec:	e4 91       	lpm	r30, Z
    6bee:	a1 e8       	ldi	r26, 0x81	; 129
    6bf0:	b0 e0       	ldi	r27, 0x00	; 0
    6bf2:	ac 0f       	add	r26, r28
    6bf4:	bd 1f       	adc	r27, r29
    6bf6:	a5 0f       	add	r26, r21
    6bf8:	b1 1d       	adc	r27, r1
    6bfa:	ec 93       	st	X, r30
    6bfc:	5f 5f       	subi	r21, 0xFF	; 255
    6bfe:	ef ef       	ldi	r30, 0xFF	; 255
    6c00:	8e 1a       	sub	r8, r30
    6c02:	9e 0a       	sbc	r9, r30
    6c04:	54 30       	cpi	r21, 0x04	; 4
    6c06:	78 f3       	brcs	.-34     	; 0x6be6 <_ZN7MPU605013dmpInitializeEv+0x186>
    6c08:	cd 57       	subi	r28, 0x7D	; 125
    6c0a:	df 4f       	sbci	r29, 0xFF	; 255
    6c0c:	48 81       	ld	r20, Y
    6c0e:	c3 58       	subi	r28, 0x83	; 131
    6c10:	d0 40       	sbci	r29, 0x00	; 0
    6c12:	25 2f       	mov	r18, r21
    6c14:	30 e0       	ldi	r19, 0x00	; 0
    6c16:	84 2f       	mov	r24, r20
    6c18:	90 e0       	ldi	r25, 0x00	; 0
    6c1a:	03 96       	adiw	r24, 0x03	; 3
    6c1c:	28 17       	cp	r18, r24
    6c1e:	39 07       	cpc	r19, r25
    6c20:	14 f3       	brlt	.-60     	; 0x6be6 <_ZN7MPU605013dmpInitializeEv+0x186>
    6c22:	61 e8       	ldi	r22, 0x81	; 129
    6c24:	70 e0       	ldi	r23, 0x00	; 0
    6c26:	6c 0f       	add	r22, r28
    6c28:	7d 1f       	adc	r23, r29
    6c2a:	6d 5f       	subi	r22, 0xFD	; 253
    6c2c:	7f 4f       	sbci	r23, 0xFF	; 255
    6c2e:	c1 2c       	mov	r12, r1
    6c30:	ee 24       	eor	r14, r14
    6c32:	e3 94       	inc	r14
    6c34:	ce 57       	subi	r28, 0x7E	; 126
    6c36:	df 4f       	sbci	r29, 0xFF	; 255
    6c38:	08 81       	ld	r16, Y
    6c3a:	c2 58       	subi	r28, 0x82	; 130
    6c3c:	d0 40       	sbci	r29, 0x00	; 0
    6c3e:	cf 57       	subi	r28, 0x7F	; 127
    6c40:	df 4f       	sbci	r29, 0xFF	; 255
    6c42:	28 81       	ld	r18, Y
    6c44:	c1 58       	subi	r28, 0x81	; 129
    6c46:	d0 40       	sbci	r29, 0x00	; 0
    6c48:	50 e0       	ldi	r21, 0x00	; 0
    6c4a:	c5 01       	movw	r24, r10
    6c4c:	4b dd       	rcall	.-1386   	; 0x66e4 <_ZN7MPU605016writeMemoryBlockEPKhjhhbb>
    6c4e:	c5 01       	movw	r24, r10
    6c50:	bc db       	rcall	.-2184   	; 0x63ca <_ZN7MPU60509resetFIFOEv>
    6c52:	c5 01       	movw	r24, r10
    6c54:	dc db       	rcall	.-2120   	; 0x640e <_ZN7MPU605012getFIFOCountEv>
    6c56:	ac 01       	movw	r20, r24
    6c58:	be 01       	movw	r22, r28
    6c5a:	6f 5f       	subi	r22, 0xFF	; 255
    6c5c:	7f 4f       	sbci	r23, 0xFF	; 255
    6c5e:	c5 01       	movw	r24, r10
    6c60:	f3 db       	rcall	.-2074   	; 0x6448 <_ZN7MPU605012getFIFOBytesEPhj>
    6c62:	62 e0       	ldi	r22, 0x02	; 2
    6c64:	c5 01       	movw	r24, r10
    6c66:	71 db       	rcall	.-2334   	; 0x634a <_ZN7MPU605027setMotionDetectionThresholdEh>
    6c68:	6c e9       	ldi	r22, 0x9C	; 156
    6c6a:	c5 01       	movw	r24, r10
    6c6c:	78 db       	rcall	.-2320   	; 0x635e <_ZN7MPU605031setZeroMotionDetectionThresholdEh>
    6c6e:	60 e5       	ldi	r22, 0x50	; 80
    6c70:	c5 01       	movw	r24, r10
    6c72:	70 db       	rcall	.-2336   	; 0x6354 <_ZN7MPU605026setMotionDetectionDurationEh>
    6c74:	60 e0       	ldi	r22, 0x00	; 0
    6c76:	c5 01       	movw	r24, r10
    6c78:	77 db       	rcall	.-2322   	; 0x6368 <_ZN7MPU605030setZeroMotionDetectionDurationEh>
    6c7a:	c5 01       	movw	r24, r10
    6c7c:	a6 db       	rcall	.-2228   	; 0x63ca <_ZN7MPU60509resetFIFOEv>
    6c7e:	61 e0       	ldi	r22, 0x01	; 1
    6c80:	c5 01       	movw	r24, r10
    6c82:	97 db       	rcall	.-2258   	; 0x63b2 <_ZN7MPU605014setFIFOEnabledEb>
    6c84:	61 e0       	ldi	r22, 0x01	; 1
    6c86:	c5 01       	movw	r24, r10
    6c88:	97 dc       	rcall	.-1746   	; 0x65b8 <_ZN7MPU605013setDMPEnabledEb>
    6c8a:	c5 01       	movw	r24, r10
    6c8c:	9b dc       	rcall	.-1738   	; 0x65c4 <_ZN7MPU60508resetDMPEv>
    6c8e:	50 e0       	ldi	r21, 0x00	; 0
    6c90:	f4 01       	movw	r30, r8
    6c92:	e4 5a       	subi	r30, 0xA4	; 164
    6c94:	f6 4f       	sbci	r31, 0xF6	; 246
    6c96:	e4 91       	lpm	r30, Z
    6c98:	a1 e8       	ldi	r26, 0x81	; 129
    6c9a:	b0 e0       	ldi	r27, 0x00	; 0
    6c9c:	ac 0f       	add	r26, r28
    6c9e:	bd 1f       	adc	r27, r29
    6ca0:	a5 0f       	add	r26, r21
    6ca2:	b1 1d       	adc	r27, r1
    6ca4:	ec 93       	st	X, r30
    6ca6:	5f 5f       	subi	r21, 0xFF	; 255
    6ca8:	ff ef       	ldi	r31, 0xFF	; 255
    6caa:	8f 1a       	sub	r8, r31
    6cac:	9f 0a       	sbc	r9, r31
    6cae:	54 30       	cpi	r21, 0x04	; 4
    6cb0:	78 f3       	brcs	.-34     	; 0x6c90 <_ZN7MPU605013dmpInitializeEv+0x230>
    6cb2:	cd 57       	subi	r28, 0x7D	; 125
    6cb4:	df 4f       	sbci	r29, 0xFF	; 255
    6cb6:	48 81       	ld	r20, Y
    6cb8:	c3 58       	subi	r28, 0x83	; 131
    6cba:	d0 40       	sbci	r29, 0x00	; 0
    6cbc:	25 2f       	mov	r18, r21
    6cbe:	30 e0       	ldi	r19, 0x00	; 0
    6cc0:	84 2f       	mov	r24, r20
    6cc2:	90 e0       	ldi	r25, 0x00	; 0
    6cc4:	03 96       	adiw	r24, 0x03	; 3
    6cc6:	28 17       	cp	r18, r24
    6cc8:	39 07       	cpc	r19, r25
    6cca:	14 f3       	brlt	.-60     	; 0x6c90 <_ZN7MPU605013dmpInitializeEv+0x230>
    6ccc:	61 e8       	ldi	r22, 0x81	; 129
    6cce:	70 e0       	ldi	r23, 0x00	; 0
    6cd0:	6c 0f       	add	r22, r28
    6cd2:	7d 1f       	adc	r23, r29
    6cd4:	6d 5f       	subi	r22, 0xFD	; 253
    6cd6:	7f 4f       	sbci	r23, 0xFF	; 255
    6cd8:	c1 2c       	mov	r12, r1
    6cda:	ee 24       	eor	r14, r14
    6cdc:	e3 94       	inc	r14
    6cde:	ce 57       	subi	r28, 0x7E	; 126
    6ce0:	df 4f       	sbci	r29, 0xFF	; 255
    6ce2:	08 81       	ld	r16, Y
    6ce4:	c2 58       	subi	r28, 0x82	; 130
    6ce6:	d0 40       	sbci	r29, 0x00	; 0
    6ce8:	cf 57       	subi	r28, 0x7F	; 127
    6cea:	df 4f       	sbci	r29, 0xFF	; 255
    6cec:	28 81       	ld	r18, Y
    6cee:	c1 58       	subi	r28, 0x81	; 129
    6cf0:	d0 40       	sbci	r29, 0x00	; 0
    6cf2:	50 e0       	ldi	r21, 0x00	; 0
    6cf4:	c5 01       	movw	r24, r10
    6cf6:	f6 dc       	rcall	.-1556   	; 0x66e4 <_ZN7MPU605016writeMemoryBlockEPKhjhhbb>
    6cf8:	50 e0       	ldi	r21, 0x00	; 0
    6cfa:	f4 01       	movw	r30, r8
    6cfc:	e4 5a       	subi	r30, 0xA4	; 164
    6cfe:	f6 4f       	sbci	r31, 0xF6	; 246
    6d00:	e4 91       	lpm	r30, Z
    6d02:	a1 e8       	ldi	r26, 0x81	; 129
    6d04:	b0 e0       	ldi	r27, 0x00	; 0
    6d06:	ac 0f       	add	r26, r28
    6d08:	bd 1f       	adc	r27, r29
    6d0a:	a5 0f       	add	r26, r21
    6d0c:	b1 1d       	adc	r27, r1
    6d0e:	ec 93       	st	X, r30
    6d10:	5f 5f       	subi	r21, 0xFF	; 255
    6d12:	2f ef       	ldi	r18, 0xFF	; 255
    6d14:	82 1a       	sub	r8, r18
    6d16:	92 0a       	sbc	r9, r18
    6d18:	54 30       	cpi	r21, 0x04	; 4
    6d1a:	78 f3       	brcs	.-34     	; 0x6cfa <_ZN7MPU605013dmpInitializeEv+0x29a>
    6d1c:	cd 57       	subi	r28, 0x7D	; 125
    6d1e:	df 4f       	sbci	r29, 0xFF	; 255
    6d20:	48 81       	ld	r20, Y
    6d22:	c3 58       	subi	r28, 0x83	; 131
    6d24:	d0 40       	sbci	r29, 0x00	; 0
    6d26:	25 2f       	mov	r18, r21
    6d28:	30 e0       	ldi	r19, 0x00	; 0
    6d2a:	84 2f       	mov	r24, r20
    6d2c:	90 e0       	ldi	r25, 0x00	; 0
    6d2e:	03 96       	adiw	r24, 0x03	; 3
    6d30:	28 17       	cp	r18, r24
    6d32:	39 07       	cpc	r19, r25
    6d34:	14 f3       	brlt	.-60     	; 0x6cfa <_ZN7MPU605013dmpInitializeEv+0x29a>
    6d36:	61 e8       	ldi	r22, 0x81	; 129
    6d38:	70 e0       	ldi	r23, 0x00	; 0
    6d3a:	6c 0f       	add	r22, r28
    6d3c:	7d 1f       	adc	r23, r29
    6d3e:	6d 5f       	subi	r22, 0xFD	; 253
    6d40:	7f 4f       	sbci	r23, 0xFF	; 255
    6d42:	c1 2c       	mov	r12, r1
    6d44:	ee 24       	eor	r14, r14
    6d46:	e3 94       	inc	r14
    6d48:	ce 57       	subi	r28, 0x7E	; 126
    6d4a:	df 4f       	sbci	r29, 0xFF	; 255
    6d4c:	08 81       	ld	r16, Y
    6d4e:	c2 58       	subi	r28, 0x82	; 130
    6d50:	d0 40       	sbci	r29, 0x00	; 0
    6d52:	cf 57       	subi	r28, 0x7F	; 127
    6d54:	df 4f       	sbci	r29, 0xFF	; 255
    6d56:	28 81       	ld	r18, Y
    6d58:	c1 58       	subi	r28, 0x81	; 129
    6d5a:	d0 40       	sbci	r29, 0x00	; 0
    6d5c:	50 e0       	ldi	r21, 0x00	; 0
    6d5e:	c5 01       	movw	r24, r10
    6d60:	c1 dc       	rcall	.-1662   	; 0x66e4 <_ZN7MPU605016writeMemoryBlockEPKhjhhbb>
    6d62:	50 e0       	ldi	r21, 0x00	; 0
    6d64:	f4 01       	movw	r30, r8
    6d66:	e4 5a       	subi	r30, 0xA4	; 164
    6d68:	f6 4f       	sbci	r31, 0xF6	; 246
    6d6a:	e4 91       	lpm	r30, Z
    6d6c:	a1 e8       	ldi	r26, 0x81	; 129
    6d6e:	b0 e0       	ldi	r27, 0x00	; 0
    6d70:	ac 0f       	add	r26, r28
    6d72:	bd 1f       	adc	r27, r29
    6d74:	a5 0f       	add	r26, r21
    6d76:	b1 1d       	adc	r27, r1
    6d78:	ec 93       	st	X, r30
    6d7a:	5f 5f       	subi	r21, 0xFF	; 255
    6d7c:	8f ef       	ldi	r24, 0xFF	; 255
    6d7e:	88 1a       	sub	r8, r24
    6d80:	98 0a       	sbc	r9, r24
    6d82:	54 30       	cpi	r21, 0x04	; 4
    6d84:	78 f3       	brcs	.-34     	; 0x6d64 <_ZN7MPU605013dmpInitializeEv+0x304>
    6d86:	cd 57       	subi	r28, 0x7D	; 125
    6d88:	df 4f       	sbci	r29, 0xFF	; 255
    6d8a:	48 81       	ld	r20, Y
    6d8c:	c3 58       	subi	r28, 0x83	; 131
    6d8e:	d0 40       	sbci	r29, 0x00	; 0
    6d90:	25 2f       	mov	r18, r21
    6d92:	30 e0       	ldi	r19, 0x00	; 0
    6d94:	84 2f       	mov	r24, r20
    6d96:	90 e0       	ldi	r25, 0x00	; 0
    6d98:	03 96       	adiw	r24, 0x03	; 3
    6d9a:	28 17       	cp	r18, r24
    6d9c:	39 07       	cpc	r19, r25
    6d9e:	14 f3       	brlt	.-60     	; 0x6d64 <_ZN7MPU605013dmpInitializeEv+0x304>
    6da0:	61 e8       	ldi	r22, 0x81	; 129
    6da2:	70 e0       	ldi	r23, 0x00	; 0
    6da4:	6c 0f       	add	r22, r28
    6da6:	7d 1f       	adc	r23, r29
    6da8:	6d 5f       	subi	r22, 0xFD	; 253
    6daa:	7f 4f       	sbci	r23, 0xFF	; 255
    6dac:	c1 2c       	mov	r12, r1
    6dae:	ee 24       	eor	r14, r14
    6db0:	e3 94       	inc	r14
    6db2:	ce 57       	subi	r28, 0x7E	; 126
    6db4:	df 4f       	sbci	r29, 0xFF	; 255
    6db6:	08 81       	ld	r16, Y
    6db8:	c2 58       	subi	r28, 0x82	; 130
    6dba:	d0 40       	sbci	r29, 0x00	; 0
    6dbc:	cf 57       	subi	r28, 0x7F	; 127
    6dbe:	df 4f       	sbci	r29, 0xFF	; 255
    6dc0:	28 81       	ld	r18, Y
    6dc2:	c1 58       	subi	r28, 0x81	; 129
    6dc4:	d0 40       	sbci	r29, 0x00	; 0
    6dc6:	50 e0       	ldi	r21, 0x00	; 0
    6dc8:	c5 01       	movw	r24, r10
    6dca:	8c dc       	rcall	.-1768   	; 0x66e4 <_ZN7MPU605016writeMemoryBlockEPKhjhhbb>
    6dcc:	c5 01       	movw	r24, r10
    6dce:	1f db       	rcall	.-2498   	; 0x640e <_ZN7MPU605012getFIFOCountEv>
    6dd0:	83 30       	cpi	r24, 0x03	; 3
    6dd2:	91 05       	cpc	r25, r1
    6dd4:	d8 f3       	brcs	.-10     	; 0x6dcc <_ZN7MPU605013dmpInitializeEv+0x36c>
    6dd6:	ac 01       	movw	r20, r24
    6dd8:	be 01       	movw	r22, r28
    6dda:	6f 5f       	subi	r22, 0xFF	; 255
    6ddc:	7f 4f       	sbci	r23, 0xFF	; 255
    6dde:	c5 01       	movw	r24, r10
    6de0:	33 db       	rcall	.-2458   	; 0x6448 <_ZN7MPU605012getFIFOBytesEPhj>
    6de2:	c5 01       	movw	r24, r10
    6de4:	d5 da       	rcall	.-2646   	; 0x6390 <_ZN7MPU605012getIntStatusEv>
    6de6:	50 e0       	ldi	r21, 0x00	; 0
    6de8:	f4 01       	movw	r30, r8
    6dea:	e4 5a       	subi	r30, 0xA4	; 164
    6dec:	f6 4f       	sbci	r31, 0xF6	; 246
    6dee:	e4 91       	lpm	r30, Z
    6df0:	a1 e8       	ldi	r26, 0x81	; 129
    6df2:	b0 e0       	ldi	r27, 0x00	; 0
    6df4:	ac 0f       	add	r26, r28
    6df6:	bd 1f       	adc	r27, r29
    6df8:	a5 0f       	add	r26, r21
    6dfa:	b1 1d       	adc	r27, r1
    6dfc:	ec 93       	st	X, r30
    6dfe:	5f 5f       	subi	r21, 0xFF	; 255
    6e00:	9f ef       	ldi	r25, 0xFF	; 255
    6e02:	89 1a       	sub	r8, r25
    6e04:	99 0a       	sbc	r9, r25
    6e06:	54 30       	cpi	r21, 0x04	; 4
    6e08:	78 f3       	brcs	.-34     	; 0x6de8 <_ZN7MPU605013dmpInitializeEv+0x388>
    6e0a:	cd 57       	subi	r28, 0x7D	; 125
    6e0c:	df 4f       	sbci	r29, 0xFF	; 255
    6e0e:	48 81       	ld	r20, Y
    6e10:	c3 58       	subi	r28, 0x83	; 131
    6e12:	d0 40       	sbci	r29, 0x00	; 0
    6e14:	25 2f       	mov	r18, r21
    6e16:	30 e0       	ldi	r19, 0x00	; 0
    6e18:	84 2f       	mov	r24, r20
    6e1a:	90 e0       	ldi	r25, 0x00	; 0
    6e1c:	03 96       	adiw	r24, 0x03	; 3
    6e1e:	28 17       	cp	r18, r24
    6e20:	39 07       	cpc	r19, r25
    6e22:	14 f3       	brlt	.-60     	; 0x6de8 <_ZN7MPU605013dmpInitializeEv+0x388>
    6e24:	61 e8       	ldi	r22, 0x81	; 129
    6e26:	70 e0       	ldi	r23, 0x00	; 0
    6e28:	6c 0f       	add	r22, r28
    6e2a:	7d 1f       	adc	r23, r29
    6e2c:	6d 5f       	subi	r22, 0xFD	; 253
    6e2e:	7f 4f       	sbci	r23, 0xFF	; 255
    6e30:	ce 57       	subi	r28, 0x7E	; 126
    6e32:	df 4f       	sbci	r29, 0xFF	; 255
    6e34:	08 81       	ld	r16, Y
    6e36:	c2 58       	subi	r28, 0x82	; 130
    6e38:	d0 40       	sbci	r29, 0x00	; 0
    6e3a:	cf 57       	subi	r28, 0x7F	; 127
    6e3c:	df 4f       	sbci	r29, 0xFF	; 255
    6e3e:	28 81       	ld	r18, Y
    6e40:	c1 58       	subi	r28, 0x81	; 129
    6e42:	d0 40       	sbci	r29, 0x00	; 0
    6e44:	50 e0       	ldi	r21, 0x00	; 0
    6e46:	c5 01       	movw	r24, r10
    6e48:	e4 db       	rcall	.-2104   	; 0x6612 <_ZN7MPU605015readMemoryBlockEPhjhh>
    6e4a:	c5 01       	movw	r24, r10
    6e4c:	e0 da       	rcall	.-2624   	; 0x640e <_ZN7MPU605012getFIFOCountEv>
    6e4e:	83 30       	cpi	r24, 0x03	; 3
    6e50:	91 05       	cpc	r25, r1
    6e52:	d8 f3       	brcs	.-10     	; 0x6e4a <_ZN7MPU605013dmpInitializeEv+0x3ea>
    6e54:	ac 01       	movw	r20, r24
    6e56:	be 01       	movw	r22, r28
    6e58:	6f 5f       	subi	r22, 0xFF	; 255
    6e5a:	7f 4f       	sbci	r23, 0xFF	; 255
    6e5c:	c5 01       	movw	r24, r10
    6e5e:	f4 da       	rcall	.-2584   	; 0x6448 <_ZN7MPU605012getFIFOBytesEPhj>
    6e60:	c5 01       	movw	r24, r10
    6e62:	96 da       	rcall	.-2772   	; 0x6390 <_ZN7MPU605012getIntStatusEv>
    6e64:	50 e0       	ldi	r21, 0x00	; 0
    6e66:	f4 01       	movw	r30, r8
    6e68:	e4 5a       	subi	r30, 0xA4	; 164
    6e6a:	f6 4f       	sbci	r31, 0xF6	; 246
    6e6c:	e4 91       	lpm	r30, Z
    6e6e:	a1 e8       	ldi	r26, 0x81	; 129
    6e70:	b0 e0       	ldi	r27, 0x00	; 0
    6e72:	ac 0f       	add	r26, r28
    6e74:	bd 1f       	adc	r27, r29
    6e76:	a5 0f       	add	r26, r21
    6e78:	b1 1d       	adc	r27, r1
    6e7a:	ec 93       	st	X, r30
    6e7c:	5f 5f       	subi	r21, 0xFF	; 255
    6e7e:	ef ef       	ldi	r30, 0xFF	; 255
    6e80:	8e 1a       	sub	r8, r30
    6e82:	9e 0a       	sbc	r9, r30
    6e84:	54 30       	cpi	r21, 0x04	; 4
    6e86:	78 f3       	brcs	.-34     	; 0x6e66 <_ZN7MPU605013dmpInitializeEv+0x406>
    6e88:	cd 57       	subi	r28, 0x7D	; 125
    6e8a:	df 4f       	sbci	r29, 0xFF	; 255
    6e8c:	48 81       	ld	r20, Y
    6e8e:	c3 58       	subi	r28, 0x83	; 131
    6e90:	d0 40       	sbci	r29, 0x00	; 0
    6e92:	25 2f       	mov	r18, r21
    6e94:	30 e0       	ldi	r19, 0x00	; 0
    6e96:	84 2f       	mov	r24, r20
    6e98:	90 e0       	ldi	r25, 0x00	; 0
    6e9a:	03 96       	adiw	r24, 0x03	; 3
    6e9c:	28 17       	cp	r18, r24
    6e9e:	39 07       	cpc	r19, r25
    6ea0:	14 f3       	brlt	.-60     	; 0x6e66 <_ZN7MPU605013dmpInitializeEv+0x406>
    6ea2:	61 e8       	ldi	r22, 0x81	; 129
    6ea4:	70 e0       	ldi	r23, 0x00	; 0
    6ea6:	6c 0f       	add	r22, r28
    6ea8:	7d 1f       	adc	r23, r29
    6eaa:	6d 5f       	subi	r22, 0xFD	; 253
    6eac:	7f 4f       	sbci	r23, 0xFF	; 255
    6eae:	c1 2c       	mov	r12, r1
    6eb0:	ee 24       	eor	r14, r14
    6eb2:	e3 94       	inc	r14
    6eb4:	ce 57       	subi	r28, 0x7E	; 126
    6eb6:	df 4f       	sbci	r29, 0xFF	; 255
    6eb8:	08 81       	ld	r16, Y
    6eba:	c2 58       	subi	r28, 0x82	; 130
    6ebc:	d0 40       	sbci	r29, 0x00	; 0
    6ebe:	cf 57       	subi	r28, 0x7F	; 127
    6ec0:	df 4f       	sbci	r29, 0xFF	; 255
    6ec2:	28 81       	ld	r18, Y
    6ec4:	c1 58       	subi	r28, 0x81	; 129
    6ec6:	d0 40       	sbci	r29, 0x00	; 0
    6ec8:	50 e0       	ldi	r21, 0x00	; 0
    6eca:	c5 01       	movw	r24, r10
    6ecc:	0b dc       	rcall	.-2026   	; 0x66e4 <_ZN7MPU605016writeMemoryBlockEPKhjhhbb>
    6ece:	60 e0       	ldi	r22, 0x00	; 0
    6ed0:	c5 01       	movw	r24, r10
    6ed2:	72 db       	rcall	.-2332   	; 0x65b8 <_ZN7MPU605013setDMPEnabledEb>
    6ed4:	8a e2       	ldi	r24, 0x2A	; 42
    6ed6:	90 e0       	ldi	r25, 0x00	; 0
    6ed8:	f5 01       	movw	r30, r10
    6eda:	93 83       	std	Z+3, r25	; 0x03
    6edc:	82 83       	std	Z+2, r24	; 0x02
    6ede:	c5 01       	movw	r24, r10
    6ee0:	74 da       	rcall	.-2840   	; 0x63ca <_ZN7MPU60509resetFIFOEv>
    6ee2:	c5 01       	movw	r24, r10
    6ee4:	55 da       	rcall	.-2902   	; 0x6390 <_ZN7MPU605012getIntStatusEv>
    6ee6:	80 e0       	ldi	r24, 0x00	; 0
    6ee8:	03 c0       	rjmp	.+6      	; 0x6ef0 <_ZN7MPU605013dmpInitializeEv+0x490>
    6eea:	81 e0       	ldi	r24, 0x01	; 1
    6eec:	01 c0       	rjmp	.+2      	; 0x6ef0 <_ZN7MPU605013dmpInitializeEv+0x490>
    6eee:	82 e0       	ldi	r24, 0x02	; 2
    6ef0:	c0 57       	subi	r28, 0x70	; 112
    6ef2:	df 4f       	sbci	r29, 0xFF	; 255
    6ef4:	0f b6       	in	r0, 0x3f	; 63
    6ef6:	f8 94       	cli
    6ef8:	de bf       	out	0x3e, r29	; 62
    6efa:	0f be       	out	0x3f, r0	; 63
    6efc:	cd bf       	out	0x3d, r28	; 61
    6efe:	df 91       	pop	r29
    6f00:	cf 91       	pop	r28
    6f02:	1f 91       	pop	r17
    6f04:	0f 91       	pop	r16
    6f06:	ef 90       	pop	r14
    6f08:	cf 90       	pop	r12
    6f0a:	bf 90       	pop	r11
    6f0c:	af 90       	pop	r10
    6f0e:	9f 90       	pop	r9
    6f10:	8f 90       	pop	r8
    6f12:	08 95       	ret

00006f14 <_ZN7MPU605016dmpGetQuaternionEPiPKh>:
    6f14:	cf 93       	push	r28
    6f16:	df 93       	push	r29
    6f18:	db 01       	movw	r26, r22
    6f1a:	fa 01       	movw	r30, r20
    6f1c:	30 97       	sbiw	r30, 0x00	; 0
    6f1e:	19 f4       	brne	.+6      	; 0x6f26 <_ZN7MPU605016dmpGetQuaternionEPiPKh+0x12>
    6f20:	ec 01       	movw	r28, r24
    6f22:	e8 81       	ld	r30, Y
    6f24:	f9 81       	ldd	r31, Y+1	; 0x01
    6f26:	90 81       	ld	r25, Z
    6f28:	80 e0       	ldi	r24, 0x00	; 0
    6f2a:	21 81       	ldd	r18, Z+1	; 0x01
    6f2c:	82 0f       	add	r24, r18
    6f2e:	91 1d       	adc	r25, r1
    6f30:	11 96       	adiw	r26, 0x01	; 1
    6f32:	9c 93       	st	X, r25
    6f34:	8e 93       	st	-X, r24
    6f36:	94 81       	ldd	r25, Z+4	; 0x04
    6f38:	80 e0       	ldi	r24, 0x00	; 0
    6f3a:	25 81       	ldd	r18, Z+5	; 0x05
    6f3c:	82 0f       	add	r24, r18
    6f3e:	91 1d       	adc	r25, r1
    6f40:	13 96       	adiw	r26, 0x03	; 3
    6f42:	9c 93       	st	X, r25
    6f44:	8e 93       	st	-X, r24
    6f46:	12 97       	sbiw	r26, 0x02	; 2
    6f48:	90 85       	ldd	r25, Z+8	; 0x08
    6f4a:	80 e0       	ldi	r24, 0x00	; 0
    6f4c:	21 85       	ldd	r18, Z+9	; 0x09
    6f4e:	82 0f       	add	r24, r18
    6f50:	91 1d       	adc	r25, r1
    6f52:	15 96       	adiw	r26, 0x05	; 5
    6f54:	9c 93       	st	X, r25
    6f56:	8e 93       	st	-X, r24
    6f58:	14 97       	sbiw	r26, 0x04	; 4
    6f5a:	94 85       	ldd	r25, Z+12	; 0x0c
    6f5c:	80 e0       	ldi	r24, 0x00	; 0
    6f5e:	25 85       	ldd	r18, Z+13	; 0x0d
    6f60:	82 0f       	add	r24, r18
    6f62:	91 1d       	adc	r25, r1
    6f64:	17 96       	adiw	r26, 0x07	; 7
    6f66:	9c 93       	st	X, r25
    6f68:	8e 93       	st	-X, r24
    6f6a:	16 97       	sbiw	r26, 0x06	; 6
    6f6c:	80 e0       	ldi	r24, 0x00	; 0
    6f6e:	df 91       	pop	r29
    6f70:	cf 91       	pop	r28
    6f72:	08 95       	ret

00006f74 <_ZN7MPU605016dmpGetQuaternionEP10QuaternionPKh>:
    6f74:	ff 92       	push	r15
    6f76:	0f 93       	push	r16
    6f78:	1f 93       	push	r17
    6f7a:	cf 93       	push	r28
    6f7c:	df 93       	push	r29
    6f7e:	cd b7       	in	r28, 0x3d	; 61
    6f80:	de b7       	in	r29, 0x3e	; 62
    6f82:	28 97       	sbiw	r28, 0x08	; 8
    6f84:	0f b6       	in	r0, 0x3f	; 63
    6f86:	f8 94       	cli
    6f88:	de bf       	out	0x3e, r29	; 62
    6f8a:	0f be       	out	0x3f, r0	; 63
    6f8c:	cd bf       	out	0x3d, r28	; 61
    6f8e:	8b 01       	movw	r16, r22
    6f90:	be 01       	movw	r22, r28
    6f92:	6f 5f       	subi	r22, 0xFF	; 255
    6f94:	7f 4f       	sbci	r23, 0xFF	; 255
    6f96:	be df       	rcall	.-132    	; 0x6f14 <_ZN7MPU605016dmpGetQuaternionEPiPKh>
    6f98:	f8 2e       	mov	r15, r24
    6f9a:	81 11       	cpse	r24, r1
    6f9c:	4c c0       	rjmp	.+152    	; 0x7036 <_ZN7MPU605016dmpGetQuaternionEP10QuaternionPKh+0xc2>
    6f9e:	69 81       	ldd	r22, Y+1	; 0x01
    6fa0:	7a 81       	ldd	r23, Y+2	; 0x02
    6fa2:	88 27       	eor	r24, r24
    6fa4:	77 fd       	sbrc	r23, 7
    6fa6:	80 95       	com	r24
    6fa8:	98 2f       	mov	r25, r24
    6faa:	0e 94 c2 41 	call	0x8384	; 0x8384 <__floatsisf>
    6fae:	20 e0       	ldi	r18, 0x00	; 0
    6fb0:	30 e0       	ldi	r19, 0x00	; 0
    6fb2:	40 e8       	ldi	r20, 0x80	; 128
    6fb4:	58 e3       	ldi	r21, 0x38	; 56
    6fb6:	0e 94 82 43 	call	0x8704	; 0x8704 <__mulsf3>
    6fba:	f8 01       	movw	r30, r16
    6fbc:	60 83       	st	Z, r22
    6fbe:	71 83       	std	Z+1, r23	; 0x01
    6fc0:	82 83       	std	Z+2, r24	; 0x02
    6fc2:	93 83       	std	Z+3, r25	; 0x03
    6fc4:	6b 81       	ldd	r22, Y+3	; 0x03
    6fc6:	7c 81       	ldd	r23, Y+4	; 0x04
    6fc8:	88 27       	eor	r24, r24
    6fca:	77 fd       	sbrc	r23, 7
    6fcc:	80 95       	com	r24
    6fce:	98 2f       	mov	r25, r24
    6fd0:	0e 94 c2 41 	call	0x8384	; 0x8384 <__floatsisf>
    6fd4:	20 e0       	ldi	r18, 0x00	; 0
    6fd6:	30 e0       	ldi	r19, 0x00	; 0
    6fd8:	40 e8       	ldi	r20, 0x80	; 128
    6fda:	58 e3       	ldi	r21, 0x38	; 56
    6fdc:	0e 94 82 43 	call	0x8704	; 0x8704 <__mulsf3>
    6fe0:	f8 01       	movw	r30, r16
    6fe2:	64 83       	std	Z+4, r22	; 0x04
    6fe4:	75 83       	std	Z+5, r23	; 0x05
    6fe6:	86 83       	std	Z+6, r24	; 0x06
    6fe8:	97 83       	std	Z+7, r25	; 0x07
    6fea:	6d 81       	ldd	r22, Y+5	; 0x05
    6fec:	7e 81       	ldd	r23, Y+6	; 0x06
    6fee:	88 27       	eor	r24, r24
    6ff0:	77 fd       	sbrc	r23, 7
    6ff2:	80 95       	com	r24
    6ff4:	98 2f       	mov	r25, r24
    6ff6:	0e 94 c2 41 	call	0x8384	; 0x8384 <__floatsisf>
    6ffa:	20 e0       	ldi	r18, 0x00	; 0
    6ffc:	30 e0       	ldi	r19, 0x00	; 0
    6ffe:	40 e8       	ldi	r20, 0x80	; 128
    7000:	58 e3       	ldi	r21, 0x38	; 56
    7002:	0e 94 82 43 	call	0x8704	; 0x8704 <__mulsf3>
    7006:	f8 01       	movw	r30, r16
    7008:	60 87       	std	Z+8, r22	; 0x08
    700a:	71 87       	std	Z+9, r23	; 0x09
    700c:	82 87       	std	Z+10, r24	; 0x0a
    700e:	93 87       	std	Z+11, r25	; 0x0b
    7010:	6f 81       	ldd	r22, Y+7	; 0x07
    7012:	78 85       	ldd	r23, Y+8	; 0x08
    7014:	88 27       	eor	r24, r24
    7016:	77 fd       	sbrc	r23, 7
    7018:	80 95       	com	r24
    701a:	98 2f       	mov	r25, r24
    701c:	0e 94 c2 41 	call	0x8384	; 0x8384 <__floatsisf>
    7020:	20 e0       	ldi	r18, 0x00	; 0
    7022:	30 e0       	ldi	r19, 0x00	; 0
    7024:	40 e8       	ldi	r20, 0x80	; 128
    7026:	58 e3       	ldi	r21, 0x38	; 56
    7028:	0e 94 82 43 	call	0x8704	; 0x8704 <__mulsf3>
    702c:	f8 01       	movw	r30, r16
    702e:	64 87       	std	Z+12, r22	; 0x0c
    7030:	75 87       	std	Z+13, r23	; 0x0d
    7032:	86 87       	std	Z+14, r24	; 0x0e
    7034:	97 87       	std	Z+15, r25	; 0x0f
    7036:	8f 2d       	mov	r24, r15
    7038:	28 96       	adiw	r28, 0x08	; 8
    703a:	0f b6       	in	r0, 0x3f	; 63
    703c:	f8 94       	cli
    703e:	de bf       	out	0x3e, r29	; 62
    7040:	0f be       	out	0x3f, r0	; 63
    7042:	cd bf       	out	0x3d, r28	; 61
    7044:	df 91       	pop	r29
    7046:	cf 91       	pop	r28
    7048:	1f 91       	pop	r17
    704a:	0f 91       	pop	r16
    704c:	ff 90       	pop	r15
    704e:	08 95       	ret

00007050 <_ZN7MPU605013dmpGetGravityEP11VectorFloatP10Quaternion>:
    7050:	2f 92       	push	r2
    7052:	3f 92       	push	r3
    7054:	4f 92       	push	r4
    7056:	5f 92       	push	r5
    7058:	6f 92       	push	r6
    705a:	7f 92       	push	r7
    705c:	8f 92       	push	r8
    705e:	9f 92       	push	r9
    7060:	af 92       	push	r10
    7062:	bf 92       	push	r11
    7064:	cf 92       	push	r12
    7066:	df 92       	push	r13
    7068:	ef 92       	push	r14
    706a:	ff 92       	push	r15
    706c:	0f 93       	push	r16
    706e:	1f 93       	push	r17
    7070:	cf 93       	push	r28
    7072:	df 93       	push	r29
    7074:	00 d0       	rcall	.+0      	; 0x7076 <_ZN7MPU605013dmpGetGravityEP11VectorFloatP10Quaternion+0x26>
    7076:	00 d0       	rcall	.+0      	; 0x7078 <_ZN7MPU605013dmpGetGravityEP11VectorFloatP10Quaternion+0x28>
    7078:	cd b7       	in	r28, 0x3d	; 61
    707a:	de b7       	in	r29, 0x3e	; 62
    707c:	8b 01       	movw	r16, r22
    707e:	1a 01       	movw	r2, r20
    7080:	fa 01       	movw	r30, r20
    7082:	24 85       	ldd	r18, Z+12	; 0x0c
    7084:	35 85       	ldd	r19, Z+13	; 0x0d
    7086:	46 85       	ldd	r20, Z+14	; 0x0e
    7088:	57 85       	ldd	r21, Z+15	; 0x0f
    708a:	64 81       	ldd	r22, Z+4	; 0x04
    708c:	75 81       	ldd	r23, Z+5	; 0x05
    708e:	86 81       	ldd	r24, Z+6	; 0x06
    7090:	97 81       	ldd	r25, Z+7	; 0x07
    7092:	0e 94 82 43 	call	0x8704	; 0x8704 <__mulsf3>
    7096:	6b 01       	movw	r12, r22
    7098:	7c 01       	movw	r14, r24
    709a:	f1 01       	movw	r30, r2
    709c:	20 85       	ldd	r18, Z+8	; 0x08
    709e:	31 85       	ldd	r19, Z+9	; 0x09
    70a0:	42 85       	ldd	r20, Z+10	; 0x0a
    70a2:	53 85       	ldd	r21, Z+11	; 0x0b
    70a4:	60 81       	ld	r22, Z
    70a6:	71 81       	ldd	r23, Z+1	; 0x01
    70a8:	82 81       	ldd	r24, Z+2	; 0x02
    70aa:	93 81       	ldd	r25, Z+3	; 0x03
    70ac:	0e 94 82 43 	call	0x8704	; 0x8704 <__mulsf3>
    70b0:	9b 01       	movw	r18, r22
    70b2:	ac 01       	movw	r20, r24
    70b4:	c7 01       	movw	r24, r14
    70b6:	b6 01       	movw	r22, r12
    70b8:	e5 d7       	rcall	.+4042   	; 0x8084 <__subsf3>
    70ba:	9b 01       	movw	r18, r22
    70bc:	ac 01       	movw	r20, r24
    70be:	e3 d7       	rcall	.+4038   	; 0x8086 <__addsf3>
    70c0:	f8 01       	movw	r30, r16
    70c2:	60 83       	st	Z, r22
    70c4:	71 83       	std	Z+1, r23	; 0x01
    70c6:	82 83       	std	Z+2, r24	; 0x02
    70c8:	93 83       	std	Z+3, r25	; 0x03
    70ca:	f1 01       	movw	r30, r2
    70cc:	24 81       	ldd	r18, Z+4	; 0x04
    70ce:	35 81       	ldd	r19, Z+5	; 0x05
    70d0:	46 81       	ldd	r20, Z+6	; 0x06
    70d2:	57 81       	ldd	r21, Z+7	; 0x07
    70d4:	60 81       	ld	r22, Z
    70d6:	71 81       	ldd	r23, Z+1	; 0x01
    70d8:	82 81       	ldd	r24, Z+2	; 0x02
    70da:	93 81       	ldd	r25, Z+3	; 0x03
    70dc:	0e 94 82 43 	call	0x8704	; 0x8704 <__mulsf3>
    70e0:	6b 01       	movw	r12, r22
    70e2:	7c 01       	movw	r14, r24
    70e4:	f1 01       	movw	r30, r2
    70e6:	24 85       	ldd	r18, Z+12	; 0x0c
    70e8:	35 85       	ldd	r19, Z+13	; 0x0d
    70ea:	46 85       	ldd	r20, Z+14	; 0x0e
    70ec:	57 85       	ldd	r21, Z+15	; 0x0f
    70ee:	60 85       	ldd	r22, Z+8	; 0x08
    70f0:	71 85       	ldd	r23, Z+9	; 0x09
    70f2:	82 85       	ldd	r24, Z+10	; 0x0a
    70f4:	93 85       	ldd	r25, Z+11	; 0x0b
    70f6:	0e 94 82 43 	call	0x8704	; 0x8704 <__mulsf3>
    70fa:	9b 01       	movw	r18, r22
    70fc:	ac 01       	movw	r20, r24
    70fe:	c7 01       	movw	r24, r14
    7100:	b6 01       	movw	r22, r12
    7102:	c1 d7       	rcall	.+3970   	; 0x8086 <__addsf3>
    7104:	9b 01       	movw	r18, r22
    7106:	ac 01       	movw	r20, r24
    7108:	be d7       	rcall	.+3964   	; 0x8086 <__addsf3>
    710a:	f8 01       	movw	r30, r16
    710c:	64 83       	std	Z+4, r22	; 0x04
    710e:	75 83       	std	Z+5, r23	; 0x05
    7110:	86 83       	std	Z+6, r24	; 0x06
    7112:	97 83       	std	Z+7, r25	; 0x07
    7114:	f1 01       	movw	r30, r2
    7116:	60 81       	ld	r22, Z
    7118:	71 81       	ldd	r23, Z+1	; 0x01
    711a:	82 81       	ldd	r24, Z+2	; 0x02
    711c:	93 81       	ldd	r25, Z+3	; 0x03
    711e:	44 80       	ldd	r4, Z+4	; 0x04
    7120:	55 80       	ldd	r5, Z+5	; 0x05
    7122:	66 80       	ldd	r6, Z+6	; 0x06
    7124:	77 80       	ldd	r7, Z+7	; 0x07
    7126:	80 84       	ldd	r8, Z+8	; 0x08
    7128:	91 84       	ldd	r9, Z+9	; 0x09
    712a:	a2 84       	ldd	r10, Z+10	; 0x0a
    712c:	b3 84       	ldd	r11, Z+11	; 0x0b
    712e:	c4 84       	ldd	r12, Z+12	; 0x0c
    7130:	d5 84       	ldd	r13, Z+13	; 0x0d
    7132:	e6 84       	ldd	r14, Z+14	; 0x0e
    7134:	f7 84       	ldd	r15, Z+15	; 0x0f
    7136:	9b 01       	movw	r18, r22
    7138:	ac 01       	movw	r20, r24
    713a:	0e 94 82 43 	call	0x8704	; 0x8704 <__mulsf3>
    713e:	69 83       	std	Y+1, r22	; 0x01
    7140:	7a 83       	std	Y+2, r23	; 0x02
    7142:	8b 83       	std	Y+3, r24	; 0x03
    7144:	9c 83       	std	Y+4, r25	; 0x04
    7146:	a3 01       	movw	r20, r6
    7148:	92 01       	movw	r18, r4
    714a:	c3 01       	movw	r24, r6
    714c:	b2 01       	movw	r22, r4
    714e:	0e 94 82 43 	call	0x8704	; 0x8704 <__mulsf3>
    7152:	9b 01       	movw	r18, r22
    7154:	ac 01       	movw	r20, r24
    7156:	69 81       	ldd	r22, Y+1	; 0x01
    7158:	7a 81       	ldd	r23, Y+2	; 0x02
    715a:	8b 81       	ldd	r24, Y+3	; 0x03
    715c:	9c 81       	ldd	r25, Y+4	; 0x04
    715e:	92 d7       	rcall	.+3876   	; 0x8084 <__subsf3>
    7160:	2b 01       	movw	r4, r22
    7162:	3c 01       	movw	r6, r24
    7164:	a5 01       	movw	r20, r10
    7166:	94 01       	movw	r18, r8
    7168:	c5 01       	movw	r24, r10
    716a:	b4 01       	movw	r22, r8
    716c:	0e 94 82 43 	call	0x8704	; 0x8704 <__mulsf3>
    7170:	9b 01       	movw	r18, r22
    7172:	ac 01       	movw	r20, r24
    7174:	c3 01       	movw	r24, r6
    7176:	b2 01       	movw	r22, r4
    7178:	85 d7       	rcall	.+3850   	; 0x8084 <__subsf3>
    717a:	4b 01       	movw	r8, r22
    717c:	5c 01       	movw	r10, r24
    717e:	a7 01       	movw	r20, r14
    7180:	96 01       	movw	r18, r12
    7182:	c7 01       	movw	r24, r14
    7184:	b6 01       	movw	r22, r12
    7186:	0e 94 82 43 	call	0x8704	; 0x8704 <__mulsf3>
    718a:	9b 01       	movw	r18, r22
    718c:	ac 01       	movw	r20, r24
    718e:	c5 01       	movw	r24, r10
    7190:	b4 01       	movw	r22, r8
    7192:	79 d7       	rcall	.+3826   	; 0x8086 <__addsf3>
    7194:	f8 01       	movw	r30, r16
    7196:	60 87       	std	Z+8, r22	; 0x08
    7198:	71 87       	std	Z+9, r23	; 0x09
    719a:	82 87       	std	Z+10, r24	; 0x0a
    719c:	93 87       	std	Z+11, r25	; 0x0b
    719e:	80 e0       	ldi	r24, 0x00	; 0
    71a0:	0f 90       	pop	r0
    71a2:	0f 90       	pop	r0
    71a4:	0f 90       	pop	r0
    71a6:	0f 90       	pop	r0
    71a8:	df 91       	pop	r29
    71aa:	cf 91       	pop	r28
    71ac:	1f 91       	pop	r17
    71ae:	0f 91       	pop	r16
    71b0:	ff 90       	pop	r15
    71b2:	ef 90       	pop	r14
    71b4:	df 90       	pop	r13
    71b6:	cf 90       	pop	r12
    71b8:	bf 90       	pop	r11
    71ba:	af 90       	pop	r10
    71bc:	9f 90       	pop	r9
    71be:	8f 90       	pop	r8
    71c0:	7f 90       	pop	r7
    71c2:	6f 90       	pop	r6
    71c4:	5f 90       	pop	r5
    71c6:	4f 90       	pop	r4
    71c8:	3f 90       	pop	r3
    71ca:	2f 90       	pop	r2
    71cc:	08 95       	ret

000071ce <_ZN7MPU605018dmpGetYawPitchRollEPfP10QuaternionP11VectorFloat>:
    71ce:	2f 92       	push	r2
    71d0:	3f 92       	push	r3
    71d2:	4f 92       	push	r4
    71d4:	5f 92       	push	r5
    71d6:	6f 92       	push	r6
    71d8:	7f 92       	push	r7
    71da:	8f 92       	push	r8
    71dc:	9f 92       	push	r9
    71de:	af 92       	push	r10
    71e0:	bf 92       	push	r11
    71e2:	cf 92       	push	r12
    71e4:	df 92       	push	r13
    71e6:	ef 92       	push	r14
    71e8:	ff 92       	push	r15
    71ea:	0f 93       	push	r16
    71ec:	1f 93       	push	r17
    71ee:	cf 93       	push	r28
    71f0:	df 93       	push	r29
    71f2:	00 d0       	rcall	.+0      	; 0x71f4 <_ZN7MPU605018dmpGetYawPitchRollEPfP10QuaternionP11VectorFloat+0x26>
    71f4:	00 d0       	rcall	.+0      	; 0x71f6 <_ZN7MPU605018dmpGetYawPitchRollEPfP10QuaternionP11VectorFloat+0x28>
    71f6:	00 d0       	rcall	.+0      	; 0x71f8 <_ZN7MPU605018dmpGetYawPitchRollEPfP10QuaternionP11VectorFloat+0x2a>
    71f8:	cd b7       	in	r28, 0x3d	; 61
    71fa:	de b7       	in	r29, 0x3e	; 62
    71fc:	5b 01       	movw	r10, r22
    71fe:	8a 01       	movw	r16, r20
    7200:	3e 83       	std	Y+6, r19	; 0x06
    7202:	2d 83       	std	Y+5, r18	; 0x05
    7204:	fa 01       	movw	r30, r20
    7206:	40 80       	ld	r4, Z
    7208:	51 80       	ldd	r5, Z+1	; 0x01
    720a:	62 80       	ldd	r6, Z+2	; 0x02
    720c:	73 80       	ldd	r7, Z+3	; 0x03
    720e:	a3 01       	movw	r20, r6
    7210:	92 01       	movw	r18, r4
    7212:	c3 01       	movw	r24, r6
    7214:	b2 01       	movw	r22, r4
    7216:	37 d7       	rcall	.+3694   	; 0x8086 <__addsf3>
    7218:	69 83       	std	Y+1, r22	; 0x01
    721a:	7a 83       	std	Y+2, r23	; 0x02
    721c:	8b 83       	std	Y+3, r24	; 0x03
    721e:	9c 83       	std	Y+4, r25	; 0x04
    7220:	f8 01       	movw	r30, r16
    7222:	c4 80       	ldd	r12, Z+4	; 0x04
    7224:	d5 80       	ldd	r13, Z+5	; 0x05
    7226:	e6 80       	ldd	r14, Z+6	; 0x06
    7228:	f7 80       	ldd	r15, Z+7	; 0x07
    722a:	a7 01       	movw	r20, r14
    722c:	96 01       	movw	r18, r12
    722e:	c7 01       	movw	r24, r14
    7230:	b6 01       	movw	r22, r12
    7232:	29 d7       	rcall	.+3666   	; 0x8086 <__addsf3>
    7234:	36 2e       	mov	r3, r22
    7236:	87 2e       	mov	r8, r23
    7238:	98 2e       	mov	r9, r24
    723a:	29 2e       	mov	r2, r25
    723c:	79 81       	ldd	r23, Y+1	; 0x01
    723e:	6a 81       	ldd	r22, Y+2	; 0x02
    7240:	9b 81       	ldd	r25, Y+3	; 0x03
    7242:	8c 81       	ldd	r24, Y+4	; 0x04
    7244:	27 2f       	mov	r18, r23
    7246:	36 2f       	mov	r19, r22
    7248:	49 2f       	mov	r20, r25
    724a:	58 2f       	mov	r21, r24
    724c:	c3 01       	movw	r24, r6
    724e:	b2 01       	movw	r22, r4
    7250:	0e 94 82 43 	call	0x8704	; 0x8704 <__mulsf3>
    7254:	2b 01       	movw	r4, r22
    7256:	3c 01       	movw	r6, r24
    7258:	23 2d       	mov	r18, r3
    725a:	38 2d       	mov	r19, r8
    725c:	49 2d       	mov	r20, r9
    725e:	52 2d       	mov	r21, r2
    7260:	c7 01       	movw	r24, r14
    7262:	b6 01       	movw	r22, r12
    7264:	0e 94 82 43 	call	0x8704	; 0x8704 <__mulsf3>
    7268:	9b 01       	movw	r18, r22
    726a:	ac 01       	movw	r20, r24
    726c:	c3 01       	movw	r24, r6
    726e:	b2 01       	movw	r22, r4
    7270:	0a d7       	rcall	.+3604   	; 0x8086 <__addsf3>
    7272:	20 e0       	ldi	r18, 0x00	; 0
    7274:	30 e0       	ldi	r19, 0x00	; 0
    7276:	40 e8       	ldi	r20, 0x80	; 128
    7278:	5f e3       	ldi	r21, 0x3F	; 63
    727a:	04 d7       	rcall	.+3592   	; 0x8084 <__subsf3>
    727c:	6b 01       	movw	r12, r22
    727e:	7c 01       	movw	r14, r24
    7280:	f8 01       	movw	r30, r16
    7282:	20 85       	ldd	r18, Z+8	; 0x08
    7284:	31 85       	ldd	r19, Z+9	; 0x09
    7286:	42 85       	ldd	r20, Z+10	; 0x0a
    7288:	53 85       	ldd	r21, Z+11	; 0x0b
    728a:	63 2d       	mov	r22, r3
    728c:	78 2d       	mov	r23, r8
    728e:	89 2d       	mov	r24, r9
    7290:	92 2d       	mov	r25, r2
    7292:	0e 94 82 43 	call	0x8704	; 0x8704 <__mulsf3>
    7296:	2b 01       	movw	r4, r22
    7298:	3c 01       	movw	r6, r24
    729a:	f8 01       	movw	r30, r16
    729c:	24 85       	ldd	r18, Z+12	; 0x0c
    729e:	35 85       	ldd	r19, Z+13	; 0x0d
    72a0:	46 85       	ldd	r20, Z+14	; 0x0e
    72a2:	57 85       	ldd	r21, Z+15	; 0x0f
    72a4:	b9 81       	ldd	r27, Y+1	; 0x01
    72a6:	aa 81       	ldd	r26, Y+2	; 0x02
    72a8:	1b 81       	ldd	r17, Y+3	; 0x03
    72aa:	0c 81       	ldd	r16, Y+4	; 0x04
    72ac:	6b 2f       	mov	r22, r27
    72ae:	7a 2f       	mov	r23, r26
    72b0:	81 2f       	mov	r24, r17
    72b2:	90 2f       	mov	r25, r16
    72b4:	0e 94 82 43 	call	0x8704	; 0x8704 <__mulsf3>
    72b8:	9b 01       	movw	r18, r22
    72ba:	ac 01       	movw	r20, r24
    72bc:	c3 01       	movw	r24, r6
    72be:	b2 01       	movw	r22, r4
    72c0:	e1 d6       	rcall	.+3522   	; 0x8084 <__subsf3>
    72c2:	a7 01       	movw	r20, r14
    72c4:	96 01       	movw	r18, r12
    72c6:	69 d7       	rcall	.+3794   	; 0x819a <atan2>
    72c8:	f5 01       	movw	r30, r10
    72ca:	60 83       	st	Z, r22
    72cc:	71 83       	std	Z+1, r23	; 0x01
    72ce:	82 83       	std	Z+2, r24	; 0x02
    72d0:	93 83       	std	Z+3, r25	; 0x03
    72d2:	ed 81       	ldd	r30, Y+5	; 0x05
    72d4:	fe 81       	ldd	r31, Y+6	; 0x06
    72d6:	64 81       	ldd	r22, Z+4	; 0x04
    72d8:	75 81       	ldd	r23, Z+5	; 0x05
    72da:	86 81       	ldd	r24, Z+6	; 0x06
    72dc:	97 81       	ldd	r25, Z+7	; 0x07
    72de:	c0 84       	ldd	r12, Z+8	; 0x08
    72e0:	d1 84       	ldd	r13, Z+9	; 0x09
    72e2:	e2 84       	ldd	r14, Z+10	; 0x0a
    72e4:	f3 84       	ldd	r15, Z+11	; 0x0b
    72e6:	9b 01       	movw	r18, r22
    72e8:	ac 01       	movw	r20, r24
    72ea:	0e 94 82 43 	call	0x8704	; 0x8704 <__mulsf3>
    72ee:	2b 01       	movw	r4, r22
    72f0:	3c 01       	movw	r6, r24
    72f2:	a7 01       	movw	r20, r14
    72f4:	96 01       	movw	r18, r12
    72f6:	c7 01       	movw	r24, r14
    72f8:	b6 01       	movw	r22, r12
    72fa:	0e 94 82 43 	call	0x8704	; 0x8704 <__mulsf3>
    72fe:	9b 01       	movw	r18, r22
    7300:	ac 01       	movw	r20, r24
    7302:	c3 01       	movw	r24, r6
    7304:	b2 01       	movw	r22, r4
    7306:	bf d6       	rcall	.+3454   	; 0x8086 <__addsf3>
    7308:	0e 94 ef 43 	call	0x87de	; 0x87de <sqrt>
    730c:	9b 01       	movw	r18, r22
    730e:	ac 01       	movw	r20, r24
    7310:	ed 81       	ldd	r30, Y+5	; 0x05
    7312:	fe 81       	ldd	r31, Y+6	; 0x06
    7314:	60 81       	ld	r22, Z
    7316:	71 81       	ldd	r23, Z+1	; 0x01
    7318:	82 81       	ldd	r24, Z+2	; 0x02
    731a:	93 81       	ldd	r25, Z+3	; 0x03
    731c:	98 d7       	rcall	.+3888   	; 0x824e <__divsf3>
    731e:	68 d7       	rcall	.+3792   	; 0x81f0 <atan>
    7320:	f5 01       	movw	r30, r10
    7322:	64 83       	std	Z+4, r22	; 0x04
    7324:	75 83       	std	Z+5, r23	; 0x05
    7326:	86 83       	std	Z+6, r24	; 0x06
    7328:	97 83       	std	Z+7, r25	; 0x07
    732a:	ed 81       	ldd	r30, Y+5	; 0x05
    732c:	fe 81       	ldd	r31, Y+6	; 0x06
    732e:	60 81       	ld	r22, Z
    7330:	71 81       	ldd	r23, Z+1	; 0x01
    7332:	82 81       	ldd	r24, Z+2	; 0x02
    7334:	93 81       	ldd	r25, Z+3	; 0x03
    7336:	c0 84       	ldd	r12, Z+8	; 0x08
    7338:	d1 84       	ldd	r13, Z+9	; 0x09
    733a:	e2 84       	ldd	r14, Z+10	; 0x0a
    733c:	f3 84       	ldd	r15, Z+11	; 0x0b
    733e:	9b 01       	movw	r18, r22
    7340:	ac 01       	movw	r20, r24
    7342:	0e 94 82 43 	call	0x8704	; 0x8704 <__mulsf3>
    7346:	2b 01       	movw	r4, r22
    7348:	3c 01       	movw	r6, r24
    734a:	a7 01       	movw	r20, r14
    734c:	96 01       	movw	r18, r12
    734e:	c7 01       	movw	r24, r14
    7350:	b6 01       	movw	r22, r12
    7352:	0e 94 82 43 	call	0x8704	; 0x8704 <__mulsf3>
    7356:	9b 01       	movw	r18, r22
    7358:	ac 01       	movw	r20, r24
    735a:	c3 01       	movw	r24, r6
    735c:	b2 01       	movw	r22, r4
    735e:	93 d6       	rcall	.+3366   	; 0x8086 <__addsf3>
    7360:	0e 94 ef 43 	call	0x87de	; 0x87de <sqrt>
    7364:	9b 01       	movw	r18, r22
    7366:	ac 01       	movw	r20, r24
    7368:	ed 81       	ldd	r30, Y+5	; 0x05
    736a:	fe 81       	ldd	r31, Y+6	; 0x06
    736c:	64 81       	ldd	r22, Z+4	; 0x04
    736e:	75 81       	ldd	r23, Z+5	; 0x05
    7370:	86 81       	ldd	r24, Z+6	; 0x06
    7372:	97 81       	ldd	r25, Z+7	; 0x07
    7374:	6c d7       	rcall	.+3800   	; 0x824e <__divsf3>
    7376:	3c d7       	rcall	.+3704   	; 0x81f0 <atan>
    7378:	f5 01       	movw	r30, r10
    737a:	60 87       	std	Z+8, r22	; 0x08
    737c:	71 87       	std	Z+9, r23	; 0x09
    737e:	82 87       	std	Z+10, r24	; 0x0a
    7380:	93 87       	std	Z+11, r25	; 0x0b
    7382:	80 e0       	ldi	r24, 0x00	; 0
    7384:	26 96       	adiw	r28, 0x06	; 6
    7386:	0f b6       	in	r0, 0x3f	; 63
    7388:	f8 94       	cli
    738a:	de bf       	out	0x3e, r29	; 62
    738c:	0f be       	out	0x3f, r0	; 63
    738e:	cd bf       	out	0x3d, r28	; 61
    7390:	df 91       	pop	r29
    7392:	cf 91       	pop	r28
    7394:	1f 91       	pop	r17
    7396:	0f 91       	pop	r16
    7398:	ff 90       	pop	r15
    739a:	ef 90       	pop	r14
    739c:	df 90       	pop	r13
    739e:	cf 90       	pop	r12
    73a0:	bf 90       	pop	r11
    73a2:	af 90       	pop	r10
    73a4:	9f 90       	pop	r9
    73a6:	8f 90       	pop	r8
    73a8:	7f 90       	pop	r7
    73aa:	6f 90       	pop	r6
    73ac:	5f 90       	pop	r5
    73ae:	4f 90       	pop	r4
    73b0:	3f 90       	pop	r3
    73b2:	2f 90       	pop	r2
    73b4:	08 95       	ret

000073b6 <_ZN7MPU605020dmpGetFIFOPacketSizeEv>:
    73b6:	fc 01       	movw	r30, r24
    73b8:	82 81       	ldd	r24, Z+2	; 0x02
    73ba:	93 81       	ldd	r25, Z+3	; 0x03
    73bc:	08 95       	ret

000073be <__vector_4>:


volatile uint8_t mpuInterrupt = false; 

ISR (PCINT0_vect)
{
    73be:	1f 92       	push	r1
    73c0:	0f 92       	push	r0
    73c2:	0f b6       	in	r0, 0x3f	; 63
    73c4:	0f 92       	push	r0
    73c6:	11 24       	eor	r1, r1
    73c8:	8f 93       	push	r24
	mpuInterrupt = true;
    73ca:	81 e0       	ldi	r24, 0x01	; 1
    73cc:	80 93 94 19 	sts	0x1994, r24
}
    73d0:	8f 91       	pop	r24
    73d2:	0f 90       	pop	r0
    73d4:	0f be       	out	0x3f, r0	; 63
    73d6:	0f 90       	pop	r0
    73d8:	1f 90       	pop	r1
    73da:	18 95       	reti

000073dc <_Z17enable_interrupt0v>:


	/**
	 * Pin Change Interrupt enable on PCINT0 (PA0)
	 */
	PCMSK0 |= _BV(PCINT0);
    73dc:	eb e6       	ldi	r30, 0x6B	; 107
    73de:	f0 e0       	ldi	r31, 0x00	; 0
    73e0:	80 81       	ld	r24, Z
    73e2:	81 60       	ori	r24, 0x01	; 1
    73e4:	80 83       	st	Z, r24
	PCICR |= _BV(PCIE0);
    73e6:	e8 e6       	ldi	r30, 0x68	; 104
    73e8:	f0 e0       	ldi	r31, 0x00	; 0
    73ea:	80 81       	ld	r24, Z
    73ec:	81 60       	ori	r24, 0x01	; 1
    73ee:	80 83       	st	Z, r24

	sei();
    73f0:	78 94       	sei
    73f2:	08 95       	ret

000073f4 <_Z9MPU_get_yv>:
}

float MPU_get_y()
{
	return ypr[0];
    73f4:	e5 e9       	ldi	r30, 0x95	; 149
    73f6:	f9 e1       	ldi	r31, 0x19	; 25
}
    73f8:	50 81       	ld	r21, Z
    73fa:	41 81       	ldd	r20, Z+1	; 0x01
    73fc:	32 81       	ldd	r19, Z+2	; 0x02
    73fe:	23 81       	ldd	r18, Z+3	; 0x03
    7400:	65 2f       	mov	r22, r21
    7402:	74 2f       	mov	r23, r20
    7404:	83 2f       	mov	r24, r19
    7406:	92 2f       	mov	r25, r18
    7408:	08 95       	ret

0000740a <_Z9MPU_get_pv>:

float MPU_get_p()
{
	return ypr[1];
    740a:	e9 e9       	ldi	r30, 0x99	; 153
    740c:	f9 e1       	ldi	r31, 0x19	; 25
}
    740e:	50 81       	ld	r21, Z
    7410:	41 81       	ldd	r20, Z+1	; 0x01
    7412:	32 81       	ldd	r19, Z+2	; 0x02
    7414:	23 81       	ldd	r18, Z+3	; 0x03
    7416:	65 2f       	mov	r22, r21
    7418:	74 2f       	mov	r23, r20
    741a:	83 2f       	mov	r24, r19
    741c:	92 2f       	mov	r25, r18
    741e:	08 95       	ret

00007420 <_Z9MPU_get_rv>:

float MPU_get_r()
{
	return ypr[2];
    7420:	ed e9       	ldi	r30, 0x9D	; 157
    7422:	f9 e1       	ldi	r31, 0x19	; 25
}
    7424:	50 81       	ld	r21, Z
    7426:	41 81       	ldd	r20, Z+1	; 0x01
    7428:	32 81       	ldd	r19, Z+2	; 0x02
    742a:	23 81       	ldd	r18, Z+3	; 0x03
    742c:	65 2f       	mov	r22, r21
    742e:	74 2f       	mov	r23, r20
    7430:	83 2f       	mov	r24, r19
    7432:	92 2f       	mov	r25, r18
    7434:	08 95       	ret

00007436 <_Z8MPU_initv>:

void MPU_init(void)
{


	Fastwire::setup(400, true);
    7436:	61 e0       	ldi	r22, 0x01	; 1
    7438:	80 e9       	ldi	r24, 0x90	; 144
    743a:	91 e0       	ldi	r25, 0x01	; 1
    743c:	0e 94 8e 28 	call	0x511c	; 0x511c <_ZN8Fastwire5setupEih>
	
	//accelgyro.initialize();
	// load and configure the DMP
	
	devStatus = mpu.dmpInitialize();
    7440:	89 e2       	ldi	r24, 0x29	; 41
    7442:	9a e1       	ldi	r25, 0x1A	; 26
    7444:	0d db       	rcall	.-2534   	; 0x6a60 <_ZN7MPU605013dmpInitializeEv>
    7446:	80 93 13 1a 	sts	0x1A13, r24

	 // supply your own gyro offsets here, scaled for min sensitivity
	mpu.setXGyroOffset(220);
    744a:	6c ed       	ldi	r22, 0xDC	; 220
    744c:	70 e0       	ldi	r23, 0x00	; 0
    744e:	89 e2       	ldi	r24, 0x29	; 41
    7450:	9a e1       	ldi	r25, 0x1A	; 26
    7452:	a3 d8       	rcall	.-3770   	; 0x659a <_ZN7MPU605014setXGyroOffsetEi>
	mpu.setYGyroOffset(76);
    7454:	6c e4       	ldi	r22, 0x4C	; 76
    7456:	70 e0       	ldi	r23, 0x00	; 0
    7458:	89 e2       	ldi	r24, 0x29	; 41
    745a:	9a e1       	ldi	r25, 0x1A	; 26
    745c:	a3 d8       	rcall	.-3770   	; 0x65a4 <_ZN7MPU605014setYGyroOffsetEi>
	mpu.setZGyroOffset(-85);
    745e:	6b ea       	ldi	r22, 0xAB	; 171
    7460:	7f ef       	ldi	r23, 0xFF	; 255
    7462:	89 e2       	ldi	r24, 0x29	; 41
    7464:	9a e1       	ldi	r25, 0x1A	; 26
    7466:	a3 d8       	rcall	.-3770   	; 0x65ae <_ZN7MPU605014setZGyroOffsetEi>
	mpu.setZAccelOffset(1788); // 1688 factory default
    7468:	6c ef       	ldi	r22, 0xFC	; 252
    746a:	76 e0       	ldi	r23, 0x06	; 6
    746c:	89 e2       	ldi	r24, 0x29	; 41
    746e:	9a e1       	ldi	r25, 0x1A	; 26
    7470:	8f d8       	rcall	.-3810   	; 0x6590 <_ZN7MPU605015setZAccelOffsetEi>


	
	 // make sure it worked (returns 0 if so)
	 if (devStatus == 0) {
    7472:	80 91 13 1a 	lds	r24, 0x1A13
    7476:	81 11       	cpse	r24, r1
    7478:	15 c0       	rjmp	.+42     	; 0x74a4 <_Z8MPU_initv+0x6e>
		 // turn on the DMP, now that it's ready
		 mpu.setDMPEnabled(true);
    747a:	61 e0       	ldi	r22, 0x01	; 1
    747c:	89 e2       	ldi	r24, 0x29	; 41
    747e:	9a e1       	ldi	r25, 0x1A	; 26
    7480:	9b d8       	rcall	.-3786   	; 0x65b8 <_ZN7MPU605013setDMPEnabledEb>

		enable_interrupt0();
    7482:	ac df       	rcall	.-168    	; 0x73dc <_Z17enable_interrupt0v>
		 	
		 mpuIntStatus = mpu.getIntStatus();
    7484:	89 e2       	ldi	r24, 0x29	; 41
    7486:	9a e1       	ldi	r25, 0x1A	; 26
    7488:	0e 94 c8 31 	call	0x6390	; 0x6390 <_ZN7MPU605012getIntStatusEv>
    748c:	80 93 14 1a 	sts	0x1A14, r24

		 // set our DMP Ready flag so the main loop() function knows it's okay to use it
		 //Serial.println(F("DMP ready! Waiting for first interrupt..."));
		 dmpReady = true;
    7490:	81 e0       	ldi	r24, 0x01	; 1
    7492:	80 93 15 1a 	sts	0x1A15, r24

		 // get expected DMP packet size for later comparison
		 packetSize = mpu.dmpGetFIFOPacketSize();
    7496:	89 e2       	ldi	r24, 0x29	; 41
    7498:	9a e1       	ldi	r25, 0x1A	; 26
    749a:	8d df       	rcall	.-230    	; 0x73b6 <_ZN7MPU605020dmpGetFIFOPacketSizeEv>
    749c:	90 93 12 1a 	sts	0x1A12, r25
    74a0:	80 93 11 1a 	sts	0x1A11, r24
    74a4:	08 95       	ret

000074a6 <_Z10MPU_updatev>:


void MPU_update()
{
	// wait for MPU interrupt or extra packet(s) available
		if (!mpuInterrupt && fifoCount < packetSize) {
    74a6:	80 91 94 19 	lds	r24, 0x1994
    74aa:	81 11       	cpse	r24, r1
    74ac:	58 c0       	rjmp	.+176    	; 0x755e <_Z10MPU_updatev+0xb8>
    74ae:	20 91 0f 1a 	lds	r18, 0x1A0F
    74b2:	30 91 10 1a 	lds	r19, 0x1A10
    74b6:	80 91 11 1a 	lds	r24, 0x1A11
    74ba:	90 91 12 1a 	lds	r25, 0x1A12
    74be:	28 17       	cp	r18, r24
    74c0:	39 07       	cpc	r19, r25
    74c2:	08 f4       	brcc	.+2      	; 0x74c6 <_Z10MPU_updatev+0x20>
    74c4:	61 c0       	rjmp	.+194    	; 0x7588 <_Z10MPU_updatev+0xe2>
    74c6:	4b c0       	rjmp	.+150    	; 0x755e <_Z10MPU_updatev+0xb8>

		// get current FIFO count
		fifoCount = mpu.getFIFOCount();

		// check for overflow (this should never happen unless our code is too inefficient)
		if ((mpuIntStatus & 0x10) || fifoCount == 1024) {
    74c8:	81 15       	cp	r24, r1
    74ca:	34 e0       	ldi	r19, 0x04	; 4
    74cc:	93 07       	cpc	r25, r19
    74ce:	21 f4       	brne	.+8      	; 0x74d8 <_Z10MPU_updatev+0x32>
			// reset so we can continue cleanly
			mpu.resetFIFO();
    74d0:	89 e2       	ldi	r24, 0x29	; 41
    74d2:	9a e1       	ldi	r25, 0x1A	; 26
    74d4:	0c 94 e5 31 	jmp	0x63ca	; 0x63ca <_ZN7MPU60509resetFIFOEv>

			// otherwise, check for DMP data ready interrupt (this should happen frequently)
			} else if (mpuIntStatus & 0x02) {
    74d8:	21 ff       	sbrs	r18, 1
    74da:	56 c0       	rjmp	.+172    	; 0x7588 <_Z10MPU_updatev+0xe2>
			// wait for correct available data length, should be a VERY short wait
			while (fifoCount < packetSize) fifoCount = mpu.getFIFOCount();
    74dc:	40 91 11 1a 	lds	r20, 0x1A11
    74e0:	50 91 12 1a 	lds	r21, 0x1A12
    74e4:	84 17       	cp	r24, r20
    74e6:	95 07       	cpc	r25, r21
    74e8:	78 f4       	brcc	.+30     	; 0x7508 <_Z10MPU_updatev+0x62>
    74ea:	89 e2       	ldi	r24, 0x29	; 41
    74ec:	9a e1       	ldi	r25, 0x1A	; 26
    74ee:	0e 94 07 32 	call	0x640e	; 0x640e <_ZN7MPU605012getFIFOCountEv>
    74f2:	90 93 10 1a 	sts	0x1A10, r25
    74f6:	80 93 0f 1a 	sts	0x1A0F, r24
    74fa:	40 91 11 1a 	lds	r20, 0x1A11
    74fe:	50 91 12 1a 	lds	r21, 0x1A12
    7502:	84 17       	cp	r24, r20
    7504:	95 07       	cpc	r25, r21
    7506:	88 f3       	brcs	.-30     	; 0x74ea <_Z10MPU_updatev+0x44>

			// read a packet from FIFO
			mpu.getFIFOBytes(fifoBuffer, packetSize);
    7508:	6f ec       	ldi	r22, 0xCF	; 207
    750a:	79 e1       	ldi	r23, 0x19	; 25
    750c:	89 e2       	ldi	r24, 0x29	; 41
    750e:	9a e1       	ldi	r25, 0x1A	; 26
    7510:	0e 94 24 32 	call	0x6448	; 0x6448 <_ZN7MPU605012getFIFOBytesEPhj>
			
			// track FIFO count here in case there is > 1 packet available
			// (this lets us immediately read more without waiting for an interrupt)
			fifoCount -= packetSize;
    7514:	80 91 0f 1a 	lds	r24, 0x1A0F
    7518:	90 91 10 1a 	lds	r25, 0x1A10
    751c:	20 91 11 1a 	lds	r18, 0x1A11
    7520:	30 91 12 1a 	lds	r19, 0x1A12
    7524:	82 1b       	sub	r24, r18
    7526:	93 0b       	sbc	r25, r19
    7528:	90 93 10 1a 	sts	0x1A10, r25
    752c:	80 93 0f 1a 	sts	0x1A0F, r24

			// display Euler angles in degrees
			mpu.dmpGetQuaternion(&q, fifoBuffer);
    7530:	4f ec       	ldi	r20, 0xCF	; 207
    7532:	59 e1       	ldi	r21, 0x19	; 25
    7534:	6f eb       	ldi	r22, 0xBF	; 191
    7536:	79 e1       	ldi	r23, 0x19	; 25
    7538:	89 e2       	ldi	r24, 0x29	; 41
    753a:	9a e1       	ldi	r25, 0x1A	; 26
    753c:	1b dd       	rcall	.-1482   	; 0x6f74 <_ZN7MPU605016dmpGetQuaternionEP10QuaternionPKh>
			mpu.dmpGetGravity(&gravity, &q);
    753e:	4f eb       	ldi	r20, 0xBF	; 191
    7540:	59 e1       	ldi	r21, 0x19	; 25
    7542:	61 ea       	ldi	r22, 0xA1	; 161
    7544:	79 e1       	ldi	r23, 0x19	; 25
    7546:	89 e2       	ldi	r24, 0x29	; 41
    7548:	9a e1       	ldi	r25, 0x1A	; 26
    754a:	82 dd       	rcall	.-1276   	; 0x7050 <_ZN7MPU605013dmpGetGravityEP11VectorFloatP10Quaternion>
			mpu.dmpGetYawPitchRoll(ypr, &q, &gravity);
    754c:	21 ea       	ldi	r18, 0xA1	; 161
    754e:	39 e1       	ldi	r19, 0x19	; 25
    7550:	4f eb       	ldi	r20, 0xBF	; 191
    7552:	59 e1       	ldi	r21, 0x19	; 25
    7554:	65 e9       	ldi	r22, 0x95	; 149
    7556:	79 e1       	ldi	r23, 0x19	; 25
    7558:	89 e2       	ldi	r24, 0x29	; 41
    755a:	9a e1       	ldi	r25, 0x1A	; 26
    755c:	38 ce       	rjmp	.-912    	; 0x71ce <_ZN7MPU605018dmpGetYawPitchRollEPfP10QuaternionP11VectorFloat>
			return;
		}
		

		// reset interrupt flag and get INT_STATUS byte
		mpuInterrupt = false;
    755e:	10 92 94 19 	sts	0x1994, r1
		mpuIntStatus = mpu.getIntStatus();
    7562:	89 e2       	ldi	r24, 0x29	; 41
    7564:	9a e1       	ldi	r25, 0x1A	; 26
    7566:	0e 94 c8 31 	call	0x6390	; 0x6390 <_ZN7MPU605012getIntStatusEv>
    756a:	80 93 14 1a 	sts	0x1A14, r24

		// get current FIFO count
		fifoCount = mpu.getFIFOCount();
    756e:	89 e2       	ldi	r24, 0x29	; 41
    7570:	9a e1       	ldi	r25, 0x1A	; 26
    7572:	0e 94 07 32 	call	0x640e	; 0x640e <_ZN7MPU605012getFIFOCountEv>
    7576:	90 93 10 1a 	sts	0x1A10, r25
    757a:	80 93 0f 1a 	sts	0x1A0F, r24

		// check for overflow (this should never happen unless our code is too inefficient)
		if ((mpuIntStatus & 0x10) || fifoCount == 1024) {
    757e:	20 91 14 1a 	lds	r18, 0x1A14
    7582:	24 ff       	sbrs	r18, 4
    7584:	a1 cf       	rjmp	.-190    	; 0x74c8 <_Z10MPU_updatev+0x22>
    7586:	a4 cf       	rjmp	.-184    	; 0x74d0 <_Z10MPU_updatev+0x2a>
    7588:	08 95       	ret

0000758a <_GLOBAL__sub_I__ZN7MPU605013dmpInitializeEv>:

#include "MpuInit.h"
#include "I2Cdev.h"
#include "MPU6050_6Axis_MotionApps20.h"

MPU6050 mpu;
    758a:	89 e2       	ldi	r24, 0x29	; 41
    758c:	9a e1       	ldi	r25, 0x1A	; 26
    758e:	0e 94 7e 31 	call	0x62fc	; 0x62fc <_ZN7MPU6050C1Ev>

// class default I2C address is 0x68
// specific I2C addresses may be passed as a parameter here
// AD0 low = 0x68 (default for InvenSense evaluation board)
// AD0 high = 0x69
MPU6050 accelgyro;
    7592:	86 e1       	ldi	r24, 0x16	; 22
    7594:	9a e1       	ldi	r25, 0x1A	; 26
    7596:	0e 94 7e 31 	call	0x62fc	; 0x62fc <_ZN7MPU6050C1Ev>
        float x;
        float y;
        float z;
        
        Quaternion() {
            w = 1.0f;
    759a:	80 e0       	ldi	r24, 0x00	; 0
    759c:	90 e0       	ldi	r25, 0x00	; 0
    759e:	a0 e8       	ldi	r26, 0x80	; 128
    75a0:	bf e3       	ldi	r27, 0x3F	; 63
    75a2:	80 93 bf 19 	sts	0x19BF, r24
    75a6:	90 93 c0 19 	sts	0x19C0, r25
    75aa:	a0 93 c1 19 	sts	0x19C1, r26
    75ae:	b0 93 c2 19 	sts	0x19C2, r27
            x = 0.0f;
    75b2:	10 92 c3 19 	sts	0x19C3, r1
    75b6:	10 92 c4 19 	sts	0x19C4, r1
    75ba:	10 92 c5 19 	sts	0x19C5, r1
    75be:	10 92 c6 19 	sts	0x19C6, r1
            y = 0.0f;
    75c2:	10 92 c7 19 	sts	0x19C7, r1
    75c6:	10 92 c8 19 	sts	0x19C8, r1
    75ca:	10 92 c9 19 	sts	0x19C9, r1
    75ce:	10 92 ca 19 	sts	0x19CA, r1
            z = 0.0f;
    75d2:	10 92 cb 19 	sts	0x19CB, r1
    75d6:	10 92 cc 19 	sts	0x19CC, r1
    75da:	10 92 cd 19 	sts	0x19CD, r1
    75de:	10 92 ce 19 	sts	0x19CE, r1
        int16_t x;
        int16_t y;
        int16_t z;

        VectorInt16() {
            x = 0;
    75e2:	10 92 ba 19 	sts	0x19BA, r1
    75e6:	10 92 b9 19 	sts	0x19B9, r1
            y = 0;
    75ea:	10 92 bc 19 	sts	0x19BC, r1
    75ee:	10 92 bb 19 	sts	0x19BB, r1
            z = 0;
    75f2:	10 92 be 19 	sts	0x19BE, r1
    75f6:	10 92 bd 19 	sts	0x19BD, r1
        int16_t x;
        int16_t y;
        int16_t z;

        VectorInt16() {
            x = 0;
    75fa:	10 92 b4 19 	sts	0x19B4, r1
    75fe:	10 92 b3 19 	sts	0x19B3, r1
            y = 0;
    7602:	10 92 b6 19 	sts	0x19B6, r1
    7606:	10 92 b5 19 	sts	0x19B5, r1
            z = 0;
    760a:	10 92 b8 19 	sts	0x19B8, r1
    760e:	10 92 b7 19 	sts	0x19B7, r1
        int16_t x;
        int16_t y;
        int16_t z;

        VectorInt16() {
            x = 0;
    7612:	10 92 ae 19 	sts	0x19AE, r1
    7616:	10 92 ad 19 	sts	0x19AD, r1
            y = 0;
    761a:	10 92 b0 19 	sts	0x19B0, r1
    761e:	10 92 af 19 	sts	0x19AF, r1
            z = 0;
    7622:	10 92 b2 19 	sts	0x19B2, r1
    7626:	10 92 b1 19 	sts	0x19B1, r1
        float x;
        float y;
        float z;

        VectorFloat() {
            x = 0;
    762a:	10 92 a1 19 	sts	0x19A1, r1
    762e:	10 92 a2 19 	sts	0x19A2, r1
    7632:	10 92 a3 19 	sts	0x19A3, r1
    7636:	10 92 a4 19 	sts	0x19A4, r1
            y = 0;
    763a:	10 92 a5 19 	sts	0x19A5, r1
    763e:	10 92 a6 19 	sts	0x19A6, r1
    7642:	10 92 a7 19 	sts	0x19A7, r1
    7646:	10 92 a8 19 	sts	0x19A8, r1
            z = 0;
    764a:	10 92 a9 19 	sts	0x19A9, r1
    764e:	10 92 aa 19 	sts	0x19AA, r1
    7652:	10 92 ab 19 	sts	0x19AB, r1
    7656:	10 92 ac 19 	sts	0x19AC, r1
    765a:	08 95       	ret

0000765c <_Z20servo_check_tx_readyv>:
}

uint8_t SERVO_get_voltage()
{
	return gServoVoltage;
}
    765c:	80 91 c8 00 	lds	r24, 0x00C8
    7660:	80 72       	andi	r24, 0x20	; 32
    7662:	08 95       	ret

00007664 <_Z16servo_write_byteh>:
    7664:	cf 93       	push	r28
    7666:	c8 2f       	mov	r28, r24
    7668:	f9 df       	rcall	.-14     	; 0x765c <_Z20servo_check_tx_readyv>
    766a:	88 23       	and	r24, r24
    766c:	e9 f3       	breq	.-6      	; 0x7668 <_Z16servo_write_byteh+0x4>
    766e:	c0 93 ce 00 	sts	0x00CE, r28
    7672:	cf 91       	pop	r28
    7674:	08 95       	ret

00007676 <_Z17send_servo_packethhh>:
    7676:	0f 93       	push	r16
    7678:	1f 93       	push	r17
    767a:	cf 93       	push	r28
    767c:	df 93       	push	r29
    767e:	9f ef       	ldi	r25, 0xFF	; 255
    7680:	90 93 3c 1a 	sts	0x1A3C, r25
    7684:	90 93 3d 1a 	sts	0x1A3D, r25
    7688:	80 93 3e 1a 	sts	0x1A3E, r24
    768c:	84 2f       	mov	r24, r20
    768e:	8e 5f       	subi	r24, 0xFE	; 254
    7690:	80 93 3f 1a 	sts	0x1A3F, r24
    7694:	60 93 40 1a 	sts	0x1A40, r22
    7698:	44 23       	and	r20, r20
    769a:	c1 f1       	breq	.+112    	; 0x770c <_Z17send_servo_packethhh+0x96>
    769c:	ec eb       	ldi	r30, 0xBC	; 188
    769e:	fa e1       	ldi	r31, 0x1A	; 26
    76a0:	a1 e4       	ldi	r26, 0x41	; 65
    76a2:	ba e1       	ldi	r27, 0x1A	; 26
    76a4:	83 50       	subi	r24, 0x03	; 3
    76a6:	90 e0       	ldi	r25, 0x00	; 0
    76a8:	83 54       	subi	r24, 0x43	; 67
    76aa:	95 4e       	sbci	r25, 0xE5	; 229
    76ac:	21 91       	ld	r18, Z+
    76ae:	2d 93       	st	X+, r18
    76b0:	e8 17       	cp	r30, r24
    76b2:	f9 07       	cpc	r31, r25
    76b4:	d9 f7       	brne	.-10     	; 0x76ac <_Z17send_servo_packethhh+0x36>
    76b6:	4a 5f       	subi	r20, 0xFA	; 250
    76b8:	24 2f       	mov	r18, r20
    76ba:	30 e0       	ldi	r19, 0x00	; 0
    76bc:	21 50       	subi	r18, 0x01	; 1
    76be:	31 09       	sbc	r19, r1
    76c0:	23 30       	cpi	r18, 0x03	; 3
    76c2:	31 05       	cpc	r19, r1
    76c4:	34 f5       	brge	.+76     	; 0x7712 <_Z17send_servo_packethhh+0x9c>
    76c6:	82 e0       	ldi	r24, 0x02	; 2
    76c8:	90 e0       	ldi	r25, 0x00	; 0
    76ca:	60 e0       	ldi	r22, 0x00	; 0
    76cc:	0b c0       	rjmp	.+22     	; 0x76e4 <_Z17send_servo_packethhh+0x6e>
    76ce:	fc 01       	movw	r30, r24
    76d0:	e4 5c       	subi	r30, 0xC4	; 196
    76d2:	f5 4e       	sbci	r31, 0xE5	; 229
    76d4:	80 81       	ld	r24, Z
    76d6:	68 0f       	add	r22, r24
    76d8:	5f 5f       	subi	r21, 0xFF	; 255
    76da:	85 2f       	mov	r24, r21
    76dc:	90 e0       	ldi	r25, 0x00	; 0
    76de:	82 17       	cp	r24, r18
    76e0:	93 07       	cpc	r25, r19
    76e2:	ac f3       	brlt	.-22     	; 0x76ce <_Z17send_servo_packethhh+0x58>
    76e4:	fc 01       	movw	r30, r24
    76e6:	e4 5c       	subi	r30, 0xC4	; 196
    76e8:	f5 4e       	sbci	r31, 0xE5	; 229
    76ea:	60 95       	com	r22
    76ec:	60 83       	st	Z, r22
    76ee:	44 23       	and	r20, r20
    76f0:	a9 f0       	breq	.+42     	; 0x771c <_Z17send_servo_packethhh+0xa6>
    76f2:	cc e3       	ldi	r28, 0x3C	; 60
    76f4:	da e1       	ldi	r29, 0x1A	; 26
    76f6:	41 50       	subi	r20, 0x01	; 1
    76f8:	04 2f       	mov	r16, r20
    76fa:	10 e0       	ldi	r17, 0x00	; 0
    76fc:	03 5c       	subi	r16, 0xC3	; 195
    76fe:	15 4e       	sbci	r17, 0xE5	; 229
    7700:	89 91       	ld	r24, Y+
    7702:	b0 df       	rcall	.-160    	; 0x7664 <_Z16servo_write_byteh>
    7704:	c0 17       	cp	r28, r16
    7706:	d1 07       	cpc	r29, r17
    7708:	d9 f7       	brne	.-10     	; 0x7700 <_Z17send_servo_packethhh+0x8a>
    770a:	08 c0       	rjmp	.+16     	; 0x771c <_Z17send_servo_packethhh+0xa6>
    770c:	25 e0       	ldi	r18, 0x05	; 5
    770e:	30 e0       	ldi	r19, 0x00	; 0
    7710:	46 e0       	ldi	r20, 0x06	; 6
    7712:	82 e0       	ldi	r24, 0x02	; 2
    7714:	90 e0       	ldi	r25, 0x00	; 0
    7716:	60 e0       	ldi	r22, 0x00	; 0
    7718:	52 e0       	ldi	r21, 0x02	; 2
    771a:	d9 cf       	rjmp	.-78     	; 0x76ce <_Z17send_servo_packethhh+0x58>
    771c:	df 91       	pop	r29
    771e:	cf 91       	pop	r28
    7720:	1f 91       	pop	r17
    7722:	0f 91       	pop	r16
    7724:	08 95       	ret

00007726 <_Z10SERVO_gotohdj>:
    7726:	9f 92       	push	r9
    7728:	af 92       	push	r10
    772a:	bf 92       	push	r11
    772c:	cf 92       	push	r12
    772e:	df 92       	push	r13
    7730:	ef 92       	push	r14
    7732:	ff 92       	push	r15
    7734:	0f 93       	push	r16
    7736:	1f 93       	push	r17
    7738:	cf 93       	push	r28
    773a:	df 93       	push	r29
    773c:	c8 2f       	mov	r28, r24
    773e:	cb 01       	movw	r24, r22
    7740:	ba 01       	movw	r22, r20
    7742:	12 2f       	mov	r17, r18
    7744:	d3 2f       	mov	r29, r19
    7746:	5c 98       	cbi	0x0b, 4	; 11
    7748:	ef e3       	ldi	r30, 0x3F	; 63
    774a:	ff e1       	ldi	r31, 0x1F	; 31
    774c:	31 97       	sbiw	r30, 0x01	; 1
    774e:	f1 f7       	brne	.-4      	; 0x774c <_Z10SERVO_gotohdj+0x26>
    7750:	00 c0       	rjmp	.+0      	; 0x7752 <_Z10SERVO_gotohdj+0x2c>
    7752:	00 00       	nop
    7754:	20 e0       	ldi	r18, 0x00	; 0
    7756:	30 e0       	ldi	r19, 0x00	; 0
    7758:	46 e1       	ldi	r20, 0x16	; 22
    775a:	53 e4       	ldi	r21, 0x43	; 67
    775c:	d3 d7       	rcall	.+4006   	; 0x8704 <__mulsf3>
    775e:	26 e5       	ldi	r18, 0x56	; 86
    7760:	3e e0       	ldi	r19, 0x0E	; 14
    7762:	49 e4       	ldi	r20, 0x49	; 73
    7764:	50 e4       	ldi	r21, 0x40	; 64
    7766:	73 d5       	rcall	.+2790   	; 0x824e <__divsf3>
    7768:	20 e0       	ldi	r18, 0x00	; 0
    776a:	30 e0       	ldi	r19, 0x00	; 0
    776c:	46 e1       	ldi	r20, 0x16	; 22
    776e:	53 e4       	ldi	r21, 0x43	; 67
    7770:	8a d4       	rcall	.+2324   	; 0x8086 <__addsf3>
    7772:	96 2e       	mov	r9, r22
    7774:	e7 2e       	mov	r14, r23
    7776:	f8 2e       	mov	r15, r24
    7778:	09 2f       	mov	r16, r25
    777a:	a6 2e       	mov	r10, r22
    777c:	b7 2e       	mov	r11, r23
    777e:	c8 2e       	mov	r12, r24
    7780:	d9 2e       	mov	r13, r25
    7782:	20 e0       	ldi	r18, 0x00	; 0
    7784:	30 e0       	ldi	r19, 0x00	; 0
    7786:	46 e9       	ldi	r20, 0x96	; 150
    7788:	53 e4       	ldi	r21, 0x43	; 67
    778a:	b1 d7       	rcall	.+3938   	; 0x86ee <__gesf2>
    778c:	18 16       	cp	r1, r24
    778e:	5c f0       	brlt	.+22     	; 0x77a6 <_Z10SERVO_gotohdj+0x80>
    7790:	20 e0       	ldi	r18, 0x00	; 0
    7792:	30 e0       	ldi	r19, 0x00	; 0
    7794:	a9 01       	movw	r20, r18
    7796:	69 2d       	mov	r22, r9
    7798:	7e 2d       	mov	r23, r14
    779a:	8f 2d       	mov	r24, r15
    779c:	90 2f       	mov	r25, r16
    779e:	50 d5       	rcall	.+2720   	; 0x8240 <__cmpsf2>
    77a0:	88 23       	and	r24, r24
    77a2:	84 f4       	brge	.+32     	; 0x77c4 <_Z10SERVO_gotohdj+0x9e>
    77a4:	0b c0       	rjmp	.+22     	; 0x77bc <_Z10SERVO_gotohdj+0x96>
    77a6:	a1 2c       	mov	r10, r1
    77a8:	b1 2c       	mov	r11, r1
    77aa:	0f 2e       	mov	r0, r31
    77ac:	f6 e9       	ldi	r31, 0x96	; 150
    77ae:	cf 2e       	mov	r12, r31
    77b0:	f0 2d       	mov	r31, r0
    77b2:	0f 2e       	mov	r0, r31
    77b4:	f3 e4       	ldi	r31, 0x43	; 67
    77b6:	df 2e       	mov	r13, r31
    77b8:	f0 2d       	mov	r31, r0
    77ba:	04 c0       	rjmp	.+8      	; 0x77c4 <_Z10SERVO_gotohdj+0x9e>
    77bc:	a1 2c       	mov	r10, r1
    77be:	b1 2c       	mov	r11, r1
    77c0:	c1 2c       	mov	r12, r1
    77c2:	d1 2c       	mov	r13, r1
    77c4:	20 e0       	ldi	r18, 0x00	; 0
    77c6:	30 ec       	ldi	r19, 0xC0	; 192
    77c8:	4f e7       	ldi	r20, 0x7F	; 127
    77ca:	54 e4       	ldi	r21, 0x44	; 68
    77cc:	6a 2d       	mov	r22, r10
    77ce:	7b 2d       	mov	r23, r11
    77d0:	8c 2d       	mov	r24, r12
    77d2:	9d 2d       	mov	r25, r13
    77d4:	97 d7       	rcall	.+3886   	; 0x8704 <__mulsf3>
    77d6:	20 e0       	ldi	r18, 0x00	; 0
    77d8:	30 e0       	ldi	r19, 0x00	; 0
    77da:	46 e9       	ldi	r20, 0x96	; 150
    77dc:	53 e4       	ldi	r21, 0x43	; 67
    77de:	37 d5       	rcall	.+2670   	; 0x824e <__divsf3>
    77e0:	a3 d5       	rcall	.+2886   	; 0x8328 <__fixunssfsi>
    77e2:	26 2f       	mov	r18, r22
    77e4:	9e e1       	ldi	r25, 0x1E	; 30
    77e6:	90 93 bc 1a 	sts	0x1ABC, r25
    77ea:	20 93 bd 1a 	sts	0x1ABD, r18
    77ee:	70 93 be 1a 	sts	0x1ABE, r23
    77f2:	10 93 bf 1a 	sts	0x1ABF, r17
    77f6:	d0 93 c0 1a 	sts	0x1AC0, r29
    77fa:	45 e0       	ldi	r20, 0x05	; 5
    77fc:	63 e0       	ldi	r22, 0x03	; 3
    77fe:	8c 2f       	mov	r24, r28
    7800:	3a df       	rcall	.-396    	; 0x7676 <_Z17send_servo_packethhh>
    7802:	df 91       	pop	r29
    7804:	cf 91       	pop	r28
    7806:	1f 91       	pop	r17
    7808:	0f 91       	pop	r16
    780a:	ff 90       	pop	r15
    780c:	ef 90       	pop	r14
    780e:	df 90       	pop	r13
    7810:	cf 90       	pop	r12
    7812:	bf 90       	pop	r11
    7814:	af 90       	pop	r10
    7816:	9f 90       	pop	r9
    7818:	08 95       	ret

0000781a <_Z21SERVO_buffer_positionhdj>:
    781a:	9f 92       	push	r9
    781c:	af 92       	push	r10
    781e:	bf 92       	push	r11
    7820:	cf 92       	push	r12
    7822:	df 92       	push	r13
    7824:	ef 92       	push	r14
    7826:	ff 92       	push	r15
    7828:	0f 93       	push	r16
    782a:	1f 93       	push	r17
    782c:	cf 93       	push	r28
    782e:	df 93       	push	r29
    7830:	c8 2f       	mov	r28, r24
    7832:	cb 01       	movw	r24, r22
    7834:	ba 01       	movw	r22, r20
    7836:	12 2f       	mov	r17, r18
    7838:	d3 2f       	mov	r29, r19
    783a:	5c 98       	cbi	0x0b, 4	; 11
    783c:	ef e3       	ldi	r30, 0x3F	; 63
    783e:	ff e1       	ldi	r31, 0x1F	; 31
    7840:	31 97       	sbiw	r30, 0x01	; 1
    7842:	f1 f7       	brne	.-4      	; 0x7840 <_Z21SERVO_buffer_positionhdj+0x26>
    7844:	00 c0       	rjmp	.+0      	; 0x7846 <_Z21SERVO_buffer_positionhdj+0x2c>
    7846:	00 00       	nop
    7848:	20 e0       	ldi	r18, 0x00	; 0
    784a:	30 e0       	ldi	r19, 0x00	; 0
    784c:	46 e1       	ldi	r20, 0x16	; 22
    784e:	53 e4       	ldi	r21, 0x43	; 67
    7850:	59 d7       	rcall	.+3762   	; 0x8704 <__mulsf3>
    7852:	26 e5       	ldi	r18, 0x56	; 86
    7854:	3e e0       	ldi	r19, 0x0E	; 14
    7856:	49 e4       	ldi	r20, 0x49	; 73
    7858:	50 e4       	ldi	r21, 0x40	; 64
    785a:	f9 d4       	rcall	.+2546   	; 0x824e <__divsf3>
    785c:	20 e0       	ldi	r18, 0x00	; 0
    785e:	30 e0       	ldi	r19, 0x00	; 0
    7860:	46 e1       	ldi	r20, 0x16	; 22
    7862:	53 e4       	ldi	r21, 0x43	; 67
    7864:	10 d4       	rcall	.+2080   	; 0x8086 <__addsf3>
    7866:	96 2e       	mov	r9, r22
    7868:	e7 2e       	mov	r14, r23
    786a:	f8 2e       	mov	r15, r24
    786c:	09 2f       	mov	r16, r25
    786e:	a6 2e       	mov	r10, r22
    7870:	b7 2e       	mov	r11, r23
    7872:	c8 2e       	mov	r12, r24
    7874:	d9 2e       	mov	r13, r25
    7876:	20 e0       	ldi	r18, 0x00	; 0
    7878:	30 e0       	ldi	r19, 0x00	; 0
    787a:	46 e9       	ldi	r20, 0x96	; 150
    787c:	53 e4       	ldi	r21, 0x43	; 67
    787e:	37 d7       	rcall	.+3694   	; 0x86ee <__gesf2>
    7880:	18 16       	cp	r1, r24
    7882:	5c f0       	brlt	.+22     	; 0x789a <_Z21SERVO_buffer_positionhdj+0x80>
    7884:	20 e0       	ldi	r18, 0x00	; 0
    7886:	30 e0       	ldi	r19, 0x00	; 0
    7888:	a9 01       	movw	r20, r18
    788a:	69 2d       	mov	r22, r9
    788c:	7e 2d       	mov	r23, r14
    788e:	8f 2d       	mov	r24, r15
    7890:	90 2f       	mov	r25, r16
    7892:	d6 d4       	rcall	.+2476   	; 0x8240 <__cmpsf2>
    7894:	88 23       	and	r24, r24
    7896:	84 f4       	brge	.+32     	; 0x78b8 <_Z21SERVO_buffer_positionhdj+0x9e>
    7898:	0b c0       	rjmp	.+22     	; 0x78b0 <_Z21SERVO_buffer_positionhdj+0x96>
    789a:	a1 2c       	mov	r10, r1
    789c:	b1 2c       	mov	r11, r1
    789e:	0f 2e       	mov	r0, r31
    78a0:	f6 e9       	ldi	r31, 0x96	; 150
    78a2:	cf 2e       	mov	r12, r31
    78a4:	f0 2d       	mov	r31, r0
    78a6:	0f 2e       	mov	r0, r31
    78a8:	f3 e4       	ldi	r31, 0x43	; 67
    78aa:	df 2e       	mov	r13, r31
    78ac:	f0 2d       	mov	r31, r0
    78ae:	04 c0       	rjmp	.+8      	; 0x78b8 <_Z21SERVO_buffer_positionhdj+0x9e>
    78b0:	a1 2c       	mov	r10, r1
    78b2:	b1 2c       	mov	r11, r1
    78b4:	c1 2c       	mov	r12, r1
    78b6:	d1 2c       	mov	r13, r1
    78b8:	20 e0       	ldi	r18, 0x00	; 0
    78ba:	30 ec       	ldi	r19, 0xC0	; 192
    78bc:	4f e7       	ldi	r20, 0x7F	; 127
    78be:	54 e4       	ldi	r21, 0x44	; 68
    78c0:	6a 2d       	mov	r22, r10
    78c2:	7b 2d       	mov	r23, r11
    78c4:	8c 2d       	mov	r24, r12
    78c6:	9d 2d       	mov	r25, r13
    78c8:	1d d7       	rcall	.+3642   	; 0x8704 <__mulsf3>
    78ca:	20 e0       	ldi	r18, 0x00	; 0
    78cc:	30 e0       	ldi	r19, 0x00	; 0
    78ce:	46 e9       	ldi	r20, 0x96	; 150
    78d0:	53 e4       	ldi	r21, 0x43	; 67
    78d2:	bd d4       	rcall	.+2426   	; 0x824e <__divsf3>
    78d4:	29 d5       	rcall	.+2642   	; 0x8328 <__fixunssfsi>
    78d6:	26 2f       	mov	r18, r22
    78d8:	9e e1       	ldi	r25, 0x1E	; 30
    78da:	90 93 bc 1a 	sts	0x1ABC, r25
    78de:	20 93 bd 1a 	sts	0x1ABD, r18
    78e2:	70 93 be 1a 	sts	0x1ABE, r23
    78e6:	10 93 bf 1a 	sts	0x1ABF, r17
    78ea:	d0 93 c0 1a 	sts	0x1AC0, r29
    78ee:	45 e0       	ldi	r20, 0x05	; 5
    78f0:	64 e0       	ldi	r22, 0x04	; 4
    78f2:	8c 2f       	mov	r24, r28
    78f4:	c0 de       	rcall	.-640    	; 0x7676 <_Z17send_servo_packethhh>
    78f6:	df 91       	pop	r29
    78f8:	cf 91       	pop	r28
    78fa:	1f 91       	pop	r17
    78fc:	0f 91       	pop	r16
    78fe:	ff 90       	pop	r15
    7900:	ef 90       	pop	r14
    7902:	df 90       	pop	r13
    7904:	cf 90       	pop	r12
    7906:	bf 90       	pop	r11
    7908:	af 90       	pop	r10
    790a:	9f 90       	pop	r9
    790c:	08 95       	ret

0000790e <_Z12SERVO_actionv>:
    790e:	40 e0       	ldi	r20, 0x00	; 0
    7910:	65 e0       	ldi	r22, 0x05	; 5
    7912:	8e ef       	ldi	r24, 0xFE	; 254
    7914:	b0 ce       	rjmp	.-672    	; 0x7676 <_Z17send_servo_packethhh>

00007916 <_Z22SERVO_set_torque_limithj>:
    7916:	92 e2       	ldi	r25, 0x22	; 34
    7918:	90 93 bc 1a 	sts	0x1ABC, r25
    791c:	60 93 bd 1a 	sts	0x1ABD, r22
    7920:	70 93 be 1a 	sts	0x1ABE, r23
    7924:	43 e0       	ldi	r20, 0x03	; 3
    7926:	63 e0       	ldi	r22, 0x03	; 3
    7928:	a6 ce       	rjmp	.-692    	; 0x7676 <_Z17send_servo_packethhh>

0000792a <_Z10SERVO_initv>:
    792a:	5c 98       	cbi	0x0b, 4	; 11
    792c:	10 92 cd 00 	sts	0x00CD, r1
    7930:	10 92 cc 00 	sts	0x00CC, r1
    7934:	88 e9       	ldi	r24, 0x98	; 152
    7936:	80 93 c9 00 	sts	0x00C9, r24
    793a:	86 e0       	ldi	r24, 0x06	; 6
    793c:	80 93 ca 00 	sts	0x00CA, r24
    7940:	54 9a       	sbi	0x0a, 4	; 10
    7942:	6f ef       	ldi	r22, 0xFF	; 255
    7944:	73 e0       	ldi	r23, 0x03	; 3
    7946:	8e ef       	ldi	r24, 0xFE	; 254
    7948:	e6 cf       	rjmp	.-52     	; 0x7916 <_Z22SERVO_set_torque_limithj>

0000794a <_Z22SERVO_set_return_levelhh>:
    794a:	90 e1       	ldi	r25, 0x10	; 16
    794c:	90 93 bc 1a 	sts	0x1ABC, r25
    7950:	60 93 bd 1a 	sts	0x1ABD, r22
    7954:	42 e0       	ldi	r20, 0x02	; 2
    7956:	63 e0       	ldi	r22, 0x03	; 3
    7958:	8e ce       	rjmp	.-740    	; 0x7676 <_Z17send_servo_packethhh>

0000795a <_Z27SERVO_set_return_delay_timehh>:
    795a:	95 e0       	ldi	r25, 0x05	; 5
    795c:	90 93 bc 1a 	sts	0x1ABC, r25
    7960:	60 93 bd 1a 	sts	0x1ABD, r22
    7964:	42 e0       	ldi	r20, 0x02	; 2
    7966:	63 e0       	ldi	r22, 0x03	; 3
    7968:	86 ce       	rjmp	.-756    	; 0x7676 <_Z17send_servo_packethhh>

0000796a <_Z19SERVO_update_EEPROMh>:
    796a:	cf 93       	push	r28
    796c:	c8 2f       	mov	r28, r24
    796e:	5c 98       	cbi	0x0b, 4	; 11
    7970:	61 e0       	ldi	r22, 0x01	; 1
    7972:	eb df       	rcall	.-42     	; 0x794a <_Z22SERVO_set_return_levelhh>
    7974:	8f e3       	ldi	r24, 0x3F	; 63
    7976:	9f e1       	ldi	r25, 0x1F	; 31
    7978:	01 97       	sbiw	r24, 0x01	; 1
    797a:	f1 f7       	brne	.-4      	; 0x7978 <_Z19SERVO_update_EEPROMh+0xe>
    797c:	00 c0       	rjmp	.+0      	; 0x797e <_Z19SERVO_update_EEPROMh+0x14>
    797e:	00 00       	nop
    7980:	64 e1       	ldi	r22, 0x14	; 20
    7982:	8c 2f       	mov	r24, r28
    7984:	ea df       	rcall	.-44     	; 0x795a <_Z27SERVO_set_return_delay_timehh>
    7986:	cf 91       	pop	r28
    7988:	08 95       	ret

0000798a <__vector_28>:


// -- Interrupts --

ISR (USART1_RX_vect)
{
    798a:	1f 92       	push	r1
    798c:	0f 92       	push	r0
    798e:	0f b6       	in	r0, 0x3f	; 63
    7990:	0f 92       	push	r0
    7992:	11 24       	eor	r1, r1
    7994:	0b b6       	in	r0, 0x3b	; 59
    7996:	0f 92       	push	r0
    7998:	2f 93       	push	r18
    799a:	3f 93       	push	r19
    799c:	4f 93       	push	r20
    799e:	5f 93       	push	r21
    79a0:	6f 93       	push	r22
    79a2:	7f 93       	push	r23
    79a4:	8f 93       	push	r24
    79a6:	9f 93       	push	r25
    79a8:	af 93       	push	r26
    79aa:	bf 93       	push	r27
    79ac:	ef 93       	push	r30
    79ae:	ff 93       	push	r31
	uint8_t data;
	data = UDR1;
    79b0:	60 91 ce 00 	lds	r22, 0x00CE
	if(FifoWrite(gServoRxFIFO, data))
    79b4:	80 91 3b 01 	lds	r24, 0x013B
    79b8:	90 91 3c 01 	lds	r25, 0x013C
    79bc:	0e 94 70 05 	call	0xae0	; 0xae0 <_Z9FifoWriteP4fifoh>
    79c0:	88 23       	and	r24, r24
    79c2:	19 f0       	breq	.+6      	; 0x79ca <__vector_28+0x40>
	{
		USART_SendMessage("ServoError: 1");
    79c4:	89 e7       	ldi	r24, 0x79	; 121
    79c6:	95 e1       	ldi	r25, 0x15	; 21
    79c8:	f9 d0       	rcall	.+498    	; 0x7bbc <_Z17USART_SendMessagePc>
	}
}
    79ca:	ff 91       	pop	r31
    79cc:	ef 91       	pop	r30
    79ce:	bf 91       	pop	r27
    79d0:	af 91       	pop	r26
    79d2:	9f 91       	pop	r25
    79d4:	8f 91       	pop	r24
    79d6:	7f 91       	pop	r23
    79d8:	6f 91       	pop	r22
    79da:	5f 91       	pop	r21
    79dc:	4f 91       	pop	r20
    79de:	3f 91       	pop	r19
    79e0:	2f 91       	pop	r18
    79e2:	0f 90       	pop	r0
    79e4:	0b be       	out	0x3b, r0	; 59
    79e6:	0f 90       	pop	r0
    79e8:	0f be       	out	0x3f, r0	; 63
    79ea:	0f 90       	pop	r0
    79ec:	1f 90       	pop	r1
    79ee:	18 95       	reti

000079f0 <_Z11USART_get_zv>:
{
	for(int i = 0; i < gRxBuffer[1]; i++)
	{
		gTxPayload[i] = gRxBuffer[i+2];
	}
	USART_SendPacket(gRxBuffer[0], gRxBuffer[1]);
    79f0:	50 91 4b 15 	lds	r21, 0x154B
    79f4:	40 91 4c 15 	lds	r20, 0x154C
    79f8:	30 91 4d 15 	lds	r19, 0x154D
    79fc:	20 91 4e 15 	lds	r18, 0x154E
    7a00:	65 2f       	mov	r22, r21
    7a02:	74 2f       	mov	r23, r20
    7a04:	83 2f       	mov	r24, r19
    7a06:	92 2f       	mov	r25, r18
    7a08:	08 95       	ret

00007a0a <_Z10USART_initv>:
    7a0a:	10 92 c5 00 	sts	0x00C5, r1
    7a0e:	87 e0       	ldi	r24, 0x07	; 7
    7a10:	80 93 c4 00 	sts	0x00C4, r24
    7a14:	88 e9       	ldi	r24, 0x98	; 152
    7a16:	80 93 c1 00 	sts	0x00C1, r24
    7a1a:	86 e0       	ldi	r24, 0x06	; 6
    7a1c:	80 93 c2 00 	sts	0x00C2, r24
    7a20:	82 e3       	ldi	r24, 0x32	; 50
    7a22:	80 93 50 15 	sts	0x1550, r24
    7a26:	10 92 41 1b 	sts	0x1B41, r1
    7a2a:	10 92 40 1b 	sts	0x1B40, r1
    7a2e:	08 95       	ret

00007a30 <_Z18USART_CheckTxReadyv>:
    7a30:	80 91 c0 00 	lds	r24, 0x00C0
    7a34:	80 72       	andi	r24, 0x20	; 32
    7a36:	08 95       	ret

00007a38 <_Z15USART_WriteByteh>:
    7a38:	cf 93       	push	r28
    7a3a:	c8 2f       	mov	r28, r24
    7a3c:	f9 df       	rcall	.-14     	; 0x7a30 <_Z18USART_CheckTxReadyv>
    7a3e:	88 23       	and	r24, r24
    7a40:	e9 f3       	breq	.-6      	; 0x7a3c <_Z15USART_WriteByteh+0x4>
    7a42:	c0 93 c6 00 	sts	0x00C6, r28
    7a46:	cf 91       	pop	r28
    7a48:	08 95       	ret

00007a4a <_Z11USART_crc16hh>:
    7a4a:	cf 92       	push	r12
    7a4c:	df 92       	push	r13
    7a4e:	ef 92       	push	r14
    7a50:	ff 92       	push	r15
    7a52:	0f 93       	push	r16
    7a54:	1f 93       	push	r17
    7a56:	cf 93       	push	r28
    7a58:	df 93       	push	r29
    7a5a:	66 23       	and	r22, r22
    7a5c:	09 f4       	brne	.+2      	; 0x7a60 <_Z11USART_crc16hh+0x16>
    7a5e:	3e c0       	rjmp	.+124    	; 0x7adc <_Z11USART_crc16hh+0x92>
    7a60:	06 2f       	mov	r16, r22
    7a62:	10 e0       	ldi	r17, 0x00	; 0
    7a64:	4f ef       	ldi	r20, 0xFF	; 255
    7a66:	5f ef       	ldi	r21, 0xFF	; 255
    7a68:	ee ef       	ldi	r30, 0xFE	; 254
    7a6a:	ff ef       	ldi	r31, 0xFF	; 255
    7a6c:	c6 2e       	mov	r12, r22
    7a6e:	d1 2c       	mov	r13, r1
    7a70:	e8 2e       	mov	r14, r24
    7a72:	f1 2c       	mov	r15, r1
    7a74:	c8 e0       	ldi	r28, 0x08	; 8
    7a76:	d0 e0       	ldi	r29, 0x00	; 0
    7a78:	ee 3f       	cpi	r30, 0xFE	; 254
    7a7a:	6f ef       	ldi	r22, 0xFF	; 255
    7a7c:	f6 07       	cpc	r31, r22
    7a7e:	19 f4       	brne	.+6      	; 0x7a86 <_Z11USART_crc16hh+0x3c>
    7a80:	8e 2d       	mov	r24, r14
    7a82:	9f 2d       	mov	r25, r15
    7a84:	30 c0       	rjmp	.+96     	; 0x7ae6 <_Z11USART_crc16hh+0x9c>
    7a86:	ef 3f       	cpi	r30, 0xFF	; 255
    7a88:	8f ef       	ldi	r24, 0xFF	; 255
    7a8a:	f8 07       	cpc	r31, r24
    7a8c:	19 f4       	brne	.+6      	; 0x7a94 <_Z11USART_crc16hh+0x4a>
    7a8e:	8c 2d       	mov	r24, r12
    7a90:	9d 2d       	mov	r25, r13
    7a92:	29 c0       	rjmp	.+82     	; 0x7ae6 <_Z11USART_crc16hh+0x9c>
    7a94:	df 01       	movw	r26, r30
    7a96:	a0 5b       	subi	r26, 0xB0	; 176
    7a98:	b0 4e       	sbci	r27, 0xE0	; 224
    7a9a:	8c 91       	ld	r24, X
    7a9c:	90 e0       	ldi	r25, 0x00	; 0
    7a9e:	23 c0       	rjmp	.+70     	; 0x7ae6 <_Z11USART_crc16hh+0x9c>
    7aa0:	ba 01       	movw	r22, r20
    7aa2:	68 27       	eor	r22, r24
    7aa4:	79 27       	eor	r23, r25
    7aa6:	60 ff       	sbrs	r22, 0
    7aa8:	07 c0       	rjmp	.+14     	; 0x7ab8 <_Z11USART_crc16hh+0x6e>
    7aaa:	56 95       	lsr	r21
    7aac:	47 95       	ror	r20
    7aae:	68 e0       	ldi	r22, 0x08	; 8
    7ab0:	46 27       	eor	r20, r22
    7ab2:	64 e8       	ldi	r22, 0x84	; 132
    7ab4:	56 27       	eor	r21, r22
    7ab6:	02 c0       	rjmp	.+4      	; 0x7abc <_Z11USART_crc16hh+0x72>
    7ab8:	56 95       	lsr	r21
    7aba:	47 95       	ror	r20
    7abc:	96 95       	lsr	r25
    7abe:	87 95       	ror	r24
    7ac0:	21 50       	subi	r18, 0x01	; 1
    7ac2:	31 09       	sbc	r19, r1
    7ac4:	69 f7       	brne	.-38     	; 0x7aa0 <_Z11USART_crc16hh+0x56>
    7ac6:	31 96       	adiw	r30, 0x01	; 1
    7ac8:	e0 17       	cp	r30, r16
    7aca:	f1 07       	cpc	r31, r17
    7acc:	a9 f6       	brne	.-86     	; 0x7a78 <_Z11USART_crc16hh+0x2e>
    7ace:	9a 01       	movw	r18, r20
    7ad0:	20 95       	com	r18
    7ad2:	30 95       	com	r19
    7ad4:	32 27       	eor	r19, r18
    7ad6:	23 27       	eor	r18, r19
    7ad8:	32 27       	eor	r19, r18
    7ada:	02 c0       	rjmp	.+4      	; 0x7ae0 <_Z11USART_crc16hh+0x96>
    7adc:	20 e0       	ldi	r18, 0x00	; 0
    7ade:	30 e0       	ldi	r19, 0x00	; 0
    7ae0:	82 2f       	mov	r24, r18
    7ae2:	93 2f       	mov	r25, r19
    7ae4:	02 c0       	rjmp	.+4      	; 0x7aea <_Z11USART_crc16hh+0xa0>
    7ae6:	9e 01       	movw	r18, r28
    7ae8:	db cf       	rjmp	.-74     	; 0x7aa0 <_Z11USART_crc16hh+0x56>
    7aea:	df 91       	pop	r29
    7aec:	cf 91       	pop	r28
    7aee:	1f 91       	pop	r17
    7af0:	0f 91       	pop	r16
    7af2:	ff 90       	pop	r15
    7af4:	ef 90       	pop	r14
    7af6:	df 90       	pop	r13
    7af8:	cf 90       	pop	r12
    7afa:	08 95       	ret

00007afc <_Z16USART_SendPacketch>:
    7afc:	0f 93       	push	r16
    7afe:	1f 93       	push	r17
    7b00:	cf 93       	push	r28
    7b02:	df 93       	push	r29
    7b04:	9e e7       	ldi	r25, 0x7E	; 126
    7b06:	90 93 4b 1d 	sts	0x1D4B, r25
    7b0a:	80 93 4c 1d 	sts	0x1D4C, r24
    7b0e:	60 93 4d 1d 	sts	0x1D4D, r22
    7b12:	26 2f       	mov	r18, r22
    7b14:	30 e0       	ldi	r19, 0x00	; 0
    7b16:	12 16       	cp	r1, r18
    7b18:	13 06       	cpc	r1, r19
    7b1a:	4c f5       	brge	.+82     	; 0x7b6e <_Z16USART_SendPacketch+0x72>
    7b1c:	e0 e5       	ldi	r30, 0x50	; 80
    7b1e:	ff e1       	ldi	r31, 0x1F	; 31
    7b20:	03 e0       	ldi	r16, 0x03	; 3
    7b22:	10 e0       	ldi	r17, 0x00	; 0
    7b24:	c0 e0       	ldi	r28, 0x00	; 0
    7b26:	d0 e0       	ldi	r29, 0x00	; 0
    7b28:	7d e7       	ldi	r23, 0x7D	; 125
    7b2a:	50 e2       	ldi	r21, 0x20	; 32
    7b2c:	90 81       	ld	r25, Z
    7b2e:	49 2f       	mov	r20, r25
    7b30:	4d 57       	subi	r20, 0x7D	; 125
    7b32:	42 30       	cpi	r20, 0x02	; 2
    7b34:	80 f4       	brcc	.+32     	; 0x7b56 <_Z16USART_SendPacketch+0x5a>
    7b36:	d8 01       	movw	r26, r16
    7b38:	a5 5b       	subi	r26, 0xB5	; 181
    7b3a:	b2 4e       	sbci	r27, 0xE2	; 226
    7b3c:	ac 0f       	add	r26, r28
    7b3e:	bd 1f       	adc	r27, r29
    7b40:	7c 93       	st	X, r23
    7b42:	0f 5f       	subi	r16, 0xFF	; 255
    7b44:	1f 4f       	sbci	r17, 0xFF	; 255
    7b46:	d8 01       	movw	r26, r16
    7b48:	a5 5b       	subi	r26, 0xB5	; 181
    7b4a:	b2 4e       	sbci	r27, 0xE2	; 226
    7b4c:	ac 0f       	add	r26, r28
    7b4e:	bd 1f       	adc	r27, r29
    7b50:	95 27       	eor	r25, r21
    7b52:	9c 93       	st	X, r25
    7b54:	06 c0       	rjmp	.+12     	; 0x7b62 <_Z16USART_SendPacketch+0x66>
    7b56:	d8 01       	movw	r26, r16
    7b58:	a5 5b       	subi	r26, 0xB5	; 181
    7b5a:	b2 4e       	sbci	r27, 0xE2	; 226
    7b5c:	ac 0f       	add	r26, r28
    7b5e:	bd 1f       	adc	r27, r29
    7b60:	9c 93       	st	X, r25
    7b62:	21 96       	adiw	r28, 0x01	; 1
    7b64:	31 96       	adiw	r30, 0x01	; 1
    7b66:	c2 17       	cp	r28, r18
    7b68:	d3 07       	cpc	r29, r19
    7b6a:	01 f7       	brne	.-64     	; 0x7b2c <_Z16USART_SendPacketch+0x30>
    7b6c:	04 c0       	rjmp	.+8      	; 0x7b76 <_Z16USART_SendPacketch+0x7a>
    7b6e:	03 e0       	ldi	r16, 0x03	; 3
    7b70:	10 e0       	ldi	r17, 0x00	; 0
    7b72:	c0 e0       	ldi	r28, 0x00	; 0
    7b74:	d0 e0       	ldi	r29, 0x00	; 0
    7b76:	69 df       	rcall	.-302    	; 0x7a4a <_Z11USART_crc16hh>
    7b78:	f8 01       	movw	r30, r16
    7b7a:	e5 5b       	subi	r30, 0xB5	; 181
    7b7c:	f2 4e       	sbci	r31, 0xE2	; 226
    7b7e:	ec 0f       	add	r30, r28
    7b80:	fd 1f       	adc	r31, r29
    7b82:	90 83       	st	Z, r25
    7b84:	81 83       	std	Z+1, r24	; 0x01
    7b86:	22 96       	adiw	r28, 0x02	; 2
    7b88:	0c 0f       	add	r16, r28
    7b8a:	1d 1f       	adc	r17, r29
    7b8c:	f8 01       	movw	r30, r16
    7b8e:	e5 5b       	subi	r30, 0xB5	; 181
    7b90:	f2 4e       	sbci	r31, 0xE2	; 226
    7b92:	8e e7       	ldi	r24, 0x7E	; 126
    7b94:	80 83       	st	Z, r24
    7b96:	c8 01       	movw	r24, r16
    7b98:	01 96       	adiw	r24, 0x01	; 1
    7b9a:	18 16       	cp	r1, r24
    7b9c:	19 06       	cpc	r1, r25
    7b9e:	4c f4       	brge	.+18     	; 0x7bb2 <_Z16USART_SendPacketch+0xb6>
    7ba0:	cb e4       	ldi	r28, 0x4B	; 75
    7ba2:	dd e1       	ldi	r29, 0x1D	; 29
    7ba4:	04 5b       	subi	r16, 0xB4	; 180
    7ba6:	12 4e       	sbci	r17, 0xE2	; 226
    7ba8:	89 91       	ld	r24, Y+
    7baa:	46 df       	rcall	.-372    	; 0x7a38 <_Z15USART_WriteByteh>
    7bac:	c0 17       	cp	r28, r16
    7bae:	d1 07       	cpc	r29, r17
    7bb0:	d9 f7       	brne	.-10     	; 0x7ba8 <_Z16USART_SendPacketch+0xac>
    7bb2:	df 91       	pop	r29
    7bb4:	cf 91       	pop	r28
    7bb6:	1f 91       	pop	r17
    7bb8:	0f 91       	pop	r16
    7bba:	08 95       	ret

00007bbc <_Z17USART_SendMessagePc>:
    7bbc:	cf 93       	push	r28
    7bbe:	df 93       	push	r29
    7bc0:	c8 2f       	mov	r28, r24
    7bc2:	d9 2f       	mov	r29, r25
    7bc4:	40 e5       	ldi	r20, 0x50	; 80
    7bc6:	5f e1       	ldi	r21, 0x1F	; 31
    7bc8:	20 e0       	ldi	r18, 0x00	; 0
    7bca:	30 e0       	ldi	r19, 0x00	; 0
    7bcc:	06 c0       	rjmp	.+12     	; 0x7bda <_Z17USART_SendMessagePc+0x1e>
    7bce:	69 91       	ld	r22, Y+
    7bd0:	fa 01       	movw	r30, r20
    7bd2:	61 93       	st	Z+, r22
    7bd4:	af 01       	movw	r20, r30
    7bd6:	2f 5f       	subi	r18, 0xFF	; 255
    7bd8:	3f 4f       	sbci	r19, 0xFF	; 255
    7bda:	e8 2f       	mov	r30, r24
    7bdc:	f9 2f       	mov	r31, r25
    7bde:	df 01       	movw	r26, r30
    7be0:	0d 90       	ld	r0, X+
    7be2:	00 20       	and	r0, r0
    7be4:	e9 f7       	brne	.-6      	; 0x7be0 <_Z17USART_SendMessagePc+0x24>
    7be6:	11 97       	sbiw	r26, 0x01	; 1
    7be8:	bd 01       	movw	r22, r26
    7bea:	6e 1b       	sub	r22, r30
    7bec:	7f 0b       	sbc	r23, r31
    7bee:	26 17       	cp	r18, r22
    7bf0:	37 07       	cpc	r19, r23
    7bf2:	68 f3       	brcs	.-38     	; 0x7bce <_Z17USART_SendMessagePc+0x12>
    7bf4:	8d e4       	ldi	r24, 0x4D	; 77
    7bf6:	82 df       	rcall	.-252    	; 0x7afc <_Z16USART_SendPacketch>
    7bf8:	df 91       	pop	r29
    7bfa:	cf 91       	pop	r28
    7bfc:	08 95       	ret

00007bfe <_Z15USART_SendValuef>:
    7bfe:	60 93 50 1f 	sts	0x1F50, r22
    7c02:	70 93 51 1f 	sts	0x1F51, r23
    7c06:	80 93 52 1f 	sts	0x1F52, r24
    7c0a:	90 93 53 1f 	sts	0x1F53, r25
    7c0e:	64 e0       	ldi	r22, 0x04	; 4
    7c10:	86 e5       	ldi	r24, 0x56	; 86
    7c12:	74 cf       	rjmp	.-280    	; 0x7afc <_Z16USART_SendPacketch>

00007c14 <_Z14USART_SendGyrov>:
    7c14:	fa db       	rcall	.-2060   	; 0x740a <_Z9MPU_get_pv>
    7c16:	60 93 50 1f 	sts	0x1F50, r22
    7c1a:	70 93 51 1f 	sts	0x1F51, r23
    7c1e:	80 93 52 1f 	sts	0x1F52, r24
    7c22:	90 93 53 1f 	sts	0x1F53, r25
    7c26:	fc db       	rcall	.-2056   	; 0x7420 <_Z9MPU_get_rv>
    7c28:	60 93 54 1f 	sts	0x1F54, r22
    7c2c:	70 93 55 1f 	sts	0x1F55, r23
    7c30:	80 93 56 1f 	sts	0x1F56, r24
    7c34:	90 93 57 1f 	sts	0x1F57, r25
    7c38:	dd db       	rcall	.-2118   	; 0x73f4 <_Z9MPU_get_yv>
    7c3a:	60 93 58 1f 	sts	0x1F58, r22
    7c3e:	70 93 59 1f 	sts	0x1F59, r23
    7c42:	80 93 5a 1f 	sts	0x1F5A, r24
    7c46:	90 93 5b 1f 	sts	0x1F5B, r25
    7c4a:	6c e0       	ldi	r22, 0x0C	; 12
    7c4c:	87 e4       	ldi	r24, 0x47	; 71
    7c4e:	56 cf       	rjmp	.-340    	; 0x7afc <_Z16USART_SendPacketch>

00007c50 <_Z20USART_send_turn_donev>:
    7c50:	60 e0       	ldi	r22, 0x00	; 0
    7c52:	84 e5       	ldi	r24, 0x54	; 84
    7c54:	53 cf       	rjmp	.-346    	; 0x7afc <_Z16USART_SendPacketch>

00007c56 <_Z25USART_DecodeMessageRxFIFOv>:
    7c56:	0f 93       	push	r16
    7c58:	1f 93       	push	r17
    7c5a:	cf 93       	push	r28
    7c5c:	df 93       	push	r29
    7c5e:	60 e0       	ldi	r22, 0x00	; 0
    7c60:	70 e0       	ldi	r23, 0x00	; 0
    7c62:	80 91 43 05 	lds	r24, 0x0543
    7c66:	90 91 44 05 	lds	r25, 0x0544
    7c6a:	0e 94 90 05 	call	0xb20	; 0xb20 <_Z8FifoReadP4fifoPh>
    7c6e:	81 11       	cpse	r24, r1
    7c70:	17 c0       	rjmp	.+46     	; 0x7ca0 <_Z25USART_DecodeMessageRxFIFOv+0x4a>
    7c72:	00 91 00 00 	lds	r16, 0x0000
    7c76:	10 e0       	ldi	r17, 0x00	; 0
    7c78:	10 16       	cp	r1, r16
    7c7a:	11 06       	cpc	r1, r17
    7c7c:	9c f4       	brge	.+38     	; 0x7ca4 <_Z25USART_DecodeMessageRxFIFOv+0x4e>
    7c7e:	c0 e0       	ldi	r28, 0x00	; 0
    7c80:	d0 e0       	ldi	r29, 0x00	; 0
    7c82:	60 e0       	ldi	r22, 0x00	; 0
    7c84:	70 e0       	ldi	r23, 0x00	; 0
    7c86:	80 91 43 05 	lds	r24, 0x0543
    7c8a:	90 91 44 05 	lds	r25, 0x0544
    7c8e:	0e 94 90 05 	call	0xb20	; 0xb20 <_Z8FifoReadP4fifoPh>
    7c92:	81 11       	cpse	r24, r1
    7c94:	09 c0       	rjmp	.+18     	; 0x7ca8 <_Z25USART_DecodeMessageRxFIFOv+0x52>
    7c96:	21 96       	adiw	r28, 0x01	; 1
    7c98:	c0 17       	cp	r28, r16
    7c9a:	d1 07       	cpc	r29, r17
    7c9c:	94 f3       	brlt	.-28     	; 0x7c82 <_Z25USART_DecodeMessageRxFIFOv+0x2c>
    7c9e:	05 c0       	rjmp	.+10     	; 0x7caa <_Z25USART_DecodeMessageRxFIFOv+0x54>
    7ca0:	81 e0       	ldi	r24, 0x01	; 1
    7ca2:	03 c0       	rjmp	.+6      	; 0x7caa <_Z25USART_DecodeMessageRxFIFOv+0x54>
    7ca4:	80 e0       	ldi	r24, 0x00	; 0
    7ca6:	01 c0       	rjmp	.+2      	; 0x7caa <_Z25USART_DecodeMessageRxFIFOv+0x54>
    7ca8:	81 e0       	ldi	r24, 0x01	; 1
    7caa:	df 91       	pop	r29
    7cac:	cf 91       	pop	r28
    7cae:	1f 91       	pop	r17
    7cb0:	0f 91       	pop	r16
    7cb2:	08 95       	ret

00007cb4 <_Z25USART_DecodeCommandRxFIFOv>:
    7cb4:	cf 93       	push	r28
    7cb6:	df 93       	push	r29
    7cb8:	60 e0       	ldi	r22, 0x00	; 0
    7cba:	70 e0       	ldi	r23, 0x00	; 0
    7cbc:	80 91 43 05 	lds	r24, 0x0543
    7cc0:	90 91 44 05 	lds	r25, 0x0544
    7cc4:	0e 94 90 05 	call	0xb20	; 0xb20 <_Z8FifoReadP4fifoPh>
    7cc8:	81 11       	cpse	r24, r1
    7cca:	34 c0       	rjmp	.+104    	; 0x7d34 <_Z25USART_DecodeCommandRxFIFOv+0x80>
    7ccc:	80 91 00 00 	lds	r24, 0x0000
    7cd0:	83 30       	cpi	r24, 0x03	; 3
    7cd2:	91 f5       	brne	.+100    	; 0x7d38 <_Z25USART_DecodeCommandRxFIFOv+0x84>
    7cd4:	60 e0       	ldi	r22, 0x00	; 0
    7cd6:	70 e0       	ldi	r23, 0x00	; 0
    7cd8:	80 91 43 05 	lds	r24, 0x0543
    7cdc:	90 91 44 05 	lds	r25, 0x0544
    7ce0:	0e 94 90 05 	call	0xb20	; 0xb20 <_Z8FifoReadP4fifoPh>
    7ce4:	81 11       	cpse	r24, r1
    7ce6:	2a c0       	rjmp	.+84     	; 0x7d3c <_Z25USART_DecodeCommandRxFIFOv+0x88>
    7ce8:	c0 91 00 00 	lds	r28, 0x0000
    7cec:	60 e0       	ldi	r22, 0x00	; 0
    7cee:	70 e0       	ldi	r23, 0x00	; 0
    7cf0:	80 91 43 05 	lds	r24, 0x0543
    7cf4:	90 91 44 05 	lds	r25, 0x0544
    7cf8:	0e 94 90 05 	call	0xb20	; 0xb20 <_Z8FifoReadP4fifoPh>
    7cfc:	81 11       	cpse	r24, r1
    7cfe:	20 c0       	rjmp	.+64     	; 0x7d40 <_Z25USART_DecodeCommandRxFIFOv+0x8c>
    7d00:	d0 91 00 00 	lds	r29, 0x0000
    7d04:	60 e0       	ldi	r22, 0x00	; 0
    7d06:	70 e0       	ldi	r23, 0x00	; 0
    7d08:	80 91 43 05 	lds	r24, 0x0543
    7d0c:	90 91 44 05 	lds	r25, 0x0544
    7d10:	0e 94 90 05 	call	0xb20	; 0xb20 <_Z8FifoReadP4fifoPh>
    7d14:	81 11       	cpse	r24, r1
    7d16:	16 c0       	rjmp	.+44     	; 0x7d44 <_Z25USART_DecodeCommandRxFIFOv+0x90>
    7d18:	80 91 00 00 	lds	r24, 0x0000
    7d1c:	80 93 41 1b 	sts	0x1B41, r24
    7d20:	c0 93 40 1b 	sts	0x1B40, r28
    7d24:	d0 93 50 15 	sts	0x1550, r29
    7d28:	9b b1       	in	r25, 0x0b	; 11
    7d2a:	80 e2       	ldi	r24, 0x20	; 32
    7d2c:	89 27       	eor	r24, r25
    7d2e:	8b b9       	out	0x0b, r24	; 11
    7d30:	80 e0       	ldi	r24, 0x00	; 0
    7d32:	09 c0       	rjmp	.+18     	; 0x7d46 <_Z25USART_DecodeCommandRxFIFOv+0x92>
    7d34:	81 e0       	ldi	r24, 0x01	; 1
    7d36:	07 c0       	rjmp	.+14     	; 0x7d46 <_Z25USART_DecodeCommandRxFIFOv+0x92>
    7d38:	81 e0       	ldi	r24, 0x01	; 1
    7d3a:	05 c0       	rjmp	.+10     	; 0x7d46 <_Z25USART_DecodeCommandRxFIFOv+0x92>
    7d3c:	81 e0       	ldi	r24, 0x01	; 1
    7d3e:	03 c0       	rjmp	.+6      	; 0x7d46 <_Z25USART_DecodeCommandRxFIFOv+0x92>
    7d40:	81 e0       	ldi	r24, 0x01	; 1
    7d42:	01 c0       	rjmp	.+2      	; 0x7d46 <_Z25USART_DecodeCommandRxFIFOv+0x92>
    7d44:	81 e0       	ldi	r24, 0x01	; 1
    7d46:	df 91       	pop	r29
    7d48:	cf 91       	pop	r28
    7d4a:	08 95       	ret

00007d4c <_Z27USART_DecodeElevationRxFIFOv>:
    7d4c:	cf 92       	push	r12
    7d4e:	df 92       	push	r13
    7d50:	ef 92       	push	r14
    7d52:	ff 92       	push	r15
    7d54:	60 e0       	ldi	r22, 0x00	; 0
    7d56:	70 e0       	ldi	r23, 0x00	; 0
    7d58:	80 91 43 05 	lds	r24, 0x0543
    7d5c:	90 91 44 05 	lds	r25, 0x0544
    7d60:	0e 94 90 05 	call	0xb20	; 0xb20 <_Z8FifoReadP4fifoPh>
    7d64:	81 11       	cpse	r24, r1
    7d66:	60 c0       	rjmp	.+192    	; 0x7e28 <_Z27USART_DecodeElevationRxFIFOv+0xdc>
    7d68:	80 91 00 00 	lds	r24, 0x0000
    7d6c:	81 30       	cpi	r24, 0x01	; 1
    7d6e:	09 f0       	breq	.+2      	; 0x7d72 <_Z27USART_DecodeElevationRxFIFOv+0x26>
    7d70:	5d c0       	rjmp	.+186    	; 0x7e2c <_Z27USART_DecodeElevationRxFIFOv+0xe0>
    7d72:	60 e0       	ldi	r22, 0x00	; 0
    7d74:	70 e0       	ldi	r23, 0x00	; 0
    7d76:	80 91 43 05 	lds	r24, 0x0543
    7d7a:	90 91 44 05 	lds	r25, 0x0544
    7d7e:	0e 94 90 05 	call	0xb20	; 0xb20 <_Z8FifoReadP4fifoPh>
    7d82:	81 11       	cpse	r24, r1
    7d84:	55 c0       	rjmp	.+170    	; 0x7e30 <_Z27USART_DecodeElevationRxFIFOv+0xe4>
    7d86:	80 91 00 00 	lds	r24, 0x0000
    7d8a:	81 30       	cpi	r24, 0x01	; 1
    7d8c:	31 f5       	brne	.+76     	; 0x7dda <_Z27USART_DecodeElevationRxFIFOv+0x8e>
    7d8e:	c0 90 4b 15 	lds	r12, 0x154B
    7d92:	d0 90 4c 15 	lds	r13, 0x154C
    7d96:	e0 90 4d 15 	lds	r14, 0x154D
    7d9a:	f0 90 4e 15 	lds	r15, 0x154E
    7d9e:	20 e0       	ldi	r18, 0x00	; 0
    7da0:	30 e0       	ldi	r19, 0x00	; 0
    7da2:	46 e1       	ldi	r20, 0x16	; 22
    7da4:	53 ec       	ldi	r21, 0xC3	; 195
    7da6:	c7 01       	movw	r24, r14
    7da8:	b6 01       	movw	r22, r12
    7daa:	a1 d4       	rcall	.+2370   	; 0x86ee <__gesf2>
    7dac:	18 16       	cp	r1, r24
    7dae:	0c f0       	brlt	.+2      	; 0x7db2 <_Z27USART_DecodeElevationRxFIFOv+0x66>
    7db0:	41 c0       	rjmp	.+130    	; 0x7e34 <_Z27USART_DecodeElevationRxFIFOv+0xe8>
    7db2:	20 e0       	ldi	r18, 0x00	; 0
    7db4:	30 e0       	ldi	r19, 0x00	; 0
    7db6:	40 ea       	ldi	r20, 0xA0	; 160
    7db8:	50 e4       	ldi	r21, 0x40	; 64
    7dba:	c7 01       	movw	r24, r14
    7dbc:	b6 01       	movw	r22, r12
    7dbe:	62 d1       	rcall	.+708    	; 0x8084 <__subsf3>
    7dc0:	60 93 4b 15 	sts	0x154B, r22
    7dc4:	70 93 4c 15 	sts	0x154C, r23
    7dc8:	80 93 4d 15 	sts	0x154D, r24
    7dcc:	90 93 4e 15 	sts	0x154E, r25
    7dd0:	81 e0       	ldi	r24, 0x01	; 1
    7dd2:	80 93 3c 1b 	sts	0x1B3C, r24
    7dd6:	80 e0       	ldi	r24, 0x00	; 0
    7dd8:	32 c0       	rjmp	.+100    	; 0x7e3e <_Z27USART_DecodeElevationRxFIFOv+0xf2>
    7dda:	81 11       	cpse	r24, r1
    7ddc:	2d c0       	rjmp	.+90     	; 0x7e38 <_Z27USART_DecodeElevationRxFIFOv+0xec>
    7dde:	c0 90 4b 15 	lds	r12, 0x154B
    7de2:	d0 90 4c 15 	lds	r13, 0x154C
    7de6:	e0 90 4d 15 	lds	r14, 0x154D
    7dea:	f0 90 4e 15 	lds	r15, 0x154E
    7dee:	20 e0       	ldi	r18, 0x00	; 0
    7df0:	30 e0       	ldi	r19, 0x00	; 0
    7df2:	40 ea       	ldi	r20, 0xA0	; 160
    7df4:	52 ec       	ldi	r21, 0xC2	; 194
    7df6:	c7 01       	movw	r24, r14
    7df8:	b6 01       	movw	r22, r12
    7dfa:	22 d2       	rcall	.+1092   	; 0x8240 <__cmpsf2>
    7dfc:	88 23       	and	r24, r24
    7dfe:	f4 f4       	brge	.+60     	; 0x7e3c <_Z27USART_DecodeElevationRxFIFOv+0xf0>
    7e00:	20 e0       	ldi	r18, 0x00	; 0
    7e02:	30 e0       	ldi	r19, 0x00	; 0
    7e04:	40 ea       	ldi	r20, 0xA0	; 160
    7e06:	50 e4       	ldi	r21, 0x40	; 64
    7e08:	c7 01       	movw	r24, r14
    7e0a:	b6 01       	movw	r22, r12
    7e0c:	3c d1       	rcall	.+632    	; 0x8086 <__addsf3>
    7e0e:	60 93 4b 15 	sts	0x154B, r22
    7e12:	70 93 4c 15 	sts	0x154C, r23
    7e16:	80 93 4d 15 	sts	0x154D, r24
    7e1a:	90 93 4e 15 	sts	0x154E, r25
    7e1e:	81 e0       	ldi	r24, 0x01	; 1
    7e20:	80 93 3c 1b 	sts	0x1B3C, r24
    7e24:	80 e0       	ldi	r24, 0x00	; 0
    7e26:	0b c0       	rjmp	.+22     	; 0x7e3e <_Z27USART_DecodeElevationRxFIFOv+0xf2>
    7e28:	81 e0       	ldi	r24, 0x01	; 1
    7e2a:	09 c0       	rjmp	.+18     	; 0x7e3e <_Z27USART_DecodeElevationRxFIFOv+0xf2>
    7e2c:	81 e0       	ldi	r24, 0x01	; 1
    7e2e:	07 c0       	rjmp	.+14     	; 0x7e3e <_Z27USART_DecodeElevationRxFIFOv+0xf2>
    7e30:	81 e0       	ldi	r24, 0x01	; 1
    7e32:	05 c0       	rjmp	.+10     	; 0x7e3e <_Z27USART_DecodeElevationRxFIFOv+0xf2>
    7e34:	80 e0       	ldi	r24, 0x00	; 0
    7e36:	03 c0       	rjmp	.+6      	; 0x7e3e <_Z27USART_DecodeElevationRxFIFOv+0xf2>
    7e38:	80 e0       	ldi	r24, 0x00	; 0
    7e3a:	01 c0       	rjmp	.+2      	; 0x7e3e <_Z27USART_DecodeElevationRxFIFOv+0xf2>
    7e3c:	80 e0       	ldi	r24, 0x00	; 0
    7e3e:	ff 90       	pop	r15
    7e40:	ef 90       	pop	r14
    7e42:	df 90       	pop	r13
    7e44:	cf 90       	pop	r12
    7e46:	08 95       	ret

00007e48 <_Z22USART_DecodeTurnRxFIFOv>:
    7e48:	cf 93       	push	r28
    7e4a:	df 93       	push	r29
    7e4c:	60 e0       	ldi	r22, 0x00	; 0
    7e4e:	70 e0       	ldi	r23, 0x00	; 0
    7e50:	80 91 43 05 	lds	r24, 0x0543
    7e54:	90 91 44 05 	lds	r25, 0x0544
    7e58:	0e 94 90 05 	call	0xb20	; 0xb20 <_Z8FifoReadP4fifoPh>
    7e5c:	81 11       	cpse	r24, r1
    7e5e:	3d c0       	rjmp	.+122    	; 0x7eda <_Z22USART_DecodeTurnRxFIFOv+0x92>
    7e60:	80 91 00 00 	lds	r24, 0x0000
    7e64:	83 30       	cpi	r24, 0x03	; 3
    7e66:	d9 f5       	brne	.+118    	; 0x7ede <_Z22USART_DecodeTurnRxFIFOv+0x96>
    7e68:	60 e0       	ldi	r22, 0x00	; 0
    7e6a:	70 e0       	ldi	r23, 0x00	; 0
    7e6c:	80 91 43 05 	lds	r24, 0x0543
    7e70:	90 91 44 05 	lds	r25, 0x0544
    7e74:	0e 94 90 05 	call	0xb20	; 0xb20 <_Z8FifoReadP4fifoPh>
    7e78:	81 11       	cpse	r24, r1
    7e7a:	33 c0       	rjmp	.+102    	; 0x7ee2 <_Z22USART_DecodeTurnRxFIFOv+0x9a>
    7e7c:	c0 91 00 00 	lds	r28, 0x0000
    7e80:	60 e0       	ldi	r22, 0x00	; 0
    7e82:	70 e0       	ldi	r23, 0x00	; 0
    7e84:	80 91 43 05 	lds	r24, 0x0543
    7e88:	90 91 44 05 	lds	r25, 0x0544
    7e8c:	0e 94 90 05 	call	0xb20	; 0xb20 <_Z8FifoReadP4fifoPh>
    7e90:	81 11       	cpse	r24, r1
    7e92:	29 c0       	rjmp	.+82     	; 0x7ee6 <_Z22USART_DecodeTurnRxFIFOv+0x9e>
    7e94:	d0 91 00 00 	lds	r29, 0x0000
    7e98:	60 e0       	ldi	r22, 0x00	; 0
    7e9a:	70 e0       	ldi	r23, 0x00	; 0
    7e9c:	80 91 43 05 	lds	r24, 0x0543
    7ea0:	90 91 44 05 	lds	r25, 0x0544
    7ea4:	0e 94 90 05 	call	0xb20	; 0xb20 <_Z8FifoReadP4fifoPh>
    7ea8:	81 11       	cpse	r24, r1
    7eaa:	1f c0       	rjmp	.+62     	; 0x7eea <_Z22USART_DecodeTurnRxFIFOv+0xa2>
    7eac:	20 91 00 00 	lds	r18, 0x0000
    7eb0:	9c 2f       	mov	r25, r28
    7eb2:	80 e0       	ldi	r24, 0x00	; 0
    7eb4:	8d 2b       	or	r24, r29
    7eb6:	90 93 3f 1b 	sts	0x1B3F, r25
    7eba:	80 93 3e 1b 	sts	0x1B3E, r24
    7ebe:	21 11       	cpse	r18, r1
    7ec0:	04 c0       	rjmp	.+8      	; 0x7eca <_Z22USART_DecodeTurnRxFIFOv+0x82>
    7ec2:	8f ef       	ldi	r24, 0xFF	; 255
    7ec4:	80 93 4f 15 	sts	0x154F, r24
    7ec8:	03 c0       	rjmp	.+6      	; 0x7ed0 <_Z22USART_DecodeTurnRxFIFOv+0x88>
    7eca:	81 e0       	ldi	r24, 0x01	; 1
    7ecc:	80 93 4f 15 	sts	0x154F, r24
    7ed0:	81 e0       	ldi	r24, 0x01	; 1
    7ed2:	80 93 3d 1b 	sts	0x1B3D, r24
    7ed6:	80 e0       	ldi	r24, 0x00	; 0
    7ed8:	09 c0       	rjmp	.+18     	; 0x7eec <_Z22USART_DecodeTurnRxFIFOv+0xa4>
    7eda:	81 e0       	ldi	r24, 0x01	; 1
    7edc:	07 c0       	rjmp	.+14     	; 0x7eec <_Z22USART_DecodeTurnRxFIFOv+0xa4>
    7ede:	81 e0       	ldi	r24, 0x01	; 1
    7ee0:	05 c0       	rjmp	.+10     	; 0x7eec <_Z22USART_DecodeTurnRxFIFOv+0xa4>
    7ee2:	81 e0       	ldi	r24, 0x01	; 1
    7ee4:	03 c0       	rjmp	.+6      	; 0x7eec <_Z22USART_DecodeTurnRxFIFOv+0xa4>
    7ee6:	81 e0       	ldi	r24, 0x01	; 1
    7ee8:	01 c0       	rjmp	.+2      	; 0x7eec <_Z22USART_DecodeTurnRxFIFOv+0xa4>
    7eea:	81 e0       	ldi	r24, 0x01	; 1
    7eec:	df 91       	pop	r29
    7eee:	cf 91       	pop	r28
    7ef0:	08 95       	ret

00007ef2 <_Z18USART_DecodeRxFIFOv>:
    7ef2:	20 c0       	rjmp	.+64     	; 0x7f34 <_Z18USART_DecodeRxFIFOv+0x42>
    7ef4:	80 91 00 00 	lds	r24, 0x0000
    7ef8:	87 34       	cpi	r24, 0x47	; 71
    7efa:	b9 f0       	breq	.+46     	; 0x7f2a <_Z18USART_DecodeRxFIFOv+0x38>
    7efc:	28 f4       	brcc	.+10     	; 0x7f08 <_Z18USART_DecodeRxFIFOv+0x16>
    7efe:	83 34       	cpi	r24, 0x43	; 67
    7f00:	61 f0       	breq	.+24     	; 0x7f1a <_Z18USART_DecodeRxFIFOv+0x28>
    7f02:	85 34       	cpi	r24, 0x45	; 69
    7f04:	b9 f4       	brne	.+46     	; 0x7f34 <_Z18USART_DecodeRxFIFOv+0x42>
    7f06:	0d c0       	rjmp	.+26     	; 0x7f22 <_Z18USART_DecodeRxFIFOv+0x30>
    7f08:	8d 34       	cpi	r24, 0x4D	; 77
    7f0a:	19 f0       	breq	.+6      	; 0x7f12 <_Z18USART_DecodeRxFIFOv+0x20>
    7f0c:	84 35       	cpi	r24, 0x54	; 84
    7f0e:	91 f4       	brne	.+36     	; 0x7f34 <_Z18USART_DecodeRxFIFOv+0x42>
    7f10:	0e c0       	rjmp	.+28     	; 0x7f2e <_Z18USART_DecodeRxFIFOv+0x3c>
    7f12:	a1 de       	rcall	.-702    	; 0x7c56 <_Z25USART_DecodeMessageRxFIFOv>
    7f14:	88 23       	and	r24, r24
    7f16:	71 f0       	breq	.+28     	; 0x7f34 <_Z18USART_DecodeRxFIFOv+0x42>
    7f18:	08 95       	ret
    7f1a:	cc de       	rcall	.-616    	; 0x7cb4 <_Z25USART_DecodeCommandRxFIFOv>
    7f1c:	88 23       	and	r24, r24
    7f1e:	51 f0       	breq	.+20     	; 0x7f34 <_Z18USART_DecodeRxFIFOv+0x42>
    7f20:	08 95       	ret
    7f22:	14 df       	rcall	.-472    	; 0x7d4c <_Z27USART_DecodeElevationRxFIFOv>
    7f24:	88 23       	and	r24, r24
    7f26:	31 f0       	breq	.+12     	; 0x7f34 <_Z18USART_DecodeRxFIFOv+0x42>
    7f28:	08 95       	ret
    7f2a:	74 de       	rcall	.-792    	; 0x7c14 <_Z14USART_SendGyrov>
    7f2c:	03 c0       	rjmp	.+6      	; 0x7f34 <_Z18USART_DecodeRxFIFOv+0x42>
    7f2e:	8c df       	rcall	.-232    	; 0x7e48 <_Z22USART_DecodeTurnRxFIFOv>
    7f30:	81 11       	cpse	r24, r1
    7f32:	0a c0       	rjmp	.+20     	; 0x7f48 <_Z18USART_DecodeRxFIFOv+0x56>
    7f34:	60 e0       	ldi	r22, 0x00	; 0
    7f36:	70 e0       	ldi	r23, 0x00	; 0
    7f38:	80 91 43 05 	lds	r24, 0x0543
    7f3c:	90 91 44 05 	lds	r25, 0x0544
    7f40:	0e 94 90 05 	call	0xb20	; 0xb20 <_Z8FifoReadP4fifoPh>
    7f44:	88 23       	and	r24, r24
    7f46:	b1 f2       	breq	.-84     	; 0x7ef4 <_Z18USART_DecodeRxFIFOv+0x2>
    7f48:	08 95       	ret

00007f4a <_Z20USART_elevation_flagv>:
    7f4a:	80 91 3c 1b 	lds	r24, 0x1B3C
    7f4e:	88 23       	and	r24, r24
    7f50:	21 f0       	breq	.+8      	; 0x7f5a <_Z20USART_elevation_flagv+0x10>
    7f52:	10 92 3c 1b 	sts	0x1B3C, r1
    7f56:	81 e0       	ldi	r24, 0x01	; 1
    7f58:	08 95       	ret
    7f5a:	80 e0       	ldi	r24, 0x00	; 0
    7f5c:	08 95       	ret

00007f5e <__vector_20>:
}


ISR (USART0_RX_vect)
{
    7f5e:	1f 92       	push	r1
    7f60:	0f 92       	push	r0
    7f62:	0f b6       	in	r0, 0x3f	; 63
    7f64:	0f 92       	push	r0
    7f66:	11 24       	eor	r1, r1
    7f68:	0b b6       	in	r0, 0x3b	; 59
    7f6a:	0f 92       	push	r0
    7f6c:	ef 92       	push	r14
    7f6e:	ff 92       	push	r15
    7f70:	0f 93       	push	r16
    7f72:	1f 93       	push	r17
    7f74:	2f 93       	push	r18
    7f76:	3f 93       	push	r19
    7f78:	4f 93       	push	r20
    7f7a:	5f 93       	push	r21
    7f7c:	6f 93       	push	r22
    7f7e:	7f 93       	push	r23
    7f80:	8f 93       	push	r24
    7f82:	9f 93       	push	r25
    7f84:	af 93       	push	r26
    7f86:	bf 93       	push	r27
    7f88:	cf 93       	push	r28
    7f8a:	df 93       	push	r29
    7f8c:	ef 93       	push	r30
    7f8e:	ff 93       	push	r31
	uint8_t data;
	data = UDR0; // read data from buffer TODO: add check for overflow
    7f90:	20 91 c6 00 	lds	r18, 0x00C6
	
	
	
	if(data == 0x7e)
    7f94:	2e 37       	cpi	r18, 0x7E	; 126
    7f96:	c9 f5       	brne	.+114    	; 0x800a <__vector_20+0xac>
	{
		if(gRxBufferIndex >= 4 || gRxBufferIndex == gRxBuffer[1] + 4) //TODO: add crc check
    7f98:	80 91 44 1b 	lds	r24, 0x1B44
    7f9c:	90 91 45 1b 	lds	r25, 0x1B45
    7fa0:	84 30       	cpi	r24, 0x04	; 4
    7fa2:	91 05       	cpc	r25, r1
    7fa4:	40 f4       	brcc	.+16     	; 0x7fb6 <__vector_20+0x58>
    7fa6:	20 91 47 1b 	lds	r18, 0x1B47
    7faa:	30 e0       	ldi	r19, 0x00	; 0
    7fac:	2c 5f       	subi	r18, 0xFC	; 252
    7fae:	3f 4f       	sbci	r19, 0xFF	; 255
    7fb0:	82 17       	cp	r24, r18
    7fb2:	93 07       	cpc	r25, r19
    7fb4:	29 f5       	brne	.+74     	; 0x8000 <__vector_20+0xa2>
		{
			if(gInvertNextFlag)
    7fb6:	80 91 42 1b 	lds	r24, 0x1B42
    7fba:	90 91 43 1b 	lds	r25, 0x1B43
    7fbe:	89 2b       	or	r24, r25
    7fc0:	21 f0       	breq	.+8      	; 0x7fca <__vector_20+0x6c>
			{
				data = (1<<5)^data;
				gInvertNextFlag = 0;
    7fc2:	10 92 43 1b 	sts	0x1B43, r1
    7fc6:	10 92 42 1b 	sts	0x1B42, r1
    7fca:	06 e4       	ldi	r16, 0x46	; 70
    7fcc:	1b e1       	ldi	r17, 0x1B	; 27
			}
			
			
			// Add packet (no crc) to fifo-buffer to cue it for decoding
			for(int i = 0; i < gRxBuffer[1] + 2; ++i)
    7fce:	c0 e0       	ldi	r28, 0x00	; 0
    7fd0:	d0 e0       	ldi	r29, 0x00	; 0
    7fd2:	0f 2e       	mov	r0, r31
    7fd4:	f7 e4       	ldi	r31, 0x47	; 71
    7fd6:	ef 2e       	mov	r14, r31
    7fd8:	fb e1       	ldi	r31, 0x1B	; 27
    7fda:	ff 2e       	mov	r15, r31
    7fdc:	f0 2d       	mov	r31, r0
			{
				if(FifoWrite(gRxFIFO, gRxBuffer[i]))
    7fde:	f8 01       	movw	r30, r16
    7fe0:	61 91       	ld	r22, Z+
    7fe2:	8f 01       	movw	r16, r30
    7fe4:	80 91 43 05 	lds	r24, 0x0543
    7fe8:	90 91 44 05 	lds	r25, 0x0544
    7fec:	0e 94 70 05 	call	0xae0	; 0xae0 <_Z9FifoWriteP4fifoh>
				gInvertNextFlag = 0;
			}
			
			
			// Add packet (no crc) to fifo-buffer to cue it for decoding
			for(int i = 0; i < gRxBuffer[1] + 2; ++i)
    7ff0:	21 96       	adiw	r28, 0x01	; 1
    7ff2:	f7 01       	movw	r30, r14
    7ff4:	80 81       	ld	r24, Z
    7ff6:	90 e0       	ldi	r25, 0x00	; 0
    7ff8:	02 96       	adiw	r24, 0x02	; 2
    7ffa:	c8 17       	cp	r28, r24
    7ffc:	d9 07       	cpc	r29, r25
    7ffe:	7c f3       	brlt	.-34     	; 0x7fde <__vector_20+0x80>
					//send_string(S_ADRESS,"U_FIFO-full");
				}
			}
		}
		
		gRxBufferIndex = 0; // always reset buffer index when frame delimiter (0x7e) is read
    8000:	10 92 45 1b 	sts	0x1B45, r1
    8004:	10 92 44 1b 	sts	0x1B44, r1
    8008:	16 c0       	rjmp	.+44     	; 0x8036 <__vector_20+0xd8>
		
	}else if(data == 0x7d)
    800a:	2d 37       	cpi	r18, 0x7D	; 125
    800c:	39 f4       	brne	.+14     	; 0x801c <__vector_20+0xbe>
	{
		gInvertNextFlag = 1;
    800e:	81 e0       	ldi	r24, 0x01	; 1
    8010:	90 e0       	ldi	r25, 0x00	; 0
    8012:	90 93 43 1b 	sts	0x1B43, r25
    8016:	80 93 42 1b 	sts	0x1B42, r24
    801a:	0d c0       	rjmp	.+26     	; 0x8036 <__vector_20+0xd8>
	}else
	{
		gRxBuffer[gRxBufferIndex] = data;
    801c:	80 91 44 1b 	lds	r24, 0x1B44
    8020:	90 91 45 1b 	lds	r25, 0x1B45
    8024:	fc 01       	movw	r30, r24
    8026:	ea 5b       	subi	r30, 0xBA	; 186
    8028:	f4 4e       	sbci	r31, 0xE4	; 228
    802a:	20 83       	st	Z, r18
		++gRxBufferIndex;
    802c:	01 96       	adiw	r24, 0x01	; 1
    802e:	90 93 45 1b 	sts	0x1B45, r25
    8032:	80 93 44 1b 	sts	0x1B44, r24
	}
	
	
}
    8036:	ff 91       	pop	r31
    8038:	ef 91       	pop	r30
    803a:	df 91       	pop	r29
    803c:	cf 91       	pop	r28
    803e:	bf 91       	pop	r27
    8040:	af 91       	pop	r26
    8042:	9f 91       	pop	r25
    8044:	8f 91       	pop	r24
    8046:	7f 91       	pop	r23
    8048:	6f 91       	pop	r22
    804a:	5f 91       	pop	r21
    804c:	4f 91       	pop	r20
    804e:	3f 91       	pop	r19
    8050:	2f 91       	pop	r18
    8052:	1f 91       	pop	r17
    8054:	0f 91       	pop	r16
    8056:	ff 90       	pop	r15
    8058:	ef 90       	pop	r14
    805a:	0f 90       	pop	r0
    805c:	0b be       	out	0x3b, r0	; 59
    805e:	0f 90       	pop	r0
    8060:	0f be       	out	0x3f, r0	; 63
    8062:	0f 90       	pop	r0
    8064:	1f 90       	pop	r1
    8066:	18 95       	reti

00008068 <acos>:
    8068:	9f 93       	push	r25
    806a:	9f 77       	andi	r25, 0x7F	; 127
    806c:	33 d2       	rcall	.+1126   	; 0x84d4 <__fp_arccos>
    806e:	0f 90       	pop	r0
    8070:	00 20       	and	r0, r0
    8072:	3a f4       	brpl	.+14     	; 0x8082 <acos+0x1a>
    8074:	90 58       	subi	r25, 0x80	; 128
    8076:	a2 ea       	ldi	r26, 0xA2	; 162
    8078:	2a ed       	ldi	r18, 0xDA	; 218
    807a:	3f e0       	ldi	r19, 0x0F	; 15
    807c:	49 e4       	ldi	r20, 0x49	; 73
    807e:	50 e4       	ldi	r21, 0x40	; 64
    8080:	13 d0       	rcall	.+38     	; 0x80a8 <__addsf3x>
    8082:	ea c2       	rjmp	.+1492   	; 0x8658 <__fp_round>

00008084 <__subsf3>:
    8084:	50 58       	subi	r21, 0x80	; 128

00008086 <__addsf3>:
    8086:	bb 27       	eor	r27, r27
    8088:	aa 27       	eor	r26, r26
    808a:	0e d0       	rcall	.+28     	; 0x80a8 <__addsf3x>
    808c:	e5 c2       	rjmp	.+1482   	; 0x8658 <__fp_round>
    808e:	ae d2       	rcall	.+1372   	; 0x85ec <__fp_pscA>
    8090:	30 f0       	brcs	.+12     	; 0x809e <__addsf3+0x18>
    8092:	b3 d2       	rcall	.+1382   	; 0x85fa <__fp_pscB>
    8094:	20 f0       	brcs	.+8      	; 0x809e <__addsf3+0x18>
    8096:	31 f4       	brne	.+12     	; 0x80a4 <__addsf3+0x1e>
    8098:	9f 3f       	cpi	r25, 0xFF	; 255
    809a:	11 f4       	brne	.+4      	; 0x80a0 <__addsf3+0x1a>
    809c:	1e f4       	brtc	.+6      	; 0x80a4 <__addsf3+0x1e>
    809e:	6d c2       	rjmp	.+1242   	; 0x857a <__fp_nan>
    80a0:	0e f4       	brtc	.+2      	; 0x80a4 <__addsf3+0x1e>
    80a2:	e0 95       	com	r30
    80a4:	e7 fb       	bst	r30, 7
    80a6:	55 c2       	rjmp	.+1194   	; 0x8552 <__fp_inf>

000080a8 <__addsf3x>:
    80a8:	e9 2f       	mov	r30, r25
    80aa:	f8 d2       	rcall	.+1520   	; 0x869c <__fp_split3>
    80ac:	80 f3       	brcs	.-32     	; 0x808e <__addsf3+0x8>
    80ae:	ba 17       	cp	r27, r26
    80b0:	62 07       	cpc	r22, r18
    80b2:	73 07       	cpc	r23, r19
    80b4:	84 07       	cpc	r24, r20
    80b6:	95 07       	cpc	r25, r21
    80b8:	18 f0       	brcs	.+6      	; 0x80c0 <__addsf3x+0x18>
    80ba:	71 f4       	brne	.+28     	; 0x80d8 <__addsf3x+0x30>
    80bc:	9e f5       	brtc	.+102    	; 0x8124 <__addsf3x+0x7c>
    80be:	10 c3       	rjmp	.+1568   	; 0x86e0 <__fp_zero>
    80c0:	0e f4       	brtc	.+2      	; 0x80c4 <__addsf3x+0x1c>
    80c2:	e0 95       	com	r30
    80c4:	0b 2e       	mov	r0, r27
    80c6:	ba 2f       	mov	r27, r26
    80c8:	a0 2d       	mov	r26, r0
    80ca:	0b 01       	movw	r0, r22
    80cc:	b9 01       	movw	r22, r18
    80ce:	90 01       	movw	r18, r0
    80d0:	0c 01       	movw	r0, r24
    80d2:	ca 01       	movw	r24, r20
    80d4:	a0 01       	movw	r20, r0
    80d6:	11 24       	eor	r1, r1
    80d8:	ff 27       	eor	r31, r31
    80da:	59 1b       	sub	r21, r25
    80dc:	99 f0       	breq	.+38     	; 0x8104 <__addsf3x+0x5c>
    80de:	59 3f       	cpi	r21, 0xF9	; 249
    80e0:	50 f4       	brcc	.+20     	; 0x80f6 <__addsf3x+0x4e>
    80e2:	50 3e       	cpi	r21, 0xE0	; 224
    80e4:	68 f1       	brcs	.+90     	; 0x8140 <__addsf3x+0x98>
    80e6:	1a 16       	cp	r1, r26
    80e8:	f0 40       	sbci	r31, 0x00	; 0
    80ea:	a2 2f       	mov	r26, r18
    80ec:	23 2f       	mov	r18, r19
    80ee:	34 2f       	mov	r19, r20
    80f0:	44 27       	eor	r20, r20
    80f2:	58 5f       	subi	r21, 0xF8	; 248
    80f4:	f3 cf       	rjmp	.-26     	; 0x80dc <__addsf3x+0x34>
    80f6:	46 95       	lsr	r20
    80f8:	37 95       	ror	r19
    80fa:	27 95       	ror	r18
    80fc:	a7 95       	ror	r26
    80fe:	f0 40       	sbci	r31, 0x00	; 0
    8100:	53 95       	inc	r21
    8102:	c9 f7       	brne	.-14     	; 0x80f6 <__addsf3x+0x4e>
    8104:	7e f4       	brtc	.+30     	; 0x8124 <__addsf3x+0x7c>
    8106:	1f 16       	cp	r1, r31
    8108:	ba 0b       	sbc	r27, r26
    810a:	62 0b       	sbc	r22, r18
    810c:	73 0b       	sbc	r23, r19
    810e:	84 0b       	sbc	r24, r20
    8110:	ba f0       	brmi	.+46     	; 0x8140 <__addsf3x+0x98>
    8112:	91 50       	subi	r25, 0x01	; 1
    8114:	a1 f0       	breq	.+40     	; 0x813e <__addsf3x+0x96>
    8116:	ff 0f       	add	r31, r31
    8118:	bb 1f       	adc	r27, r27
    811a:	66 1f       	adc	r22, r22
    811c:	77 1f       	adc	r23, r23
    811e:	88 1f       	adc	r24, r24
    8120:	c2 f7       	brpl	.-16     	; 0x8112 <__addsf3x+0x6a>
    8122:	0e c0       	rjmp	.+28     	; 0x8140 <__addsf3x+0x98>
    8124:	ba 0f       	add	r27, r26
    8126:	62 1f       	adc	r22, r18
    8128:	73 1f       	adc	r23, r19
    812a:	84 1f       	adc	r24, r20
    812c:	48 f4       	brcc	.+18     	; 0x8140 <__addsf3x+0x98>
    812e:	87 95       	ror	r24
    8130:	77 95       	ror	r23
    8132:	67 95       	ror	r22
    8134:	b7 95       	ror	r27
    8136:	f7 95       	ror	r31
    8138:	9e 3f       	cpi	r25, 0xFE	; 254
    813a:	08 f0       	brcs	.+2      	; 0x813e <__addsf3x+0x96>
    813c:	b3 cf       	rjmp	.-154    	; 0x80a4 <__addsf3+0x1e>
    813e:	93 95       	inc	r25
    8140:	88 0f       	add	r24, r24
    8142:	08 f0       	brcs	.+2      	; 0x8146 <__addsf3x+0x9e>
    8144:	99 27       	eor	r25, r25
    8146:	ee 0f       	add	r30, r30
    8148:	97 95       	ror	r25
    814a:	87 95       	ror	r24
    814c:	08 95       	ret

0000814e <asin>:
    814e:	9f 93       	push	r25
    8150:	9f 77       	andi	r25, 0x7F	; 127
    8152:	ee e3       	ldi	r30, 0x3E	; 62
    8154:	89 37       	cpi	r24, 0x79	; 121
    8156:	9e 07       	cpc	r25, r30
    8158:	20 f4       	brcc	.+8      	; 0x8162 <asin+0x14>
    815a:	ec e8       	ldi	r30, 0x8C	; 140
    815c:	f0 e0       	ldi	r31, 0x00	; 0
    815e:	35 d2       	rcall	.+1130   	; 0x85ca <__fp_powsodd>
    8160:	09 c0       	rjmp	.+18     	; 0x8174 <asin+0x26>
    8162:	b8 d1       	rcall	.+880    	; 0x84d4 <__fp_arccos>
    8164:	90 58       	subi	r25, 0x80	; 128
    8166:	a2 ea       	ldi	r26, 0xA2	; 162
    8168:	2a ed       	ldi	r18, 0xDA	; 218
    816a:	3f e0       	ldi	r19, 0x0F	; 15
    816c:	49 ec       	ldi	r20, 0xC9	; 201
    816e:	5f e3       	ldi	r21, 0x3F	; 63
    8170:	9b df       	rcall	.-202    	; 0x80a8 <__addsf3x>
    8172:	72 d2       	rcall	.+1252   	; 0x8658 <__fp_round>
    8174:	0f 90       	pop	r0
    8176:	07 fc       	sbrc	r0, 7
    8178:	90 58       	subi	r25, 0x80	; 128
    817a:	08 95       	ret
    817c:	37 d2       	rcall	.+1134   	; 0x85ec <__fp_pscA>
    817e:	58 f0       	brcs	.+22     	; 0x8196 <asin+0x48>
    8180:	80 e8       	ldi	r24, 0x80	; 128
    8182:	91 e0       	ldi	r25, 0x01	; 1
    8184:	09 f4       	brne	.+2      	; 0x8188 <asin+0x3a>
    8186:	9e ef       	ldi	r25, 0xFE	; 254
    8188:	38 d2       	rcall	.+1136   	; 0x85fa <__fp_pscB>
    818a:	28 f0       	brcs	.+10     	; 0x8196 <asin+0x48>
    818c:	40 e8       	ldi	r20, 0x80	; 128
    818e:	51 e0       	ldi	r21, 0x01	; 1
    8190:	59 f4       	brne	.+22     	; 0x81a8 <atan2+0xe>
    8192:	5e ef       	ldi	r21, 0xFE	; 254
    8194:	09 c0       	rjmp	.+18     	; 0x81a8 <atan2+0xe>
    8196:	f1 c1       	rjmp	.+994    	; 0x857a <__fp_nan>
    8198:	a3 c2       	rjmp	.+1350   	; 0x86e0 <__fp_zero>

0000819a <atan2>:
    819a:	e9 2f       	mov	r30, r25
    819c:	e0 78       	andi	r30, 0x80	; 128
    819e:	7e d2       	rcall	.+1276   	; 0x869c <__fp_split3>
    81a0:	68 f3       	brcs	.-38     	; 0x817c <asin+0x2e>
    81a2:	09 2e       	mov	r0, r25
    81a4:	05 2a       	or	r0, r21
    81a6:	c1 f3       	breq	.-16     	; 0x8198 <asin+0x4a>
    81a8:	26 17       	cp	r18, r22
    81aa:	37 07       	cpc	r19, r23
    81ac:	48 07       	cpc	r20, r24
    81ae:	59 07       	cpc	r21, r25
    81b0:	38 f0       	brcs	.+14     	; 0x81c0 <atan2+0x26>
    81b2:	0e 2e       	mov	r0, r30
    81b4:	07 f8       	bld	r0, 7
    81b6:	e0 25       	eor	r30, r0
    81b8:	69 f0       	breq	.+26     	; 0x81d4 <atan2+0x3a>
    81ba:	e0 25       	eor	r30, r0
    81bc:	e0 64       	ori	r30, 0x40	; 64
    81be:	0a c0       	rjmp	.+20     	; 0x81d4 <atan2+0x3a>
    81c0:	ef 63       	ori	r30, 0x3F	; 63
    81c2:	07 f8       	bld	r0, 7
    81c4:	00 94       	com	r0
    81c6:	07 fa       	bst	r0, 7
    81c8:	db 01       	movw	r26, r22
    81ca:	b9 01       	movw	r22, r18
    81cc:	9d 01       	movw	r18, r26
    81ce:	dc 01       	movw	r26, r24
    81d0:	ca 01       	movw	r24, r20
    81d2:	ad 01       	movw	r20, r26
    81d4:	ef 93       	push	r30
    81d6:	4a d0       	rcall	.+148    	; 0x826c <__divsf3_pse>
    81d8:	3f d2       	rcall	.+1150   	; 0x8658 <__fp_round>
    81da:	0a d0       	rcall	.+20     	; 0x81f0 <atan>
    81dc:	5f 91       	pop	r21
    81de:	55 23       	and	r21, r21
    81e0:	31 f0       	breq	.+12     	; 0x81ee <atan2+0x54>
    81e2:	2b ed       	ldi	r18, 0xDB	; 219
    81e4:	3f e0       	ldi	r19, 0x0F	; 15
    81e6:	49 e4       	ldi	r20, 0x49	; 73
    81e8:	50 fd       	sbrc	r21, 0
    81ea:	49 ec       	ldi	r20, 0xC9	; 201
    81ec:	4c cf       	rjmp	.-360    	; 0x8086 <__addsf3>
    81ee:	08 95       	ret

000081f0 <atan>:
    81f0:	df 93       	push	r29
    81f2:	dd 27       	eor	r29, r29
    81f4:	b9 2f       	mov	r27, r25
    81f6:	bf 77       	andi	r27, 0x7F	; 127
    81f8:	40 e8       	ldi	r20, 0x80	; 128
    81fa:	5f e3       	ldi	r21, 0x3F	; 63
    81fc:	16 16       	cp	r1, r22
    81fe:	17 06       	cpc	r1, r23
    8200:	48 07       	cpc	r20, r24
    8202:	5b 07       	cpc	r21, r27
    8204:	10 f4       	brcc	.+4      	; 0x820a <atan+0x1a>
    8206:	d9 2f       	mov	r29, r25
    8208:	76 d2       	rcall	.+1260   	; 0x86f6 <inverse>
    820a:	9f 93       	push	r25
    820c:	8f 93       	push	r24
    820e:	7f 93       	push	r23
    8210:	6f 93       	push	r22
    8212:	23 d3       	rcall	.+1606   	; 0x885a <square>
    8214:	e0 ea       	ldi	r30, 0xA0	; 160
    8216:	f0 e0       	ldi	r31, 0x00	; 0
    8218:	b3 d1       	rcall	.+870    	; 0x8580 <__fp_powser>
    821a:	1e d2       	rcall	.+1084   	; 0x8658 <__fp_round>
    821c:	2f 91       	pop	r18
    821e:	3f 91       	pop	r19
    8220:	4f 91       	pop	r20
    8222:	5f 91       	pop	r21
    8224:	7b d2       	rcall	.+1270   	; 0x871c <__mulsf3x>
    8226:	dd 23       	and	r29, r29
    8228:	49 f0       	breq	.+18     	; 0x823c <atan+0x4c>
    822a:	90 58       	subi	r25, 0x80	; 128
    822c:	a2 ea       	ldi	r26, 0xA2	; 162
    822e:	2a ed       	ldi	r18, 0xDA	; 218
    8230:	3f e0       	ldi	r19, 0x0F	; 15
    8232:	49 ec       	ldi	r20, 0xC9	; 201
    8234:	5f e3       	ldi	r21, 0x3F	; 63
    8236:	d0 78       	andi	r29, 0x80	; 128
    8238:	5d 27       	eor	r21, r29
    823a:	36 df       	rcall	.-404    	; 0x80a8 <__addsf3x>
    823c:	df 91       	pop	r29
    823e:	0c c2       	rjmp	.+1048   	; 0x8658 <__fp_round>

00008240 <__cmpsf2>:
    8240:	64 d1       	rcall	.+712    	; 0x850a <__fp_cmp>
    8242:	08 f4       	brcc	.+2      	; 0x8246 <__cmpsf2+0x6>
    8244:	81 e0       	ldi	r24, 0x01	; 1
    8246:	08 95       	ret

00008248 <cos>:
    8248:	e0 d1       	rcall	.+960    	; 0x860a <__fp_rempio2>
    824a:	e3 95       	inc	r30
    824c:	16 c2       	rjmp	.+1068   	; 0x867a <__fp_sinus>

0000824e <__divsf3>:
    824e:	0c d0       	rcall	.+24     	; 0x8268 <__divsf3x>
    8250:	03 c2       	rjmp	.+1030   	; 0x8658 <__fp_round>
    8252:	d3 d1       	rcall	.+934    	; 0x85fa <__fp_pscB>
    8254:	40 f0       	brcs	.+16     	; 0x8266 <__divsf3+0x18>
    8256:	ca d1       	rcall	.+916    	; 0x85ec <__fp_pscA>
    8258:	30 f0       	brcs	.+12     	; 0x8266 <__divsf3+0x18>
    825a:	21 f4       	brne	.+8      	; 0x8264 <__divsf3+0x16>
    825c:	5f 3f       	cpi	r21, 0xFF	; 255
    825e:	19 f0       	breq	.+6      	; 0x8266 <__divsf3+0x18>
    8260:	78 c1       	rjmp	.+752    	; 0x8552 <__fp_inf>
    8262:	51 11       	cpse	r21, r1
    8264:	3e c2       	rjmp	.+1148   	; 0x86e2 <__fp_szero>
    8266:	89 c1       	rjmp	.+786    	; 0x857a <__fp_nan>

00008268 <__divsf3x>:
    8268:	19 d2       	rcall	.+1074   	; 0x869c <__fp_split3>
    826a:	98 f3       	brcs	.-26     	; 0x8252 <__divsf3+0x4>

0000826c <__divsf3_pse>:
    826c:	99 23       	and	r25, r25
    826e:	c9 f3       	breq	.-14     	; 0x8262 <__divsf3+0x14>
    8270:	55 23       	and	r21, r21
    8272:	b1 f3       	breq	.-20     	; 0x8260 <__divsf3+0x12>
    8274:	95 1b       	sub	r25, r21
    8276:	55 0b       	sbc	r21, r21
    8278:	bb 27       	eor	r27, r27
    827a:	aa 27       	eor	r26, r26
    827c:	62 17       	cp	r22, r18
    827e:	73 07       	cpc	r23, r19
    8280:	84 07       	cpc	r24, r20
    8282:	38 f0       	brcs	.+14     	; 0x8292 <__divsf3_pse+0x26>
    8284:	9f 5f       	subi	r25, 0xFF	; 255
    8286:	5f 4f       	sbci	r21, 0xFF	; 255
    8288:	22 0f       	add	r18, r18
    828a:	33 1f       	adc	r19, r19
    828c:	44 1f       	adc	r20, r20
    828e:	aa 1f       	adc	r26, r26
    8290:	a9 f3       	breq	.-22     	; 0x827c <__divsf3_pse+0x10>
    8292:	33 d0       	rcall	.+102    	; 0x82fa <__divsf3_pse+0x8e>
    8294:	0e 2e       	mov	r0, r30
    8296:	3a f0       	brmi	.+14     	; 0x82a6 <__divsf3_pse+0x3a>
    8298:	e0 e8       	ldi	r30, 0x80	; 128
    829a:	30 d0       	rcall	.+96     	; 0x82fc <__divsf3_pse+0x90>
    829c:	91 50       	subi	r25, 0x01	; 1
    829e:	50 40       	sbci	r21, 0x00	; 0
    82a0:	e6 95       	lsr	r30
    82a2:	00 1c       	adc	r0, r0
    82a4:	ca f7       	brpl	.-14     	; 0x8298 <__divsf3_pse+0x2c>
    82a6:	29 d0       	rcall	.+82     	; 0x82fa <__divsf3_pse+0x8e>
    82a8:	fe 2f       	mov	r31, r30
    82aa:	27 d0       	rcall	.+78     	; 0x82fa <__divsf3_pse+0x8e>
    82ac:	66 0f       	add	r22, r22
    82ae:	77 1f       	adc	r23, r23
    82b0:	88 1f       	adc	r24, r24
    82b2:	bb 1f       	adc	r27, r27
    82b4:	26 17       	cp	r18, r22
    82b6:	37 07       	cpc	r19, r23
    82b8:	48 07       	cpc	r20, r24
    82ba:	ab 07       	cpc	r26, r27
    82bc:	b0 e8       	ldi	r27, 0x80	; 128
    82be:	09 f0       	breq	.+2      	; 0x82c2 <__divsf3_pse+0x56>
    82c0:	bb 0b       	sbc	r27, r27
    82c2:	80 2d       	mov	r24, r0
    82c4:	bf 01       	movw	r22, r30
    82c6:	ff 27       	eor	r31, r31
    82c8:	93 58       	subi	r25, 0x83	; 131
    82ca:	5f 4f       	sbci	r21, 0xFF	; 255
    82cc:	2a f0       	brmi	.+10     	; 0x82d8 <__divsf3_pse+0x6c>
    82ce:	9e 3f       	cpi	r25, 0xFE	; 254
    82d0:	51 05       	cpc	r21, r1
    82d2:	68 f0       	brcs	.+26     	; 0x82ee <__divsf3_pse+0x82>
    82d4:	3e c1       	rjmp	.+636    	; 0x8552 <__fp_inf>
    82d6:	05 c2       	rjmp	.+1034   	; 0x86e2 <__fp_szero>
    82d8:	5f 3f       	cpi	r21, 0xFF	; 255
    82da:	ec f3       	brlt	.-6      	; 0x82d6 <__divsf3_pse+0x6a>
    82dc:	98 3e       	cpi	r25, 0xE8	; 232
    82de:	dc f3       	brlt	.-10     	; 0x82d6 <__divsf3_pse+0x6a>
    82e0:	86 95       	lsr	r24
    82e2:	77 95       	ror	r23
    82e4:	67 95       	ror	r22
    82e6:	b7 95       	ror	r27
    82e8:	f7 95       	ror	r31
    82ea:	9f 5f       	subi	r25, 0xFF	; 255
    82ec:	c9 f7       	brne	.-14     	; 0x82e0 <__divsf3_pse+0x74>
    82ee:	88 0f       	add	r24, r24
    82f0:	91 1d       	adc	r25, r1
    82f2:	96 95       	lsr	r25
    82f4:	87 95       	ror	r24
    82f6:	97 f9       	bld	r25, 7
    82f8:	08 95       	ret
    82fa:	e1 e0       	ldi	r30, 0x01	; 1
    82fc:	66 0f       	add	r22, r22
    82fe:	77 1f       	adc	r23, r23
    8300:	88 1f       	adc	r24, r24
    8302:	bb 1f       	adc	r27, r27
    8304:	62 17       	cp	r22, r18
    8306:	73 07       	cpc	r23, r19
    8308:	84 07       	cpc	r24, r20
    830a:	ba 07       	cpc	r27, r26
    830c:	20 f0       	brcs	.+8      	; 0x8316 <__divsf3_pse+0xaa>
    830e:	62 1b       	sub	r22, r18
    8310:	73 0b       	sbc	r23, r19
    8312:	84 0b       	sbc	r24, r20
    8314:	ba 0b       	sbc	r27, r26
    8316:	ee 1f       	adc	r30, r30
    8318:	88 f7       	brcc	.-30     	; 0x82fc <__divsf3_pse+0x90>
    831a:	e0 95       	com	r30
    831c:	08 95       	ret

0000831e <__fixsfsi>:
    831e:	04 d0       	rcall	.+8      	; 0x8328 <__fixunssfsi>
    8320:	68 94       	set
    8322:	b1 11       	cpse	r27, r1
    8324:	de c1       	rjmp	.+956    	; 0x86e2 <__fp_szero>
    8326:	08 95       	ret

00008328 <__fixunssfsi>:
    8328:	c1 d1       	rcall	.+898    	; 0x86ac <__fp_splitA>
    832a:	88 f0       	brcs	.+34     	; 0x834e <__fixunssfsi+0x26>
    832c:	9f 57       	subi	r25, 0x7F	; 127
    832e:	90 f0       	brcs	.+36     	; 0x8354 <__fixunssfsi+0x2c>
    8330:	b9 2f       	mov	r27, r25
    8332:	99 27       	eor	r25, r25
    8334:	b7 51       	subi	r27, 0x17	; 23
    8336:	a0 f0       	brcs	.+40     	; 0x8360 <__fixunssfsi+0x38>
    8338:	d1 f0       	breq	.+52     	; 0x836e <__fixunssfsi+0x46>
    833a:	66 0f       	add	r22, r22
    833c:	77 1f       	adc	r23, r23
    833e:	88 1f       	adc	r24, r24
    8340:	99 1f       	adc	r25, r25
    8342:	1a f0       	brmi	.+6      	; 0x834a <__fixunssfsi+0x22>
    8344:	ba 95       	dec	r27
    8346:	c9 f7       	brne	.-14     	; 0x833a <__fixunssfsi+0x12>
    8348:	12 c0       	rjmp	.+36     	; 0x836e <__fixunssfsi+0x46>
    834a:	b1 30       	cpi	r27, 0x01	; 1
    834c:	81 f0       	breq	.+32     	; 0x836e <__fixunssfsi+0x46>
    834e:	c8 d1       	rcall	.+912    	; 0x86e0 <__fp_zero>
    8350:	b1 e0       	ldi	r27, 0x01	; 1
    8352:	08 95       	ret
    8354:	c5 c1       	rjmp	.+906    	; 0x86e0 <__fp_zero>
    8356:	67 2f       	mov	r22, r23
    8358:	78 2f       	mov	r23, r24
    835a:	88 27       	eor	r24, r24
    835c:	b8 5f       	subi	r27, 0xF8	; 248
    835e:	39 f0       	breq	.+14     	; 0x836e <__fixunssfsi+0x46>
    8360:	b9 3f       	cpi	r27, 0xF9	; 249
    8362:	cc f3       	brlt	.-14     	; 0x8356 <__fixunssfsi+0x2e>
    8364:	86 95       	lsr	r24
    8366:	77 95       	ror	r23
    8368:	67 95       	ror	r22
    836a:	b3 95       	inc	r27
    836c:	d9 f7       	brne	.-10     	; 0x8364 <__fixunssfsi+0x3c>
    836e:	3e f4       	brtc	.+14     	; 0x837e <__fixunssfsi+0x56>
    8370:	90 95       	com	r25
    8372:	80 95       	com	r24
    8374:	70 95       	com	r23
    8376:	61 95       	neg	r22
    8378:	7f 4f       	sbci	r23, 0xFF	; 255
    837a:	8f 4f       	sbci	r24, 0xFF	; 255
    837c:	9f 4f       	sbci	r25, 0xFF	; 255
    837e:	08 95       	ret

00008380 <__floatunsisf>:
    8380:	e8 94       	clt
    8382:	09 c0       	rjmp	.+18     	; 0x8396 <__floatsisf+0x12>

00008384 <__floatsisf>:
    8384:	97 fb       	bst	r25, 7
    8386:	3e f4       	brtc	.+14     	; 0x8396 <__floatsisf+0x12>
    8388:	90 95       	com	r25
    838a:	80 95       	com	r24
    838c:	70 95       	com	r23
    838e:	61 95       	neg	r22
    8390:	7f 4f       	sbci	r23, 0xFF	; 255
    8392:	8f 4f       	sbci	r24, 0xFF	; 255
    8394:	9f 4f       	sbci	r25, 0xFF	; 255
    8396:	99 23       	and	r25, r25
    8398:	a9 f0       	breq	.+42     	; 0x83c4 <__floatsisf+0x40>
    839a:	f9 2f       	mov	r31, r25
    839c:	96 e9       	ldi	r25, 0x96	; 150
    839e:	bb 27       	eor	r27, r27
    83a0:	93 95       	inc	r25
    83a2:	f6 95       	lsr	r31
    83a4:	87 95       	ror	r24
    83a6:	77 95       	ror	r23
    83a8:	67 95       	ror	r22
    83aa:	b7 95       	ror	r27
    83ac:	f1 11       	cpse	r31, r1
    83ae:	f8 cf       	rjmp	.-16     	; 0x83a0 <__floatsisf+0x1c>
    83b0:	fa f4       	brpl	.+62     	; 0x83f0 <__floatsisf+0x6c>
    83b2:	bb 0f       	add	r27, r27
    83b4:	11 f4       	brne	.+4      	; 0x83ba <__floatsisf+0x36>
    83b6:	60 ff       	sbrs	r22, 0
    83b8:	1b c0       	rjmp	.+54     	; 0x83f0 <__floatsisf+0x6c>
    83ba:	6f 5f       	subi	r22, 0xFF	; 255
    83bc:	7f 4f       	sbci	r23, 0xFF	; 255
    83be:	8f 4f       	sbci	r24, 0xFF	; 255
    83c0:	9f 4f       	sbci	r25, 0xFF	; 255
    83c2:	16 c0       	rjmp	.+44     	; 0x83f0 <__floatsisf+0x6c>
    83c4:	88 23       	and	r24, r24
    83c6:	11 f0       	breq	.+4      	; 0x83cc <__floatsisf+0x48>
    83c8:	96 e9       	ldi	r25, 0x96	; 150
    83ca:	11 c0       	rjmp	.+34     	; 0x83ee <__floatsisf+0x6a>
    83cc:	77 23       	and	r23, r23
    83ce:	21 f0       	breq	.+8      	; 0x83d8 <__floatsisf+0x54>
    83d0:	9e e8       	ldi	r25, 0x8E	; 142
    83d2:	87 2f       	mov	r24, r23
    83d4:	76 2f       	mov	r23, r22
    83d6:	05 c0       	rjmp	.+10     	; 0x83e2 <__floatsisf+0x5e>
    83d8:	66 23       	and	r22, r22
    83da:	71 f0       	breq	.+28     	; 0x83f8 <__floatsisf+0x74>
    83dc:	96 e8       	ldi	r25, 0x86	; 134
    83de:	86 2f       	mov	r24, r22
    83e0:	70 e0       	ldi	r23, 0x00	; 0
    83e2:	60 e0       	ldi	r22, 0x00	; 0
    83e4:	2a f0       	brmi	.+10     	; 0x83f0 <__floatsisf+0x6c>
    83e6:	9a 95       	dec	r25
    83e8:	66 0f       	add	r22, r22
    83ea:	77 1f       	adc	r23, r23
    83ec:	88 1f       	adc	r24, r24
    83ee:	da f7       	brpl	.-10     	; 0x83e6 <__floatsisf+0x62>
    83f0:	88 0f       	add	r24, r24
    83f2:	96 95       	lsr	r25
    83f4:	87 95       	ror	r24
    83f6:	97 f9       	bld	r25, 7
    83f8:	08 95       	ret

000083fa <fmax>:
    83fa:	99 0f       	add	r25, r25
    83fc:	bb 0b       	sbc	r27, r27
    83fe:	55 0f       	add	r21, r21
    8400:	aa 0b       	sbc	r26, r26
    8402:	e0 e8       	ldi	r30, 0x80	; 128
    8404:	fe ef       	ldi	r31, 0xFE	; 254
    8406:	16 16       	cp	r1, r22
    8408:	17 06       	cpc	r1, r23
    840a:	e8 07       	cpc	r30, r24
    840c:	f9 07       	cpc	r31, r25
    840e:	70 f0       	brcs	.+28     	; 0x842c <fmax+0x32>
    8410:	12 16       	cp	r1, r18
    8412:	13 06       	cpc	r1, r19
    8414:	e4 07       	cpc	r30, r20
    8416:	f5 07       	cpc	r31, r21
    8418:	60 f0       	brcs	.+24     	; 0x8432 <fmax+0x38>
    841a:	ba 17       	cp	r27, r26
    841c:	3c f0       	brlt	.+14     	; 0x842c <fmax+0x32>
    841e:	49 f4       	brne	.+18     	; 0x8432 <fmax+0x38>
    8420:	62 17       	cp	r22, r18
    8422:	73 07       	cpc	r23, r19
    8424:	84 07       	cpc	r24, r20
    8426:	95 07       	cpc	r25, r21
    8428:	a7 95       	ror	r26
    842a:	1b f4       	brvc	.+6      	; 0x8432 <fmax+0x38>
    842c:	b9 01       	movw	r22, r18
    842e:	ca 01       	movw	r24, r20
    8430:	ba 2f       	mov	r27, r26
    8432:	b6 95       	lsr	r27
    8434:	97 95       	ror	r25
    8436:	08 95       	ret
    8438:	d9 d0       	rcall	.+434    	; 0x85ec <__fp_pscA>
    843a:	18 f0       	brcs	.+6      	; 0x8442 <fmax+0x48>
    843c:	11 f0       	breq	.+4      	; 0x8442 <fmax+0x48>
    843e:	dd d0       	rcall	.+442    	; 0x85fa <__fp_pscB>
    8440:	38 f4       	brcc	.+14     	; 0x8450 <fmod+0xa>
    8442:	9b c0       	rjmp	.+310    	; 0x857a <__fp_nan>
    8444:	4e c1       	rjmp	.+668    	; 0x86e2 <__fp_szero>

00008446 <fmod>:
    8446:	e9 2f       	mov	r30, r25
    8448:	29 d1       	rcall	.+594    	; 0x869c <__fp_split3>
    844a:	b0 f3       	brcs	.-20     	; 0x8438 <fmax+0x3e>
    844c:	55 23       	and	r21, r21
    844e:	c9 f3       	breq	.-14     	; 0x8442 <fmax+0x48>
    8450:	e7 fb       	bst	r30, 7
    8452:	62 17       	cp	r22, r18
    8454:	73 07       	cpc	r23, r19
    8456:	84 07       	cpc	r24, r20
    8458:	95 07       	cpc	r25, r21
    845a:	a8 f1       	brcs	.+106    	; 0x84c6 <fmod+0x80>
    845c:	99 f3       	breq	.-26     	; 0x8444 <fmax+0x4a>
    845e:	e9 2f       	mov	r30, r25
    8460:	ff 27       	eor	r31, r31
    8462:	88 23       	and	r24, r24
    8464:	2a f0       	brmi	.+10     	; 0x8470 <fmod+0x2a>
    8466:	31 97       	sbiw	r30, 0x01	; 1
    8468:	66 0f       	add	r22, r22
    846a:	77 1f       	adc	r23, r23
    846c:	88 1f       	adc	r24, r24
    846e:	da f7       	brpl	.-10     	; 0x8466 <fmod+0x20>
    8470:	95 2f       	mov	r25, r21
    8472:	55 27       	eor	r21, r21
    8474:	44 23       	and	r20, r20
    8476:	32 f0       	brmi	.+12     	; 0x8484 <fmod+0x3e>
    8478:	91 50       	subi	r25, 0x01	; 1
    847a:	50 40       	sbci	r21, 0x00	; 0
    847c:	22 0f       	add	r18, r18
    847e:	33 1f       	adc	r19, r19
    8480:	44 1f       	adc	r20, r20
    8482:	d2 f7       	brpl	.-12     	; 0x8478 <fmod+0x32>
    8484:	bb 27       	eor	r27, r27
    8486:	e9 1b       	sub	r30, r25
    8488:	f5 0b       	sbc	r31, r21
    848a:	62 1b       	sub	r22, r18
    848c:	73 0b       	sbc	r23, r19
    848e:	84 0b       	sbc	r24, r20
    8490:	b1 09       	sbc	r27, r1
    8492:	c1 f2       	breq	.-80     	; 0x8444 <fmax+0x4a>
    8494:	22 f4       	brpl	.+8      	; 0x849e <fmod+0x58>
    8496:	62 0f       	add	r22, r18
    8498:	73 1f       	adc	r23, r19
    849a:	84 1f       	adc	r24, r20
    849c:	b1 1d       	adc	r27, r1
    849e:	31 97       	sbiw	r30, 0x01	; 1
    84a0:	2a f0       	brmi	.+10     	; 0x84ac <fmod+0x66>
    84a2:	66 0f       	add	r22, r22
    84a4:	77 1f       	adc	r23, r23
    84a6:	88 1f       	adc	r24, r24
    84a8:	bb 1f       	adc	r27, r27
    84aa:	ef cf       	rjmp	.-34     	; 0x848a <fmod+0x44>
    84ac:	91 50       	subi	r25, 0x01	; 1
    84ae:	50 40       	sbci	r21, 0x00	; 0
    84b0:	5a f0       	brmi	.+22     	; 0x84c8 <fmod+0x82>
    84b2:	41 f0       	breq	.+16     	; 0x84c4 <fmod+0x7e>
    84b4:	88 23       	and	r24, r24
    84b6:	32 f0       	brmi	.+12     	; 0x84c4 <fmod+0x7e>
    84b8:	66 0f       	add	r22, r22
    84ba:	77 1f       	adc	r23, r23
    84bc:	88 1f       	adc	r24, r24
    84be:	91 50       	subi	r25, 0x01	; 1
    84c0:	50 40       	sbci	r21, 0x00	; 0
    84c2:	c1 f7       	brne	.-16     	; 0x84b4 <fmod+0x6e>
    84c4:	93 95       	inc	r25
    84c6:	4b c0       	rjmp	.+150    	; 0x855e <__fp_mpack>
    84c8:	86 95       	lsr	r24
    84ca:	77 95       	ror	r23
    84cc:	67 95       	ror	r22
    84ce:	9f 5f       	subi	r25, 0xFF	; 255
    84d0:	d9 f7       	brne	.-10     	; 0x84c8 <fmod+0x82>
    84d2:	f8 cf       	rjmp	.-16     	; 0x84c4 <fmod+0x7e>

000084d4 <__fp_arccos>:
    84d4:	df 93       	push	r29
    84d6:	cf 93       	push	r28
    84d8:	1f 93       	push	r17
    84da:	0f 93       	push	r16
    84dc:	8b 01       	movw	r16, r22
    84de:	ec 01       	movw	r28, r24
    84e0:	ed ec       	ldi	r30, 0xCD	; 205
    84e2:	f0 e0       	ldi	r31, 0x00	; 0
    84e4:	4d d0       	rcall	.+154    	; 0x8580 <__fp_powser>
    84e6:	b8 d0       	rcall	.+368    	; 0x8658 <__fp_round>
    84e8:	98 01       	movw	r18, r16
    84ea:	ae 01       	movw	r20, r28
    84ec:	8b 01       	movw	r16, r22
    84ee:	ec 01       	movw	r28, r24
    84f0:	60 e0       	ldi	r22, 0x00	; 0
    84f2:	70 e0       	ldi	r23, 0x00	; 0
    84f4:	80 e8       	ldi	r24, 0x80	; 128
    84f6:	9f e3       	ldi	r25, 0x3F	; 63
    84f8:	c5 dd       	rcall	.-1142   	; 0x8084 <__subsf3>
    84fa:	71 d1       	rcall	.+738    	; 0x87de <sqrt>
    84fc:	98 01       	movw	r18, r16
    84fe:	ae 01       	movw	r20, r28
    8500:	0f 91       	pop	r16
    8502:	1f 91       	pop	r17
    8504:	cf 91       	pop	r28
    8506:	df 91       	pop	r29
    8508:	09 c1       	rjmp	.+530    	; 0x871c <__mulsf3x>

0000850a <__fp_cmp>:
    850a:	99 0f       	add	r25, r25
    850c:	00 08       	sbc	r0, r0
    850e:	55 0f       	add	r21, r21
    8510:	aa 0b       	sbc	r26, r26
    8512:	e0 e8       	ldi	r30, 0x80	; 128
    8514:	fe ef       	ldi	r31, 0xFE	; 254
    8516:	16 16       	cp	r1, r22
    8518:	17 06       	cpc	r1, r23
    851a:	e8 07       	cpc	r30, r24
    851c:	f9 07       	cpc	r31, r25
    851e:	c0 f0       	brcs	.+48     	; 0x8550 <__fp_cmp+0x46>
    8520:	12 16       	cp	r1, r18
    8522:	13 06       	cpc	r1, r19
    8524:	e4 07       	cpc	r30, r20
    8526:	f5 07       	cpc	r31, r21
    8528:	98 f0       	brcs	.+38     	; 0x8550 <__fp_cmp+0x46>
    852a:	62 1b       	sub	r22, r18
    852c:	73 0b       	sbc	r23, r19
    852e:	84 0b       	sbc	r24, r20
    8530:	95 0b       	sbc	r25, r21
    8532:	39 f4       	brne	.+14     	; 0x8542 <__fp_cmp+0x38>
    8534:	0a 26       	eor	r0, r26
    8536:	61 f0       	breq	.+24     	; 0x8550 <__fp_cmp+0x46>
    8538:	23 2b       	or	r18, r19
    853a:	24 2b       	or	r18, r20
    853c:	25 2b       	or	r18, r21
    853e:	21 f4       	brne	.+8      	; 0x8548 <__fp_cmp+0x3e>
    8540:	08 95       	ret
    8542:	0a 26       	eor	r0, r26
    8544:	09 f4       	brne	.+2      	; 0x8548 <__fp_cmp+0x3e>
    8546:	a1 40       	sbci	r26, 0x01	; 1
    8548:	a6 95       	lsr	r26
    854a:	8f ef       	ldi	r24, 0xFF	; 255
    854c:	81 1d       	adc	r24, r1
    854e:	81 1d       	adc	r24, r1
    8550:	08 95       	ret

00008552 <__fp_inf>:
    8552:	97 f9       	bld	r25, 7
    8554:	9f 67       	ori	r25, 0x7F	; 127
    8556:	80 e8       	ldi	r24, 0x80	; 128
    8558:	70 e0       	ldi	r23, 0x00	; 0
    855a:	60 e0       	ldi	r22, 0x00	; 0
    855c:	08 95       	ret

0000855e <__fp_mpack>:
    855e:	9f 3f       	cpi	r25, 0xFF	; 255
    8560:	31 f0       	breq	.+12     	; 0x856e <__fp_mpack_finite+0xc>

00008562 <__fp_mpack_finite>:
    8562:	91 50       	subi	r25, 0x01	; 1
    8564:	20 f4       	brcc	.+8      	; 0x856e <__fp_mpack_finite+0xc>
    8566:	87 95       	ror	r24
    8568:	77 95       	ror	r23
    856a:	67 95       	ror	r22
    856c:	b7 95       	ror	r27
    856e:	88 0f       	add	r24, r24
    8570:	91 1d       	adc	r25, r1
    8572:	96 95       	lsr	r25
    8574:	87 95       	ror	r24
    8576:	97 f9       	bld	r25, 7
    8578:	08 95       	ret

0000857a <__fp_nan>:
    857a:	9f ef       	ldi	r25, 0xFF	; 255
    857c:	80 ec       	ldi	r24, 0xC0	; 192
    857e:	08 95       	ret

00008580 <__fp_powser>:
    8580:	df 93       	push	r29
    8582:	cf 93       	push	r28
    8584:	1f 93       	push	r17
    8586:	0f 93       	push	r16
    8588:	ff 92       	push	r15
    858a:	ef 92       	push	r14
    858c:	df 92       	push	r13
    858e:	7b 01       	movw	r14, r22
    8590:	8c 01       	movw	r16, r24
    8592:	68 94       	set
    8594:	05 c0       	rjmp	.+10     	; 0x85a0 <__fp_powser+0x20>
    8596:	da 2e       	mov	r13, r26
    8598:	ef 01       	movw	r28, r30
    859a:	c0 d0       	rcall	.+384    	; 0x871c <__mulsf3x>
    859c:	fe 01       	movw	r30, r28
    859e:	e8 94       	clt
    85a0:	a5 91       	lpm	r26, Z+
    85a2:	25 91       	lpm	r18, Z+
    85a4:	35 91       	lpm	r19, Z+
    85a6:	45 91       	lpm	r20, Z+
    85a8:	55 91       	lpm	r21, Z+
    85aa:	ae f3       	brts	.-22     	; 0x8596 <__fp_powser+0x16>
    85ac:	ef 01       	movw	r28, r30
    85ae:	7c dd       	rcall	.-1288   	; 0x80a8 <__addsf3x>
    85b0:	fe 01       	movw	r30, r28
    85b2:	97 01       	movw	r18, r14
    85b4:	a8 01       	movw	r20, r16
    85b6:	da 94       	dec	r13
    85b8:	79 f7       	brne	.-34     	; 0x8598 <__fp_powser+0x18>
    85ba:	df 90       	pop	r13
    85bc:	ef 90       	pop	r14
    85be:	ff 90       	pop	r15
    85c0:	0f 91       	pop	r16
    85c2:	1f 91       	pop	r17
    85c4:	cf 91       	pop	r28
    85c6:	df 91       	pop	r29
    85c8:	08 95       	ret

000085ca <__fp_powsodd>:
    85ca:	9f 93       	push	r25
    85cc:	8f 93       	push	r24
    85ce:	7f 93       	push	r23
    85d0:	6f 93       	push	r22
    85d2:	ff 93       	push	r31
    85d4:	ef 93       	push	r30
    85d6:	9b 01       	movw	r18, r22
    85d8:	ac 01       	movw	r20, r24
    85da:	94 d0       	rcall	.+296    	; 0x8704 <__mulsf3>
    85dc:	ef 91       	pop	r30
    85de:	ff 91       	pop	r31
    85e0:	cf df       	rcall	.-98     	; 0x8580 <__fp_powser>
    85e2:	2f 91       	pop	r18
    85e4:	3f 91       	pop	r19
    85e6:	4f 91       	pop	r20
    85e8:	5f 91       	pop	r21
    85ea:	8c c0       	rjmp	.+280    	; 0x8704 <__mulsf3>

000085ec <__fp_pscA>:
    85ec:	00 24       	eor	r0, r0
    85ee:	0a 94       	dec	r0
    85f0:	16 16       	cp	r1, r22
    85f2:	17 06       	cpc	r1, r23
    85f4:	18 06       	cpc	r1, r24
    85f6:	09 06       	cpc	r0, r25
    85f8:	08 95       	ret

000085fa <__fp_pscB>:
    85fa:	00 24       	eor	r0, r0
    85fc:	0a 94       	dec	r0
    85fe:	12 16       	cp	r1, r18
    8600:	13 06       	cpc	r1, r19
    8602:	14 06       	cpc	r1, r20
    8604:	05 06       	cpc	r0, r21
    8606:	08 95       	ret
    8608:	b8 cf       	rjmp	.-144    	; 0x857a <__fp_nan>

0000860a <__fp_rempio2>:
    860a:	50 d0       	rcall	.+160    	; 0x86ac <__fp_splitA>
    860c:	e8 f3       	brcs	.-6      	; 0x8608 <__fp_pscB+0xe>
    860e:	e8 94       	clt
    8610:	e0 e0       	ldi	r30, 0x00	; 0
    8612:	bb 27       	eor	r27, r27
    8614:	9f 57       	subi	r25, 0x7F	; 127
    8616:	f0 f0       	brcs	.+60     	; 0x8654 <__fp_rempio2+0x4a>
    8618:	2a ed       	ldi	r18, 0xDA	; 218
    861a:	3f e0       	ldi	r19, 0x0F	; 15
    861c:	49 ec       	ldi	r20, 0xC9	; 201
    861e:	06 c0       	rjmp	.+12     	; 0x862c <__fp_rempio2+0x22>
    8620:	ee 0f       	add	r30, r30
    8622:	bb 0f       	add	r27, r27
    8624:	66 1f       	adc	r22, r22
    8626:	77 1f       	adc	r23, r23
    8628:	88 1f       	adc	r24, r24
    862a:	28 f0       	brcs	.+10     	; 0x8636 <__fp_rempio2+0x2c>
    862c:	b2 3a       	cpi	r27, 0xA2	; 162
    862e:	62 07       	cpc	r22, r18
    8630:	73 07       	cpc	r23, r19
    8632:	84 07       	cpc	r24, r20
    8634:	28 f0       	brcs	.+10     	; 0x8640 <__fp_rempio2+0x36>
    8636:	b2 5a       	subi	r27, 0xA2	; 162
    8638:	62 0b       	sbc	r22, r18
    863a:	73 0b       	sbc	r23, r19
    863c:	84 0b       	sbc	r24, r20
    863e:	e3 95       	inc	r30
    8640:	9a 95       	dec	r25
    8642:	72 f7       	brpl	.-36     	; 0x8620 <__fp_rempio2+0x16>
    8644:	80 38       	cpi	r24, 0x80	; 128
    8646:	30 f4       	brcc	.+12     	; 0x8654 <__fp_rempio2+0x4a>
    8648:	9a 95       	dec	r25
    864a:	bb 0f       	add	r27, r27
    864c:	66 1f       	adc	r22, r22
    864e:	77 1f       	adc	r23, r23
    8650:	88 1f       	adc	r24, r24
    8652:	d2 f7       	brpl	.-12     	; 0x8648 <__fp_rempio2+0x3e>
    8654:	90 48       	sbci	r25, 0x80	; 128
    8656:	85 cf       	rjmp	.-246    	; 0x8562 <__fp_mpack_finite>

00008658 <__fp_round>:
    8658:	09 2e       	mov	r0, r25
    865a:	03 94       	inc	r0
    865c:	00 0c       	add	r0, r0
    865e:	11 f4       	brne	.+4      	; 0x8664 <__fp_round+0xc>
    8660:	88 23       	and	r24, r24
    8662:	52 f0       	brmi	.+20     	; 0x8678 <__fp_round+0x20>
    8664:	bb 0f       	add	r27, r27
    8666:	40 f4       	brcc	.+16     	; 0x8678 <__fp_round+0x20>
    8668:	bf 2b       	or	r27, r31
    866a:	11 f4       	brne	.+4      	; 0x8670 <__fp_round+0x18>
    866c:	60 ff       	sbrs	r22, 0
    866e:	04 c0       	rjmp	.+8      	; 0x8678 <__fp_round+0x20>
    8670:	6f 5f       	subi	r22, 0xFF	; 255
    8672:	7f 4f       	sbci	r23, 0xFF	; 255
    8674:	8f 4f       	sbci	r24, 0xFF	; 255
    8676:	9f 4f       	sbci	r25, 0xFF	; 255
    8678:	08 95       	ret

0000867a <__fp_sinus>:
    867a:	ef 93       	push	r30
    867c:	e0 ff       	sbrs	r30, 0
    867e:	06 c0       	rjmp	.+12     	; 0x868c <__fp_sinus+0x12>
    8680:	a2 ea       	ldi	r26, 0xA2	; 162
    8682:	2a ed       	ldi	r18, 0xDA	; 218
    8684:	3f e0       	ldi	r19, 0x0F	; 15
    8686:	49 ec       	ldi	r20, 0xC9	; 201
    8688:	5f eb       	ldi	r21, 0xBF	; 191
    868a:	0e dd       	rcall	.-1508   	; 0x80a8 <__addsf3x>
    868c:	e5 df       	rcall	.-54     	; 0x8658 <__fp_round>
    868e:	0f 90       	pop	r0
    8690:	03 94       	inc	r0
    8692:	01 fc       	sbrc	r0, 1
    8694:	90 58       	subi	r25, 0x80	; 128
    8696:	e5 ef       	ldi	r30, 0xF5	; 245
    8698:	f0 e0       	ldi	r31, 0x00	; 0
    869a:	97 cf       	rjmp	.-210    	; 0x85ca <__fp_powsodd>

0000869c <__fp_split3>:
    869c:	57 fd       	sbrc	r21, 7
    869e:	90 58       	subi	r25, 0x80	; 128
    86a0:	44 0f       	add	r20, r20
    86a2:	55 1f       	adc	r21, r21
    86a4:	59 f0       	breq	.+22     	; 0x86bc <__fp_splitA+0x10>
    86a6:	5f 3f       	cpi	r21, 0xFF	; 255
    86a8:	71 f0       	breq	.+28     	; 0x86c6 <__fp_splitA+0x1a>
    86aa:	47 95       	ror	r20

000086ac <__fp_splitA>:
    86ac:	88 0f       	add	r24, r24
    86ae:	97 fb       	bst	r25, 7
    86b0:	99 1f       	adc	r25, r25
    86b2:	61 f0       	breq	.+24     	; 0x86cc <__fp_splitA+0x20>
    86b4:	9f 3f       	cpi	r25, 0xFF	; 255
    86b6:	79 f0       	breq	.+30     	; 0x86d6 <__fp_splitA+0x2a>
    86b8:	87 95       	ror	r24
    86ba:	08 95       	ret
    86bc:	12 16       	cp	r1, r18
    86be:	13 06       	cpc	r1, r19
    86c0:	14 06       	cpc	r1, r20
    86c2:	55 1f       	adc	r21, r21
    86c4:	f2 cf       	rjmp	.-28     	; 0x86aa <__fp_split3+0xe>
    86c6:	46 95       	lsr	r20
    86c8:	f1 df       	rcall	.-30     	; 0x86ac <__fp_splitA>
    86ca:	08 c0       	rjmp	.+16     	; 0x86dc <__fp_splitA+0x30>
    86cc:	16 16       	cp	r1, r22
    86ce:	17 06       	cpc	r1, r23
    86d0:	18 06       	cpc	r1, r24
    86d2:	99 1f       	adc	r25, r25
    86d4:	f1 cf       	rjmp	.-30     	; 0x86b8 <__fp_splitA+0xc>
    86d6:	86 95       	lsr	r24
    86d8:	71 05       	cpc	r23, r1
    86da:	61 05       	cpc	r22, r1
    86dc:	08 94       	sec
    86de:	08 95       	ret

000086e0 <__fp_zero>:
    86e0:	e8 94       	clt

000086e2 <__fp_szero>:
    86e2:	bb 27       	eor	r27, r27
    86e4:	66 27       	eor	r22, r22
    86e6:	77 27       	eor	r23, r23
    86e8:	cb 01       	movw	r24, r22
    86ea:	97 f9       	bld	r25, 7
    86ec:	08 95       	ret

000086ee <__gesf2>:
    86ee:	0d df       	rcall	.-486    	; 0x850a <__fp_cmp>
    86f0:	08 f4       	brcc	.+2      	; 0x86f4 <__gesf2+0x6>
    86f2:	8f ef       	ldi	r24, 0xFF	; 255
    86f4:	08 95       	ret

000086f6 <inverse>:
    86f6:	9b 01       	movw	r18, r22
    86f8:	ac 01       	movw	r20, r24
    86fa:	60 e0       	ldi	r22, 0x00	; 0
    86fc:	70 e0       	ldi	r23, 0x00	; 0
    86fe:	80 e8       	ldi	r24, 0x80	; 128
    8700:	9f e3       	ldi	r25, 0x3F	; 63
    8702:	a5 cd       	rjmp	.-1206   	; 0x824e <__divsf3>

00008704 <__mulsf3>:
    8704:	0b d0       	rcall	.+22     	; 0x871c <__mulsf3x>
    8706:	a8 cf       	rjmp	.-176    	; 0x8658 <__fp_round>
    8708:	71 df       	rcall	.-286    	; 0x85ec <__fp_pscA>
    870a:	28 f0       	brcs	.+10     	; 0x8716 <__mulsf3+0x12>
    870c:	76 df       	rcall	.-276    	; 0x85fa <__fp_pscB>
    870e:	18 f0       	brcs	.+6      	; 0x8716 <__mulsf3+0x12>
    8710:	95 23       	and	r25, r21
    8712:	09 f0       	breq	.+2      	; 0x8716 <__mulsf3+0x12>
    8714:	1e cf       	rjmp	.-452    	; 0x8552 <__fp_inf>
    8716:	31 cf       	rjmp	.-414    	; 0x857a <__fp_nan>
    8718:	11 24       	eor	r1, r1
    871a:	e3 cf       	rjmp	.-58     	; 0x86e2 <__fp_szero>

0000871c <__mulsf3x>:
    871c:	bf df       	rcall	.-130    	; 0x869c <__fp_split3>
    871e:	a0 f3       	brcs	.-24     	; 0x8708 <__mulsf3+0x4>

00008720 <__mulsf3_pse>:
    8720:	95 9f       	mul	r25, r21
    8722:	d1 f3       	breq	.-12     	; 0x8718 <__mulsf3+0x14>
    8724:	95 0f       	add	r25, r21
    8726:	50 e0       	ldi	r21, 0x00	; 0
    8728:	55 1f       	adc	r21, r21
    872a:	62 9f       	mul	r22, r18
    872c:	f0 01       	movw	r30, r0
    872e:	72 9f       	mul	r23, r18
    8730:	bb 27       	eor	r27, r27
    8732:	f0 0d       	add	r31, r0
    8734:	b1 1d       	adc	r27, r1
    8736:	63 9f       	mul	r22, r19
    8738:	aa 27       	eor	r26, r26
    873a:	f0 0d       	add	r31, r0
    873c:	b1 1d       	adc	r27, r1
    873e:	aa 1f       	adc	r26, r26
    8740:	64 9f       	mul	r22, r20
    8742:	66 27       	eor	r22, r22
    8744:	b0 0d       	add	r27, r0
    8746:	a1 1d       	adc	r26, r1
    8748:	66 1f       	adc	r22, r22
    874a:	82 9f       	mul	r24, r18
    874c:	22 27       	eor	r18, r18
    874e:	b0 0d       	add	r27, r0
    8750:	a1 1d       	adc	r26, r1
    8752:	62 1f       	adc	r22, r18
    8754:	73 9f       	mul	r23, r19
    8756:	b0 0d       	add	r27, r0
    8758:	a1 1d       	adc	r26, r1
    875a:	62 1f       	adc	r22, r18
    875c:	83 9f       	mul	r24, r19
    875e:	a0 0d       	add	r26, r0
    8760:	61 1d       	adc	r22, r1
    8762:	22 1f       	adc	r18, r18
    8764:	74 9f       	mul	r23, r20
    8766:	33 27       	eor	r19, r19
    8768:	a0 0d       	add	r26, r0
    876a:	61 1d       	adc	r22, r1
    876c:	23 1f       	adc	r18, r19
    876e:	84 9f       	mul	r24, r20
    8770:	60 0d       	add	r22, r0
    8772:	21 1d       	adc	r18, r1
    8774:	82 2f       	mov	r24, r18
    8776:	76 2f       	mov	r23, r22
    8778:	6a 2f       	mov	r22, r26
    877a:	11 24       	eor	r1, r1
    877c:	9f 57       	subi	r25, 0x7F	; 127
    877e:	50 40       	sbci	r21, 0x00	; 0
    8780:	8a f0       	brmi	.+34     	; 0x87a4 <__mulsf3_pse+0x84>
    8782:	e1 f0       	breq	.+56     	; 0x87bc <__mulsf3_pse+0x9c>
    8784:	88 23       	and	r24, r24
    8786:	4a f0       	brmi	.+18     	; 0x879a <__mulsf3_pse+0x7a>
    8788:	ee 0f       	add	r30, r30
    878a:	ff 1f       	adc	r31, r31
    878c:	bb 1f       	adc	r27, r27
    878e:	66 1f       	adc	r22, r22
    8790:	77 1f       	adc	r23, r23
    8792:	88 1f       	adc	r24, r24
    8794:	91 50       	subi	r25, 0x01	; 1
    8796:	50 40       	sbci	r21, 0x00	; 0
    8798:	a9 f7       	brne	.-22     	; 0x8784 <__mulsf3_pse+0x64>
    879a:	9e 3f       	cpi	r25, 0xFE	; 254
    879c:	51 05       	cpc	r21, r1
    879e:	70 f0       	brcs	.+28     	; 0x87bc <__mulsf3_pse+0x9c>
    87a0:	d8 ce       	rjmp	.-592    	; 0x8552 <__fp_inf>
    87a2:	9f cf       	rjmp	.-194    	; 0x86e2 <__fp_szero>
    87a4:	5f 3f       	cpi	r21, 0xFF	; 255
    87a6:	ec f3       	brlt	.-6      	; 0x87a2 <__mulsf3_pse+0x82>
    87a8:	98 3e       	cpi	r25, 0xE8	; 232
    87aa:	dc f3       	brlt	.-10     	; 0x87a2 <__mulsf3_pse+0x82>
    87ac:	86 95       	lsr	r24
    87ae:	77 95       	ror	r23
    87b0:	67 95       	ror	r22
    87b2:	b7 95       	ror	r27
    87b4:	f7 95       	ror	r31
    87b6:	e7 95       	ror	r30
    87b8:	9f 5f       	subi	r25, 0xFF	; 255
    87ba:	c1 f7       	brne	.-16     	; 0x87ac <__mulsf3_pse+0x8c>
    87bc:	fe 2b       	or	r31, r30
    87be:	88 0f       	add	r24, r24
    87c0:	91 1d       	adc	r25, r1
    87c2:	96 95       	lsr	r25
    87c4:	87 95       	ror	r24
    87c6:	97 f9       	bld	r25, 7
    87c8:	08 95       	ret

000087ca <sin>:
    87ca:	9f 93       	push	r25
    87cc:	1e df       	rcall	.-452    	; 0x860a <__fp_rempio2>
    87ce:	0f 90       	pop	r0
    87d0:	07 fc       	sbrc	r0, 7
    87d2:	ee 5f       	subi	r30, 0xFE	; 254
    87d4:	52 cf       	rjmp	.-348    	; 0x867a <__fp_sinus>
    87d6:	11 f4       	brne	.+4      	; 0x87dc <sin+0x12>
    87d8:	0e f4       	brtc	.+2      	; 0x87dc <sin+0x12>
    87da:	cf ce       	rjmp	.-610    	; 0x857a <__fp_nan>
    87dc:	c0 ce       	rjmp	.-640    	; 0x855e <__fp_mpack>

000087de <sqrt>:
    87de:	66 df       	rcall	.-308    	; 0x86ac <__fp_splitA>
    87e0:	d0 f3       	brcs	.-12     	; 0x87d6 <sin+0xc>
    87e2:	99 23       	and	r25, r25
    87e4:	d9 f3       	breq	.-10     	; 0x87dc <sin+0x12>
    87e6:	ce f3       	brts	.-14     	; 0x87da <sin+0x10>
    87e8:	9f 57       	subi	r25, 0x7F	; 127
    87ea:	55 0b       	sbc	r21, r21
    87ec:	87 ff       	sbrs	r24, 7
    87ee:	38 d0       	rcall	.+112    	; 0x8860 <__fp_norm2>
    87f0:	00 24       	eor	r0, r0
    87f2:	a0 e6       	ldi	r26, 0x60	; 96
    87f4:	40 ea       	ldi	r20, 0xA0	; 160
    87f6:	90 01       	movw	r18, r0
    87f8:	80 58       	subi	r24, 0x80	; 128
    87fa:	56 95       	lsr	r21
    87fc:	97 95       	ror	r25
    87fe:	28 f4       	brcc	.+10     	; 0x880a <sqrt+0x2c>
    8800:	80 5c       	subi	r24, 0xC0	; 192
    8802:	66 0f       	add	r22, r22
    8804:	77 1f       	adc	r23, r23
    8806:	88 1f       	adc	r24, r24
    8808:	20 f0       	brcs	.+8      	; 0x8812 <sqrt+0x34>
    880a:	26 17       	cp	r18, r22
    880c:	37 07       	cpc	r19, r23
    880e:	48 07       	cpc	r20, r24
    8810:	30 f4       	brcc	.+12     	; 0x881e <sqrt+0x40>
    8812:	62 1b       	sub	r22, r18
    8814:	73 0b       	sbc	r23, r19
    8816:	84 0b       	sbc	r24, r20
    8818:	20 29       	or	r18, r0
    881a:	31 29       	or	r19, r1
    881c:	4a 2b       	or	r20, r26
    881e:	a6 95       	lsr	r26
    8820:	17 94       	ror	r1
    8822:	07 94       	ror	r0
    8824:	20 25       	eor	r18, r0
    8826:	31 25       	eor	r19, r1
    8828:	4a 27       	eor	r20, r26
    882a:	58 f7       	brcc	.-42     	; 0x8802 <sqrt+0x24>
    882c:	66 0f       	add	r22, r22
    882e:	77 1f       	adc	r23, r23
    8830:	88 1f       	adc	r24, r24
    8832:	20 f0       	brcs	.+8      	; 0x883c <sqrt+0x5e>
    8834:	26 17       	cp	r18, r22
    8836:	37 07       	cpc	r19, r23
    8838:	48 07       	cpc	r20, r24
    883a:	30 f4       	brcc	.+12     	; 0x8848 <sqrt+0x6a>
    883c:	62 0b       	sbc	r22, r18
    883e:	73 0b       	sbc	r23, r19
    8840:	84 0b       	sbc	r24, r20
    8842:	20 0d       	add	r18, r0
    8844:	31 1d       	adc	r19, r1
    8846:	41 1d       	adc	r20, r1
    8848:	a0 95       	com	r26
    884a:	81 f7       	brne	.-32     	; 0x882c <sqrt+0x4e>
    884c:	b9 01       	movw	r22, r18
    884e:	84 2f       	mov	r24, r20
    8850:	91 58       	subi	r25, 0x81	; 129
    8852:	88 0f       	add	r24, r24
    8854:	96 95       	lsr	r25
    8856:	87 95       	ror	r24
    8858:	08 95       	ret

0000885a <square>:
    885a:	9b 01       	movw	r18, r22
    885c:	ac 01       	movw	r20, r24
    885e:	52 cf       	rjmp	.-348    	; 0x8704 <__mulsf3>

00008860 <__fp_norm2>:
    8860:	91 50       	subi	r25, 0x01	; 1
    8862:	50 40       	sbci	r21, 0x00	; 0
    8864:	66 0f       	add	r22, r22
    8866:	77 1f       	adc	r23, r23
    8868:	88 1f       	adc	r24, r24
    886a:	d2 f7       	brpl	.-12     	; 0x8860 <__fp_norm2>
    886c:	08 95       	ret

0000886e <__divmodsi4>:
    886e:	05 2e       	mov	r0, r21
    8870:	97 fb       	bst	r25, 7
    8872:	16 f4       	brtc	.+4      	; 0x8878 <__divmodsi4+0xa>
    8874:	00 94       	com	r0
    8876:	06 d0       	rcall	.+12     	; 0x8884 <__divmodsi4_neg1>
    8878:	57 fd       	sbrc	r21, 7
    887a:	0c d0       	rcall	.+24     	; 0x8894 <__divmodsi4_neg2>
    887c:	17 d0       	rcall	.+46     	; 0x88ac <__udivmodsi4>
    887e:	07 fc       	sbrc	r0, 7
    8880:	09 d0       	rcall	.+18     	; 0x8894 <__divmodsi4_neg2>
    8882:	7e f4       	brtc	.+30     	; 0x88a2 <__divmodsi4_exit>

00008884 <__divmodsi4_neg1>:
    8884:	90 95       	com	r25
    8886:	80 95       	com	r24
    8888:	70 95       	com	r23
    888a:	61 95       	neg	r22
    888c:	7f 4f       	sbci	r23, 0xFF	; 255
    888e:	8f 4f       	sbci	r24, 0xFF	; 255
    8890:	9f 4f       	sbci	r25, 0xFF	; 255
    8892:	08 95       	ret

00008894 <__divmodsi4_neg2>:
    8894:	50 95       	com	r21
    8896:	40 95       	com	r20
    8898:	30 95       	com	r19
    889a:	21 95       	neg	r18
    889c:	3f 4f       	sbci	r19, 0xFF	; 255
    889e:	4f 4f       	sbci	r20, 0xFF	; 255
    88a0:	5f 4f       	sbci	r21, 0xFF	; 255

000088a2 <__divmodsi4_exit>:
    88a2:	08 95       	ret

000088a4 <__tablejump_elpm__>:
    88a4:	07 90       	elpm	r0, Z+
    88a6:	f6 91       	elpm	r31, Z
    88a8:	e0 2d       	mov	r30, r0
    88aa:	09 94       	ijmp

000088ac <__udivmodsi4>:
    88ac:	a1 e2       	ldi	r26, 0x21	; 33
    88ae:	1a 2e       	mov	r1, r26
    88b0:	aa 1b       	sub	r26, r26
    88b2:	bb 1b       	sub	r27, r27
    88b4:	fd 01       	movw	r30, r26
    88b6:	0d c0       	rjmp	.+26     	; 0x88d2 <__udivmodsi4_ep>

000088b8 <__udivmodsi4_loop>:
    88b8:	aa 1f       	adc	r26, r26
    88ba:	bb 1f       	adc	r27, r27
    88bc:	ee 1f       	adc	r30, r30
    88be:	ff 1f       	adc	r31, r31
    88c0:	a2 17       	cp	r26, r18
    88c2:	b3 07       	cpc	r27, r19
    88c4:	e4 07       	cpc	r30, r20
    88c6:	f5 07       	cpc	r31, r21
    88c8:	20 f0       	brcs	.+8      	; 0x88d2 <__udivmodsi4_ep>
    88ca:	a2 1b       	sub	r26, r18
    88cc:	b3 0b       	sbc	r27, r19
    88ce:	e4 0b       	sbc	r30, r20
    88d0:	f5 0b       	sbc	r31, r21

000088d2 <__udivmodsi4_ep>:
    88d2:	66 1f       	adc	r22, r22
    88d4:	77 1f       	adc	r23, r23
    88d6:	88 1f       	adc	r24, r24
    88d8:	99 1f       	adc	r25, r25
    88da:	1a 94       	dec	r1
    88dc:	69 f7       	brne	.-38     	; 0x88b8 <__udivmodsi4_loop>
    88de:	60 95       	com	r22
    88e0:	70 95       	com	r23
    88e2:	80 95       	com	r24
    88e4:	90 95       	com	r25
    88e6:	9b 01       	movw	r18, r22
    88e8:	ac 01       	movw	r20, r24
    88ea:	bd 01       	movw	r22, r26
    88ec:	cf 01       	movw	r24, r30
    88ee:	08 95       	ret

000088f0 <malloc>:
    88f0:	0f 93       	push	r16
    88f2:	1f 93       	push	r17
    88f4:	cf 93       	push	r28
    88f6:	df 93       	push	r29
    88f8:	82 30       	cpi	r24, 0x02	; 2
    88fa:	91 05       	cpc	r25, r1
    88fc:	10 f4       	brcc	.+4      	; 0x8902 <malloc+0x12>
    88fe:	82 e0       	ldi	r24, 0x02	; 2
    8900:	90 e0       	ldi	r25, 0x00	; 0
    8902:	e0 91 51 20 	lds	r30, 0x2051
    8906:	f0 91 52 20 	lds	r31, 0x2052
    890a:	20 e0       	ldi	r18, 0x00	; 0
    890c:	30 e0       	ldi	r19, 0x00	; 0
    890e:	c0 e0       	ldi	r28, 0x00	; 0
    8910:	d0 e0       	ldi	r29, 0x00	; 0
    8912:	23 c0       	rjmp	.+70     	; 0x895a <malloc+0x6a>
    8914:	40 81       	ld	r20, Z
    8916:	51 81       	ldd	r21, Z+1	; 0x01
    8918:	48 17       	cp	r20, r24
    891a:	59 07       	cpc	r21, r25
    891c:	a8 f0       	brcs	.+42     	; 0x8948 <malloc+0x58>
    891e:	48 17       	cp	r20, r24
    8920:	59 07       	cpc	r21, r25
    8922:	61 f4       	brne	.+24     	; 0x893c <malloc+0x4c>
    8924:	82 81       	ldd	r24, Z+2	; 0x02
    8926:	93 81       	ldd	r25, Z+3	; 0x03
    8928:	20 97       	sbiw	r28, 0x00	; 0
    892a:	19 f0       	breq	.+6      	; 0x8932 <malloc+0x42>
    892c:	9b 83       	std	Y+3, r25	; 0x03
    892e:	8a 83       	std	Y+2, r24	; 0x02
    8930:	2e c0       	rjmp	.+92     	; 0x898e <malloc+0x9e>
    8932:	90 93 52 20 	sts	0x2052, r25
    8936:	80 93 51 20 	sts	0x2051, r24
    893a:	29 c0       	rjmp	.+82     	; 0x898e <malloc+0x9e>
    893c:	21 15       	cp	r18, r1
    893e:	31 05       	cpc	r19, r1
    8940:	29 f0       	breq	.+10     	; 0x894c <malloc+0x5c>
    8942:	42 17       	cp	r20, r18
    8944:	53 07       	cpc	r21, r19
    8946:	10 f0       	brcs	.+4      	; 0x894c <malloc+0x5c>
    8948:	a9 01       	movw	r20, r18
    894a:	02 c0       	rjmp	.+4      	; 0x8950 <malloc+0x60>
    894c:	be 01       	movw	r22, r28
    894e:	df 01       	movw	r26, r30
    8950:	02 81       	ldd	r16, Z+2	; 0x02
    8952:	13 81       	ldd	r17, Z+3	; 0x03
    8954:	ef 01       	movw	r28, r30
    8956:	9a 01       	movw	r18, r20
    8958:	f8 01       	movw	r30, r16
    895a:	30 97       	sbiw	r30, 0x00	; 0
    895c:	d9 f6       	brne	.-74     	; 0x8914 <malloc+0x24>
    895e:	21 15       	cp	r18, r1
    8960:	31 05       	cpc	r19, r1
    8962:	09 f1       	breq	.+66     	; 0x89a6 <malloc+0xb6>
    8964:	28 1b       	sub	r18, r24
    8966:	39 0b       	sbc	r19, r25
    8968:	24 30       	cpi	r18, 0x04	; 4
    896a:	31 05       	cpc	r19, r1
    896c:	90 f4       	brcc	.+36     	; 0x8992 <malloc+0xa2>
    896e:	12 96       	adiw	r26, 0x02	; 2
    8970:	8d 91       	ld	r24, X+
    8972:	9c 91       	ld	r25, X
    8974:	13 97       	sbiw	r26, 0x03	; 3
    8976:	61 15       	cp	r22, r1
    8978:	71 05       	cpc	r23, r1
    897a:	21 f0       	breq	.+8      	; 0x8984 <malloc+0x94>
    897c:	fb 01       	movw	r30, r22
    897e:	93 83       	std	Z+3, r25	; 0x03
    8980:	82 83       	std	Z+2, r24	; 0x02
    8982:	04 c0       	rjmp	.+8      	; 0x898c <malloc+0x9c>
    8984:	90 93 52 20 	sts	0x2052, r25
    8988:	80 93 51 20 	sts	0x2051, r24
    898c:	fd 01       	movw	r30, r26
    898e:	32 96       	adiw	r30, 0x02	; 2
    8990:	44 c0       	rjmp	.+136    	; 0x8a1a <malloc+0x12a>
    8992:	fd 01       	movw	r30, r26
    8994:	e2 0f       	add	r30, r18
    8996:	f3 1f       	adc	r31, r19
    8998:	81 93       	st	Z+, r24
    899a:	91 93       	st	Z+, r25
    899c:	22 50       	subi	r18, 0x02	; 2
    899e:	31 09       	sbc	r19, r1
    89a0:	2d 93       	st	X+, r18
    89a2:	3c 93       	st	X, r19
    89a4:	3a c0       	rjmp	.+116    	; 0x8a1a <malloc+0x12a>
    89a6:	20 91 4f 20 	lds	r18, 0x204F
    89aa:	30 91 50 20 	lds	r19, 0x2050
    89ae:	23 2b       	or	r18, r19
    89b0:	41 f4       	brne	.+16     	; 0x89c2 <malloc+0xd2>
    89b2:	20 91 02 01 	lds	r18, 0x0102
    89b6:	30 91 03 01 	lds	r19, 0x0103
    89ba:	30 93 50 20 	sts	0x2050, r19
    89be:	20 93 4f 20 	sts	0x204F, r18
    89c2:	20 91 00 01 	lds	r18, 0x0100
    89c6:	30 91 01 01 	lds	r19, 0x0101
    89ca:	21 15       	cp	r18, r1
    89cc:	31 05       	cpc	r19, r1
    89ce:	41 f4       	brne	.+16     	; 0x89e0 <malloc+0xf0>
    89d0:	2d b7       	in	r18, 0x3d	; 61
    89d2:	3e b7       	in	r19, 0x3e	; 62
    89d4:	40 91 04 01 	lds	r20, 0x0104
    89d8:	50 91 05 01 	lds	r21, 0x0105
    89dc:	24 1b       	sub	r18, r20
    89de:	35 0b       	sbc	r19, r21
    89e0:	e0 91 4f 20 	lds	r30, 0x204F
    89e4:	f0 91 50 20 	lds	r31, 0x2050
    89e8:	e2 17       	cp	r30, r18
    89ea:	f3 07       	cpc	r31, r19
    89ec:	a0 f4       	brcc	.+40     	; 0x8a16 <malloc+0x126>
    89ee:	2e 1b       	sub	r18, r30
    89f0:	3f 0b       	sbc	r19, r31
    89f2:	28 17       	cp	r18, r24
    89f4:	39 07       	cpc	r19, r25
    89f6:	78 f0       	brcs	.+30     	; 0x8a16 <malloc+0x126>
    89f8:	ac 01       	movw	r20, r24
    89fa:	4e 5f       	subi	r20, 0xFE	; 254
    89fc:	5f 4f       	sbci	r21, 0xFF	; 255
    89fe:	24 17       	cp	r18, r20
    8a00:	35 07       	cpc	r19, r21
    8a02:	48 f0       	brcs	.+18     	; 0x8a16 <malloc+0x126>
    8a04:	4e 0f       	add	r20, r30
    8a06:	5f 1f       	adc	r21, r31
    8a08:	50 93 50 20 	sts	0x2050, r21
    8a0c:	40 93 4f 20 	sts	0x204F, r20
    8a10:	81 93       	st	Z+, r24
    8a12:	91 93       	st	Z+, r25
    8a14:	02 c0       	rjmp	.+4      	; 0x8a1a <malloc+0x12a>
    8a16:	e0 e0       	ldi	r30, 0x00	; 0
    8a18:	f0 e0       	ldi	r31, 0x00	; 0
    8a1a:	cf 01       	movw	r24, r30
    8a1c:	df 91       	pop	r29
    8a1e:	cf 91       	pop	r28
    8a20:	1f 91       	pop	r17
    8a22:	0f 91       	pop	r16
    8a24:	08 95       	ret

00008a26 <free>:
    8a26:	ef 92       	push	r14
    8a28:	ff 92       	push	r15
    8a2a:	0f 93       	push	r16
    8a2c:	1f 93       	push	r17
    8a2e:	cf 93       	push	r28
    8a30:	df 93       	push	r29
    8a32:	00 97       	sbiw	r24, 0x00	; 0
    8a34:	09 f4       	brne	.+2      	; 0x8a38 <free+0x12>
    8a36:	8f c0       	rjmp	.+286    	; 0x8b56 <free+0x130>
    8a38:	dc 01       	movw	r26, r24
    8a3a:	12 97       	sbiw	r26, 0x02	; 2
    8a3c:	13 96       	adiw	r26, 0x03	; 3
    8a3e:	1c 92       	st	X, r1
    8a40:	1e 92       	st	-X, r1
    8a42:	12 97       	sbiw	r26, 0x02	; 2
    8a44:	e0 90 51 20 	lds	r14, 0x2051
    8a48:	f0 90 52 20 	lds	r15, 0x2052
    8a4c:	e1 14       	cp	r14, r1
    8a4e:	f1 04       	cpc	r15, r1
    8a50:	89 f4       	brne	.+34     	; 0x8a74 <free+0x4e>
    8a52:	2d 91       	ld	r18, X+
    8a54:	3c 91       	ld	r19, X
    8a56:	11 97       	sbiw	r26, 0x01	; 1
    8a58:	28 0f       	add	r18, r24
    8a5a:	39 1f       	adc	r19, r25
    8a5c:	80 91 4f 20 	lds	r24, 0x204F
    8a60:	90 91 50 20 	lds	r25, 0x2050
    8a64:	82 17       	cp	r24, r18
    8a66:	93 07       	cpc	r25, r19
    8a68:	89 f5       	brne	.+98     	; 0x8acc <free+0xa6>
    8a6a:	b0 93 50 20 	sts	0x2050, r27
    8a6e:	a0 93 4f 20 	sts	0x204F, r26
    8a72:	71 c0       	rjmp	.+226    	; 0x8b56 <free+0x130>
    8a74:	e7 01       	movw	r28, r14
    8a76:	20 e0       	ldi	r18, 0x00	; 0
    8a78:	30 e0       	ldi	r19, 0x00	; 0
    8a7a:	01 c0       	rjmp	.+2      	; 0x8a7e <free+0x58>
    8a7c:	ea 01       	movw	r28, r20
    8a7e:	ca 17       	cp	r28, r26
    8a80:	db 07       	cpc	r29, r27
    8a82:	38 f4       	brcc	.+14     	; 0x8a92 <free+0x6c>
    8a84:	4a 81       	ldd	r20, Y+2	; 0x02
    8a86:	5b 81       	ldd	r21, Y+3	; 0x03
    8a88:	9e 01       	movw	r18, r28
    8a8a:	41 15       	cp	r20, r1
    8a8c:	51 05       	cpc	r21, r1
    8a8e:	b1 f7       	brne	.-20     	; 0x8a7c <free+0x56>
    8a90:	22 c0       	rjmp	.+68     	; 0x8ad6 <free+0xb0>
    8a92:	bc 01       	movw	r22, r24
    8a94:	62 50       	subi	r22, 0x02	; 2
    8a96:	71 09       	sbc	r23, r1
    8a98:	fb 01       	movw	r30, r22
    8a9a:	d3 83       	std	Z+3, r29	; 0x03
    8a9c:	c2 83       	std	Z+2, r28	; 0x02
    8a9e:	00 81       	ld	r16, Z
    8aa0:	11 81       	ldd	r17, Z+1	; 0x01
    8aa2:	ac 01       	movw	r20, r24
    8aa4:	40 0f       	add	r20, r16
    8aa6:	51 1f       	adc	r21, r17
    8aa8:	4c 17       	cp	r20, r28
    8aaa:	5d 07       	cpc	r21, r29
    8aac:	61 f4       	brne	.+24     	; 0x8ac6 <free+0xa0>
    8aae:	48 81       	ld	r20, Y
    8ab0:	59 81       	ldd	r21, Y+1	; 0x01
    8ab2:	40 0f       	add	r20, r16
    8ab4:	51 1f       	adc	r21, r17
    8ab6:	4e 5f       	subi	r20, 0xFE	; 254
    8ab8:	5f 4f       	sbci	r21, 0xFF	; 255
    8aba:	51 83       	std	Z+1, r21	; 0x01
    8abc:	40 83       	st	Z, r20
    8abe:	4a 81       	ldd	r20, Y+2	; 0x02
    8ac0:	5b 81       	ldd	r21, Y+3	; 0x03
    8ac2:	53 83       	std	Z+3, r21	; 0x03
    8ac4:	42 83       	std	Z+2, r20	; 0x02
    8ac6:	21 15       	cp	r18, r1
    8ac8:	31 05       	cpc	r19, r1
    8aca:	29 f4       	brne	.+10     	; 0x8ad6 <free+0xb0>
    8acc:	b0 93 52 20 	sts	0x2052, r27
    8ad0:	a0 93 51 20 	sts	0x2051, r26
    8ad4:	40 c0       	rjmp	.+128    	; 0x8b56 <free+0x130>
    8ad6:	f9 01       	movw	r30, r18
    8ad8:	b3 83       	std	Z+3, r27	; 0x03
    8ada:	a2 83       	std	Z+2, r26	; 0x02
    8adc:	e9 01       	movw	r28, r18
    8ade:	69 91       	ld	r22, Y+
    8ae0:	79 91       	ld	r23, Y+
    8ae2:	c6 0f       	add	r28, r22
    8ae4:	d7 1f       	adc	r29, r23
    8ae6:	ac 17       	cp	r26, r28
    8ae8:	bd 07       	cpc	r27, r29
    8aea:	79 f4       	brne	.+30     	; 0x8b0a <free+0xe4>
    8aec:	dc 01       	movw	r26, r24
    8aee:	5e 91       	ld	r21, -X
    8af0:	4e 91       	ld	r20, -X
    8af2:	46 0f       	add	r20, r22
    8af4:	57 1f       	adc	r21, r23
    8af6:	4e 5f       	subi	r20, 0xFE	; 254
    8af8:	5f 4f       	sbci	r21, 0xFF	; 255
    8afa:	51 83       	std	Z+1, r21	; 0x01
    8afc:	40 83       	st	Z, r20
    8afe:	12 96       	adiw	r26, 0x02	; 2
    8b00:	8d 91       	ld	r24, X+
    8b02:	9c 91       	ld	r25, X
    8b04:	13 97       	sbiw	r26, 0x03	; 3
    8b06:	93 83       	std	Z+3, r25	; 0x03
    8b08:	82 83       	std	Z+2, r24	; 0x02
    8b0a:	a0 e0       	ldi	r26, 0x00	; 0
    8b0c:	b0 e0       	ldi	r27, 0x00	; 0
    8b0e:	02 c0       	rjmp	.+4      	; 0x8b14 <free+0xee>
    8b10:	d7 01       	movw	r26, r14
    8b12:	7c 01       	movw	r14, r24
    8b14:	f7 01       	movw	r30, r14
    8b16:	82 81       	ldd	r24, Z+2	; 0x02
    8b18:	93 81       	ldd	r25, Z+3	; 0x03
    8b1a:	00 97       	sbiw	r24, 0x00	; 0
    8b1c:	c9 f7       	brne	.-14     	; 0x8b10 <free+0xea>
    8b1e:	c7 01       	movw	r24, r14
    8b20:	02 96       	adiw	r24, 0x02	; 2
    8b22:	20 81       	ld	r18, Z
    8b24:	31 81       	ldd	r19, Z+1	; 0x01
    8b26:	82 0f       	add	r24, r18
    8b28:	93 1f       	adc	r25, r19
    8b2a:	20 91 4f 20 	lds	r18, 0x204F
    8b2e:	30 91 50 20 	lds	r19, 0x2050
    8b32:	28 17       	cp	r18, r24
    8b34:	39 07       	cpc	r19, r25
    8b36:	79 f4       	brne	.+30     	; 0x8b56 <free+0x130>
    8b38:	10 97       	sbiw	r26, 0x00	; 0
    8b3a:	29 f4       	brne	.+10     	; 0x8b46 <free+0x120>
    8b3c:	10 92 52 20 	sts	0x2052, r1
    8b40:	10 92 51 20 	sts	0x2051, r1
    8b44:	04 c0       	rjmp	.+8      	; 0x8b4e <free+0x128>
    8b46:	13 96       	adiw	r26, 0x03	; 3
    8b48:	1c 92       	st	X, r1
    8b4a:	1e 92       	st	-X, r1
    8b4c:	12 97       	sbiw	r26, 0x02	; 2
    8b4e:	f0 92 50 20 	sts	0x2050, r15
    8b52:	e0 92 4f 20 	sts	0x204F, r14
    8b56:	df 91       	pop	r29
    8b58:	cf 91       	pop	r28
    8b5a:	1f 91       	pop	r17
    8b5c:	0f 91       	pop	r16
    8b5e:	ff 90       	pop	r15
    8b60:	ef 90       	pop	r14
    8b62:	08 95       	ret

00008b64 <realloc>:
    8b64:	8f 92       	push	r8
    8b66:	9f 92       	push	r9
    8b68:	af 92       	push	r10
    8b6a:	bf 92       	push	r11
    8b6c:	cf 92       	push	r12
    8b6e:	df 92       	push	r13
    8b70:	ef 92       	push	r14
    8b72:	ff 92       	push	r15
    8b74:	0f 93       	push	r16
    8b76:	1f 93       	push	r17
    8b78:	cf 93       	push	r28
    8b7a:	df 93       	push	r29
    8b7c:	ec 01       	movw	r28, r24
    8b7e:	00 97       	sbiw	r24, 0x00	; 0
    8b80:	71 f4       	brne	.+28     	; 0x8b9e <realloc+0x3a>
    8b82:	cb 01       	movw	r24, r22
    8b84:	df 91       	pop	r29
    8b86:	cf 91       	pop	r28
    8b88:	1f 91       	pop	r17
    8b8a:	0f 91       	pop	r16
    8b8c:	ff 90       	pop	r15
    8b8e:	ef 90       	pop	r14
    8b90:	df 90       	pop	r13
    8b92:	cf 90       	pop	r12
    8b94:	bf 90       	pop	r11
    8b96:	af 90       	pop	r10
    8b98:	9f 90       	pop	r9
    8b9a:	8f 90       	pop	r8
    8b9c:	a9 ce       	rjmp	.-686    	; 0x88f0 <malloc>
    8b9e:	dc 01       	movw	r26, r24
    8ba0:	a6 0f       	add	r26, r22
    8ba2:	b7 1f       	adc	r27, r23
    8ba4:	fc 01       	movw	r30, r24
    8ba6:	32 97       	sbiw	r30, 0x02	; 2
    8ba8:	ae 17       	cp	r26, r30
    8baa:	bf 07       	cpc	r27, r31
    8bac:	18 f4       	brcc	.+6      	; 0x8bb4 <realloc+0x50>
    8bae:	c0 e0       	ldi	r28, 0x00	; 0
    8bb0:	d0 e0       	ldi	r29, 0x00	; 0
    8bb2:	a9 c0       	rjmp	.+338    	; 0x8d06 <realloc+0x1a2>
    8bb4:	00 81       	ld	r16, Z
    8bb6:	11 81       	ldd	r17, Z+1	; 0x01
    8bb8:	06 17       	cp	r16, r22
    8bba:	17 07       	cpc	r17, r23
    8bbc:	a8 f0       	brcs	.+42     	; 0x8be8 <realloc+0x84>
    8bbe:	05 30       	cpi	r16, 0x05	; 5
    8bc0:	11 05       	cpc	r17, r1
    8bc2:	08 f4       	brcc	.+2      	; 0x8bc6 <realloc+0x62>
    8bc4:	a0 c0       	rjmp	.+320    	; 0x8d06 <realloc+0x1a2>
    8bc6:	c8 01       	movw	r24, r16
    8bc8:	04 97       	sbiw	r24, 0x04	; 4
    8bca:	86 17       	cp	r24, r22
    8bcc:	97 07       	cpc	r25, r23
    8bce:	08 f4       	brcc	.+2      	; 0x8bd2 <realloc+0x6e>
    8bd0:	9a c0       	rjmp	.+308    	; 0x8d06 <realloc+0x1a2>
    8bd2:	02 50       	subi	r16, 0x02	; 2
    8bd4:	11 09       	sbc	r17, r1
    8bd6:	06 1b       	sub	r16, r22
    8bd8:	17 0b       	sbc	r17, r23
    8bda:	0d 93       	st	X+, r16
    8bdc:	1d 93       	st	X+, r17
    8bde:	71 83       	std	Z+1, r23	; 0x01
    8be0:	60 83       	st	Z, r22
    8be2:	cd 01       	movw	r24, r26
    8be4:	20 df       	rcall	.-448    	; 0x8a26 <free>
    8be6:	8f c0       	rjmp	.+286    	; 0x8d06 <realloc+0x1a2>
    8be8:	7b 01       	movw	r14, r22
    8bea:	e0 1a       	sub	r14, r16
    8bec:	f1 0a       	sbc	r15, r17
    8bee:	5c 01       	movw	r10, r24
    8bf0:	a0 0e       	add	r10, r16
    8bf2:	b1 1e       	adc	r11, r17
    8bf4:	e0 91 51 20 	lds	r30, 0x2051
    8bf8:	f0 91 52 20 	lds	r31, 0x2052
    8bfc:	81 2c       	mov	r8, r1
    8bfe:	91 2c       	mov	r9, r1
    8c00:	80 e0       	ldi	r24, 0x00	; 0
    8c02:	90 e0       	ldi	r25, 0x00	; 0
    8c04:	4c c0       	rjmp	.+152    	; 0x8c9e <realloc+0x13a>
    8c06:	ea 15       	cp	r30, r10
    8c08:	fb 05       	cpc	r31, r11
    8c0a:	f1 f5       	brne	.+124    	; 0x8c88 <realloc+0x124>
    8c0c:	40 81       	ld	r20, Z
    8c0e:	51 81       	ldd	r21, Z+1	; 0x01
    8c10:	6a 01       	movw	r12, r20
    8c12:	22 e0       	ldi	r18, 0x02	; 2
    8c14:	c2 0e       	add	r12, r18
    8c16:	d1 1c       	adc	r13, r1
    8c18:	ce 14       	cp	r12, r14
    8c1a:	df 04       	cpc	r13, r15
    8c1c:	a8 f1       	brcs	.+106    	; 0x8c88 <realloc+0x124>
    8c1e:	9a 01       	movw	r18, r20
    8c20:	2e 19       	sub	r18, r14
    8c22:	3f 09       	sbc	r19, r15
    8c24:	79 01       	movw	r14, r18
    8c26:	69 01       	movw	r12, r18
    8c28:	32 e0       	ldi	r19, 0x02	; 2
    8c2a:	c3 0e       	add	r12, r19
    8c2c:	d1 1c       	adc	r13, r1
    8c2e:	2e ef       	ldi	r18, 0xFE	; 254
    8c30:	a2 2e       	mov	r10, r18
    8c32:	bb 24       	eor	r11, r11
    8c34:	ba 94       	dec	r11
    8c36:	ac 0e       	add	r10, r28
    8c38:	bd 1e       	adc	r11, r29
    8c3a:	25 e0       	ldi	r18, 0x05	; 5
    8c3c:	c2 16       	cp	r12, r18
    8c3e:	d1 04       	cpc	r13, r1
    8c40:	78 f0       	brcs	.+30     	; 0x8c60 <realloc+0xfc>
    8c42:	42 81       	ldd	r20, Z+2	; 0x02
    8c44:	53 81       	ldd	r21, Z+3	; 0x03
    8c46:	13 96       	adiw	r26, 0x03	; 3
    8c48:	5c 93       	st	X, r21
    8c4a:	4e 93       	st	-X, r20
    8c4c:	12 97       	sbiw	r26, 0x02	; 2
    8c4e:	11 96       	adiw	r26, 0x01	; 1
    8c50:	fc 92       	st	X, r15
    8c52:	ee 92       	st	-X, r14
    8c54:	f5 01       	movw	r30, r10
    8c56:	71 83       	std	Z+1, r23	; 0x01
    8c58:	60 83       	st	Z, r22
    8c5a:	3a 2f       	mov	r19, r26
    8c5c:	2b 2f       	mov	r18, r27
    8c5e:	09 c0       	rjmp	.+18     	; 0x8c72 <realloc+0x10e>
    8c60:	0e 5f       	subi	r16, 0xFE	; 254
    8c62:	1f 4f       	sbci	r17, 0xFF	; 255
    8c64:	04 0f       	add	r16, r20
    8c66:	15 1f       	adc	r17, r21
    8c68:	d5 01       	movw	r26, r10
    8c6a:	0d 93       	st	X+, r16
    8c6c:	1c 93       	st	X, r17
    8c6e:	32 81       	ldd	r19, Z+2	; 0x02
    8c70:	23 81       	ldd	r18, Z+3	; 0x03
    8c72:	00 97       	sbiw	r24, 0x00	; 0
    8c74:	21 f0       	breq	.+8      	; 0x8c7e <realloc+0x11a>
    8c76:	fc 01       	movw	r30, r24
    8c78:	32 83       	std	Z+2, r19	; 0x02
    8c7a:	23 83       	std	Z+3, r18	; 0x03
    8c7c:	44 c0       	rjmp	.+136    	; 0x8d06 <realloc+0x1a2>
    8c7e:	30 93 51 20 	sts	0x2051, r19
    8c82:	20 93 52 20 	sts	0x2052, r18
    8c86:	3f c0       	rjmp	.+126    	; 0x8d06 <realloc+0x1a2>
    8c88:	80 81       	ld	r24, Z
    8c8a:	91 81       	ldd	r25, Z+1	; 0x01
    8c8c:	88 16       	cp	r8, r24
    8c8e:	99 06       	cpc	r9, r25
    8c90:	08 f4       	brcc	.+2      	; 0x8c94 <realloc+0x130>
    8c92:	4c 01       	movw	r8, r24
    8c94:	52 81       	ldd	r21, Z+2	; 0x02
    8c96:	43 81       	ldd	r20, Z+3	; 0x03
    8c98:	cf 01       	movw	r24, r30
    8c9a:	e5 2f       	mov	r30, r21
    8c9c:	f4 2f       	mov	r31, r20
    8c9e:	30 97       	sbiw	r30, 0x00	; 0
    8ca0:	09 f0       	breq	.+2      	; 0x8ca4 <realloc+0x140>
    8ca2:	b1 cf       	rjmp	.-158    	; 0x8c06 <realloc+0xa2>
    8ca4:	80 91 4f 20 	lds	r24, 0x204F
    8ca8:	90 91 50 20 	lds	r25, 0x2050
    8cac:	8a 15       	cp	r24, r10
    8cae:	9b 05       	cpc	r25, r11
    8cb0:	f1 f4       	brne	.+60     	; 0x8cee <realloc+0x18a>
    8cb2:	86 16       	cp	r8, r22
    8cb4:	97 06       	cpc	r9, r23
    8cb6:	d8 f4       	brcc	.+54     	; 0x8cee <realloc+0x18a>
    8cb8:	80 91 00 01 	lds	r24, 0x0100
    8cbc:	90 91 01 01 	lds	r25, 0x0101
    8cc0:	00 97       	sbiw	r24, 0x00	; 0
    8cc2:	41 f4       	brne	.+16     	; 0x8cd4 <realloc+0x170>
    8cc4:	8d b7       	in	r24, 0x3d	; 61
    8cc6:	9e b7       	in	r25, 0x3e	; 62
    8cc8:	20 91 04 01 	lds	r18, 0x0104
    8ccc:	30 91 05 01 	lds	r19, 0x0105
    8cd0:	82 1b       	sub	r24, r18
    8cd2:	93 0b       	sbc	r25, r19
    8cd4:	a8 17       	cp	r26, r24
    8cd6:	b9 07       	cpc	r27, r25
    8cd8:	08 f0       	brcs	.+2      	; 0x8cdc <realloc+0x178>
    8cda:	69 cf       	rjmp	.-302    	; 0x8bae <realloc+0x4a>
    8cdc:	b0 93 50 20 	sts	0x2050, r27
    8ce0:	a0 93 4f 20 	sts	0x204F, r26
    8ce4:	fe 01       	movw	r30, r28
    8ce6:	32 97       	sbiw	r30, 0x02	; 2
    8ce8:	71 83       	std	Z+1, r23	; 0x01
    8cea:	60 83       	st	Z, r22
    8cec:	0c c0       	rjmp	.+24     	; 0x8d06 <realloc+0x1a2>
    8cee:	cb 01       	movw	r24, r22
    8cf0:	ff dd       	rcall	.-1026   	; 0x88f0 <malloc>
    8cf2:	7c 01       	movw	r14, r24
    8cf4:	00 97       	sbiw	r24, 0x00	; 0
    8cf6:	09 f4       	brne	.+2      	; 0x8cfa <realloc+0x196>
    8cf8:	5a cf       	rjmp	.-332    	; 0x8bae <realloc+0x4a>
    8cfa:	a8 01       	movw	r20, r16
    8cfc:	be 01       	movw	r22, r28
    8cfe:	1e d0       	rcall	.+60     	; 0x8d3c <memcpy>
    8d00:	ce 01       	movw	r24, r28
    8d02:	91 de       	rcall	.-734    	; 0x8a26 <free>
    8d04:	e7 01       	movw	r28, r14
    8d06:	ce 01       	movw	r24, r28
    8d08:	df 91       	pop	r29
    8d0a:	cf 91       	pop	r28
    8d0c:	1f 91       	pop	r17
    8d0e:	0f 91       	pop	r16
    8d10:	ff 90       	pop	r15
    8d12:	ef 90       	pop	r14
    8d14:	df 90       	pop	r13
    8d16:	cf 90       	pop	r12
    8d18:	bf 90       	pop	r11
    8d1a:	af 90       	pop	r10
    8d1c:	9f 90       	pop	r9
    8d1e:	8f 90       	pop	r8
    8d20:	08 95       	ret

00008d22 <memcmp>:
    8d22:	fb 01       	movw	r30, r22
    8d24:	dc 01       	movw	r26, r24
    8d26:	04 c0       	rjmp	.+8      	; 0x8d30 <memcmp+0xe>
    8d28:	8d 91       	ld	r24, X+
    8d2a:	01 90       	ld	r0, Z+
    8d2c:	80 19       	sub	r24, r0
    8d2e:	21 f4       	brne	.+8      	; 0x8d38 <memcmp+0x16>
    8d30:	41 50       	subi	r20, 0x01	; 1
    8d32:	50 40       	sbci	r21, 0x00	; 0
    8d34:	c8 f7       	brcc	.-14     	; 0x8d28 <memcmp+0x6>
    8d36:	88 1b       	sub	r24, r24
    8d38:	99 0b       	sbc	r25, r25
    8d3a:	08 95       	ret

00008d3c <memcpy>:
    8d3c:	fb 01       	movw	r30, r22
    8d3e:	dc 01       	movw	r26, r24
    8d40:	02 c0       	rjmp	.+4      	; 0x8d46 <memcpy+0xa>
    8d42:	01 90       	ld	r0, Z+
    8d44:	0d 92       	st	X+, r0
    8d46:	41 50       	subi	r20, 0x01	; 1
    8d48:	50 40       	sbci	r21, 0x00	; 0
    8d4a:	d8 f7       	brcc	.-10     	; 0x8d42 <memcpy+0x6>
    8d4c:	08 95       	ret

00008d4e <_exit>:
    8d4e:	f8 94       	cli

00008d50 <__stop_program>:
    8d50:	ff cf       	rjmp	.-2      	; 0x8d50 <__stop_program>
