
Gangenheten.elf:     file format elf32-avr

Sections:
Idx Name          Size      VMA       LMA       File off  Algn
  0 .data         00001440  00800100  000031e8  0000327c  2**0
                  CONTENTS, ALLOC, LOAD, DATA
  1 .text         000031e8  00000000  00000000  00000094  2**1
                  CONTENTS, ALLOC, LOAD, READONLY, CODE
  2 .bss          000009b5  00801540  00801540  000046bc  2**0
                  ALLOC
  3 .stab         000037ec  00000000  00000000  000046bc  2**2
                  CONTENTS, READONLY, DEBUGGING
  4 .stabstr      00001067  00000000  00000000  00007ea8  2**0
                  CONTENTS, READONLY, DEBUGGING
  5 .comment      0000002f  00000000  00000000  00008f0f  2**0
                  CONTENTS, READONLY
  6 .debug_aranges 00000338  00000000  00000000  00008f3e  2**0
                  CONTENTS, READONLY, DEBUGGING
  7 .debug_info   00003516  00000000  00000000  00009276  2**0
                  CONTENTS, READONLY, DEBUGGING
  8 .debug_abbrev 00000d13  00000000  00000000  0000c78c  2**0
                  CONTENTS, READONLY, DEBUGGING
  9 .debug_line   00001f67  00000000  00000000  0000d49f  2**0
                  CONTENTS, READONLY, DEBUGGING
 10 .debug_frame  00000c98  00000000  00000000  0000f408  2**2
                  CONTENTS, READONLY, DEBUGGING
 11 .debug_str    00001369  00000000  00000000  000100a0  2**0
                  CONTENTS, READONLY, DEBUGGING
 12 .debug_loc    000031cc  00000000  00000000  00011409  2**0
                  CONTENTS, READONLY, DEBUGGING
 13 .debug_ranges 000002f8  00000000  00000000  000145d5  2**0
                  CONTENTS, READONLY, DEBUGGING

Disassembly of section .text:

00000000 <__vectors>:
       0:	89 c0       	rjmp	.+274    	; 0x114 <__ctors_end>
       2:	00 00       	nop
       4:	a5 c0       	rjmp	.+330    	; 0x150 <__bad_interrupt>
       6:	00 00       	nop
       8:	a3 c0       	rjmp	.+326    	; 0x150 <__bad_interrupt>
       a:	00 00       	nop
       c:	a1 c0       	rjmp	.+322    	; 0x150 <__bad_interrupt>
       e:	00 00       	nop
      10:	9f c0       	rjmp	.+318    	; 0x150 <__bad_interrupt>
      12:	00 00       	nop
      14:	9d c0       	rjmp	.+314    	; 0x150 <__bad_interrupt>
      16:	00 00       	nop
      18:	9b c0       	rjmp	.+310    	; 0x150 <__bad_interrupt>
      1a:	00 00       	nop
      1c:	99 c0       	rjmp	.+306    	; 0x150 <__bad_interrupt>
      1e:	00 00       	nop
      20:	97 c0       	rjmp	.+302    	; 0x150 <__bad_interrupt>
      22:	00 00       	nop
      24:	95 c0       	rjmp	.+298    	; 0x150 <__bad_interrupt>
      26:	00 00       	nop
      28:	93 c0       	rjmp	.+294    	; 0x150 <__bad_interrupt>
      2a:	00 00       	nop
      2c:	91 c0       	rjmp	.+290    	; 0x150 <__bad_interrupt>
      2e:	00 00       	nop
      30:	8f c0       	rjmp	.+286    	; 0x150 <__bad_interrupt>
      32:	00 00       	nop
      34:	94 c1       	rjmp	.+808    	; 0x35e <__vector_13>
      36:	00 00       	nop
      38:	8b c0       	rjmp	.+278    	; 0x150 <__bad_interrupt>
      3a:	00 00       	nop
      3c:	89 c0       	rjmp	.+274    	; 0x150 <__bad_interrupt>
      3e:	00 00       	nop
      40:	87 c0       	rjmp	.+270    	; 0x150 <__bad_interrupt>
      42:	00 00       	nop
      44:	85 c0       	rjmp	.+266    	; 0x150 <__bad_interrupt>
      46:	00 00       	nop
      48:	83 c0       	rjmp	.+262    	; 0x150 <__bad_interrupt>
      4a:	00 00       	nop
      4c:	81 c0       	rjmp	.+258    	; 0x150 <__bad_interrupt>
      4e:	00 00       	nop
      50:	0c 94 f2 14 	jmp	0x29e4	; 0x29e4 <__vector_20>
      54:	7d c0       	rjmp	.+250    	; 0x150 <__bad_interrupt>
      56:	00 00       	nop
      58:	7b c0       	rjmp	.+246    	; 0x150 <__bad_interrupt>
      5a:	00 00       	nop
      5c:	79 c0       	rjmp	.+242    	; 0x150 <__bad_interrupt>
      5e:	00 00       	nop
      60:	77 c0       	rjmp	.+238    	; 0x150 <__bad_interrupt>
      62:	00 00       	nop
      64:	75 c0       	rjmp	.+234    	; 0x150 <__bad_interrupt>
      66:	00 00       	nop
      68:	73 c0       	rjmp	.+230    	; 0x150 <__bad_interrupt>
      6a:	00 00       	nop
      6c:	71 c0       	rjmp	.+226    	; 0x150 <__bad_interrupt>
      6e:	00 00       	nop
      70:	0c 94 93 12 	jmp	0x2526	; 0x2526 <__vector_28>
      74:	6d c0       	rjmp	.+218    	; 0x150 <__bad_interrupt>
      76:	00 00       	nop
      78:	6b c0       	rjmp	.+214    	; 0x150 <__bad_interrupt>
      7a:	00 00       	nop
      7c:	69 c0       	rjmp	.+210    	; 0x150 <__bad_interrupt>
      7e:	00 00       	nop
      80:	b4 c0       	rjmp	.+360    	; 0x1ea <__vector_32>
      82:	00 00       	nop
      84:	65 c0       	rjmp	.+202    	; 0x150 <__bad_interrupt>
      86:	00 00       	nop
      88:	63 c0       	rjmp	.+198    	; 0x150 <__bad_interrupt>
      8a:	00 00       	nop
      8c:	03 6e       	ori	r16, 0xE3	; 227
      8e:	db 36       	cpi	r29, 0x6B	; 107
      90:	3d 9a       	sbi	0x07, 5	; 7
      92:	99 99       	sbic	0x13, 1	; 19
      94:	99 3d       	cpi	r25, 0xD9	; 217
      96:	ab aa       	std	Y+51, r10	; 0x33
      98:	aa 2a       	or	r10, r26
      9a:	3e 00       	.word	0x003e	; ????
      9c:	00 00       	nop
      9e:	80 3f       	cpi	r24, 0xF0	; 240
      a0:	08 4a       	sbci	r16, 0xA8	; 168
      a2:	d7 3b       	cpi	r29, 0xB7	; 183
      a4:	3b ce       	rjmp	.-906    	; 0xfffffd1c <__eeprom_end+0xff7efd1c>
      a6:	01 6e       	ori	r16, 0xE1	; 225
      a8:	84 bc       	out	0x24, r8	; 36
      aa:	bf fd       	.word	0xfdbf	; ????
      ac:	c1 2f       	mov	r28, r17
      ae:	3d 6c       	ori	r19, 0xCD	; 205
      b0:	74 31       	cpi	r23, 0x14	; 20
      b2:	9a bd       	out	0x2a, r25	; 42
      b4:	56 83       	std	Z+6, r21	; 0x06
      b6:	3d da       	rcall	.-2950   	; 0xfffff532 <__eeprom_end+0xff7ef532>
      b8:	3d 00       	.word	0x003d	; ????
      ba:	c7 7f       	andi	r28, 0xF7	; 247
      bc:	11 be       	out	0x31, r1	; 49
      be:	d9 e4       	ldi	r29, 0x49	; 73
      c0:	bb 4c       	sbci	r27, 0xCB	; 203
      c2:	3e 91       	ld	r19, -X
      c4:	6b aa       	std	Y+51, r6	; 0x33
      c6:	aa be       	out	0x3a, r10	; 58
      c8:	00 00       	nop
      ca:	00 80       	ld	r0, Z
      cc:	3f 07       	cpc	r19, r31
      ce:	2c 7a       	andi	r18, 0xAC	; 172
      d0:	a5 ba       	out	0x15, r10	; 21
      d2:	6c c5       	rjmp	.+2776   	; 0xbac <_Z8move_legP7LegDataf+0xf8>
      d4:	90 da       	rcall	.-2784   	; 0xfffff5f6 <__eeprom_end+0xff7ef5f6>
      d6:	3b 93       	.word	0x933b	; ????
      d8:	65 fc       	sbrc	r6, 5
      da:	8b bc       	out	0x2b, r8	; 43
      dc:	53 f8       	bld	r5, 3
      de:	10 fd       	sbrc	r17, 0
      e0:	3c 56       	subi	r19, 0x6C	; 108
      e2:	92 83       	std	Z+2, r25	; 0x02
      e4:	4d bd       	out	0x2d, r20	; 45
      e6:	87 9d       	mul	r24, r7
      e8:	3a b6       	in	r3, 0x3a	; 58
      ea:	3d cb       	rjmp	.-2438   	; 0xfffff766 <__eeprom_end+0xff7ef766>
      ec:	c9 bf       	out	0x39, r28	; 57
      ee:	5b be       	out	0x3b, r5	; 59
      f0:	73 da       	rcall	.-2842   	; 0xfffff5d8 <__eeprom_end+0xff7ef5d8>
      f2:	0f c9       	rjmp	.-3554   	; 0xfffff312 <__eeprom_end+0xff7ef312>
      f4:	3f 05       	cpc	r19, r15
      f6:	a8 4c       	sbci	r26, 0xC8	; 200
      f8:	cd b2       	in	r12, 0x1d	; 29
      fa:	d4 4e       	sbci	r29, 0xE4	; 228
      fc:	b9 38       	cpi	r27, 0x89	; 137
      fe:	36 a9       	ldd	r19, Z+54	; 0x36
     100:	02 0c       	add	r0, r2
     102:	50 b9       	out	0x00, r21	; 0
     104:	91 86       	std	Z+9, r9	; 0x09
     106:	88 08       	sbc	r8, r8
     108:	3c a6       	std	Y+44, r3	; 0x2c
     10a:	aa aa       	std	Y+50, r10	; 0x32
     10c:	2a be       	out	0x3a, r2	; 58
     10e:	00 00       	nop
     110:	00 80       	ld	r0, Z
     112:	3f 00       	.word	0x003f	; ????

00000114 <__ctors_end>:
     114:	11 24       	eor	r1, r1
     116:	1f be       	out	0x3f, r1	; 63
     118:	cf ef       	ldi	r28, 0xFF	; 255
     11a:	d0 e4       	ldi	r29, 0x40	; 64
     11c:	de bf       	out	0x3e, r29	; 62
     11e:	cd bf       	out	0x3d, r28	; 61

00000120 <__do_copy_data>:
     120:	15 e1       	ldi	r17, 0x15	; 21
     122:	a0 e0       	ldi	r26, 0x00	; 0
     124:	b1 e0       	ldi	r27, 0x01	; 1
     126:	e8 ee       	ldi	r30, 0xE8	; 232
     128:	f1 e3       	ldi	r31, 0x31	; 49
     12a:	00 e0       	ldi	r16, 0x00	; 0
     12c:	0b bf       	out	0x3b, r16	; 59
     12e:	02 c0       	rjmp	.+4      	; 0x134 <__do_copy_data+0x14>
     130:	07 90       	elpm	r0, Z+
     132:	0d 92       	st	X+, r0
     134:	a0 34       	cpi	r26, 0x40	; 64
     136:	b1 07       	cpc	r27, r17
     138:	d9 f7       	brne	.-10     	; 0x130 <__do_copy_data+0x10>

0000013a <__do_clear_bss>:
     13a:	2e e1       	ldi	r18, 0x1E	; 30
     13c:	a0 e4       	ldi	r26, 0x40	; 64
     13e:	b5 e1       	ldi	r27, 0x15	; 21
     140:	01 c0       	rjmp	.+2      	; 0x144 <.do_clear_bss_start>

00000142 <.do_clear_bss_loop>:
     142:	1d 92       	st	X+, r1

00000144 <.do_clear_bss_start>:
     144:	a5 3f       	cpi	r26, 0xF5	; 245
     146:	b2 07       	cpc	r27, r18
     148:	e1 f7       	brne	.-8      	; 0x142 <.do_clear_bss_loop>
     14a:	a8 d0       	rcall	.+336    	; 0x29c <main>
     14c:	0c 94 f2 18 	jmp	0x31e4	; 0x31e4 <_exit>

00000150 <__bad_interrupt>:
     150:	57 cf       	rjmp	.-338    	; 0x0 <__vectors>

00000152 <_Z13set_counter_1j>:
	TCNT1 = 0;
}

void reset_counter_3()
{
	TCNT3 = 0;
     152:	bc 01       	movw	r22, r24
     154:	80 e0       	ldi	r24, 0x00	; 0
     156:	90 e0       	ldi	r25, 0x00	; 0
     158:	0e 94 c9 16 	call	0x2d92	; 0x2d92 <__floatunsisf>
     15c:	20 e0       	ldi	r18, 0x00	; 0
     15e:	30 e0       	ldi	r19, 0x00	; 0
     160:	4a e7       	ldi	r20, 0x7A	; 122
     162:	51 e4       	ldi	r21, 0x41	; 65
     164:	0e 94 2f 18 	call	0x305e	; 0x305e <__mulsf3>
     168:	0e 94 9d 16 	call	0x2d3a	; 0x2d3a <__fixunssfsi>
     16c:	70 93 89 00 	sts	0x0089, r23
     170:	60 93 88 00 	sts	0x0088, r22
     174:	08 95       	ret

00000176 <_Z13set_counter_2j>:
     176:	bc 01       	movw	r22, r24
     178:	80 e0       	ldi	r24, 0x00	; 0
     17a:	90 e0       	ldi	r25, 0x00	; 0
     17c:	0e 94 c9 16 	call	0x2d92	; 0x2d92 <__floatunsisf>
     180:	20 e0       	ldi	r18, 0x00	; 0
     182:	30 e0       	ldi	r19, 0x00	; 0
     184:	4a e7       	ldi	r20, 0x7A	; 122
     186:	51 e4       	ldi	r21, 0x41	; 65
     188:	0e 94 2f 18 	call	0x305e	; 0x305e <__mulsf3>
     18c:	0e 94 9d 16 	call	0x2d3a	; 0x2d3a <__fixunssfsi>
     190:	70 93 99 00 	sts	0x0099, r23
     194:	60 93 98 00 	sts	0x0098, r22
     198:	08 95       	ret

0000019a <_Z13init_countersv>:
     19a:	e1 e8       	ldi	r30, 0x81	; 129
     19c:	f0 e0       	ldi	r31, 0x00	; 0
     19e:	80 81       	ld	r24, Z
     1a0:	85 60       	ori	r24, 0x05	; 5
     1a2:	80 83       	st	Z, r24
     1a4:	e1 e9       	ldi	r30, 0x91	; 145
     1a6:	f0 e0       	ldi	r31, 0x00	; 0
     1a8:	80 81       	ld	r24, Z
     1aa:	85 60       	ori	r24, 0x05	; 5
     1ac:	80 83       	st	Z, r24
     1ae:	88 ee       	ldi	r24, 0xE8	; 232
     1b0:	93 e0       	ldi	r25, 0x03	; 3
     1b2:	cf df       	rcall	.-98     	; 0x152 <_Z13set_counter_1j>
     1b4:	88 ee       	ldi	r24, 0xE8	; 232
     1b6:	93 e0       	ldi	r25, 0x03	; 3
     1b8:	de df       	rcall	.-68     	; 0x176 <_Z13set_counter_2j>
     1ba:	ef e6       	ldi	r30, 0x6F	; 111
     1bc:	f0 e0       	ldi	r31, 0x00	; 0
     1be:	80 81       	ld	r24, Z
     1c0:	82 60       	ori	r24, 0x02	; 2
     1c2:	80 83       	st	Z, r24
     1c4:	e1 e7       	ldi	r30, 0x71	; 113
     1c6:	f0 e0       	ldi	r31, 0x00	; 0
     1c8:	80 81       	ld	r24, Z
     1ca:	82 60       	ori	r24, 0x02	; 2
     1cc:	80 83       	st	Z, r24
     1ce:	10 92 85 00 	sts	0x0085, r1
     1d2:	10 92 84 00 	sts	0x0084, r1
     1d6:	10 92 95 00 	sts	0x0095, r1
     1da:	10 92 94 00 	sts	0x0094, r1
     1de:	08 95       	ret

000001e0 <_Z15reset_counter_1v>:
     1e0:	10 92 85 00 	sts	0x0085, r1
     1e4:	10 92 84 00 	sts	0x0084, r1
     1e8:	08 95       	ret

000001ea <__vector_32>:
//---------------------------------------------------------------------------------------



ISR(TIMER3_COMPA_vect)
{
     1ea:	1f 92       	push	r1
     1ec:	0f 92       	push	r0
     1ee:	0f b6       	in	r0, 0x3f	; 63
     1f0:	0f 92       	push	r0
     1f2:	11 24       	eor	r1, r1
	TCNT3 = 0;
     1f4:	10 92 95 00 	sts	0x0095, r1
     1f8:	10 92 94 00 	sts	0x0094, r1
     1fc:	0f 90       	pop	r0
     1fe:	0f be       	out	0x3f, r0	; 63
     200:	0f 90       	pop	r0
     202:	1f 90       	pop	r1
     204:	18 95       	reti

00000206 <_Z14FifoDataLengthP4fifo>:

#include <avr/io.h>
#include "fifo.h"

uint8_t FifoDataLength (struct fifo *fifo)
{
     206:	fc 01       	movw	r30, r24
	return (fifo->write - fifo->read) & (fifo->size -1);
     208:	90 81       	ld	r25, Z
     20a:	91 50       	subi	r25, 0x01	; 1
     20c:	84 81       	ldd	r24, Z+4	; 0x04
     20e:	22 81       	ldd	r18, Z+2	; 0x02
     210:	82 1b       	sub	r24, r18
};
     212:	89 23       	and	r24, r25
     214:	08 95       	ret

00000216 <_Z9FifoWriteP4fifoh>:

uint8_t FifoWrite (struct fifo *fifo, unsigned char data)
{
     216:	1f 93       	push	r17
     218:	cf 93       	push	r28
     21a:	df 93       	push	r29
     21c:	ec 01       	movw	r28, r24
     21e:	16 2f       	mov	r17, r22
	// fifo full : error
	if (FifoDataLength(fifo) == (fifo->size - 1))
     220:	f2 df       	rcall	.-28     	; 0x206 <_Z14FifoDataLengthP4fifo>
     222:	28 81       	ld	r18, Y
     224:	39 81       	ldd	r19, Y+1	; 0x01
     226:	21 50       	subi	r18, 0x01	; 1
     228:	31 09       	sbc	r19, r1
     22a:	90 e0       	ldi	r25, 0x00	; 0
     22c:	82 17       	cp	r24, r18
     22e:	93 07       	cpc	r25, r19
     230:	69 f0       	breq	.+26     	; 0x24c <_Z9FifoWriteP4fifoh+0x36>
	{
		return 1;
	}
	// write data & increment write pointer
	fifo->buffer[fifo->write] = data;
     232:	8c 81       	ldd	r24, Y+4	; 0x04
     234:	9d 81       	ldd	r25, Y+5	; 0x05
     236:	fe 01       	movw	r30, r28
     238:	e8 0f       	add	r30, r24
     23a:	f9 1f       	adc	r31, r25
     23c:	16 83       	std	Z+6, r17	; 0x06
	fifo->write = (fifo->write + 1) & (fifo->size - 1);
     23e:	01 96       	adiw	r24, 0x01	; 1
     240:	28 23       	and	r18, r24
     242:	39 23       	and	r19, r25
     244:	3d 83       	std	Y+5, r19	; 0x05
     246:	2c 83       	std	Y+4, r18	; 0x04
	return 0;
     248:	80 e0       	ldi	r24, 0x00	; 0
     24a:	01 c0       	rjmp	.+2      	; 0x24e <_Z9FifoWriteP4fifoh+0x38>
uint8_t FifoWrite (struct fifo *fifo, unsigned char data)
{
	// fifo full : error
	if (FifoDataLength(fifo) == (fifo->size - 1))
	{
		return 1;
     24c:	81 e0       	ldi	r24, 0x01	; 1
	}
	// write data & increment write pointer
	fifo->buffer[fifo->write] = data;
	fifo->write = (fifo->write + 1) & (fifo->size - 1);
	return 0;
};
     24e:	df 91       	pop	r29
     250:	cf 91       	pop	r28
     252:	1f 91       	pop	r17
     254:	08 95       	ret

00000256 <_Z8FifoReadP4fifoPh>:


uint8_t FifoRead (struct fifo *fifo, unsigned char *data)
{
     256:	0f 93       	push	r16
     258:	1f 93       	push	r17
     25a:	cf 93       	push	r28
     25c:	df 93       	push	r29
     25e:	ec 01       	movw	r28, r24
     260:	8b 01       	movw	r16, r22
	// fifo empty : error
	if (FifoDataLength(fifo) == 0)
     262:	d1 df       	rcall	.-94     	; 0x206 <_Z14FifoDataLengthP4fifo>
     264:	88 23       	and	r24, r24
     266:	a1 f0       	breq	.+40     	; 0x290 <_Z8FifoReadP4fifoPh+0x3a>
	{
		return 1;
	}
	// read data & increment read pointer
	*data = fifo->buffer[fifo->read];
     268:	ea 81       	ldd	r30, Y+2	; 0x02
     26a:	fb 81       	ldd	r31, Y+3	; 0x03
     26c:	ec 0f       	add	r30, r28
     26e:	fd 1f       	adc	r31, r29
     270:	86 81       	ldd	r24, Z+6	; 0x06
     272:	f8 01       	movw	r30, r16
     274:	80 83       	st	Z, r24
	fifo->read = (fifo->read + 1) & (fifo->size - 1);
     276:	28 81       	ld	r18, Y
     278:	39 81       	ldd	r19, Y+1	; 0x01
     27a:	21 50       	subi	r18, 0x01	; 1
     27c:	31 09       	sbc	r19, r1
     27e:	8a 81       	ldd	r24, Y+2	; 0x02
     280:	9b 81       	ldd	r25, Y+3	; 0x03
     282:	01 96       	adiw	r24, 0x01	; 1
     284:	82 23       	and	r24, r18
     286:	93 23       	and	r25, r19
     288:	9b 83       	std	Y+3, r25	; 0x03
     28a:	8a 83       	std	Y+2, r24	; 0x02
	return 0;
     28c:	80 e0       	ldi	r24, 0x00	; 0
     28e:	01 c0       	rjmp	.+2      	; 0x292 <_Z8FifoReadP4fifoPh+0x3c>
uint8_t FifoRead (struct fifo *fifo, unsigned char *data)
{
	// fifo empty : error
	if (FifoDataLength(fifo) == 0)
	{
		return 1;
     290:	81 e0       	ldi	r24, 0x01	; 1
	}
	// read data & increment read pointer
	*data = fifo->buffer[fifo->read];
	fifo->read = (fifo->read + 1) & (fifo->size - 1);
	return 0;
     292:	df 91       	pop	r29
     294:	cf 91       	pop	r28
     296:	1f 91       	pop	r17
     298:	0f 91       	pop	r16
     29a:	08 95       	ret

0000029c <main>:

uint8_t std_pos_flag = 1;

int main(void)
{
	DDRD |= (1<<PORTD5); //init LED
     29c:	55 9a       	sbi	0x0a, 5	; 10
	//servoTx;

	
	
	SERVO_init(); //Init servos
     29e:	0e 94 63 12 	call	0x24c6	; 0x24c6 <_Z10SERVO_initv>
	USART_init();
     2a2:	0e 94 e3 12 	call	0x25c6	; 0x25c6 <_Z10USART_initv>
	init_counters();
     2a6:	79 df       	rcall	.-270    	; 0x19a <_Z13init_countersv>
	set_counter_1(10000);
     2a8:	80 e1       	ldi	r24, 0x10	; 16
     2aa:	97 e2       	ldi	r25, 0x27	; 39
     2ac:	52 df       	rcall	.-348    	; 0x152 <_Z13set_counter_1j>
	initvar();
     2ae:	c4 d0       	rcall	.+392    	; 0x438 <_Z7initvarv>
	sei();
     2b0:	78 94       	sei
	
	SERVO_update_EEPROM(BROADCASTING_ID);
     2b2:	8e ef       	ldi	r24, 0xFE	; 254
     2b4:	0e 94 83 12 	call	0x2506	; 0x2506 <_Z19SERVO_update_EEPROMh>
	
	move_to_std();
     2b8:	0e 94 35 0d 	call	0x1a6a	; 0x1a6a <_Z11move_to_stdv>

	// ------ TESTCODE FOR READING SERVO -------
		
	//servoGoto(1, 3.14/3, 0x200);
	SERVO_update_EEPROM(BROADCASTING_ID); // NOTE: needs to run once for SERVO_get position to work	
     2bc:	8e ef       	ldi	r24, 0xFE	; 254
     2be:	0e 94 83 12 	call	0x2506	; 0x2506 <_Z19SERVO_update_EEPROMh>
	#else
		//round up by default
		__ticks_dc = (uint32_t)(ceil(fabs(__tmp)));
	#endif

	__builtin_avr_delay_cycles(__ticks_dc);
     2c2:	2f ef       	ldi	r18, 0xFF	; 255
     2c4:	83 e2       	ldi	r24, 0x23	; 35
     2c6:	94 ef       	ldi	r25, 0xF4	; 244
     2c8:	21 50       	subi	r18, 0x01	; 1
     2ca:	80 40       	sbci	r24, 0x00	; 0
     2cc:	90 40       	sbci	r25, 0x00	; 0
     2ce:	e1 f7       	brne	.-8      	; 0x2c8 <main+0x2c>
     2d0:	00 c0       	rjmp	.+0      	; 0x2d2 <main+0x36>
     2d2:	00 00       	nop
	//----------------------------
	
	_delay_ms(5000);
	
	reset_counter_1();
     2d4:	85 df       	rcall	.-246    	; 0x1e0 <_Z15reset_counter_1v>
	set_counter_1(3000);
     2d6:	88 eb       	ldi	r24, 0xB8	; 184
     2d8:	9b e0       	ldi	r25, 0x0B	; 11
     2da:	3b df       	rcall	.-394    	; 0x152 <_Z13set_counter_1j>
		
		
		if(r == 50 && s == 0 && d == 0)
		{
			_delay_ms(50);
			PORTD ^= (1<<PORTD5);
     2dc:	00 e2       	ldi	r16, 0x20	; 32
	set_counter_1(3000);
	
    while(1)
    {
		
		uint8_t r = USART_getRotation();
     2de:	0e 94 c6 12 	call	0x258c	; 0x258c <_Z17USART_getRotationv>
     2e2:	d8 2f       	mov	r29, r24
		uint8_t s = USART_getSpeed();
     2e4:	0e 94 cc 12 	call	0x2598	; 0x2598 <_Z14USART_getSpeedv>
     2e8:	c8 2f       	mov	r28, r24
		uint8_t d = USART_getDirection();
     2ea:	0e 94 d1 12 	call	0x25a2	; 0x25a2 <_Z18USART_getDirectionv>
     2ee:	18 2f       	mov	r17, r24
		if(s != 0 || r != 50)
     2f0:	c1 11       	cpse	r28, r1
     2f2:	2a c0       	rjmp	.+84     	; 0x348 <main+0xac>
     2f4:	d2 33       	cpi	r29, 0x32	; 50
     2f6:	e9 f4       	brne	.+58     	; 0x332 <main+0x96>
     2f8:	13 c0       	rjmp	.+38     	; 0x320 <main+0x84>
     2fa:	2f ef       	ldi	r18, 0xFF	; 255
     2fc:	80 e7       	ldi	r24, 0x70	; 112
     2fe:	92 e0       	ldi	r25, 0x02	; 2
     300:	21 50       	subi	r18, 0x01	; 1
     302:	80 40       	sbci	r24, 0x00	; 0
     304:	90 40       	sbci	r25, 0x00	; 0
     306:	e1 f7       	brne	.-8      	; 0x300 <main+0x64>
     308:	00 c0       	rjmp	.+0      	; 0x30a <main+0x6e>
     30a:	00 00       	nop
		
		
		if(r == 50 && s == 0 && d == 0)
		{
			_delay_ms(50);
			PORTD ^= (1<<PORTD5);
     30c:	8b b1       	in	r24, 0x0b	; 11
     30e:	80 27       	eor	r24, r16
     310:	8b b9       	out	0x0b, r24	; 11
			cli();
     312:	f8 94       	cli
			USART_send_ready();
     314:	0e 94 dd 13 	call	0x27ba	; 0x27ba <_Z16USART_send_readyv>
			sei();
     318:	78 94       	sei

		_delay_ms(5000);
		
		//climb(30);
		*/
		USART_DecodeRxFIFO();
     31a:	0e 94 d2 14 	call	0x29a4	; 0x29a4 <_Z18USART_DecodeRxFIFOv>
	_delay_ms(5000);
	
	reset_counter_1();
	set_counter_1(3000);
	
    while(1)
     31e:	df cf       	rjmp	.-66     	; 0x2de <main+0x42>
		{
			std_pos_flag = 0;
			reset_counter_1();
		}
		
		move_robot(d, r, s);
     320:	40 e0       	ldi	r20, 0x00	; 0
     322:	50 e0       	ldi	r21, 0x00	; 0
     324:	62 e3       	ldi	r22, 0x32	; 50
     326:	70 e0       	ldi	r23, 0x00	; 0
     328:	90 e0       	ldi	r25, 0x00	; 0
     32a:	f2 d6       	rcall	.+3556   	; 0x1110 <_Z10move_robotiii>
		
		
		if(r == 50 && s == 0 && d == 0)
     32c:	11 11       	cpse	r17, r1
     32e:	f5 cf       	rjmp	.-22     	; 0x31a <main+0x7e>
     330:	e4 cf       	rjmp	.-56     	; 0x2fa <main+0x5e>
		uint8_t r = USART_getRotation();
		uint8_t s = USART_getSpeed();
		uint8_t d = USART_getDirection();
		if(s != 0 || r != 50)
		{
			std_pos_flag = 0;
     332:	10 92 00 01 	sts	0x0100, r1
			reset_counter_1();
     336:	54 df       	rcall	.-344    	; 0x1e0 <_Z15reset_counter_1v>
		}
		
		move_robot(d, r, s);
     338:	4c 2f       	mov	r20, r28
     33a:	50 e0       	ldi	r21, 0x00	; 0
     33c:	6d 2f       	mov	r22, r29
     33e:	70 e0       	ldi	r23, 0x00	; 0
     340:	81 2f       	mov	r24, r17
     342:	90 e0       	ldi	r25, 0x00	; 0
     344:	e5 d6       	rcall	.+3530   	; 0x1110 <_Z10move_robotiii>
     346:	e9 cf       	rjmp	.-46     	; 0x31a <main+0x7e>
		uint8_t r = USART_getRotation();
		uint8_t s = USART_getSpeed();
		uint8_t d = USART_getDirection();
		if(s != 0 || r != 50)
		{
			std_pos_flag = 0;
     348:	10 92 00 01 	sts	0x0100, r1
			reset_counter_1();
     34c:	49 df       	rcall	.-366    	; 0x1e0 <_Z15reset_counter_1v>
		}
		
		move_robot(d, r, s);
     34e:	4c 2f       	mov	r20, r28
     350:	50 e0       	ldi	r21, 0x00	; 0
     352:	6d 2f       	mov	r22, r29
     354:	70 e0       	ldi	r23, 0x00	; 0
     356:	81 2f       	mov	r24, r17
     358:	90 e0       	ldi	r25, 0x00	; 0
     35a:	da d6       	rcall	.+3508   	; 0x1110 <_Z10move_robotiii>
     35c:	de cf       	rjmp	.-68     	; 0x31a <main+0x7e>

0000035e <__vector_13>:
		USART_DecodeRxFIFO();
    }
}

ISR(TIMER1_COMPA_vect)
{
     35e:	1f 92       	push	r1
     360:	0f 92       	push	r0
     362:	0f b6       	in	r0, 0x3f	; 63
     364:	0f 92       	push	r0
     366:	11 24       	eor	r1, r1
     368:	0b b6       	in	r0, 0x3b	; 59
     36a:	0f 92       	push	r0
     36c:	2f 93       	push	r18
     36e:	3f 93       	push	r19
     370:	4f 93       	push	r20
     372:	5f 93       	push	r21
     374:	6f 93       	push	r22
     376:	7f 93       	push	r23
     378:	8f 93       	push	r24
     37a:	9f 93       	push	r25
     37c:	af 93       	push	r26
     37e:	bf 93       	push	r27
     380:	ef 93       	push	r30
     382:	ff 93       	push	r31
	if(std_pos_flag == 0)
     384:	80 91 00 01 	lds	r24, 0x0100
     388:	81 11       	cpse	r24, r1
     38a:	05 c0       	rjmp	.+10     	; 0x396 <__vector_13+0x38>
	{
		std_pos_flag = 1;
     38c:	81 e0       	ldi	r24, 0x01	; 1
     38e:	80 93 00 01 	sts	0x0100, r24
		move_to_std();
     392:	0e 94 35 0d 	call	0x1a6a	; 0x1a6a <_Z11move_to_stdv>
	}
	TCNT1 = 0;
     396:	10 92 85 00 	sts	0x0085, r1
     39a:	10 92 84 00 	sts	0x0084, r1
     39e:	ff 91       	pop	r31
     3a0:	ef 91       	pop	r30
     3a2:	bf 91       	pop	r27
     3a4:	af 91       	pop	r26
     3a6:	9f 91       	pop	r25
     3a8:	8f 91       	pop	r24
     3aa:	7f 91       	pop	r23
     3ac:	6f 91       	pop	r22
     3ae:	5f 91       	pop	r21
     3b0:	4f 91       	pop	r20
     3b2:	3f 91       	pop	r19
     3b4:	2f 91       	pop	r18
     3b6:	0f 90       	pop	r0
     3b8:	0b be       	out	0x3b, r0	; 59
     3ba:	0f 90       	pop	r0
     3bc:	0f be       	out	0x3f, r0	; 63
     3be:	0f 90       	pop	r0
     3c0:	1f 90       	pop	r1
     3c2:	18 95       	reti

000003c4 <_Z11init_structP7LegData>:
	}
	
	
	
	return 1;
}
     3c4:	0f 93       	push	r16
     3c6:	1f 93       	push	r17
     3c8:	fc 01       	movw	r30, r24
     3ca:	02 e7       	ldi	r16, 0x72	; 114
     3cc:	19 ef       	ldi	r17, 0xF9	; 249
     3ce:	2f e0       	ldi	r18, 0x0F	; 15
     3d0:	3e e3       	ldi	r19, 0x3E	; 62
     3d2:	00 ab       	std	Z+48, r16	; 0x30
     3d4:	11 ab       	std	Z+49, r17	; 0x31
     3d6:	22 ab       	std	Z+50, r18	; 0x32
     3d8:	33 ab       	std	Z+51, r19	; 0x33
     3da:	40 e0       	ldi	r20, 0x00	; 0
     3dc:	50 e0       	ldi	r21, 0x00	; 0
     3de:	60 ef       	ldi	r22, 0xF0	; 240
     3e0:	7f e3       	ldi	r23, 0x3F	; 63
     3e2:	44 a7       	std	Z+44, r20	; 0x2c
     3e4:	55 a7       	std	Z+45, r21	; 0x2d
     3e6:	66 a7       	std	Z+46, r22	; 0x2e
     3e8:	77 a7       	std	Z+47, r23	; 0x2f
     3ea:	10 a6       	std	Z+40, r1	; 0x28
     3ec:	11 a6       	std	Z+41, r1	; 0x29
     3ee:	12 a6       	std	Z+42, r1	; 0x2a
     3f0:	13 a6       	std	Z+43, r1	; 0x2b
     3f2:	04 af       	std	Z+60, r16	; 0x3c
     3f4:	15 af       	std	Z+61, r17	; 0x3d
     3f6:	26 af       	std	Z+62, r18	; 0x3e
     3f8:	37 af       	std	Z+63, r19	; 0x3f
     3fa:	40 af       	std	Z+56, r20	; 0x38
     3fc:	51 af       	std	Z+57, r21	; 0x39
     3fe:	62 af       	std	Z+58, r22	; 0x3a
     400:	73 af       	std	Z+59, r23	; 0x3b
     402:	14 aa       	std	Z+52, r1	; 0x34
     404:	15 aa       	std	Z+53, r1	; 0x35
     406:	16 aa       	std	Z+54, r1	; 0x36
     408:	17 aa       	std	Z+55, r1	; 0x37
     40a:	80 e0       	ldi	r24, 0x00	; 0
     40c:	90 e0       	ldi	r25, 0x00	; 0
     40e:	a8 ec       	ldi	r26, 0xC8	; 200
     410:	b2 e4       	ldi	r27, 0x42	; 66
     412:	84 8b       	std	Z+20, r24	; 0x14
     414:	95 8b       	std	Z+21, r25	; 0x15
     416:	a6 8b       	std	Z+22, r26	; 0x16
     418:	b7 8b       	std	Z+23, r27	; 0x17
     41a:	10 8e       	std	Z+24, r1	; 0x18
     41c:	11 8e       	std	Z+25, r1	; 0x19
     41e:	12 8e       	std	Z+26, r1	; 0x1a
     420:	13 8e       	std	Z+27, r1	; 0x1b
     422:	40 e0       	ldi	r20, 0x00	; 0
     424:	50 e0       	ldi	r21, 0x00	; 0
     426:	60 ef       	ldi	r22, 0xF0	; 240
     428:	72 ec       	ldi	r23, 0xC2	; 194
     42a:	40 8b       	std	Z+16, r20	; 0x10
     42c:	51 8b       	std	Z+17, r21	; 0x11
     42e:	62 8b       	std	Z+18, r22	; 0x12
     430:	73 8b       	std	Z+19, r23	; 0x13
     432:	1f 91       	pop	r17
     434:	0f 91       	pop	r16
     436:	08 95       	ret

00000438 <_Z7initvarv>:
     438:	80 e0       	ldi	r24, 0x00	; 0
     43a:	90 e8       	ldi	r25, 0x80	; 128
     43c:	ab eb       	ldi	r26, 0xBB	; 187
     43e:	b4 e4       	ldi	r27, 0x44	; 68
     440:	80 93 7c 15 	sts	0x157C, r24
     444:	90 93 7d 15 	sts	0x157D, r25
     448:	a0 93 7e 15 	sts	0x157E, r26
     44c:	b0 93 7f 15 	sts	0x157F, r27
     450:	8c e2       	ldi	r24, 0x2C	; 44
     452:	91 e0       	ldi	r25, 0x01	; 1
     454:	90 93 d5 18 	sts	0x18D5, r25
     458:	80 93 d4 18 	sts	0x18D4, r24
     45c:	80 e0       	ldi	r24, 0x00	; 0
     45e:	90 e0       	ldi	r25, 0x00	; 0
     460:	a0 ea       	ldi	r26, 0xA0	; 160
     462:	b0 e4       	ldi	r27, 0x40	; 64
     464:	80 93 d0 18 	sts	0x18D0, r24
     468:	90 93 d1 18 	sts	0x18D1, r25
     46c:	a0 93 d2 18 	sts	0x18D2, r26
     470:	b0 93 d3 18 	sts	0x18D3, r27
     474:	80 e0       	ldi	r24, 0x00	; 0
     476:	90 e0       	ldi	r25, 0x00	; 0
     478:	a0 e2       	ldi	r26, 0x20	; 32
     47a:	b2 e4       	ldi	r27, 0x42	; 66
     47c:	80 93 40 15 	sts	0x1540, r24
     480:	90 93 41 15 	sts	0x1541, r25
     484:	a0 93 42 15 	sts	0x1542, r26
     488:	b0 93 43 15 	sts	0x1543, r27
     48c:	8f e8       	ldi	r24, 0x8F	; 143
     48e:	91 e4       	ldi	r25, 0x41	; 65
     490:	a8 e6       	ldi	r26, 0x68	; 104
     492:	b3 e4       	ldi	r27, 0x43	; 67
     494:	80 93 44 15 	sts	0x1544, r24
     498:	90 93 45 15 	sts	0x1545, r25
     49c:	a0 93 46 15 	sts	0x1546, r26
     4a0:	b0 93 47 15 	sts	0x1547, r27
     4a4:	80 e0       	ldi	r24, 0x00	; 0
     4a6:	90 e0       	ldi	r25, 0x00	; 0
     4a8:	a0 ef       	ldi	r26, 0xF0	; 240
     4aa:	b2 ec       	ldi	r27, 0xC2	; 194
     4ac:	80 93 6c 15 	sts	0x156C, r24
     4b0:	90 93 6d 15 	sts	0x156D, r25
     4b4:	a0 93 6e 15 	sts	0x156E, r26
     4b8:	b0 93 6f 15 	sts	0x156F, r27
     4bc:	80 93 68 15 	sts	0x1568, r24
     4c0:	90 93 69 15 	sts	0x1569, r25
     4c4:	a0 93 6a 15 	sts	0x156A, r26
     4c8:	b0 93 6b 15 	sts	0x156B, r27
     4cc:	8e e3       	ldi	r24, 0x3E	; 62
     4ce:	98 e1       	ldi	r25, 0x18	; 24
     4d0:	79 df       	rcall	.-270    	; 0x3c4 <_Z11init_structP7LegData>
     4d2:	84 eb       	ldi	r24, 0xB4	; 180
     4d4:	97 e1       	ldi	r25, 0x17	; 23
     4d6:	76 df       	rcall	.-276    	; 0x3c4 <_Z11init_structP7LegData>
     4d8:	8a e2       	ldi	r24, 0x2A	; 42
     4da:	97 e1       	ldi	r25, 0x17	; 23
     4dc:	73 df       	rcall	.-282    	; 0x3c4 <_Z11init_structP7LegData>
     4de:	80 ea       	ldi	r24, 0xA0	; 160
     4e0:	96 e1       	ldi	r25, 0x16	; 22
     4e2:	70 df       	rcall	.-288    	; 0x3c4 <_Z11init_structP7LegData>
     4e4:	86 e1       	ldi	r24, 0x16	; 22
     4e6:	96 e1       	ldi	r25, 0x16	; 22
     4e8:	6d df       	rcall	.-294    	; 0x3c4 <_Z11init_structP7LegData>
     4ea:	8c e8       	ldi	r24, 0x8C	; 140
     4ec:	95 e1       	ldi	r25, 0x15	; 21
     4ee:	6a df       	rcall	.-300    	; 0x3c4 <_Z11init_structP7LegData>
     4f0:	40 e0       	ldi	r20, 0x00	; 0
     4f2:	50 e0       	ldi	r21, 0x00	; 0
     4f4:	60 e8       	ldi	r22, 0x80	; 128
     4f6:	7f e3       	ldi	r23, 0x3F	; 63
     4f8:	40 93 42 18 	sts	0x1842, r20
     4fc:	50 93 43 18 	sts	0x1843, r21
     500:	60 93 44 18 	sts	0x1844, r22
     504:	70 93 45 18 	sts	0x1845, r23
     508:	80 e0       	ldi	r24, 0x00	; 0
     50a:	90 e0       	ldi	r25, 0x00	; 0
     50c:	a0 e8       	ldi	r26, 0x80	; 128
     50e:	bf eb       	ldi	r27, 0xBF	; 191
     510:	80 93 b8 17 	sts	0x17B8, r24
     514:	90 93 b9 17 	sts	0x17B9, r25
     518:	a0 93 ba 17 	sts	0x17BA, r26
     51c:	b0 93 bb 17 	sts	0x17BB, r27
     520:	40 93 2e 17 	sts	0x172E, r20
     524:	50 93 2f 17 	sts	0x172F, r21
     528:	60 93 30 17 	sts	0x1730, r22
     52c:	70 93 31 17 	sts	0x1731, r23
     530:	80 93 a4 16 	sts	0x16A4, r24
     534:	90 93 a5 16 	sts	0x16A5, r25
     538:	a0 93 a6 16 	sts	0x16A6, r26
     53c:	b0 93 a7 16 	sts	0x16A7, r27
     540:	40 93 1a 16 	sts	0x161A, r20
     544:	50 93 1b 16 	sts	0x161B, r21
     548:	60 93 1c 16 	sts	0x161C, r22
     54c:	70 93 1d 16 	sts	0x161D, r23
     550:	80 93 90 15 	sts	0x1590, r24
     554:	90 93 91 15 	sts	0x1591, r25
     558:	a0 93 92 15 	sts	0x1592, r26
     55c:	b0 93 93 15 	sts	0x1593, r27
     560:	40 93 3e 18 	sts	0x183E, r20
     564:	50 93 3f 18 	sts	0x183F, r21
     568:	60 93 40 18 	sts	0x1840, r22
     56c:	70 93 41 18 	sts	0x1841, r23
     570:	40 93 b4 17 	sts	0x17B4, r20
     574:	50 93 b5 17 	sts	0x17B5, r21
     578:	60 93 b6 17 	sts	0x17B6, r22
     57c:	70 93 b7 17 	sts	0x17B7, r23
     580:	40 93 2a 17 	sts	0x172A, r20
     584:	50 93 2b 17 	sts	0x172B, r21
     588:	60 93 2c 17 	sts	0x172C, r22
     58c:	70 93 2d 17 	sts	0x172D, r23
     590:	80 93 a0 16 	sts	0x16A0, r24
     594:	90 93 a1 16 	sts	0x16A1, r25
     598:	a0 93 a2 16 	sts	0x16A2, r26
     59c:	b0 93 a3 16 	sts	0x16A3, r27
     5a0:	80 93 16 16 	sts	0x1616, r24
     5a4:	90 93 17 16 	sts	0x1617, r25
     5a8:	a0 93 18 16 	sts	0x1618, r26
     5ac:	b0 93 19 16 	sts	0x1619, r27
     5b0:	80 93 8c 15 	sts	0x158C, r24
     5b4:	90 93 8d 15 	sts	0x158D, r25
     5b8:	a0 93 8e 15 	sts	0x158E, r26
     5bc:	b0 93 8f 15 	sts	0x158F, r27
     5c0:	8a e0       	ldi	r24, 0x0A	; 10
     5c2:	90 e0       	ldi	r25, 0x00	; 0
     5c4:	90 93 9b 18 	sts	0x189B, r25
     5c8:	80 93 9a 18 	sts	0x189A, r24
     5cc:	8c e0       	ldi	r24, 0x0C	; 12
     5ce:	90 e0       	ldi	r25, 0x00	; 0
     5d0:	90 93 99 18 	sts	0x1899, r25
     5d4:	80 93 98 18 	sts	0x1898, r24
     5d8:	88 e0       	ldi	r24, 0x08	; 8
     5da:	90 e0       	ldi	r25, 0x00	; 0
     5dc:	90 93 97 18 	sts	0x1897, r25
     5e0:	80 93 96 18 	sts	0x1896, r24
     5e4:	80 e1       	ldi	r24, 0x10	; 16
     5e6:	90 e0       	ldi	r25, 0x00	; 0
     5e8:	90 93 11 18 	sts	0x1811, r25
     5ec:	80 93 10 18 	sts	0x1810, r24
     5f0:	82 e1       	ldi	r24, 0x12	; 18
     5f2:	90 e0       	ldi	r25, 0x00	; 0
     5f4:	90 93 0f 18 	sts	0x180F, r25
     5f8:	80 93 0e 18 	sts	0x180E, r24
     5fc:	8e e0       	ldi	r24, 0x0E	; 14
     5fe:	90 e0       	ldi	r25, 0x00	; 0
     600:	90 93 0d 18 	sts	0x180D, r25
     604:	80 93 0c 18 	sts	0x180C, r24
     608:	84 e0       	ldi	r24, 0x04	; 4
     60a:	90 e0       	ldi	r25, 0x00	; 0
     60c:	90 93 87 17 	sts	0x1787, r25
     610:	80 93 86 17 	sts	0x1786, r24
     614:	86 e0       	ldi	r24, 0x06	; 6
     616:	90 e0       	ldi	r25, 0x00	; 0
     618:	90 93 85 17 	sts	0x1785, r25
     61c:	80 93 84 17 	sts	0x1784, r24
     620:	82 e0       	ldi	r24, 0x02	; 2
     622:	90 e0       	ldi	r25, 0x00	; 0
     624:	90 93 83 17 	sts	0x1783, r25
     628:	80 93 82 17 	sts	0x1782, r24
     62c:	83 e0       	ldi	r24, 0x03	; 3
     62e:	90 e0       	ldi	r25, 0x00	; 0
     630:	90 93 fd 16 	sts	0x16FD, r25
     634:	80 93 fc 16 	sts	0x16FC, r24
     638:	85 e0       	ldi	r24, 0x05	; 5
     63a:	90 e0       	ldi	r25, 0x00	; 0
     63c:	90 93 fb 16 	sts	0x16FB, r25
     640:	80 93 fa 16 	sts	0x16FA, r24
     644:	81 e0       	ldi	r24, 0x01	; 1
     646:	90 e0       	ldi	r25, 0x00	; 0
     648:	90 93 f9 16 	sts	0x16F9, r25
     64c:	80 93 f8 16 	sts	0x16F8, r24
     650:	8f e0       	ldi	r24, 0x0F	; 15
     652:	90 e0       	ldi	r25, 0x00	; 0
     654:	90 93 73 16 	sts	0x1673, r25
     658:	80 93 72 16 	sts	0x1672, r24
     65c:	81 e1       	ldi	r24, 0x11	; 17
     65e:	90 e0       	ldi	r25, 0x00	; 0
     660:	90 93 71 16 	sts	0x1671, r25
     664:	80 93 70 16 	sts	0x1670, r24
     668:	8d e0       	ldi	r24, 0x0D	; 13
     66a:	90 e0       	ldi	r25, 0x00	; 0
     66c:	90 93 6f 16 	sts	0x166F, r25
     670:	80 93 6e 16 	sts	0x166E, r24
     674:	89 e0       	ldi	r24, 0x09	; 9
     676:	90 e0       	ldi	r25, 0x00	; 0
     678:	90 93 e9 15 	sts	0x15E9, r25
     67c:	80 93 e8 15 	sts	0x15E8, r24
     680:	8b e0       	ldi	r24, 0x0B	; 11
     682:	90 e0       	ldi	r25, 0x00	; 0
     684:	90 93 e7 15 	sts	0x15E7, r25
     688:	80 93 e6 15 	sts	0x15E6, r24
     68c:	87 e0       	ldi	r24, 0x07	; 7
     68e:	90 e0       	ldi	r25, 0x00	; 0
     690:	90 93 e5 15 	sts	0x15E5, r25
     694:	80 93 e4 15 	sts	0x15E4, r24
     698:	08 95       	ret

0000069a <_Z10step_startP7LegData>:
	angle = (angle * 0x3ff / 300);
	return (uint16_t)angle; //this will probably truncate correctly...or not....
}

void step_start(struct LegData* leg)
{
     69a:	fc 01       	movw	r30, r24
	leg->prevPosx = leg->newPosx;
     69c:	84 89       	ldd	r24, Z+20	; 0x14
     69e:	95 89       	ldd	r25, Z+21	; 0x15
     6a0:	a6 89       	ldd	r26, Z+22	; 0x16
     6a2:	b7 89       	ldd	r27, Z+23	; 0x17
     6a4:	84 8f       	std	Z+28, r24	; 0x1c
     6a6:	95 8f       	std	Z+29, r25	; 0x1d
     6a8:	a6 8f       	std	Z+30, r26	; 0x1e
     6aa:	b7 8f       	std	Z+31, r27	; 0x1f
	leg->prevPosy = leg->newPosy;
     6ac:	80 8d       	ldd	r24, Z+24	; 0x18
     6ae:	91 8d       	ldd	r25, Z+25	; 0x19
     6b0:	a2 8d       	ldd	r26, Z+26	; 0x1a
     6b2:	b3 8d       	ldd	r27, Z+27	; 0x1b
     6b4:	80 a3       	std	Z+32, r24	; 0x20
     6b6:	91 a3       	std	Z+33, r25	; 0x21
     6b8:	a2 a3       	std	Z+34, r26	; 0x22
     6ba:	b3 a3       	std	Z+35, r27	; 0x23
	leg->prevPosz = leg->newPosz;
     6bc:	80 89       	ldd	r24, Z+16	; 0x10
     6be:	91 89       	ldd	r25, Z+17	; 0x11
     6c0:	a2 89       	ldd	r26, Z+18	; 0x12
     6c2:	b3 89       	ldd	r27, Z+19	; 0x13
     6c4:	84 a3       	std	Z+36, r24	; 0x24
     6c6:	95 a3       	std	Z+37, r25	; 0x25
     6c8:	a6 a3       	std	Z+38, r26	; 0x26
     6ca:	b7 a3       	std	Z+39, r27	; 0x27
	leg->prevAngleAlpha = leg->newAngleAlpha;
     6cc:	44 ad       	ldd	r20, Z+60	; 0x3c
     6ce:	55 ad       	ldd	r21, Z+61	; 0x3d
     6d0:	66 ad       	ldd	r22, Z+62	; 0x3e
     6d2:	77 ad       	ldd	r23, Z+63	; 0x3f
     6d4:	40 ab       	std	Z+48, r20	; 0x30
     6d6:	51 ab       	std	Z+49, r21	; 0x31
     6d8:	62 ab       	std	Z+50, r22	; 0x32
     6da:	73 ab       	std	Z+51, r23	; 0x33
	leg->prevAngleBeta = leg->newAngleBeta;
     6dc:	40 ad       	ldd	r20, Z+56	; 0x38
     6de:	51 ad       	ldd	r21, Z+57	; 0x39
     6e0:	62 ad       	ldd	r22, Z+58	; 0x3a
     6e2:	73 ad       	ldd	r23, Z+59	; 0x3b
     6e4:	44 a7       	std	Z+44, r20	; 0x2c
     6e6:	55 a7       	std	Z+45, r21	; 0x2d
     6e8:	66 a7       	std	Z+46, r22	; 0x2e
     6ea:	77 a7       	std	Z+47, r23	; 0x2f
	leg->prevAngleGamma = leg->newAngleGamma;
     6ec:	44 a9       	ldd	r20, Z+52	; 0x34
     6ee:	55 a9       	ldd	r21, Z+53	; 0x35
     6f0:	66 a9       	ldd	r22, Z+54	; 0x36
     6f2:	77 a9       	ldd	r23, Z+55	; 0x37
     6f4:	40 a7       	std	Z+40, r20	; 0x28
     6f6:	51 a7       	std	Z+41, r21	; 0x29
     6f8:	62 a7       	std	Z+42, r22	; 0x2a
     6fa:	73 a7       	std	Z+43, r23	; 0x2b
     6fc:	08 95       	ret

000006fe <_Z21step_part1_calculatorP7LegData>:
}

void step_part1_calculator(struct LegData* leg)
{
     6fe:	6f 92       	push	r6
     700:	7f 92       	push	r7
     702:	8f 92       	push	r8
     704:	9f 92       	push	r9
     706:	af 92       	push	r10
     708:	bf 92       	push	r11
     70a:	0f 93       	push	r16
     70c:	1f 93       	push	r17
     70e:	cf 93       	push	r28
     710:	df 93       	push	r29
     712:	ec 01       	movw	r28, r24
	newPosxWB = leg->lift * maxStepLength / stepMax * (xDirection + leg->xRot) * stepScaling;
     714:	20 91 40 15 	lds	r18, 0x1540
     718:	30 91 41 15 	lds	r19, 0x1541
     71c:	40 91 42 15 	lds	r20, 0x1542
     720:	50 91 43 15 	lds	r21, 0x1543
     724:	6c 81       	ldd	r22, Y+4	; 0x04
     726:	7d 81       	ldd	r23, Y+5	; 0x05
     728:	8e 81       	ldd	r24, Y+6	; 0x06
     72a:	9f 81       	ldd	r25, Y+7	; 0x07
     72c:	0e 94 2f 18 	call	0x305e	; 0x305e <__mulsf3>
     730:	20 91 50 15 	lds	r18, 0x1550
     734:	30 91 51 15 	lds	r19, 0x1551
     738:	40 91 52 15 	lds	r20, 0x1552
     73c:	50 91 53 15 	lds	r21, 0x1553
     740:	0e 94 30 16 	call	0x2c60	; 0x2c60 <__divsf3>
     744:	66 2e       	mov	r6, r22
     746:	77 2e       	mov	r7, r23
     748:	08 2f       	mov	r16, r24
     74a:	19 2f       	mov	r17, r25
     74c:	80 90 48 15 	lds	r8, 0x1548
     750:	90 90 49 15 	lds	r9, 0x1549
     754:	a0 90 4a 15 	lds	r10, 0x154A
     758:	b0 90 4b 15 	lds	r11, 0x154B
     75c:	20 91 58 15 	lds	r18, 0x1558
     760:	30 91 59 15 	lds	r19, 0x1559
     764:	40 91 5a 15 	lds	r20, 0x155A
     768:	50 91 5b 15 	lds	r21, 0x155B
     76c:	68 85       	ldd	r22, Y+8	; 0x08
     76e:	79 85       	ldd	r23, Y+9	; 0x09
     770:	8a 85       	ldd	r24, Y+10	; 0x0a
     772:	9b 85       	ldd	r25, Y+11	; 0x0b
     774:	0e 94 86 15 	call	0x2b0c	; 0x2b0c <__addsf3>
     778:	9b 01       	movw	r18, r22
     77a:	ac 01       	movw	r20, r24
     77c:	66 2d       	mov	r22, r6
     77e:	77 2d       	mov	r23, r7
     780:	80 2f       	mov	r24, r16
     782:	91 2f       	mov	r25, r17
     784:	0e 94 2f 18 	call	0x305e	; 0x305e <__mulsf3>
     788:	a5 01       	movw	r20, r10
     78a:	94 01       	movw	r18, r8
     78c:	0e 94 2f 18 	call	0x305e	; 0x305e <__mulsf3>
     790:	60 93 cc 18 	sts	0x18CC, r22
     794:	70 93 cd 18 	sts	0x18CD, r23
     798:	80 93 ce 18 	sts	0x18CE, r24
     79c:	90 93 cf 18 	sts	0x18CF, r25
	newPosyWB = leg->lift * maxStepLength / stepMax * (yDirection + leg->yRot) * stepScaling;
     7a0:	20 91 54 15 	lds	r18, 0x1554
     7a4:	30 91 55 15 	lds	r19, 0x1555
     7a8:	40 91 56 15 	lds	r20, 0x1556
     7ac:	50 91 57 15 	lds	r21, 0x1557
     7b0:	6c 85       	ldd	r22, Y+12	; 0x0c
     7b2:	7d 85       	ldd	r23, Y+13	; 0x0d
     7b4:	8e 85       	ldd	r24, Y+14	; 0x0e
     7b6:	9f 85       	ldd	r25, Y+15	; 0x0f
     7b8:	0e 94 86 15 	call	0x2b0c	; 0x2b0c <__addsf3>
     7bc:	9b 01       	movw	r18, r22
     7be:	ac 01       	movw	r20, r24
     7c0:	66 2d       	mov	r22, r6
     7c2:	77 2d       	mov	r23, r7
     7c4:	80 2f       	mov	r24, r16
     7c6:	91 2f       	mov	r25, r17
     7c8:	0e 94 2f 18 	call	0x305e	; 0x305e <__mulsf3>
     7cc:	9b 01       	movw	r18, r22
     7ce:	ac 01       	movw	r20, r24
     7d0:	c5 01       	movw	r24, r10
     7d2:	b4 01       	movw	r22, r8
     7d4:	0e 94 2f 18 	call	0x305e	; 0x305e <__mulsf3>
     7d8:	60 93 c8 18 	sts	0x18C8, r22
     7dc:	70 93 c9 18 	sts	0x18C9, r23
     7e0:	80 93 ca 18 	sts	0x18CA, r24
     7e4:	90 93 cb 18 	sts	0x18CB, r25
	//leg->newPosz = z;
}
     7e8:	df 91       	pop	r29
     7ea:	cf 91       	pop	r28
     7ec:	1f 91       	pop	r17
     7ee:	0f 91       	pop	r16
     7f0:	bf 90       	pop	r11
     7f2:	af 90       	pop	r10
     7f4:	9f 90       	pop	r9
     7f6:	8f 90       	pop	r8
     7f8:	7f 90       	pop	r7
     7fa:	6f 90       	pop	r6
     7fc:	08 95       	ret

000007fe <_Z21step_part2_calculatorP7LegData>:

void step_part2_calculator(struct LegData* leg)
{
     7fe:	ef 92       	push	r14
     800:	ff 92       	push	r15
     802:	0f 93       	push	r16
     804:	1f 93       	push	r17
     806:	cf 93       	push	r28
     808:	df 93       	push	r29
     80a:	ec 01       	movw	r28, r24
	calc_d(leg->newPosx, leg->newPosy, leg->newPosz);
     80c:	e8 88       	ldd	r14, Y+16	; 0x10
     80e:	f9 88       	ldd	r15, Y+17	; 0x11
     810:	0a 89       	ldd	r16, Y+18	; 0x12
     812:	1b 89       	ldd	r17, Y+19	; 0x13
     814:	28 8d       	ldd	r18, Y+24	; 0x18
     816:	39 8d       	ldd	r19, Y+25	; 0x19
     818:	4a 8d       	ldd	r20, Y+26	; 0x1a
     81a:	5b 8d       	ldd	r21, Y+27	; 0x1b
     81c:	6c 89       	ldd	r22, Y+20	; 0x14
     81e:	7d 89       	ldd	r23, Y+21	; 0x15
     820:	8e 89       	ldd	r24, Y+22	; 0x16
     822:	9f 89       	ldd	r25, Y+23	; 0x17
     824:	0e 94 6f 0e 	call	0x1cde	; 0x1cde <_Z6calc_dfff>
	leg->newAngleGamma = get_gamma(leg->newPosx, leg->newPosy);
     828:	28 8d       	ldd	r18, Y+24	; 0x18
     82a:	39 8d       	ldd	r19, Y+25	; 0x19
     82c:	4a 8d       	ldd	r20, Y+26	; 0x1a
     82e:	5b 8d       	ldd	r21, Y+27	; 0x1b
     830:	6c 89       	ldd	r22, Y+20	; 0x14
     832:	7d 89       	ldd	r23, Y+21	; 0x15
     834:	8e 89       	ldd	r24, Y+22	; 0x16
     836:	9f 89       	ldd	r25, Y+23	; 0x17
     838:	0e 94 cd 0e 	call	0x1d9a	; 0x1d9a <_Z9get_gammaff>
     83c:	6c ab       	std	Y+52, r22	; 0x34
     83e:	7d ab       	std	Y+53, r23	; 0x35
     840:	8e ab       	std	Y+54, r24	; 0x36
     842:	9f ab       	std	Y+55, r25	; 0x37
	leg->newAngleBeta = get_beta();
     844:	0e 94 ee 0e 	call	0x1ddc	; 0x1ddc <_Z8get_betav>
     848:	68 af       	std	Y+56, r22	; 0x38
     84a:	79 af       	std	Y+57, r23	; 0x39
     84c:	8a af       	std	Y+58, r24	; 0x3a
     84e:	9b af       	std	Y+59, r25	; 0x3b
	leg->newAngleAlpha = get_alpha(leg->newPosz);
     850:	68 89       	ldd	r22, Y+16	; 0x10
     852:	79 89       	ldd	r23, Y+17	; 0x11
     854:	8a 89       	ldd	r24, Y+18	; 0x12
     856:	9b 89       	ldd	r25, Y+19	; 0x13
     858:	0e 94 1f 0f 	call	0x1e3e	; 0x1e3e <_Z9get_alphaf>
     85c:	6c af       	std	Y+60, r22	; 0x3c
     85e:	7d af       	std	Y+61, r23	; 0x3d
     860:	8e af       	std	Y+62, r24	; 0x3e
     862:	9f af       	std	Y+63, r25	; 0x3f
}
     864:	df 91       	pop	r29
     866:	cf 91       	pop	r28
     868:	1f 91       	pop	r17
     86a:	0f 91       	pop	r16
     86c:	ff 90       	pop	r15
     86e:	ef 90       	pop	r14
     870:	08 95       	ret

00000872 <_Z15leg_motion_initv>:
	}
}

void leg_motion_init()
{
	leg1.temp2AngleAlpha = leg1.prevAngleAlpha;
     872:	80 91 6e 18 	lds	r24, 0x186E
     876:	90 91 6f 18 	lds	r25, 0x186F
     87a:	a0 91 70 18 	lds	r26, 0x1870
     87e:	b0 91 71 18 	lds	r27, 0x1871
     882:	80 93 92 18 	sts	0x1892, r24
     886:	90 93 93 18 	sts	0x1893, r25
     88a:	a0 93 94 18 	sts	0x1894, r26
     88e:	b0 93 95 18 	sts	0x1895, r27
	leg1.temp2AngleBeta = leg1.prevAngleBeta;
     892:	80 91 6a 18 	lds	r24, 0x186A
     896:	90 91 6b 18 	lds	r25, 0x186B
     89a:	a0 91 6c 18 	lds	r26, 0x186C
     89e:	b0 91 6d 18 	lds	r27, 0x186D
     8a2:	80 93 8e 18 	sts	0x188E, r24
     8a6:	90 93 8f 18 	sts	0x188F, r25
     8aa:	a0 93 90 18 	sts	0x1890, r26
     8ae:	b0 93 91 18 	sts	0x1891, r27
	leg1.temp2AngleGamma = leg1.prevAngleGamma;
     8b2:	80 91 66 18 	lds	r24, 0x1866
     8b6:	90 91 67 18 	lds	r25, 0x1867
     8ba:	a0 91 68 18 	lds	r26, 0x1868
     8be:	b0 91 69 18 	lds	r27, 0x1869
     8c2:	80 93 8a 18 	sts	0x188A, r24
     8c6:	90 93 8b 18 	sts	0x188B, r25
     8ca:	a0 93 8c 18 	sts	0x188C, r26
     8ce:	b0 93 8d 18 	sts	0x188D, r27
	
	leg2.temp2AngleAlpha = leg2.prevAngleAlpha;
     8d2:	80 91 e4 17 	lds	r24, 0x17E4
     8d6:	90 91 e5 17 	lds	r25, 0x17E5
     8da:	a0 91 e6 17 	lds	r26, 0x17E6
     8de:	b0 91 e7 17 	lds	r27, 0x17E7
     8e2:	80 93 08 18 	sts	0x1808, r24
     8e6:	90 93 09 18 	sts	0x1809, r25
     8ea:	a0 93 0a 18 	sts	0x180A, r26
     8ee:	b0 93 0b 18 	sts	0x180B, r27
	leg2.temp2AngleBeta = leg2.prevAngleBeta;
     8f2:	80 91 e0 17 	lds	r24, 0x17E0
     8f6:	90 91 e1 17 	lds	r25, 0x17E1
     8fa:	a0 91 e2 17 	lds	r26, 0x17E2
     8fe:	b0 91 e3 17 	lds	r27, 0x17E3
     902:	80 93 04 18 	sts	0x1804, r24
     906:	90 93 05 18 	sts	0x1805, r25
     90a:	a0 93 06 18 	sts	0x1806, r26
     90e:	b0 93 07 18 	sts	0x1807, r27
	leg2.temp2AngleGamma = leg2.prevAngleGamma;
     912:	80 91 dc 17 	lds	r24, 0x17DC
     916:	90 91 dd 17 	lds	r25, 0x17DD
     91a:	a0 91 de 17 	lds	r26, 0x17DE
     91e:	b0 91 df 17 	lds	r27, 0x17DF
     922:	80 93 00 18 	sts	0x1800, r24
     926:	90 93 01 18 	sts	0x1801, r25
     92a:	a0 93 02 18 	sts	0x1802, r26
     92e:	b0 93 03 18 	sts	0x1803, r27
	
	leg3.temp2AngleAlpha = leg3.prevAngleAlpha;
     932:	80 91 5a 17 	lds	r24, 0x175A
     936:	90 91 5b 17 	lds	r25, 0x175B
     93a:	a0 91 5c 17 	lds	r26, 0x175C
     93e:	b0 91 5d 17 	lds	r27, 0x175D
     942:	80 93 7e 17 	sts	0x177E, r24
     946:	90 93 7f 17 	sts	0x177F, r25
     94a:	a0 93 80 17 	sts	0x1780, r26
     94e:	b0 93 81 17 	sts	0x1781, r27
	leg3.temp2AngleBeta = leg3.prevAngleBeta;
     952:	80 91 56 17 	lds	r24, 0x1756
     956:	90 91 57 17 	lds	r25, 0x1757
     95a:	a0 91 58 17 	lds	r26, 0x1758
     95e:	b0 91 59 17 	lds	r27, 0x1759
     962:	80 93 7a 17 	sts	0x177A, r24
     966:	90 93 7b 17 	sts	0x177B, r25
     96a:	a0 93 7c 17 	sts	0x177C, r26
     96e:	b0 93 7d 17 	sts	0x177D, r27
	leg3.temp2AngleGamma = leg3.prevAngleGamma;
     972:	80 91 52 17 	lds	r24, 0x1752
     976:	90 91 53 17 	lds	r25, 0x1753
     97a:	a0 91 54 17 	lds	r26, 0x1754
     97e:	b0 91 55 17 	lds	r27, 0x1755
     982:	80 93 76 17 	sts	0x1776, r24
     986:	90 93 77 17 	sts	0x1777, r25
     98a:	a0 93 78 17 	sts	0x1778, r26
     98e:	b0 93 79 17 	sts	0x1779, r27
	
	leg4.temp2AngleAlpha = leg4.prevAngleAlpha;
     992:	80 91 d0 16 	lds	r24, 0x16D0
     996:	90 91 d1 16 	lds	r25, 0x16D1
     99a:	a0 91 d2 16 	lds	r26, 0x16D2
     99e:	b0 91 d3 16 	lds	r27, 0x16D3
     9a2:	80 93 f4 16 	sts	0x16F4, r24
     9a6:	90 93 f5 16 	sts	0x16F5, r25
     9aa:	a0 93 f6 16 	sts	0x16F6, r26
     9ae:	b0 93 f7 16 	sts	0x16F7, r27
	leg4.temp2AngleBeta = leg4.prevAngleBeta;
     9b2:	80 91 cc 16 	lds	r24, 0x16CC
     9b6:	90 91 cd 16 	lds	r25, 0x16CD
     9ba:	a0 91 ce 16 	lds	r26, 0x16CE
     9be:	b0 91 cf 16 	lds	r27, 0x16CF
     9c2:	80 93 f0 16 	sts	0x16F0, r24
     9c6:	90 93 f1 16 	sts	0x16F1, r25
     9ca:	a0 93 f2 16 	sts	0x16F2, r26
     9ce:	b0 93 f3 16 	sts	0x16F3, r27
	leg4.temp2AngleGamma = leg4.prevAngleGamma;
     9d2:	80 91 c8 16 	lds	r24, 0x16C8
     9d6:	90 91 c9 16 	lds	r25, 0x16C9
     9da:	a0 91 ca 16 	lds	r26, 0x16CA
     9de:	b0 91 cb 16 	lds	r27, 0x16CB
     9e2:	80 93 ec 16 	sts	0x16EC, r24
     9e6:	90 93 ed 16 	sts	0x16ED, r25
     9ea:	a0 93 ee 16 	sts	0x16EE, r26
     9ee:	b0 93 ef 16 	sts	0x16EF, r27
	
	leg5.temp2AngleAlpha = leg5.prevAngleAlpha;
     9f2:	80 91 46 16 	lds	r24, 0x1646
     9f6:	90 91 47 16 	lds	r25, 0x1647
     9fa:	a0 91 48 16 	lds	r26, 0x1648
     9fe:	b0 91 49 16 	lds	r27, 0x1649
     a02:	80 93 6a 16 	sts	0x166A, r24
     a06:	90 93 6b 16 	sts	0x166B, r25
     a0a:	a0 93 6c 16 	sts	0x166C, r26
     a0e:	b0 93 6d 16 	sts	0x166D, r27
	leg5.temp2AngleBeta = leg5.prevAngleBeta;
     a12:	80 91 42 16 	lds	r24, 0x1642
     a16:	90 91 43 16 	lds	r25, 0x1643
     a1a:	a0 91 44 16 	lds	r26, 0x1644
     a1e:	b0 91 45 16 	lds	r27, 0x1645
     a22:	80 93 66 16 	sts	0x1666, r24
     a26:	90 93 67 16 	sts	0x1667, r25
     a2a:	a0 93 68 16 	sts	0x1668, r26
     a2e:	b0 93 69 16 	sts	0x1669, r27
	leg5.temp2AngleGamma = leg5.prevAngleGamma;
     a32:	80 91 3e 16 	lds	r24, 0x163E
     a36:	90 91 3f 16 	lds	r25, 0x163F
     a3a:	a0 91 40 16 	lds	r26, 0x1640
     a3e:	b0 91 41 16 	lds	r27, 0x1641
     a42:	80 93 62 16 	sts	0x1662, r24
     a46:	90 93 63 16 	sts	0x1663, r25
     a4a:	a0 93 64 16 	sts	0x1664, r26
     a4e:	b0 93 65 16 	sts	0x1665, r27
	
	leg6.temp2AngleAlpha = leg6.prevAngleAlpha;
     a52:	80 91 bc 15 	lds	r24, 0x15BC
     a56:	90 91 bd 15 	lds	r25, 0x15BD
     a5a:	a0 91 be 15 	lds	r26, 0x15BE
     a5e:	b0 91 bf 15 	lds	r27, 0x15BF
     a62:	80 93 e0 15 	sts	0x15E0, r24
     a66:	90 93 e1 15 	sts	0x15E1, r25
     a6a:	a0 93 e2 15 	sts	0x15E2, r26
     a6e:	b0 93 e3 15 	sts	0x15E3, r27
	leg6.temp2AngleBeta = leg6.prevAngleBeta;
     a72:	80 91 b8 15 	lds	r24, 0x15B8
     a76:	90 91 b9 15 	lds	r25, 0x15B9
     a7a:	a0 91 ba 15 	lds	r26, 0x15BA
     a7e:	b0 91 bb 15 	lds	r27, 0x15BB
     a82:	80 93 dc 15 	sts	0x15DC, r24
     a86:	90 93 dd 15 	sts	0x15DD, r25
     a8a:	a0 93 de 15 	sts	0x15DE, r26
     a8e:	b0 93 df 15 	sts	0x15DF, r27
	leg6.temp2AngleGamma = leg6.prevAngleGamma;
     a92:	80 91 b4 15 	lds	r24, 0x15B4
     a96:	90 91 b5 15 	lds	r25, 0x15B5
     a9a:	a0 91 b6 15 	lds	r26, 0x15B6
     a9e:	b0 91 b7 15 	lds	r27, 0x15B7
     aa2:	80 93 d8 15 	sts	0x15D8, r24
     aa6:	90 93 d9 15 	sts	0x15D9, r25
     aaa:	a0 93 da 15 	sts	0x15DA, r26
     aae:	b0 93 db 15 	sts	0x15DB, r27
     ab2:	08 95       	ret

00000ab4 <_Z8move_legP7LegDataf>:
}

void move_leg(struct LegData* leg, float n)
{
     ab4:	2f 92       	push	r2
     ab6:	3f 92       	push	r3
     ab8:	4f 92       	push	r4
     aba:	5f 92       	push	r5
     abc:	6f 92       	push	r6
     abe:	7f 92       	push	r7
     ac0:	8f 92       	push	r8
     ac2:	9f 92       	push	r9
     ac4:	af 92       	push	r10
     ac6:	bf 92       	push	r11
     ac8:	cf 92       	push	r12
     aca:	df 92       	push	r13
     acc:	ef 92       	push	r14
     ace:	ff 92       	push	r15
     ad0:	0f 93       	push	r16
     ad2:	1f 93       	push	r17
     ad4:	cf 93       	push	r28
     ad6:	df 93       	push	r29
     ad8:	cd b7       	in	r28, 0x3d	; 61
     ada:	de b7       	in	r29, 0x3e	; 62
     adc:	28 97       	sbiw	r28, 0x08	; 8
     ade:	0f b6       	in	r0, 0x3f	; 63
     ae0:	f8 94       	cli
     ae2:	de bf       	out	0x3e, r29	; 62
     ae4:	0f be       	out	0x3f, r0	; 63
     ae6:	cd bf       	out	0x3d, r28	; 61
     ae8:	98 87       	std	Y+8, r25	; 0x08
     aea:	8f 83       	std	Y+7, r24	; 0x07
     aec:	6a 01       	movw	r12, r20
     aee:	7b 01       	movw	r14, r22
	if(leg->lift == 1 && n != iterations+1)
     af0:	20 e0       	ldi	r18, 0x00	; 0
     af2:	30 e0       	ldi	r19, 0x00	; 0
     af4:	40 e8       	ldi	r20, 0x80	; 128
     af6:	5f e3       	ldi	r21, 0x3F	; 63
     af8:	dc 01       	movw	r26, r24
     afa:	14 96       	adiw	r26, 0x04	; 4
     afc:	6d 91       	ld	r22, X+
     afe:	7d 91       	ld	r23, X+
     b00:	8d 91       	ld	r24, X+
     b02:	9c 91       	ld	r25, X
     b04:	17 97       	sbiw	r26, 0x07	; 7
     b06:	0e 94 29 16 	call	0x2c52	; 0x2c52 <__cmpsf2>
     b0a:	81 11       	cpse	r24, r1
     b0c:	2b c0       	rjmp	.+86     	; 0xb64 <_Z8move_legP7LegDataf+0xb0>
     b0e:	20 e0       	ldi	r18, 0x00	; 0
     b10:	30 e0       	ldi	r19, 0x00	; 0
     b12:	40 e8       	ldi	r20, 0x80	; 128
     b14:	5f e3       	ldi	r21, 0x3F	; 63
     b16:	60 91 d0 18 	lds	r22, 0x18D0
     b1a:	70 91 d1 18 	lds	r23, 0x18D1
     b1e:	80 91 d2 18 	lds	r24, 0x18D2
     b22:	90 91 d3 18 	lds	r25, 0x18D3
     b26:	0e 94 86 15 	call	0x2b0c	; 0x2b0c <__addsf3>
     b2a:	a7 01       	movw	r20, r14
     b2c:	96 01       	movw	r18, r12
     b2e:	0e 94 29 16 	call	0x2c52	; 0x2c52 <__cmpsf2>
     b32:	88 23       	and	r24, r24
     b34:	b9 f0       	breq	.+46     	; 0xb64 <_Z8move_legP7LegDataf+0xb0>
	{
		tempz = z + 30;
     b36:	20 e0       	ldi	r18, 0x00	; 0
     b38:	30 e0       	ldi	r19, 0x00	; 0
     b3a:	40 ef       	ldi	r20, 0xF0	; 240
     b3c:	51 e4       	ldi	r21, 0x41	; 65
     b3e:	60 91 6c 15 	lds	r22, 0x156C
     b42:	70 91 6d 15 	lds	r23, 0x156D
     b46:	80 91 6e 15 	lds	r24, 0x156E
     b4a:	90 91 6f 15 	lds	r25, 0x156F
     b4e:	0e 94 86 15 	call	0x2b0c	; 0x2b0c <__addsf3>
     b52:	60 93 70 15 	sts	0x1570, r22
     b56:	70 93 71 15 	sts	0x1571, r23
     b5a:	80 93 72 15 	sts	0x1572, r24
     b5e:	90 93 73 15 	sts	0x1573, r25
     b62:	10 c0       	rjmp	.+32     	; 0xb84 <_Z8move_legP7LegDataf+0xd0>
	}
	else
	{
		tempz = z;
     b64:	80 91 6c 15 	lds	r24, 0x156C
     b68:	90 91 6d 15 	lds	r25, 0x156D
     b6c:	a0 91 6e 15 	lds	r26, 0x156E
     b70:	b0 91 6f 15 	lds	r27, 0x156F
     b74:	80 93 70 15 	sts	0x1570, r24
     b78:	90 93 71 15 	sts	0x1571, r25
     b7c:	a0 93 72 15 	sts	0x1572, r26
     b80:	b0 93 73 15 	sts	0x1573, r27
	}
	if(n != 0 && n != iterations+1)
     b84:	20 e0       	ldi	r18, 0x00	; 0
     b86:	30 e0       	ldi	r19, 0x00	; 0
     b88:	a9 01       	movw	r20, r18
     b8a:	c7 01       	movw	r24, r14
     b8c:	b6 01       	movw	r22, r12
     b8e:	0e 94 29 16 	call	0x2c52	; 0x2c52 <__cmpsf2>
     b92:	88 23       	and	r24, r24
     b94:	09 f4       	brne	.+2      	; 0xb98 <_Z8move_legP7LegDataf+0xe4>
     b96:	97 c0       	rjmp	.+302    	; 0xcc6 <_Z8move_legP7LegDataf+0x212>
     b98:	80 90 d0 18 	lds	r8, 0x18D0
     b9c:	90 90 d1 18 	lds	r9, 0x18D1
     ba0:	a0 90 d2 18 	lds	r10, 0x18D2
     ba4:	b0 90 d3 18 	lds	r11, 0x18D3
     ba8:	20 e0       	ldi	r18, 0x00	; 0
     baa:	30 e0       	ldi	r19, 0x00	; 0
     bac:	40 e8       	ldi	r20, 0x80	; 128
     bae:	5f e3       	ldi	r21, 0x3F	; 63
     bb0:	c5 01       	movw	r24, r10
     bb2:	b4 01       	movw	r22, r8
     bb4:	0e 94 86 15 	call	0x2b0c	; 0x2b0c <__addsf3>
     bb8:	a7 01       	movw	r20, r14
     bba:	96 01       	movw	r18, r12
     bbc:	0e 94 29 16 	call	0x2c52	; 0x2c52 <__cmpsf2>
     bc0:	88 23       	and	r24, r24
     bc2:	09 f4       	brne	.+2      	; 0xbc6 <_Z8move_legP7LegDataf+0x112>
     bc4:	94 c0       	rjmp	.+296    	; 0xcee <_Z8move_legP7LegDataf+0x23a>
	{
		leg->temp1AngleGamma = leg->temp2AngleGamma;
     bc6:	ef 81       	ldd	r30, Y+7	; 0x07
     bc8:	f8 85       	ldd	r31, Y+8	; 0x08
     bca:	e0 5c       	subi	r30, 0xC0	; 192
     bcc:	ff 4f       	sbci	r31, 0xFF	; 255
     bce:	af 81       	ldd	r26, Y+7	; 0x07
     bd0:	b8 85       	ldd	r27, Y+8	; 0x08
     bd2:	a4 5b       	subi	r26, 0xB4	; 180
     bd4:	bf 4f       	sbci	r27, 0xFF	; 255
     bd6:	8d 91       	ld	r24, X+
     bd8:	9d 91       	ld	r25, X+
     bda:	0d 90       	ld	r0, X+
     bdc:	bc 91       	ld	r27, X
     bde:	a0 2d       	mov	r26, r0
     be0:	80 83       	st	Z, r24
     be2:	91 83       	std	Z+1, r25	; 0x01
     be4:	a2 83       	std	Z+2, r26	; 0x02
     be6:	b3 83       	std	Z+3, r27	; 0x03
		leg->temp1AngleBeta = leg->temp2AngleBeta;
     be8:	ef 81       	ldd	r30, Y+7	; 0x07
     bea:	f8 85       	ldd	r31, Y+8	; 0x08
     bec:	ec 5b       	subi	r30, 0xBC	; 188
     bee:	ff 4f       	sbci	r31, 0xFF	; 255
     bf0:	af 81       	ldd	r26, Y+7	; 0x07
     bf2:	b8 85       	ldd	r27, Y+8	; 0x08
     bf4:	a0 5b       	subi	r26, 0xB0	; 176
     bf6:	bf 4f       	sbci	r27, 0xFF	; 255
     bf8:	8d 91       	ld	r24, X+
     bfa:	9d 91       	ld	r25, X+
     bfc:	0d 90       	ld	r0, X+
     bfe:	bc 91       	ld	r27, X
     c00:	a0 2d       	mov	r26, r0
     c02:	80 83       	st	Z, r24
     c04:	91 83       	std	Z+1, r25	; 0x01
     c06:	a2 83       	std	Z+2, r26	; 0x02
     c08:	b3 83       	std	Z+3, r27	; 0x03
		leg->temp1AngleAlpha = leg->temp2AngleAlpha;
     c0a:	ef 81       	ldd	r30, Y+7	; 0x07
     c0c:	f8 85       	ldd	r31, Y+8	; 0x08
     c0e:	e8 5b       	subi	r30, 0xB8	; 184
     c10:	ff 4f       	sbci	r31, 0xFF	; 255
     c12:	af 81       	ldd	r26, Y+7	; 0x07
     c14:	b8 85       	ldd	r27, Y+8	; 0x08
     c16:	ac 5a       	subi	r26, 0xAC	; 172
     c18:	bf 4f       	sbci	r27, 0xFF	; 255
     c1a:	8d 91       	ld	r24, X+
     c1c:	9d 91       	ld	r25, X+
     c1e:	0d 90       	ld	r0, X+
     c20:	bc 91       	ld	r27, X
     c22:	a0 2d       	mov	r26, r0
     c24:	80 83       	st	Z, r24
     c26:	91 83       	std	Z+1, r25	; 0x01
     c28:	a2 83       	std	Z+2, r26	; 0x02
     c2a:	b3 83       	std	Z+3, r27	; 0x03

		tempx = leg->prevPosx + n*(leg->newPosx - leg->prevPosx)/iterations;
     c2c:	ef 81       	ldd	r30, Y+7	; 0x07
     c2e:	f8 85       	ldd	r31, Y+8	; 0x08
     c30:	44 8c       	ldd	r4, Z+28	; 0x1c
     c32:	55 8c       	ldd	r5, Z+29	; 0x1d
     c34:	66 8c       	ldd	r6, Z+30	; 0x1e
     c36:	77 8c       	ldd	r7, Z+31	; 0x1f
     c38:	a3 01       	movw	r20, r6
     c3a:	92 01       	movw	r18, r4
     c3c:	64 89       	ldd	r22, Z+20	; 0x14
     c3e:	75 89       	ldd	r23, Z+21	; 0x15
     c40:	86 89       	ldd	r24, Z+22	; 0x16
     c42:	97 89       	ldd	r25, Z+23	; 0x17
     c44:	0e 94 85 15 	call	0x2b0a	; 0x2b0a <__subsf3>
     c48:	a7 01       	movw	r20, r14
     c4a:	96 01       	movw	r18, r12
     c4c:	0e 94 2f 18 	call	0x305e	; 0x305e <__mulsf3>
     c50:	a5 01       	movw	r20, r10
     c52:	94 01       	movw	r18, r8
     c54:	0e 94 30 16 	call	0x2c60	; 0x2c60 <__divsf3>
     c58:	9b 01       	movw	r18, r22
     c5a:	ac 01       	movw	r20, r24
     c5c:	c3 01       	movw	r24, r6
     c5e:	b2 01       	movw	r22, r4
     c60:	0e 94 86 15 	call	0x2b0c	; 0x2b0c <__addsf3>
     c64:	60 93 78 15 	sts	0x1578, r22
     c68:	70 93 79 15 	sts	0x1579, r23
     c6c:	80 93 7a 15 	sts	0x157A, r24
     c70:	90 93 7b 15 	sts	0x157B, r25
		tempy = leg->prevPosy + n*(leg->newPosy - leg->prevPosy)/iterations;
     c74:	af 81       	ldd	r26, Y+7	; 0x07
     c76:	b8 85       	ldd	r27, Y+8	; 0x08
     c78:	90 96       	adiw	r26, 0x20	; 32
     c7a:	4d 90       	ld	r4, X+
     c7c:	5d 90       	ld	r5, X+
     c7e:	6d 90       	ld	r6, X+
     c80:	7c 90       	ld	r7, X
     c82:	93 97       	sbiw	r26, 0x23	; 35
     c84:	a3 01       	movw	r20, r6
     c86:	92 01       	movw	r18, r4
     c88:	58 96       	adiw	r26, 0x18	; 24
     c8a:	6d 91       	ld	r22, X+
     c8c:	7d 91       	ld	r23, X+
     c8e:	8d 91       	ld	r24, X+
     c90:	9c 91       	ld	r25, X
     c92:	5b 97       	sbiw	r26, 0x1b	; 27
     c94:	0e 94 85 15 	call	0x2b0a	; 0x2b0a <__subsf3>
     c98:	a7 01       	movw	r20, r14
     c9a:	96 01       	movw	r18, r12
     c9c:	0e 94 2f 18 	call	0x305e	; 0x305e <__mulsf3>
     ca0:	a5 01       	movw	r20, r10
     ca2:	94 01       	movw	r18, r8
     ca4:	0e 94 30 16 	call	0x2c60	; 0x2c60 <__divsf3>
     ca8:	9b 01       	movw	r18, r22
     caa:	ac 01       	movw	r20, r24
     cac:	c3 01       	movw	r24, r6
     cae:	b2 01       	movw	r22, r4
     cb0:	0e 94 86 15 	call	0x2b0c	; 0x2b0c <__addsf3>
     cb4:	60 93 74 15 	sts	0x1574, r22
     cb8:	70 93 75 15 	sts	0x1575, r23
     cbc:	80 93 76 15 	sts	0x1576, r24
     cc0:	90 93 77 15 	sts	0x1577, r25
     cc4:	4d c0       	rjmp	.+154    	; 0xd60 <_Z8move_legP7LegDataf+0x2ac>
	}
	else if (n == iterations+1)
     cc6:	20 e0       	ldi	r18, 0x00	; 0
     cc8:	30 e0       	ldi	r19, 0x00	; 0
     cca:	40 e8       	ldi	r20, 0x80	; 128
     ccc:	5f e3       	ldi	r21, 0x3F	; 63
     cce:	60 91 d0 18 	lds	r22, 0x18D0
     cd2:	70 91 d1 18 	lds	r23, 0x18D1
     cd6:	80 91 d2 18 	lds	r24, 0x18D2
     cda:	90 91 d3 18 	lds	r25, 0x18D3
     cde:	0e 94 86 15 	call	0x2b0c	; 0x2b0c <__addsf3>
     ce2:	a7 01       	movw	r20, r14
     ce4:	96 01       	movw	r18, r12
     ce6:	0e 94 29 16 	call	0x2c52	; 0x2c52 <__cmpsf2>
     cea:	81 11       	cpse	r24, r1
     cec:	1f c0       	rjmp	.+62     	; 0xd2c <_Z8move_legP7LegDataf+0x278>
	{
		tempx = leg->newPosx;
     cee:	ef 81       	ldd	r30, Y+7	; 0x07
     cf0:	f8 85       	ldd	r31, Y+8	; 0x08
     cf2:	84 89       	ldd	r24, Z+20	; 0x14
     cf4:	95 89       	ldd	r25, Z+21	; 0x15
     cf6:	a6 89       	ldd	r26, Z+22	; 0x16
     cf8:	b7 89       	ldd	r27, Z+23	; 0x17
     cfa:	80 93 78 15 	sts	0x1578, r24
     cfe:	90 93 79 15 	sts	0x1579, r25
     d02:	a0 93 7a 15 	sts	0x157A, r26
     d06:	b0 93 7b 15 	sts	0x157B, r27
		tempy = leg->newPosy;
     d0a:	80 8d       	ldd	r24, Z+24	; 0x18
     d0c:	91 8d       	ldd	r25, Z+25	; 0x19
     d0e:	a2 8d       	ldd	r26, Z+26	; 0x1a
     d10:	b3 8d       	ldd	r27, Z+27	; 0x1b
     d12:	80 93 74 15 	sts	0x1574, r24
     d16:	90 93 75 15 	sts	0x1575, r25
     d1a:	a0 93 76 15 	sts	0x1576, r26
     d1e:	b0 93 77 15 	sts	0x1577, r27
		leg->climbing = 0;
     d22:	e2 5a       	subi	r30, 0xA2	; 162
     d24:	ff 4f       	sbci	r31, 0xFF	; 255
     d26:	11 82       	std	Z+1, r1	; 0x01
     d28:	10 82       	st	Z, r1
     d2a:	1a c0       	rjmp	.+52     	; 0xd60 <_Z8move_legP7LegDataf+0x2ac>
	}
	else
	{
		tempx = leg->prevPosx;
     d2c:	ef 81       	ldd	r30, Y+7	; 0x07
     d2e:	f8 85       	ldd	r31, Y+8	; 0x08
     d30:	84 8d       	ldd	r24, Z+28	; 0x1c
     d32:	95 8d       	ldd	r25, Z+29	; 0x1d
     d34:	a6 8d       	ldd	r26, Z+30	; 0x1e
     d36:	b7 8d       	ldd	r27, Z+31	; 0x1f
     d38:	80 93 78 15 	sts	0x1578, r24
     d3c:	90 93 79 15 	sts	0x1579, r25
     d40:	a0 93 7a 15 	sts	0x157A, r26
     d44:	b0 93 7b 15 	sts	0x157B, r27
		tempy = leg->prevPosy;
     d48:	80 a1       	ldd	r24, Z+32	; 0x20
     d4a:	91 a1       	ldd	r25, Z+33	; 0x21
     d4c:	a2 a1       	ldd	r26, Z+34	; 0x22
     d4e:	b3 a1       	ldd	r27, Z+35	; 0x23
     d50:	80 93 74 15 	sts	0x1574, r24
     d54:	90 93 75 15 	sts	0x1575, r25
     d58:	a0 93 76 15 	sts	0x1576, r26
     d5c:	b0 93 77 15 	sts	0x1577, r27
	}
	calc_d(tempx, tempy, tempz);
     d60:	e0 90 70 15 	lds	r14, 0x1570
     d64:	f0 90 71 15 	lds	r15, 0x1571
     d68:	00 91 72 15 	lds	r16, 0x1572
     d6c:	10 91 73 15 	lds	r17, 0x1573
     d70:	20 91 74 15 	lds	r18, 0x1574
     d74:	30 91 75 15 	lds	r19, 0x1575
     d78:	40 91 76 15 	lds	r20, 0x1576
     d7c:	50 91 77 15 	lds	r21, 0x1577
     d80:	60 91 78 15 	lds	r22, 0x1578
     d84:	70 91 79 15 	lds	r23, 0x1579
     d88:	80 91 7a 15 	lds	r24, 0x157A
     d8c:	90 91 7b 15 	lds	r25, 0x157B
     d90:	a6 d7       	rcall	.+3916   	; 0x1cde <_Z6calc_dfff>
	leg->temp2AngleGamma = get_gamma(tempx, tempy);
     d92:	20 91 74 15 	lds	r18, 0x1574
     d96:	30 91 75 15 	lds	r19, 0x1575
     d9a:	40 91 76 15 	lds	r20, 0x1576
     d9e:	50 91 77 15 	lds	r21, 0x1577
     da2:	60 91 78 15 	lds	r22, 0x1578
     da6:	70 91 79 15 	lds	r23, 0x1579
     daa:	80 91 7a 15 	lds	r24, 0x157A
     dae:	90 91 7b 15 	lds	r25, 0x157B
     db2:	f3 d7       	rcall	.+4070   	; 0x1d9a <_Z9get_gammaff>
     db4:	0f 81       	ldd	r16, Y+7	; 0x07
     db6:	18 85       	ldd	r17, Y+8	; 0x08
     db8:	04 5b       	subi	r16, 0xB4	; 180
     dba:	1f 4f       	sbci	r17, 0xFF	; 255
     dbc:	d8 01       	movw	r26, r16
     dbe:	6d 93       	st	X+, r22
     dc0:	7d 93       	st	X+, r23
     dc2:	8d 93       	st	X+, r24
     dc4:	9c 93       	st	X, r25
     dc6:	13 97       	sbiw	r26, 0x03	; 3
	leg->temp2AngleBeta = get_beta();
     dc8:	0e 94 ee 0e 	call	0x1ddc	; 0x1ddc <_Z8get_betav>
     dcc:	af 80       	ldd	r10, Y+7	; 0x07
     dce:	b8 84       	ldd	r11, Y+8	; 0x08
     dd0:	b0 e5       	ldi	r27, 0x50	; 80
     dd2:	ab 0e       	add	r10, r27
     dd4:	b1 1c       	adc	r11, r1
     dd6:	f5 01       	movw	r30, r10
     dd8:	60 83       	st	Z, r22
     dda:	71 83       	std	Z+1, r23	; 0x01
     ddc:	82 83       	std	Z+2, r24	; 0x02
     dde:	93 83       	std	Z+3, r25	; 0x03
	leg->temp2AngleAlpha = get_alpha(tempz);
     de0:	60 91 70 15 	lds	r22, 0x1570
     de4:	70 91 71 15 	lds	r23, 0x1571
     de8:	80 91 72 15 	lds	r24, 0x1572
     dec:	90 91 73 15 	lds	r25, 0x1573
     df0:	0e 94 1f 0f 	call	0x1e3e	; 0x1e3e <_Z9get_alphaf>
     df4:	2b 01       	movw	r4, r22
     df6:	3c 01       	movw	r6, r24
     df8:	ef 81       	ldd	r30, Y+7	; 0x07
     dfa:	f8 85       	ldd	r31, Y+8	; 0x08
     dfc:	ec 5a       	subi	r30, 0xAC	; 172
     dfe:	ff 4f       	sbci	r31, 0xFF	; 255
     e00:	60 83       	st	Z, r22
     e02:	71 83       	std	Z+1, r23	; 0x01
     e04:	82 83       	std	Z+2, r24	; 0x02
     e06:	93 83       	std	Z+3, r25	; 0x03
	speedAlpha = fabsf(leg->temp1AngleAlpha - leg->temp2AngleAlpha)*speedMultiplier;
     e08:	c0 90 7c 15 	lds	r12, 0x157C
     e0c:	d0 90 7d 15 	lds	r13, 0x157D
     e10:	e0 90 7e 15 	lds	r14, 0x157E
     e14:	f0 90 7f 15 	lds	r15, 0x157F
     e18:	ef 81       	ldd	r30, Y+7	; 0x07
     e1a:	f8 85       	ldd	r31, Y+8	; 0x08
     e1c:	e8 5b       	subi	r30, 0xB8	; 184
     e1e:	ff 4f       	sbci	r31, 0xFF	; 255
     e20:	9b 01       	movw	r18, r22
     e22:	ac 01       	movw	r20, r24
     e24:	60 81       	ld	r22, Z
     e26:	71 81       	ldd	r23, Z+1	; 0x01
     e28:	82 81       	ldd	r24, Z+2	; 0x02
     e2a:	93 81       	ldd	r25, Z+3	; 0x03
     e2c:	0e 94 85 15 	call	0x2b0a	; 0x2b0a <__subsf3>
     e30:	9f 77       	andi	r25, 0x7F	; 127
     e32:	a7 01       	movw	r20, r14
     e34:	96 01       	movw	r18, r12
     e36:	0e 94 2f 18 	call	0x305e	; 0x305e <__mulsf3>
     e3a:	36 2e       	mov	r3, r22
     e3c:	27 2e       	mov	r2, r23
     e3e:	8d 83       	std	Y+5, r24	; 0x05
     e40:	9e 83       	std	Y+6, r25	; 0x06
     e42:	38 2f       	mov	r19, r24
     e44:	29 2f       	mov	r18, r25
     e46:	86 2f       	mov	r24, r22
     e48:	92 2d       	mov	r25, r2
     e4a:	a3 2f       	mov	r26, r19
     e4c:	b2 2f       	mov	r27, r18
     e4e:	80 93 88 15 	sts	0x1588, r24
     e52:	90 93 89 15 	sts	0x1589, r25
     e56:	a0 93 8a 15 	sts	0x158A, r26
     e5a:	b0 93 8b 15 	sts	0x158B, r27
	speedBeta = fabsf(leg->temp1AngleBeta - leg->temp2AngleBeta)*speedMultiplier;
     e5e:	d5 01       	movw	r26, r10
     e60:	8d 90       	ld	r8, X+
     e62:	9d 90       	ld	r9, X+
     e64:	ad 90       	ld	r10, X+
     e66:	bc 90       	ld	r11, X
     e68:	ef 81       	ldd	r30, Y+7	; 0x07
     e6a:	f8 85       	ldd	r31, Y+8	; 0x08
     e6c:	ec 5b       	subi	r30, 0xBC	; 188
     e6e:	ff 4f       	sbci	r31, 0xFF	; 255
     e70:	a5 01       	movw	r20, r10
     e72:	94 01       	movw	r18, r8
     e74:	60 81       	ld	r22, Z
     e76:	71 81       	ldd	r23, Z+1	; 0x01
     e78:	82 81       	ldd	r24, Z+2	; 0x02
     e7a:	93 81       	ldd	r25, Z+3	; 0x03
     e7c:	0e 94 85 15 	call	0x2b0a	; 0x2b0a <__subsf3>
     e80:	9b 01       	movw	r18, r22
     e82:	ac 01       	movw	r20, r24
     e84:	5f 77       	andi	r21, 0x7F	; 127
     e86:	c7 01       	movw	r24, r14
     e88:	b6 01       	movw	r22, r12
     e8a:	0e 94 2f 18 	call	0x305e	; 0x305e <__mulsf3>
     e8e:	60 93 84 15 	sts	0x1584, r22
     e92:	70 93 85 15 	sts	0x1585, r23
     e96:	80 93 86 15 	sts	0x1586, r24
     e9a:	90 93 87 15 	sts	0x1587, r25
	speedGamma = fabsf(leg->temp1AngleGamma - leg->temp2AngleGamma)*speedMultiplier;
     e9e:	d8 01       	movw	r26, r16
     ea0:	8d 91       	ld	r24, X+
     ea2:	9d 91       	ld	r25, X+
     ea4:	0d 90       	ld	r0, X+
     ea6:	bc 91       	ld	r27, X
     ea8:	a0 2d       	mov	r26, r0
     eaa:	89 83       	std	Y+1, r24	; 0x01
     eac:	9a 83       	std	Y+2, r25	; 0x02
     eae:	ab 83       	std	Y+3, r26	; 0x03
     eb0:	bc 83       	std	Y+4, r27	; 0x04
     eb2:	ef 81       	ldd	r30, Y+7	; 0x07
     eb4:	f8 85       	ldd	r31, Y+8	; 0x08
     eb6:	e0 5c       	subi	r30, 0xC0	; 192
     eb8:	ff 4f       	sbci	r31, 0xFF	; 255
     eba:	9c 01       	movw	r18, r24
     ebc:	ad 01       	movw	r20, r26
     ebe:	60 81       	ld	r22, Z
     ec0:	71 81       	ldd	r23, Z+1	; 0x01
     ec2:	82 81       	ldd	r24, Z+2	; 0x02
     ec4:	93 81       	ldd	r25, Z+3	; 0x03
     ec6:	0e 94 85 15 	call	0x2b0a	; 0x2b0a <__subsf3>
     eca:	9b 01       	movw	r18, r22
     ecc:	ac 01       	movw	r20, r24
     ece:	5f 77       	andi	r21, 0x7F	; 127
     ed0:	c7 01       	movw	r24, r14
     ed2:	b6 01       	movw	r22, r12
     ed4:	0e 94 2f 18 	call	0x305e	; 0x305e <__mulsf3>
     ed8:	60 93 80 15 	sts	0x1580, r22
     edc:	70 93 81 15 	sts	0x1581, r23
     ee0:	80 93 82 15 	sts	0x1582, r24
     ee4:	90 93 83 15 	sts	0x1583, r25
	leg->goalAngleAlpha = leg->side *(leg->temp2AngleAlpha + femurAngleAddition);
     ee8:	ef 81       	ldd	r30, Y+7	; 0x07
     eea:	f8 85       	ldd	r31, Y+8	; 0x08
     eec:	c0 80       	ld	r12, Z
     eee:	d1 80       	ldd	r13, Z+1	; 0x01
     ef0:	e2 80       	ldd	r14, Z+2	; 0x02
     ef2:	f3 80       	ldd	r15, Z+3	; 0x03
     ef4:	2e ed       	ldi	r18, 0xDE	; 222
     ef6:	34 e2       	ldi	r19, 0x24	; 36
     ef8:	46 e0       	ldi	r20, 0x06	; 6
     efa:	5e e3       	ldi	r21, 0x3E	; 62
     efc:	c3 01       	movw	r24, r6
     efe:	b2 01       	movw	r22, r4
     f00:	0e 94 86 15 	call	0x2b0c	; 0x2b0c <__addsf3>
     f04:	9b 01       	movw	r18, r22
     f06:	ac 01       	movw	r20, r24
     f08:	c7 01       	movw	r24, r14
     f0a:	b6 01       	movw	r22, r12
     f0c:	0e 94 2f 18 	call	0x305e	; 0x305e <__mulsf3>
     f10:	76 2e       	mov	r7, r22
     f12:	67 2e       	mov	r6, r23
     f14:	58 2e       	mov	r5, r24
     f16:	49 2e       	mov	r4, r25
     f18:	ef 81       	ldd	r30, Y+7	; 0x07
     f1a:	f8 85       	ldd	r31, Y+8	; 0x08
     f1c:	e2 58       	subi	r30, 0x82	; 130
     f1e:	ff 4f       	sbci	r31, 0xFF	; 255
     f20:	86 2f       	mov	r24, r22
     f22:	96 2d       	mov	r25, r6
     f24:	a5 2d       	mov	r26, r5
     f26:	b4 2d       	mov	r27, r4
     f28:	80 83       	st	Z, r24
     f2a:	91 83       	std	Z+1, r25	; 0x01
     f2c:	a2 83       	std	Z+2, r26	; 0x02
     f2e:	b3 83       	std	Z+3, r27	; 0x03
	leg->goalAngleBeta = leg->side*(-leg->temp2AngleBeta + tibiaAngleAddition);
     f30:	0f 81       	ldd	r16, Y+7	; 0x07
     f32:	18 85       	ldd	r17, Y+8	; 0x08
     f34:	0e 57       	subi	r16, 0x7E	; 126
     f36:	1f 4f       	sbci	r17, 0xFF	; 255
     f38:	a5 01       	movw	r20, r10
     f3a:	94 01       	movw	r18, r8
     f3c:	6b e3       	ldi	r22, 0x3B	; 59
     f3e:	7f ed       	ldi	r23, 0xDF	; 223
     f40:	8f e0       	ldi	r24, 0x0F	; 15
     f42:	9f e3       	ldi	r25, 0x3F	; 63
     f44:	0e 94 85 15 	call	0x2b0a	; 0x2b0a <__subsf3>
     f48:	9b 01       	movw	r18, r22
     f4a:	ac 01       	movw	r20, r24
     f4c:	c7 01       	movw	r24, r14
     f4e:	b6 01       	movw	r22, r12
     f50:	0e 94 2f 18 	call	0x305e	; 0x305e <__mulsf3>
     f54:	d8 01       	movw	r26, r16
     f56:	6d 93       	st	X+, r22
     f58:	7d 93       	st	X+, r23
     f5a:	8d 93       	st	X+, r24
     f5c:	9c 93       	st	X, r25
     f5e:	13 97       	sbiw	r26, 0x03	; 3
	leg->goalAngleGamma = leg->temp2AngleGamma;
     f60:	ef 80       	ldd	r14, Y+7	; 0x07
     f62:	f8 84       	ldd	r15, Y+8	; 0x08
     f64:	b6 e8       	ldi	r27, 0x86	; 134
     f66:	eb 0e       	add	r14, r27
     f68:	f1 1c       	adc	r15, r1
     f6a:	89 81       	ldd	r24, Y+1	; 0x01
     f6c:	9a 81       	ldd	r25, Y+2	; 0x02
     f6e:	ab 81       	ldd	r26, Y+3	; 0x03
     f70:	bc 81       	ldd	r27, Y+4	; 0x04
     f72:	f7 01       	movw	r30, r14
     f74:	80 83       	st	Z, r24
     f76:	91 83       	std	Z+1, r25	; 0x01
     f78:	a2 83       	std	Z+2, r26	; 0x02
     f7a:	b3 83       	std	Z+3, r27	; 0x03
	SERVO_buffer_position(leg->servoAlpha, leg->goalAngleAlpha,(int)speedAlpha);
     f7c:	3d 81       	ldd	r19, Y+5	; 0x05
     f7e:	2e 81       	ldd	r18, Y+6	; 0x06
     f80:	63 2d       	mov	r22, r3
     f82:	72 2d       	mov	r23, r2
     f84:	83 2f       	mov	r24, r19
     f86:	92 2f       	mov	r25, r18
     f88:	0e 94 98 16 	call	0x2d30	; 0x2d30 <__fixsfsi>
     f8c:	ef 81       	ldd	r30, Y+7	; 0x07
     f8e:	f8 85       	ldd	r31, Y+8	; 0x08
     f90:	e4 5a       	subi	r30, 0xA4	; 164
     f92:	ff 4f       	sbci	r31, 0xFF	; 255
     f94:	9b 01       	movw	r18, r22
     f96:	47 2d       	mov	r20, r7
     f98:	56 2d       	mov	r21, r6
     f9a:	65 2d       	mov	r22, r5
     f9c:	74 2d       	mov	r23, r4
     f9e:	80 81       	ld	r24, Z
     fa0:	0e 94 db 11 	call	0x23b6	; 0x23b6 <_Z21SERVO_buffer_positionhdj>
	SERVO_buffer_position(leg->servoBeta, leg->goalAngleBeta,(int)speedBeta);
     fa4:	60 91 84 15 	lds	r22, 0x1584
     fa8:	70 91 85 15 	lds	r23, 0x1585
     fac:	80 91 86 15 	lds	r24, 0x1586
     fb0:	90 91 87 15 	lds	r25, 0x1587
     fb4:	0e 94 98 16 	call	0x2d30	; 0x2d30 <__fixsfsi>
     fb8:	dc 01       	movw	r26, r24
     fba:	cb 01       	movw	r24, r22
     fbc:	f8 01       	movw	r30, r16
     fbe:	40 81       	ld	r20, Z
     fc0:	51 81       	ldd	r21, Z+1	; 0x01
     fc2:	62 81       	ldd	r22, Z+2	; 0x02
     fc4:	73 81       	ldd	r23, Z+3	; 0x03
     fc6:	ef 81       	ldd	r30, Y+7	; 0x07
     fc8:	f8 85       	ldd	r31, Y+8	; 0x08
     fca:	e6 5a       	subi	r30, 0xA6	; 166
     fcc:	ff 4f       	sbci	r31, 0xFF	; 255
     fce:	9c 01       	movw	r18, r24
     fd0:	80 81       	ld	r24, Z
     fd2:	0e 94 db 11 	call	0x23b6	; 0x23b6 <_Z21SERVO_buffer_positionhdj>
	SERVO_buffer_position(leg->servoGamma, leg->goalAngleGamma,(int)speedGamma);
     fd6:	60 91 80 15 	lds	r22, 0x1580
     fda:	70 91 81 15 	lds	r23, 0x1581
     fde:	80 91 82 15 	lds	r24, 0x1582
     fe2:	90 91 83 15 	lds	r25, 0x1583
     fe6:	0e 94 98 16 	call	0x2d30	; 0x2d30 <__fixsfsi>
     fea:	dc 01       	movw	r26, r24
     fec:	cb 01       	movw	r24, r22
     fee:	f7 01       	movw	r30, r14
     ff0:	40 81       	ld	r20, Z
     ff2:	51 81       	ldd	r21, Z+1	; 0x01
     ff4:	62 81       	ldd	r22, Z+2	; 0x02
     ff6:	73 81       	ldd	r23, Z+3	; 0x03
     ff8:	ef 81       	ldd	r30, Y+7	; 0x07
     ffa:	f8 85       	ldd	r31, Y+8	; 0x08
     ffc:	e8 5a       	subi	r30, 0xA8	; 168
     ffe:	ff 4f       	sbci	r31, 0xFF	; 255
    1000:	9c 01       	movw	r18, r24
    1002:	80 81       	ld	r24, Z
    1004:	0e 94 db 11 	call	0x23b6	; 0x23b6 <_Z21SERVO_buffer_positionhdj>
}
    1008:	28 96       	adiw	r28, 0x08	; 8
    100a:	0f b6       	in	r0, 0x3f	; 63
    100c:	f8 94       	cli
    100e:	de bf       	out	0x3e, r29	; 62
    1010:	0f be       	out	0x3f, r0	; 63
    1012:	cd bf       	out	0x3d, r28	; 61
    1014:	df 91       	pop	r29
    1016:	cf 91       	pop	r28
    1018:	1f 91       	pop	r17
    101a:	0f 91       	pop	r16
    101c:	ff 90       	pop	r15
    101e:	ef 90       	pop	r14
    1020:	df 90       	pop	r13
    1022:	cf 90       	pop	r12
    1024:	bf 90       	pop	r11
    1026:	af 90       	pop	r10
    1028:	9f 90       	pop	r9
    102a:	8f 90       	pop	r8
    102c:	7f 90       	pop	r7
    102e:	6f 90       	pop	r6
    1030:	5f 90       	pop	r5
    1032:	4f 90       	pop	r4
    1034:	3f 90       	pop	r3
    1036:	2f 90       	pop	r2
    1038:	08 95       	ret

0000103a <_Z10leg_motionv>:
void leg_motion()
{
    103a:	cf 92       	push	r12
    103c:	df 92       	push	r13
    103e:	ef 92       	push	r14
    1040:	ff 92       	push	r15
    1042:	cf 93       	push	r28
    1044:	df 93       	push	r29
	leg_motion_init();
    1046:	15 dc       	rcall	.-2006   	; 0x872 <_Z15leg_motion_initv>
	for(int i = 0; i <= (int)iterations+1; ++i)
    1048:	60 91 d0 18 	lds	r22, 0x18D0
    104c:	70 91 d1 18 	lds	r23, 0x18D1
    1050:	80 91 d2 18 	lds	r24, 0x18D2
    1054:	90 91 d3 18 	lds	r25, 0x18D3
    1058:	0e 94 98 16 	call	0x2d30	; 0x2d30 <__fixsfsi>
    105c:	6f 5f       	subi	r22, 0xFF	; 255
    105e:	7f 4f       	sbci	r23, 0xFF	; 255
    1060:	0a f4       	brpl	.+2      	; 0x1064 <_Z10leg_motionv+0x2a>
    1062:	4f c0       	rjmp	.+158    	; 0x1102 <_Z10leg_motionv+0xc8>
    1064:	c0 e0       	ldi	r28, 0x00	; 0
    1066:	d0 e0       	ldi	r29, 0x00	; 0
	{
		move_leg(&leg1,i);
    1068:	be 01       	movw	r22, r28
    106a:	88 27       	eor	r24, r24
    106c:	77 fd       	sbrc	r23, 7
    106e:	80 95       	com	r24
    1070:	98 2f       	mov	r25, r24
    1072:	0e 94 cb 16 	call	0x2d96	; 0x2d96 <__floatsisf>
    1076:	6b 01       	movw	r12, r22
    1078:	7c 01       	movw	r14, r24
    107a:	ab 01       	movw	r20, r22
    107c:	bc 01       	movw	r22, r24
    107e:	8e e3       	ldi	r24, 0x3E	; 62
    1080:	98 e1       	ldi	r25, 0x18	; 24
    1082:	18 dd       	rcall	.-1488   	; 0xab4 <_Z8move_legP7LegDataf>
		move_leg(&leg2,i);
    1084:	b7 01       	movw	r22, r14
    1086:	a6 01       	movw	r20, r12
    1088:	84 eb       	ldi	r24, 0xB4	; 180
    108a:	97 e1       	ldi	r25, 0x17	; 23
    108c:	13 dd       	rcall	.-1498   	; 0xab4 <_Z8move_legP7LegDataf>
		move_leg(&leg3,i);
    108e:	b7 01       	movw	r22, r14
    1090:	a6 01       	movw	r20, r12
    1092:	8a e2       	ldi	r24, 0x2A	; 42
    1094:	97 e1       	ldi	r25, 0x17	; 23
    1096:	0e dd       	rcall	.-1508   	; 0xab4 <_Z8move_legP7LegDataf>
		move_leg(&leg4,i);
    1098:	b7 01       	movw	r22, r14
    109a:	a6 01       	movw	r20, r12
    109c:	80 ea       	ldi	r24, 0xA0	; 160
    109e:	96 e1       	ldi	r25, 0x16	; 22
    10a0:	09 dd       	rcall	.-1518   	; 0xab4 <_Z8move_legP7LegDataf>
		move_leg(&leg5,i);
    10a2:	b7 01       	movw	r22, r14
    10a4:	a6 01       	movw	r20, r12
    10a6:	86 e1       	ldi	r24, 0x16	; 22
    10a8:	96 e1       	ldi	r25, 0x16	; 22
    10aa:	04 dd       	rcall	.-1528   	; 0xab4 <_Z8move_legP7LegDataf>
		move_leg(&leg6,i);
    10ac:	b7 01       	movw	r22, r14
    10ae:	a6 01       	movw	r20, r12
    10b0:	8c e8       	ldi	r24, 0x8C	; 140
    10b2:	95 e1       	ldi	r25, 0x15	; 21
    10b4:	ff dc       	rcall	.-1538   	; 0xab4 <_Z8move_legP7LegDataf>

		SERVO_action();
    10b6:	0e 94 55 12 	call	0x24aa	; 0x24aa <_Z12SERVO_actionv>
    10ba:	2f ef       	ldi	r18, 0xFF	; 255
    10bc:	89 ef       	ldi	r24, 0xF9	; 249
    10be:	90 e0       	ldi	r25, 0x00	; 0
    10c0:	21 50       	subi	r18, 0x01	; 1
    10c2:	80 40       	sbci	r24, 0x00	; 0
    10c4:	90 40       	sbci	r25, 0x00	; 0
    10c6:	e1 f7       	brne	.-8      	; 0x10c0 <_Z10leg_motionv+0x86>
    10c8:	00 c0       	rjmp	.+0      	; 0x10ca <_Z10leg_motionv+0x90>
    10ca:	00 00       	nop
		_delay_ms(20);
		
		z = USART_get_z();
    10cc:	0e 94 d6 12 	call	0x25ac	; 0x25ac <_Z11USART_get_zv>
    10d0:	60 93 6c 15 	sts	0x156C, r22
    10d4:	70 93 6d 15 	sts	0x156D, r23
    10d8:	80 93 6e 15 	sts	0x156E, r24
    10dc:	90 93 6f 15 	sts	0x156F, r25
	SERVO_buffer_position(leg->servoGamma, leg->goalAngleGamma,(int)speedGamma);
}
void leg_motion()
{
	leg_motion_init();
	for(int i = 0; i <= (int)iterations+1; ++i)
    10e0:	21 96       	adiw	r28, 0x01	; 1
    10e2:	60 91 d0 18 	lds	r22, 0x18D0
    10e6:	70 91 d1 18 	lds	r23, 0x18D1
    10ea:	80 91 d2 18 	lds	r24, 0x18D2
    10ee:	90 91 d3 18 	lds	r25, 0x18D3
    10f2:	0e 94 98 16 	call	0x2d30	; 0x2d30 <__fixsfsi>
    10f6:	6f 5f       	subi	r22, 0xFF	; 255
    10f8:	7f 4f       	sbci	r23, 0xFF	; 255
    10fa:	6c 17       	cp	r22, r28
    10fc:	7d 07       	cpc	r23, r29
    10fe:	0c f0       	brlt	.+2      	; 0x1102 <_Z10leg_motionv+0xc8>
    1100:	b3 cf       	rjmp	.-154    	; 0x1068 <_Z10leg_motionv+0x2e>
			
		}while(!(close_enough(&leg1, tolerance) & close_enough(&leg2, tolerance) & close_enough(&leg3, tolerance) & close_enough(&leg4, tolerance) & close_enough(&leg5, tolerance) & close_enough(&leg6, tolerance)));
		*/
		
	}
}
    1102:	df 91       	pop	r29
    1104:	cf 91       	pop	r28
    1106:	ff 90       	pop	r15
    1108:	ef 90       	pop	r14
    110a:	df 90       	pop	r13
    110c:	cf 90       	pop	r12
    110e:	08 95       	ret

00001110 <_Z10move_robotiii>:


//Tar in styrkommandon (format  la Martin) och uppdaterar variabler fr positionen
//av ben fr frra steget och rknar ut position fr nsta steg.
void move_robot(int dir, int rot, int spd)
{
    1110:	2f 92       	push	r2
    1112:	3f 92       	push	r3
    1114:	4f 92       	push	r4
    1116:	5f 92       	push	r5
    1118:	6f 92       	push	r6
    111a:	7f 92       	push	r7
    111c:	8f 92       	push	r8
    111e:	9f 92       	push	r9
    1120:	af 92       	push	r10
    1122:	bf 92       	push	r11
    1124:	cf 92       	push	r12
    1126:	df 92       	push	r13
    1128:	ef 92       	push	r14
    112a:	ff 92       	push	r15
    112c:	0f 93       	push	r16
    112e:	1f 93       	push	r17
    1130:	cf 93       	push	r28
    1132:	df 93       	push	r29
    1134:	cd b7       	in	r28, 0x3d	; 61
    1136:	de b7       	in	r29, 0x3e	; 62
    1138:	6a 97       	sbiw	r28, 0x1a	; 26
    113a:	0f b6       	in	r0, 0x3f	; 63
    113c:	f8 94       	cli
    113e:	de bf       	out	0x3e, r29	; 62
    1140:	0f be       	out	0x3f, r0	; 63
    1142:	cd bf       	out	0x3d, r28	; 61
    1144:	8b 01       	movw	r16, r22
    1146:	6a 01       	movw	r12, r20
	direction = (float)dir;
    1148:	bc 01       	movw	r22, r24
    114a:	88 27       	eor	r24, r24
    114c:	77 fd       	sbrc	r23, 7
    114e:	80 95       	com	r24
    1150:	98 2f       	mov	r25, r24
    1152:	0e 94 cb 16 	call	0x2d96	; 0x2d96 <__floatsisf>
    1156:	60 93 64 15 	sts	0x1564, r22
    115a:	70 93 65 15 	sts	0x1565, r23
    115e:	80 93 66 15 	sts	0x1566, r24
    1162:	90 93 67 15 	sts	0x1567, r25
	rotation = (float)rot / 50 -1;
    1166:	b8 01       	movw	r22, r16
    1168:	88 27       	eor	r24, r24
    116a:	77 fd       	sbrc	r23, 7
    116c:	80 95       	com	r24
    116e:	98 2f       	mov	r25, r24
    1170:	0e 94 cb 16 	call	0x2d96	; 0x2d96 <__floatsisf>
    1174:	20 e0       	ldi	r18, 0x00	; 0
    1176:	30 e0       	ldi	r19, 0x00	; 0
    1178:	48 e4       	ldi	r20, 0x48	; 72
    117a:	52 e4       	ldi	r21, 0x42	; 66
    117c:	0e 94 30 16 	call	0x2c60	; 0x2c60 <__divsf3>
    1180:	20 e0       	ldi	r18, 0x00	; 0
    1182:	30 e0       	ldi	r19, 0x00	; 0
    1184:	40 e8       	ldi	r20, 0x80	; 128
    1186:	5f e3       	ldi	r21, 0x3F	; 63
    1188:	0e 94 85 15 	call	0x2b0a	; 0x2b0a <__subsf3>
    118c:	e6 2e       	mov	r14, r22
    118e:	f7 2e       	mov	r15, r23
    1190:	08 2f       	mov	r16, r24
    1192:	19 2f       	mov	r17, r25
    1194:	86 2f       	mov	r24, r22
    1196:	9f 2d       	mov	r25, r15
    1198:	a0 2f       	mov	r26, r16
    119a:	b1 2f       	mov	r27, r17
    119c:	80 93 60 15 	sts	0x1560, r24
    11a0:	90 93 61 15 	sts	0x1561, r25
    11a4:	a0 93 62 15 	sts	0x1562, r26
    11a8:	b0 93 63 15 	sts	0x1563, r27
	speedf = (float)spd;
    11ac:	b6 01       	movw	r22, r12
    11ae:	88 27       	eor	r24, r24
    11b0:	77 fd       	sbrc	r23, 7
    11b2:	80 95       	com	r24
    11b4:	98 2f       	mov	r25, r24
    11b6:	0e 94 cb 16 	call	0x2d96	; 0x2d96 <__floatsisf>
    11ba:	60 93 5c 15 	sts	0x155C, r22
    11be:	70 93 5d 15 	sts	0x155D, r23
    11c2:	80 93 5e 15 	sts	0x155E, r24
    11c6:	90 93 5f 15 	sts	0x155F, r25
	if (speedf != 0 || rotation != 0)
    11ca:	20 e0       	ldi	r18, 0x00	; 0
    11cc:	30 e0       	ldi	r19, 0x00	; 0
    11ce:	a9 01       	movw	r20, r18
    11d0:	0e 94 29 16 	call	0x2c52	; 0x2c52 <__cmpsf2>
    11d4:	81 11       	cpse	r24, r1
    11d6:	0c c0       	rjmp	.+24     	; 0x11f0 <_Z10move_robotiii+0xe0>
    11d8:	20 e0       	ldi	r18, 0x00	; 0
    11da:	30 e0       	ldi	r19, 0x00	; 0
    11dc:	a9 01       	movw	r20, r18
    11de:	6e 2d       	mov	r22, r14
    11e0:	7f 2d       	mov	r23, r15
    11e2:	80 2f       	mov	r24, r16
    11e4:	91 2f       	mov	r25, r17
    11e6:	0e 94 29 16 	call	0x2c52	; 0x2c52 <__cmpsf2>
    11ea:	88 23       	and	r24, r24
    11ec:	09 f4       	brne	.+2      	; 0x11f0 <_Z10move_robotiii+0xe0>
    11ee:	24 c4       	rjmp	.+2120   	; 0x1a38 <_Z10move_robotiii+0x928>
	{
	step_start(&leg1);
    11f0:	8e e3       	ldi	r24, 0x3E	; 62
    11f2:	98 e1       	ldi	r25, 0x18	; 24
    11f4:	52 da       	rcall	.-2908   	; 0x69a <_Z10step_startP7LegData>
	step_start(&leg2);
    11f6:	84 eb       	ldi	r24, 0xB4	; 180
    11f8:	97 e1       	ldi	r25, 0x17	; 23
    11fa:	4f da       	rcall	.-2914   	; 0x69a <_Z10step_startP7LegData>
	step_start(&leg3);
    11fc:	8a e2       	ldi	r24, 0x2A	; 42
    11fe:	97 e1       	ldi	r25, 0x17	; 23
    1200:	4c da       	rcall	.-2920   	; 0x69a <_Z10step_startP7LegData>
	step_start(&leg4);
    1202:	80 ea       	ldi	r24, 0xA0	; 160
    1204:	96 e1       	ldi	r25, 0x16	; 22
    1206:	49 da       	rcall	.-2926   	; 0x69a <_Z10step_startP7LegData>
	step_start(&leg5);
    1208:	86 e1       	ldi	r24, 0x16	; 22
    120a:	96 e1       	ldi	r25, 0x16	; 22
    120c:	46 da       	rcall	.-2932   	; 0x69a <_Z10step_startP7LegData>
	step_start(&leg6);
    120e:	8c e8       	ldi	r24, 0x8C	; 140
    1210:	95 e1       	ldi	r25, 0x15	; 21
    1212:	43 da       	rcall	.-2938   	; 0x69a <_Z10step_startP7LegData>
	
	leg1.lift = -leg1.lift;
    1214:	e2 e4       	ldi	r30, 0x42	; 66
    1216:	f8 e1       	ldi	r31, 0x18	; 24
    1218:	80 81       	ld	r24, Z
    121a:	91 81       	ldd	r25, Z+1	; 0x01
    121c:	a2 81       	ldd	r26, Z+2	; 0x02
    121e:	b3 81       	ldd	r27, Z+3	; 0x03
    1220:	b0 58       	subi	r27, 0x80	; 128
    1222:	80 83       	st	Z, r24
    1224:	91 83       	std	Z+1, r25	; 0x01
    1226:	a2 83       	std	Z+2, r26	; 0x02
    1228:	b3 83       	std	Z+3, r27	; 0x03
	leg2.lift = -leg2.lift;
    122a:	e8 eb       	ldi	r30, 0xB8	; 184
    122c:	f7 e1       	ldi	r31, 0x17	; 23
    122e:	80 81       	ld	r24, Z
    1230:	91 81       	ldd	r25, Z+1	; 0x01
    1232:	a2 81       	ldd	r26, Z+2	; 0x02
    1234:	b3 81       	ldd	r27, Z+3	; 0x03
    1236:	b0 58       	subi	r27, 0x80	; 128
    1238:	80 83       	st	Z, r24
    123a:	91 83       	std	Z+1, r25	; 0x01
    123c:	a2 83       	std	Z+2, r26	; 0x02
    123e:	b3 83       	std	Z+3, r27	; 0x03
	leg3.lift = -leg3.lift;
    1240:	ee e2       	ldi	r30, 0x2E	; 46
    1242:	f7 e1       	ldi	r31, 0x17	; 23
    1244:	80 81       	ld	r24, Z
    1246:	91 81       	ldd	r25, Z+1	; 0x01
    1248:	a2 81       	ldd	r26, Z+2	; 0x02
    124a:	b3 81       	ldd	r27, Z+3	; 0x03
    124c:	b0 58       	subi	r27, 0x80	; 128
    124e:	80 83       	st	Z, r24
    1250:	91 83       	std	Z+1, r25	; 0x01
    1252:	a2 83       	std	Z+2, r26	; 0x02
    1254:	b3 83       	std	Z+3, r27	; 0x03
	leg4.lift = -leg4.lift;
    1256:	e4 ea       	ldi	r30, 0xA4	; 164
    1258:	f6 e1       	ldi	r31, 0x16	; 22
    125a:	80 81       	ld	r24, Z
    125c:	91 81       	ldd	r25, Z+1	; 0x01
    125e:	a2 81       	ldd	r26, Z+2	; 0x02
    1260:	b3 81       	ldd	r27, Z+3	; 0x03
    1262:	b0 58       	subi	r27, 0x80	; 128
    1264:	80 83       	st	Z, r24
    1266:	91 83       	std	Z+1, r25	; 0x01
    1268:	a2 83       	std	Z+2, r26	; 0x02
    126a:	b3 83       	std	Z+3, r27	; 0x03
	leg5.lift = -leg5.lift;
    126c:	ea e1       	ldi	r30, 0x1A	; 26
    126e:	f6 e1       	ldi	r31, 0x16	; 22
    1270:	80 81       	ld	r24, Z
    1272:	91 81       	ldd	r25, Z+1	; 0x01
    1274:	a2 81       	ldd	r26, Z+2	; 0x02
    1276:	b3 81       	ldd	r27, Z+3	; 0x03
    1278:	b0 58       	subi	r27, 0x80	; 128
    127a:	80 83       	st	Z, r24
    127c:	91 83       	std	Z+1, r25	; 0x01
    127e:	a2 83       	std	Z+2, r26	; 0x02
    1280:	b3 83       	std	Z+3, r27	; 0x03
	leg6.lift = -leg6.lift;
    1282:	e0 e9       	ldi	r30, 0x90	; 144
    1284:	f5 e1       	ldi	r31, 0x15	; 21
    1286:	80 81       	ld	r24, Z
    1288:	91 81       	ldd	r25, Z+1	; 0x01
    128a:	a2 81       	ldd	r26, Z+2	; 0x02
    128c:	b3 81       	ldd	r27, Z+3	; 0x03
    128e:	b0 58       	subi	r27, 0x80	; 128
    1290:	80 83       	st	Z, r24
    1292:	91 83       	std	Z+1, r25	; 0x01
    1294:	a2 83       	std	Z+2, r26	; 0x02
    1296:	b3 83       	std	Z+3, r27	; 0x03

	//x och y riktning fr frflyttning, skalad med hastigheten
	xDirection = -sinf(direction * pi / 45) * speedf / 100;
    1298:	2b ed       	ldi	r18, 0xDB	; 219
    129a:	3f e0       	ldi	r19, 0x0F	; 15
    129c:	49 e4       	ldi	r20, 0x49	; 73
    129e:	50 e4       	ldi	r21, 0x40	; 64
    12a0:	60 91 64 15 	lds	r22, 0x1564
    12a4:	70 91 65 15 	lds	r23, 0x1565
    12a8:	80 91 66 15 	lds	r24, 0x1566
    12ac:	90 91 67 15 	lds	r25, 0x1567
    12b0:	0e 94 2f 18 	call	0x305e	; 0x305e <__mulsf3>
    12b4:	20 e0       	ldi	r18, 0x00	; 0
    12b6:	30 e0       	ldi	r19, 0x00	; 0
    12b8:	44 e3       	ldi	r20, 0x34	; 52
    12ba:	52 e4       	ldi	r21, 0x42	; 66
    12bc:	0e 94 30 16 	call	0x2c60	; 0x2c60 <__divsf3>
    12c0:	06 2f       	mov	r16, r22
    12c2:	17 2f       	mov	r17, r23
    12c4:	e8 2e       	mov	r14, r24
    12c6:	f9 2e       	mov	r15, r25
    12c8:	0e 94 92 18 	call	0x3124	; 0x3124 <sin>
    12cc:	20 91 5c 15 	lds	r18, 0x155C
    12d0:	30 91 5d 15 	lds	r19, 0x155D
    12d4:	40 91 5e 15 	lds	r20, 0x155E
    12d8:	50 91 5f 15 	lds	r21, 0x155F
    12dc:	2f 83       	std	Y+7, r18	; 0x07
    12de:	38 87       	std	Y+8, r19	; 0x08
    12e0:	49 87       	std	Y+9, r20	; 0x09
    12e2:	5a 87       	std	Y+10, r21	; 0x0a
    12e4:	90 58       	subi	r25, 0x80	; 128
    12e6:	0e 94 2f 18 	call	0x305e	; 0x305e <__mulsf3>
    12ea:	20 e0       	ldi	r18, 0x00	; 0
    12ec:	30 e0       	ldi	r19, 0x00	; 0
    12ee:	48 ec       	ldi	r20, 0xC8	; 200
    12f0:	52 e4       	ldi	r21, 0x42	; 66
    12f2:	0e 94 30 16 	call	0x2c60	; 0x2c60 <__divsf3>
    12f6:	6d 83       	std	Y+5, r22	; 0x05
    12f8:	7e 83       	std	Y+6, r23	; 0x06
    12fa:	68 2e       	mov	r6, r24
    12fc:	79 2e       	mov	r7, r25
    12fe:	36 2f       	mov	r19, r22
    1300:	27 2f       	mov	r18, r23
    1302:	98 2f       	mov	r25, r24
    1304:	43 2f       	mov	r20, r19
    1306:	52 2f       	mov	r21, r18
    1308:	69 2f       	mov	r22, r25
    130a:	77 2d       	mov	r23, r7
    130c:	40 93 58 15 	sts	0x1558, r20
    1310:	50 93 59 15 	sts	0x1559, r21
    1314:	60 93 5a 15 	sts	0x155A, r22
    1318:	70 93 5b 15 	sts	0x155B, r23
	yDirection = cosf(direction * pi / 45) * speedf / 100;
    131c:	60 2f       	mov	r22, r16
    131e:	71 2f       	mov	r23, r17
    1320:	8e 2d       	mov	r24, r14
    1322:	9f 2d       	mov	r25, r15
    1324:	0e 94 2d 16 	call	0x2c5a	; 0x2c5a <cos>
    1328:	9b 01       	movw	r18, r22
    132a:	ac 01       	movw	r20, r24
    132c:	6f 81       	ldd	r22, Y+7	; 0x07
    132e:	78 85       	ldd	r23, Y+8	; 0x08
    1330:	89 85       	ldd	r24, Y+9	; 0x09
    1332:	9a 85       	ldd	r25, Y+10	; 0x0a
    1334:	0e 94 2f 18 	call	0x305e	; 0x305e <__mulsf3>
    1338:	20 e0       	ldi	r18, 0x00	; 0
    133a:	30 e0       	ldi	r19, 0x00	; 0
    133c:	48 ec       	ldi	r20, 0xC8	; 200
    133e:	52 e4       	ldi	r21, 0x42	; 66
    1340:	0e 94 30 16 	call	0x2c60	; 0x2c60 <__divsf3>
    1344:	6b 83       	std	Y+3, r22	; 0x03
    1346:	7c 83       	std	Y+4, r23	; 0x04
    1348:	28 2e       	mov	r2, r24
    134a:	39 2e       	mov	r3, r25
    134c:	47 2f       	mov	r20, r23
    134e:	86 2f       	mov	r24, r22
    1350:	94 2f       	mov	r25, r20
    1352:	a2 2d       	mov	r26, r2
    1354:	b3 2d       	mov	r27, r3
    1356:	80 93 54 15 	sts	0x1554, r24
    135a:	90 93 55 15 	sts	0x1555, r25
    135e:	a0 93 56 15 	sts	0x1556, r26
    1362:	b0 93 57 15 	sts	0x1557, r27

	//x och y riktning fr rotation, skalad med rotationshastighet
	
	
	
	leg1.xRot = rotation * y0_1/ stdLength;
    1366:	80 90 60 15 	lds	r8, 0x1560
    136a:	90 90 61 15 	lds	r9, 0x1561
    136e:	a0 90 62 15 	lds	r10, 0x1562
    1372:	b0 90 63 15 	lds	r11, 0x1563
    1376:	c0 90 44 15 	lds	r12, 0x1544
    137a:	d0 90 45 15 	lds	r13, 0x1545
    137e:	e0 90 46 15 	lds	r14, 0x1546
    1382:	f0 90 47 15 	lds	r15, 0x1547
    1386:	2f ee       	ldi	r18, 0xEF	; 239
    1388:	35 eb       	ldi	r19, 0xB5	; 181
    138a:	4e e3       	ldi	r20, 0x3E	; 62
    138c:	53 e4       	ldi	r21, 0x43	; 67
    138e:	c5 01       	movw	r24, r10
    1390:	b4 01       	movw	r22, r8
    1392:	0e 94 2f 18 	call	0x305e	; 0x305e <__mulsf3>
    1396:	a7 01       	movw	r20, r14
    1398:	96 01       	movw	r18, r12
    139a:	0e 94 30 16 	call	0x2c60	; 0x2c60 <__divsf3>
    139e:	46 2e       	mov	r4, r22
    13a0:	57 2e       	mov	r5, r23
    13a2:	89 83       	std	Y+1, r24	; 0x01
    13a4:	9a 83       	std	Y+2, r25	; 0x02
    13a6:	38 2f       	mov	r19, r24
    13a8:	29 2f       	mov	r18, r25
    13aa:	86 2f       	mov	r24, r22
    13ac:	95 2d       	mov	r25, r5
    13ae:	a3 2f       	mov	r26, r19
    13b0:	b2 2f       	mov	r27, r18
    13b2:	80 93 46 18 	sts	0x1846, r24
    13b6:	90 93 47 18 	sts	0x1847, r25
    13ba:	a0 93 48 18 	sts	0x1848, r26
    13be:	b0 93 49 18 	sts	0x1849, r27
	leg1.yRot = rotation * x0_1 / stdLength;
    13c2:	28 e8       	ldi	r18, 0x88	; 136
    13c4:	3f e8       	ldi	r19, 0x8F	; 143
    13c6:	44 e0       	ldi	r20, 0x04	; 4
    13c8:	53 ec       	ldi	r21, 0xC3	; 195
    13ca:	c5 01       	movw	r24, r10
    13cc:	b4 01       	movw	r22, r8
    13ce:	0e 94 2f 18 	call	0x305e	; 0x305e <__mulsf3>
    13d2:	a7 01       	movw	r20, r14
    13d4:	96 01       	movw	r18, r12
    13d6:	0e 94 30 16 	call	0x2c60	; 0x2c60 <__divsf3>
    13da:	06 2f       	mov	r16, r22
    13dc:	17 2f       	mov	r17, r23
    13de:	8e 8b       	std	Y+22, r24	; 0x16
    13e0:	9d 8b       	std	Y+21, r25	; 0x15
    13e2:	38 2f       	mov	r19, r24
    13e4:	29 2f       	mov	r18, r25
    13e6:	86 2f       	mov	r24, r22
    13e8:	91 2f       	mov	r25, r17
    13ea:	a3 2f       	mov	r26, r19
    13ec:	b2 2f       	mov	r27, r18
    13ee:	80 93 4a 18 	sts	0x184A, r24
    13f2:	90 93 4b 18 	sts	0x184B, r25
    13f6:	a0 93 4c 18 	sts	0x184C, r26
    13fa:	b0 93 4d 18 	sts	0x184D, r27

	leg2.xRot = 0;
    13fe:	10 92 bc 17 	sts	0x17BC, r1
    1402:	10 92 bd 17 	sts	0x17BD, r1
    1406:	10 92 be 17 	sts	0x17BE, r1
    140a:	10 92 bf 17 	sts	0x17BF, r1
	leg2.yRot = rotation;
    140e:	80 92 c0 17 	sts	0x17C0, r8
    1412:	90 92 c1 17 	sts	0x17C1, r9
    1416:	a0 92 c2 17 	sts	0x17C2, r10
    141a:	b0 92 c3 17 	sts	0x17C3, r11

	leg3.xRot = rotation * (- y0_1 / stdLength);
    141e:	a7 01       	movw	r20, r14
    1420:	96 01       	movw	r18, r12
    1422:	6f ee       	ldi	r22, 0xEF	; 239
    1424:	75 eb       	ldi	r23, 0xB5	; 181
    1426:	8e e3       	ldi	r24, 0x3E	; 62
    1428:	93 ec       	ldi	r25, 0xC3	; 195
    142a:	0e 94 30 16 	call	0x2c60	; 0x2c60 <__divsf3>
    142e:	9b 01       	movw	r18, r22
    1430:	ac 01       	movw	r20, r24
    1432:	c5 01       	movw	r24, r10
    1434:	b4 01       	movw	r22, r8
    1436:	0e 94 2f 18 	call	0x305e	; 0x305e <__mulsf3>
    143a:	6b 87       	std	Y+11, r22	; 0x0b
    143c:	7c 87       	std	Y+12, r23	; 0x0c
    143e:	8d 87       	std	Y+13, r24	; 0x0d
    1440:	9e 87       	std	Y+14, r25	; 0x0e
    1442:	47 2f       	mov	r20, r23
    1444:	38 2f       	mov	r19, r24
    1446:	29 2f       	mov	r18, r25
    1448:	86 2f       	mov	r24, r22
    144a:	94 2f       	mov	r25, r20
    144c:	a3 2f       	mov	r26, r19
    144e:	b2 2f       	mov	r27, r18
    1450:	80 93 32 17 	sts	0x1732, r24
    1454:	90 93 33 17 	sts	0x1733, r25
    1458:	a0 93 34 17 	sts	0x1734, r26
    145c:	b0 93 35 17 	sts	0x1735, r27
	leg3.yRot = rotation * x0_1 / stdLength;
    1460:	3e 89       	ldd	r19, Y+22	; 0x16
    1462:	2d 89       	ldd	r18, Y+21	; 0x15
    1464:	80 2f       	mov	r24, r16
    1466:	91 2f       	mov	r25, r17
    1468:	a3 2f       	mov	r26, r19
    146a:	b2 2f       	mov	r27, r18
    146c:	80 93 36 17 	sts	0x1736, r24
    1470:	90 93 37 17 	sts	0x1737, r25
    1474:	a0 93 38 17 	sts	0x1738, r26
    1478:	b0 93 39 17 	sts	0x1739, r27

	leg4.xRot = rotation * (- y0_1 / stdLength);
    147c:	3d 85       	ldd	r19, Y+13	; 0x0d
    147e:	2e 85       	ldd	r18, Y+14	; 0x0e
    1480:	86 2f       	mov	r24, r22
    1482:	97 2f       	mov	r25, r23
    1484:	a3 2f       	mov	r26, r19
    1486:	b2 2f       	mov	r27, r18
    1488:	80 93 a8 16 	sts	0x16A8, r24
    148c:	90 93 a9 16 	sts	0x16A9, r25
    1490:	a0 93 aa 16 	sts	0x16AA, r26
    1494:	b0 93 ab 16 	sts	0x16AB, r27
	leg4.yRot = rotation * (- x0_1 / stdLength);
    1498:	a7 01       	movw	r20, r14
    149a:	96 01       	movw	r18, r12
    149c:	68 e8       	ldi	r22, 0x88	; 136
    149e:	7f e8       	ldi	r23, 0x8F	; 143
    14a0:	84 e0       	ldi	r24, 0x04	; 4
    14a2:	93 e4       	ldi	r25, 0x43	; 67
    14a4:	0e 94 30 16 	call	0x2c60	; 0x2c60 <__divsf3>
    14a8:	9b 01       	movw	r18, r22
    14aa:	ac 01       	movw	r20, r24
    14ac:	c5 01       	movw	r24, r10
    14ae:	b4 01       	movw	r22, r8
    14b0:	0e 94 2f 18 	call	0x305e	; 0x305e <__mulsf3>
    14b4:	6f 87       	std	Y+15, r22	; 0x0f
    14b6:	78 8b       	std	Y+16, r23	; 0x10
    14b8:	89 8b       	std	Y+17, r24	; 0x11
    14ba:	9a 8b       	std	Y+18, r25	; 0x12
    14bc:	47 2f       	mov	r20, r23
    14be:	38 2f       	mov	r19, r24
    14c0:	29 2f       	mov	r18, r25
    14c2:	86 2f       	mov	r24, r22
    14c4:	94 2f       	mov	r25, r20
    14c6:	a3 2f       	mov	r26, r19
    14c8:	b2 2f       	mov	r27, r18
    14ca:	80 93 ac 16 	sts	0x16AC, r24
    14ce:	90 93 ad 16 	sts	0x16AD, r25
    14d2:	a0 93 ae 16 	sts	0x16AE, r26
    14d6:	b0 93 af 16 	sts	0x16AF, r27

	leg5.xRot = 0;
    14da:	10 92 1e 16 	sts	0x161E, r1
    14de:	10 92 1f 16 	sts	0x161F, r1
    14e2:	10 92 20 16 	sts	0x1620, r1
    14e6:	10 92 21 16 	sts	0x1621, r1
	leg5.yRot = -rotation;
    14ea:	d5 01       	movw	r26, r10
    14ec:	c4 01       	movw	r24, r8
    14ee:	b0 58       	subi	r27, 0x80	; 128
    14f0:	80 93 22 16 	sts	0x1622, r24
    14f4:	90 93 23 16 	sts	0x1623, r25
    14f8:	a0 93 24 16 	sts	0x1624, r26
    14fc:	b0 93 25 16 	sts	0x1625, r27

	leg6.xRot = rotation  * y0_1 / stdLength;
    1500:	39 81       	ldd	r19, Y+1	; 0x01
    1502:	2a 81       	ldd	r18, Y+2	; 0x02
    1504:	84 2d       	mov	r24, r4
    1506:	95 2d       	mov	r25, r5
    1508:	a3 2f       	mov	r26, r19
    150a:	b2 2f       	mov	r27, r18
    150c:	80 93 94 15 	sts	0x1594, r24
    1510:	90 93 95 15 	sts	0x1595, r25
    1514:	a0 93 96 15 	sts	0x1596, r26
    1518:	b0 93 97 15 	sts	0x1597, r27
	leg6.yRot = rotation  * (- x0_1 / stdLength);
    151c:	39 89       	ldd	r19, Y+17	; 0x11
    151e:	2a 89       	ldd	r18, Y+18	; 0x12
    1520:	86 2f       	mov	r24, r22
    1522:	97 2f       	mov	r25, r23
    1524:	a3 2f       	mov	r26, r19
    1526:	b2 2f       	mov	r27, r18
    1528:	80 93 98 15 	sts	0x1598, r24
    152c:	90 93 99 15 	sts	0x1599, r25
    1530:	a0 93 9a 15 	sts	0x159A, r26
    1534:	b0 93 9b 15 	sts	0x159B, r27


	//Addera frflyttningarna och stter Step_max till lngsta stegets lngd
	stepMax = powf((xDirection + leg1.xRot),2) + powf((yDirection + leg1.yRot),2);
    1538:	99 81       	ldd	r25, Y+1	; 0x01
    153a:	8a 81       	ldd	r24, Y+2	; 0x02
    153c:	24 2d       	mov	r18, r4
    153e:	35 2d       	mov	r19, r5
    1540:	49 2f       	mov	r20, r25
    1542:	58 2f       	mov	r21, r24
    1544:	bd 81       	ldd	r27, Y+5	; 0x05
    1546:	ae 81       	ldd	r26, Y+6	; 0x06
    1548:	6b 2f       	mov	r22, r27
    154a:	7a 2f       	mov	r23, r26
    154c:	86 2d       	mov	r24, r6
    154e:	97 2d       	mov	r25, r7
    1550:	0e 94 86 15 	call	0x2b0c	; 0x2b0c <__addsf3>
    1554:	26 2f       	mov	r18, r22
    1556:	37 2f       	mov	r19, r23
    1558:	48 2f       	mov	r20, r24
    155a:	59 2f       	mov	r21, r25
    155c:	0e 94 2f 18 	call	0x305e	; 0x305e <__mulsf3>
    1560:	69 83       	std	Y+1, r22	; 0x01
    1562:	7a 83       	std	Y+2, r23	; 0x02
    1564:	8b 8b       	std	Y+19, r24	; 0x13
    1566:	9c 8b       	std	Y+20, r25	; 0x14
    1568:	9e 89       	ldd	r25, Y+22	; 0x16
    156a:	8d 89       	ldd	r24, Y+21	; 0x15
    156c:	20 2f       	mov	r18, r16
    156e:	31 2f       	mov	r19, r17
    1570:	49 2f       	mov	r20, r25
    1572:	58 2f       	mov	r21, r24
    1574:	bb 81       	ldd	r27, Y+3	; 0x03
    1576:	ac 81       	ldd	r26, Y+4	; 0x04
    1578:	6b 2f       	mov	r22, r27
    157a:	7a 2f       	mov	r23, r26
    157c:	82 2d       	mov	r24, r2
    157e:	93 2d       	mov	r25, r3
    1580:	0e 94 86 15 	call	0x2b0c	; 0x2b0c <__addsf3>
    1584:	26 2f       	mov	r18, r22
    1586:	37 2f       	mov	r19, r23
    1588:	48 2f       	mov	r20, r24
    158a:	59 2f       	mov	r21, r25
    158c:	0e 94 2f 18 	call	0x305e	; 0x305e <__mulsf3>
    1590:	46 2e       	mov	r4, r22
    1592:	57 2e       	mov	r5, r23
    1594:	8a 8f       	std	Y+26, r24	; 0x1a
    1596:	99 8f       	std	Y+25, r25	; 0x19
	stepTest = powf((xDirection + leg2.xRot),2) + powf((yDirection + leg2.yRot),2);
    1598:	20 e0       	ldi	r18, 0x00	; 0
    159a:	30 e0       	ldi	r19, 0x00	; 0
    159c:	a9 01       	movw	r20, r18
    159e:	bd 81       	ldd	r27, Y+5	; 0x05
    15a0:	ae 81       	ldd	r26, Y+6	; 0x06
    15a2:	6b 2f       	mov	r22, r27
    15a4:	7a 2f       	mov	r23, r26
    15a6:	86 2d       	mov	r24, r6
    15a8:	97 2d       	mov	r25, r7
    15aa:	0e 94 86 15 	call	0x2b0c	; 0x2b0c <__addsf3>
    15ae:	26 2f       	mov	r18, r22
    15b0:	37 2f       	mov	r19, r23
    15b2:	48 2f       	mov	r20, r24
    15b4:	59 2f       	mov	r21, r25
    15b6:	0e 94 2f 18 	call	0x305e	; 0x305e <__mulsf3>
    15ba:	6d 8b       	std	Y+21, r22	; 0x15
    15bc:	7e 8b       	std	Y+22, r23	; 0x16
    15be:	8f 8b       	std	Y+23, r24	; 0x17
    15c0:	98 8f       	std	Y+24, r25	; 0x18
    15c2:	a5 01       	movw	r20, r10
    15c4:	94 01       	movw	r18, r8
    15c6:	bb 81       	ldd	r27, Y+3	; 0x03
    15c8:	ac 81       	ldd	r26, Y+4	; 0x04
    15ca:	6b 2f       	mov	r22, r27
    15cc:	7a 2f       	mov	r23, r26
    15ce:	82 2d       	mov	r24, r2
    15d0:	93 2d       	mov	r25, r3
    15d2:	0e 94 86 15 	call	0x2b0c	; 0x2b0c <__addsf3>
    15d6:	26 2f       	mov	r18, r22
    15d8:	37 2f       	mov	r19, r23
    15da:	48 2f       	mov	r20, r24
    15dc:	59 2f       	mov	r21, r25
    15de:	0e 94 2f 18 	call	0x305e	; 0x305e <__mulsf3>
    15e2:	9b 01       	movw	r18, r22
    15e4:	ac 01       	movw	r20, r24
    15e6:	bd 89       	ldd	r27, Y+21	; 0x15
    15e8:	ae 89       	ldd	r26, Y+22	; 0x16
    15ea:	1f 89       	ldd	r17, Y+23	; 0x17
    15ec:	08 8d       	ldd	r16, Y+24	; 0x18
    15ee:	6b 2f       	mov	r22, r27
    15f0:	7a 2f       	mov	r23, r26
    15f2:	81 2f       	mov	r24, r17
    15f4:	90 2f       	mov	r25, r16
    15f6:	0e 94 86 15 	call	0x2b0c	; 0x2b0c <__addsf3>
    15fa:	6b 01       	movw	r12, r22
    15fc:	7c 01       	movw	r14, r24
	leg6.xRot = rotation  * y0_1 / stdLength;
	leg6.yRot = rotation  * (- x0_1 / stdLength);


	//Addera frflyttningarna och stter Step_max till lngsta stegets lngd
	stepMax = powf((xDirection + leg1.xRot),2) + powf((yDirection + leg1.yRot),2);
    15fe:	9a 8d       	ldd	r25, Y+26	; 0x1a
    1600:	89 8d       	ldd	r24, Y+25	; 0x19
    1602:	24 2d       	mov	r18, r4
    1604:	35 2d       	mov	r19, r5
    1606:	49 2f       	mov	r20, r25
    1608:	58 2f       	mov	r21, r24
    160a:	b9 81       	ldd	r27, Y+1	; 0x01
    160c:	aa 81       	ldd	r26, Y+2	; 0x02
    160e:	1b 89       	ldd	r17, Y+19	; 0x13
    1610:	0c 89       	ldd	r16, Y+20	; 0x14
    1612:	6b 2f       	mov	r22, r27
    1614:	7a 2f       	mov	r23, r26
    1616:	81 2f       	mov	r24, r17
    1618:	90 2f       	mov	r25, r16
    161a:	0e 94 86 15 	call	0x2b0c	; 0x2b0c <__addsf3>
	stepTest = powf((xDirection + leg2.xRot),2) + powf((yDirection + leg2.yRot),2);
	stepMax = fmaxf(stepMax, stepTest);
    161e:	a7 01       	movw	r20, r14
    1620:	96 01       	movw	r18, r12
    1622:	0e 94 06 17 	call	0x2e0c	; 0x2e0c <fmax>
    1626:	6b 01       	movw	r12, r22
    1628:	7c 01       	movw	r14, r24

	stepTest = powf((xDirection + leg3.xRot),2) + powf((yDirection + leg3.yRot),2);
    162a:	7b 85       	ldd	r23, Y+11	; 0x0b
    162c:	6c 85       	ldd	r22, Y+12	; 0x0c
    162e:	9d 85       	ldd	r25, Y+13	; 0x0d
    1630:	8e 85       	ldd	r24, Y+14	; 0x0e
    1632:	27 2f       	mov	r18, r23
    1634:	36 2f       	mov	r19, r22
    1636:	49 2f       	mov	r20, r25
    1638:	58 2f       	mov	r21, r24
    163a:	bd 81       	ldd	r27, Y+5	; 0x05
    163c:	ae 81       	ldd	r26, Y+6	; 0x06
    163e:	6b 2f       	mov	r22, r27
    1640:	7a 2f       	mov	r23, r26
    1642:	86 2d       	mov	r24, r6
    1644:	97 2d       	mov	r25, r7
    1646:	0e 94 86 15 	call	0x2b0c	; 0x2b0c <__addsf3>
    164a:	26 2f       	mov	r18, r22
    164c:	37 2f       	mov	r19, r23
    164e:	48 2f       	mov	r20, r24
    1650:	59 2f       	mov	r21, r25
    1652:	0e 94 2f 18 	call	0x305e	; 0x305e <__mulsf3>
    1656:	66 2e       	mov	r6, r22
    1658:	77 2e       	mov	r7, r23
    165a:	08 2f       	mov	r16, r24
    165c:	19 2f       	mov	r17, r25
    165e:	76 2f       	mov	r23, r22
    1660:	27 2f       	mov	r18, r23
    1662:	37 2d       	mov	r19, r7
    1664:	40 2f       	mov	r20, r16
    1666:	51 2f       	mov	r21, r17
    1668:	fa 8d       	ldd	r31, Y+26	; 0x1a
    166a:	e9 8d       	ldd	r30, Y+25	; 0x19
    166c:	64 2d       	mov	r22, r4
    166e:	75 2d       	mov	r23, r5
    1670:	8f 2f       	mov	r24, r31
    1672:	9e 2f       	mov	r25, r30
    1674:	0e 94 86 15 	call	0x2b0c	; 0x2b0c <__addsf3>
    1678:	9b 01       	movw	r18, r22
    167a:	ac 01       	movw	r20, r24
	stepMax = fmaxf(stepMax, stepTest);
    167c:	c7 01       	movw	r24, r14
    167e:	b6 01       	movw	r22, r12
    1680:	0e 94 06 17 	call	0x2e0c	; 0x2e0c <fmax>
    1684:	6b 01       	movw	r12, r22
    1686:	7c 01       	movw	r14, r24

	stepTest = powf((xDirection + leg4.xRot),2) + powf((yDirection + leg4.yRot),2);
    1688:	7f 85       	ldd	r23, Y+15	; 0x0f
    168a:	68 89       	ldd	r22, Y+16	; 0x10
    168c:	99 89       	ldd	r25, Y+17	; 0x11
    168e:	8a 89       	ldd	r24, Y+18	; 0x12
    1690:	27 2f       	mov	r18, r23
    1692:	36 2f       	mov	r19, r22
    1694:	49 2f       	mov	r20, r25
    1696:	58 2f       	mov	r21, r24
    1698:	bb 81       	ldd	r27, Y+3	; 0x03
    169a:	ac 81       	ldd	r26, Y+4	; 0x04
    169c:	6b 2f       	mov	r22, r27
    169e:	7a 2f       	mov	r23, r26
    16a0:	82 2d       	mov	r24, r2
    16a2:	93 2d       	mov	r25, r3
    16a4:	0e 94 86 15 	call	0x2b0c	; 0x2b0c <__addsf3>
    16a8:	26 2f       	mov	r18, r22
    16aa:	37 2f       	mov	r19, r23
    16ac:	48 2f       	mov	r20, r24
    16ae:	59 2f       	mov	r21, r25
    16b0:	0e 94 2f 18 	call	0x305e	; 0x305e <__mulsf3>
    16b4:	46 2e       	mov	r4, r22
    16b6:	57 2e       	mov	r5, r23
    16b8:	8e 83       	std	Y+6, r24	; 0x06
    16ba:	9d 83       	std	Y+5, r25	; 0x05
    16bc:	76 2f       	mov	r23, r22
    16be:	98 2f       	mov	r25, r24
    16c0:	8d 81       	ldd	r24, Y+5	; 0x05
    16c2:	27 2f       	mov	r18, r23
    16c4:	35 2d       	mov	r19, r5
    16c6:	49 2f       	mov	r20, r25
    16c8:	58 2f       	mov	r21, r24
    16ca:	66 2d       	mov	r22, r6
    16cc:	77 2d       	mov	r23, r7
    16ce:	80 2f       	mov	r24, r16
    16d0:	91 2f       	mov	r25, r17
    16d2:	0e 94 86 15 	call	0x2b0c	; 0x2b0c <__addsf3>
    16d6:	9b 01       	movw	r18, r22
    16d8:	ac 01       	movw	r20, r24
	stepMax = fmaxf(stepMax, stepTest);
    16da:	c7 01       	movw	r24, r14
    16dc:	b6 01       	movw	r22, r12
    16de:	0e 94 06 17 	call	0x2e0c	; 0x2e0c <fmax>
    16e2:	6b 01       	movw	r12, r22
    16e4:	7c 01       	movw	r14, r24

	stepTest = powf((xDirection + leg5.xRot),2) + powf((yDirection + leg5.yRot),2);
    16e6:	a5 01       	movw	r20, r10
    16e8:	94 01       	movw	r18, r8
    16ea:	bb 81       	ldd	r27, Y+3	; 0x03
    16ec:	ac 81       	ldd	r26, Y+4	; 0x04
    16ee:	6b 2f       	mov	r22, r27
    16f0:	7a 2f       	mov	r23, r26
    16f2:	82 2d       	mov	r24, r2
    16f4:	93 2d       	mov	r25, r3
    16f6:	0e 94 85 15 	call	0x2b0a	; 0x2b0a <__subsf3>
    16fa:	26 2f       	mov	r18, r22
    16fc:	37 2f       	mov	r19, r23
    16fe:	48 2f       	mov	r20, r24
    1700:	59 2f       	mov	r21, r25
    1702:	0e 94 2f 18 	call	0x305e	; 0x305e <__mulsf3>
    1706:	9b 01       	movw	r18, r22
    1708:	ac 01       	movw	r20, r24
    170a:	bd 89       	ldd	r27, Y+21	; 0x15
    170c:	ae 89       	ldd	r26, Y+22	; 0x16
    170e:	1f 89       	ldd	r17, Y+23	; 0x17
    1710:	08 8d       	ldd	r16, Y+24	; 0x18
    1712:	6b 2f       	mov	r22, r27
    1714:	7a 2f       	mov	r23, r26
    1716:	81 2f       	mov	r24, r17
    1718:	90 2f       	mov	r25, r16
    171a:	0e 94 86 15 	call	0x2b0c	; 0x2b0c <__addsf3>
    171e:	9b 01       	movw	r18, r22
    1720:	ac 01       	movw	r20, r24
	stepMax = fmaxf(stepMax, stepTest);
    1722:	c7 01       	movw	r24, r14
    1724:	b6 01       	movw	r22, r12
    1726:	0e 94 06 17 	call	0x2e0c	; 0x2e0c <fmax>
    172a:	6b 01       	movw	r12, r22
    172c:	7c 01       	movw	r14, r24

	stepTest = powf((xDirection + leg6.xRot),2) + powf((yDirection + leg6.yRot),2);
    172e:	9e 81       	ldd	r25, Y+6	; 0x06
    1730:	8d 81       	ldd	r24, Y+5	; 0x05
    1732:	24 2d       	mov	r18, r4
    1734:	35 2d       	mov	r19, r5
    1736:	49 2f       	mov	r20, r25
    1738:	58 2f       	mov	r21, r24
    173a:	b9 81       	ldd	r27, Y+1	; 0x01
    173c:	aa 81       	ldd	r26, Y+2	; 0x02
    173e:	eb 89       	ldd	r30, Y+19	; 0x13
    1740:	1c 89       	ldd	r17, Y+20	; 0x14
    1742:	6b 2f       	mov	r22, r27
    1744:	7a 2f       	mov	r23, r26
    1746:	8e 2f       	mov	r24, r30
    1748:	91 2f       	mov	r25, r17
    174a:	0e 94 86 15 	call	0x2b0c	; 0x2b0c <__addsf3>
    174e:	26 2f       	mov	r18, r22
    1750:	37 2f       	mov	r19, r23
    1752:	46 2f       	mov	r20, r22
    1754:	57 2f       	mov	r21, r23
    1756:	68 2f       	mov	r22, r24
    1758:	79 2f       	mov	r23, r25
    175a:	40 93 4c 15 	sts	0x154C, r20
    175e:	50 93 4d 15 	sts	0x154D, r21
    1762:	60 93 4e 15 	sts	0x154E, r22
    1766:	70 93 4f 15 	sts	0x154F, r23
	stepMax = fmaxf(stepMax, stepTest);
    176a:	48 2f       	mov	r20, r24
    176c:	59 2f       	mov	r21, r25
    176e:	c7 01       	movw	r24, r14
    1770:	b6 01       	movw	r22, r12
    1772:	0e 94 06 17 	call	0x2e0c	; 0x2e0c <fmax>
	
	stepMax =sqrtf(stepMax);
    1776:	0e 94 9c 18 	call	0x3138	; 0x3138 <sqrt>
    177a:	60 93 50 15 	sts	0x1550, r22
    177e:	70 93 51 15 	sts	0x1551, r23
    1782:	80 93 52 15 	sts	0x1552, r24
    1786:	90 93 53 15 	sts	0x1553, r25


	//Stegskalning fr att inte alltid ta max lngd p steg;
	stepScaling = fmaxf(speedf/100, fabsf(rotation));
    178a:	75 01       	movw	r14, r10
    178c:	64 01       	movw	r12, r8
    178e:	e8 94       	clt
    1790:	f7 f8       	bld	r15, 7
    1792:	20 e0       	ldi	r18, 0x00	; 0
    1794:	30 e0       	ldi	r19, 0x00	; 0
    1796:	48 ec       	ldi	r20, 0xC8	; 200
    1798:	52 e4       	ldi	r21, 0x42	; 66
    179a:	6f 81       	ldd	r22, Y+7	; 0x07
    179c:	78 85       	ldd	r23, Y+8	; 0x08
    179e:	89 85       	ldd	r24, Y+9	; 0x09
    17a0:	9a 85       	ldd	r25, Y+10	; 0x0a
    17a2:	0e 94 30 16 	call	0x2c60	; 0x2c60 <__divsf3>
    17a6:	a7 01       	movw	r20, r14
    17a8:	96 01       	movw	r18, r12
    17aa:	0e 94 06 17 	call	0x2e0c	; 0x2e0c <fmax>
    17ae:	60 93 48 15 	sts	0x1548, r22
    17b2:	70 93 49 15 	sts	0x1549, r23
    17b6:	80 93 4a 15 	sts	0x154A, r24
    17ba:	90 93 4b 15 	sts	0x154B, r25


	//Uppdatera vinklar fr nya steget


	step_part1_calculator(&leg1);
    17be:	8e e3       	ldi	r24, 0x3E	; 62
    17c0:	98 e1       	ldi	r25, 0x18	; 24
    17c2:	0e 94 7f 03 	call	0x6fe	; 0x6fe <_Z21step_part1_calculatorP7LegData>
	leg1.newPosx = basis_change_leg1x(newPosxWB,newPosyWB);
    17c6:	20 91 c8 18 	lds	r18, 0x18C8
    17ca:	30 91 c9 18 	lds	r19, 0x18C9
    17ce:	40 91 ca 18 	lds	r20, 0x18CA
    17d2:	50 91 cb 18 	lds	r21, 0x18CB
    17d6:	60 91 cc 18 	lds	r22, 0x18CC
    17da:	70 91 cd 18 	lds	r23, 0x18CD
    17de:	80 91 ce 18 	lds	r24, 0x18CE
    17e2:	90 91 cf 18 	lds	r25, 0x18CF
    17e6:	86 d3       	rcall	.+1804   	; 0x1ef4 <_Z18basis_change_leg1xff>
    17e8:	60 93 52 18 	sts	0x1852, r22
    17ec:	70 93 53 18 	sts	0x1853, r23
    17f0:	80 93 54 18 	sts	0x1854, r24
    17f4:	90 93 55 18 	sts	0x1855, r25
	leg1.newPosy = basis_change_leg1y(newPosxWB,newPosyWB);
    17f8:	20 91 c8 18 	lds	r18, 0x18C8
    17fc:	30 91 c9 18 	lds	r19, 0x18C9
    1800:	40 91 ca 18 	lds	r20, 0x18CA
    1804:	50 91 cb 18 	lds	r21, 0x18CB
    1808:	60 91 cc 18 	lds	r22, 0x18CC
    180c:	70 91 cd 18 	lds	r23, 0x18CD
    1810:	80 91 ce 18 	lds	r24, 0x18CE
    1814:	90 91 cf 18 	lds	r25, 0x18CF
    1818:	a7 d3       	rcall	.+1870   	; 0x1f68 <_Z18basis_change_leg1yff>
    181a:	60 93 56 18 	sts	0x1856, r22
    181e:	70 93 57 18 	sts	0x1857, r23
    1822:	80 93 58 18 	sts	0x1858, r24
    1826:	90 93 59 18 	sts	0x1859, r25
	step_part2_calculator(&leg1);
    182a:	8e e3       	ldi	r24, 0x3E	; 62
    182c:	98 e1       	ldi	r25, 0x18	; 24
    182e:	0e 94 ff 03 	call	0x7fe	; 0x7fe <_Z21step_part2_calculatorP7LegData>
	
	step_part1_calculator(&leg2);
    1832:	84 eb       	ldi	r24, 0xB4	; 180
    1834:	97 e1       	ldi	r25, 0x17	; 23
    1836:	0e 94 7f 03 	call	0x6fe	; 0x6fe <_Z21step_part1_calculatorP7LegData>
	leg2.newPosx = basis_change_leg2x(newPosxWB);
    183a:	60 91 cc 18 	lds	r22, 0x18CC
    183e:	70 91 cd 18 	lds	r23, 0x18CD
    1842:	80 91 ce 18 	lds	r24, 0x18CE
    1846:	90 91 cf 18 	lds	r25, 0x18CF
    184a:	c8 d3       	rcall	.+1936   	; 0x1fdc <_Z18basis_change_leg2xf>
    184c:	60 93 c8 17 	sts	0x17C8, r22
    1850:	70 93 c9 17 	sts	0x17C9, r23
    1854:	80 93 ca 17 	sts	0x17CA, r24
    1858:	90 93 cb 17 	sts	0x17CB, r25
	leg2.newPosy = basis_change_leg2y(newPosyWB);
    185c:	60 91 c8 18 	lds	r22, 0x18C8
    1860:	70 91 c9 18 	lds	r23, 0x18C9
    1864:	80 91 ca 18 	lds	r24, 0x18CA
    1868:	90 91 cb 18 	lds	r25, 0x18CB
    186c:	c9 d3       	rcall	.+1938   	; 0x2000 <_Z18basis_change_leg2yf>
    186e:	60 93 cc 17 	sts	0x17CC, r22
    1872:	70 93 cd 17 	sts	0x17CD, r23
    1876:	80 93 ce 17 	sts	0x17CE, r24
    187a:	90 93 cf 17 	sts	0x17CF, r25
	step_part2_calculator(&leg2);
    187e:	84 eb       	ldi	r24, 0xB4	; 180
    1880:	97 e1       	ldi	r25, 0x17	; 23
    1882:	0e 94 ff 03 	call	0x7fe	; 0x7fe <_Z21step_part2_calculatorP7LegData>
		
	step_part1_calculator(&leg3);
    1886:	8a e2       	ldi	r24, 0x2A	; 42
    1888:	97 e1       	ldi	r25, 0x17	; 23
    188a:	0e 94 7f 03 	call	0x6fe	; 0x6fe <_Z21step_part1_calculatorP7LegData>
	leg3.newPosx = basis_change_leg3x(newPosxWB,newPosyWB);
    188e:	20 91 c8 18 	lds	r18, 0x18C8
    1892:	30 91 c9 18 	lds	r19, 0x18C9
    1896:	40 91 ca 18 	lds	r20, 0x18CA
    189a:	50 91 cb 18 	lds	r21, 0x18CB
    189e:	60 91 cc 18 	lds	r22, 0x18CC
    18a2:	70 91 cd 18 	lds	r23, 0x18CD
    18a6:	80 91 ce 18 	lds	r24, 0x18CE
    18aa:	90 91 cf 18 	lds	r25, 0x18CF
    18ae:	b4 d3       	rcall	.+1896   	; 0x2018 <_Z18basis_change_leg3xff>
    18b0:	60 93 3e 17 	sts	0x173E, r22
    18b4:	70 93 3f 17 	sts	0x173F, r23
    18b8:	80 93 40 17 	sts	0x1740, r24
    18bc:	90 93 41 17 	sts	0x1741, r25
	leg3.newPosy = basis_change_leg3y(newPosxWB,newPosyWB);
    18c0:	20 91 c8 18 	lds	r18, 0x18C8
    18c4:	30 91 c9 18 	lds	r19, 0x18C9
    18c8:	40 91 ca 18 	lds	r20, 0x18CA
    18cc:	50 91 cb 18 	lds	r21, 0x18CB
    18d0:	60 91 cc 18 	lds	r22, 0x18CC
    18d4:	70 91 cd 18 	lds	r23, 0x18CD
    18d8:	80 91 ce 18 	lds	r24, 0x18CE
    18dc:	90 91 cf 18 	lds	r25, 0x18CF
    18e0:	d5 d3       	rcall	.+1962   	; 0x208c <_Z18basis_change_leg3yff>
    18e2:	60 93 42 17 	sts	0x1742, r22
    18e6:	70 93 43 17 	sts	0x1743, r23
    18ea:	80 93 44 17 	sts	0x1744, r24
    18ee:	90 93 45 17 	sts	0x1745, r25
	step_part2_calculator(&leg3);
    18f2:	8a e2       	ldi	r24, 0x2A	; 42
    18f4:	97 e1       	ldi	r25, 0x17	; 23
    18f6:	0e 94 ff 03 	call	0x7fe	; 0x7fe <_Z21step_part2_calculatorP7LegData>
			
	step_part1_calculator(&leg4);
    18fa:	80 ea       	ldi	r24, 0xA0	; 160
    18fc:	96 e1       	ldi	r25, 0x16	; 22
    18fe:	0e 94 7f 03 	call	0x6fe	; 0x6fe <_Z21step_part1_calculatorP7LegData>
	leg4.newPosx = basis_change_leg4x(newPosxWB,newPosyWB);
    1902:	20 91 c8 18 	lds	r18, 0x18C8
    1906:	30 91 c9 18 	lds	r19, 0x18C9
    190a:	40 91 ca 18 	lds	r20, 0x18CA
    190e:	50 91 cb 18 	lds	r21, 0x18CB
    1912:	60 91 cc 18 	lds	r22, 0x18CC
    1916:	70 91 cd 18 	lds	r23, 0x18CD
    191a:	80 91 ce 18 	lds	r24, 0x18CE
    191e:	90 91 cf 18 	lds	r25, 0x18CF
    1922:	ee d3       	rcall	.+2012   	; 0x2100 <_Z18basis_change_leg4xff>
    1924:	60 93 b4 16 	sts	0x16B4, r22
    1928:	70 93 b5 16 	sts	0x16B5, r23
    192c:	80 93 b6 16 	sts	0x16B6, r24
    1930:	90 93 b7 16 	sts	0x16B7, r25
	leg4.newPosy = basis_change_leg4y(newPosxWB,newPosyWB);
    1934:	20 91 c8 18 	lds	r18, 0x18C8
    1938:	30 91 c9 18 	lds	r19, 0x18C9
    193c:	40 91 ca 18 	lds	r20, 0x18CA
    1940:	50 91 cb 18 	lds	r21, 0x18CB
    1944:	60 91 cc 18 	lds	r22, 0x18CC
    1948:	70 91 cd 18 	lds	r23, 0x18CD
    194c:	80 91 ce 18 	lds	r24, 0x18CE
    1950:	90 91 cf 18 	lds	r25, 0x18CF
    1954:	0f d4       	rcall	.+2078   	; 0x2174 <_Z18basis_change_leg4yff>
    1956:	60 93 b8 16 	sts	0x16B8, r22
    195a:	70 93 b9 16 	sts	0x16B9, r23
    195e:	80 93 ba 16 	sts	0x16BA, r24
    1962:	90 93 bb 16 	sts	0x16BB, r25
	step_part2_calculator(&leg4);
    1966:	80 ea       	ldi	r24, 0xA0	; 160
    1968:	96 e1       	ldi	r25, 0x16	; 22
    196a:	0e 94 ff 03 	call	0x7fe	; 0x7fe <_Z21step_part2_calculatorP7LegData>
				
	step_part1_calculator(&leg5);
    196e:	86 e1       	ldi	r24, 0x16	; 22
    1970:	96 e1       	ldi	r25, 0x16	; 22
    1972:	0e 94 7f 03 	call	0x6fe	; 0x6fe <_Z21step_part1_calculatorP7LegData>
	leg5.newPosx = basis_change_leg5x(newPosxWB);
    1976:	60 91 cc 18 	lds	r22, 0x18CC
    197a:	70 91 cd 18 	lds	r23, 0x18CD
    197e:	80 91 ce 18 	lds	r24, 0x18CE
    1982:	90 91 cf 18 	lds	r25, 0x18CF
    1986:	30 d4       	rcall	.+2144   	; 0x21e8 <_Z18basis_change_leg5xf>
    1988:	60 93 2a 16 	sts	0x162A, r22
    198c:	70 93 2b 16 	sts	0x162B, r23
    1990:	80 93 2c 16 	sts	0x162C, r24
    1994:	90 93 2d 16 	sts	0x162D, r25
	leg5.newPosy = basis_change_leg5y(newPosyWB);
    1998:	60 91 c8 18 	lds	r22, 0x18C8
    199c:	70 91 c9 18 	lds	r23, 0x18C9
    19a0:	80 91 ca 18 	lds	r24, 0x18CA
    19a4:	90 91 cb 18 	lds	r25, 0x18CB
    19a8:	29 d4       	rcall	.+2130   	; 0x21fc <_Z18basis_change_leg5yf>
    19aa:	60 93 2e 16 	sts	0x162E, r22
    19ae:	70 93 2f 16 	sts	0x162F, r23
    19b2:	80 93 30 16 	sts	0x1630, r24
    19b6:	90 93 31 16 	sts	0x1631, r25
	step_part2_calculator(&leg5);
    19ba:	86 e1       	ldi	r24, 0x16	; 22
    19bc:	96 e1       	ldi	r25, 0x16	; 22
    19be:	0e 94 ff 03 	call	0x7fe	; 0x7fe <_Z21step_part2_calculatorP7LegData>
					
	step_part1_calculator(&leg6);
    19c2:	8c e8       	ldi	r24, 0x8C	; 140
    19c4:	95 e1       	ldi	r25, 0x15	; 21
    19c6:	0e 94 7f 03 	call	0x6fe	; 0x6fe <_Z21step_part1_calculatorP7LegData>
	leg6.newPosx = basis_change_leg6x(newPosxWB,newPosyWB);
    19ca:	20 91 c8 18 	lds	r18, 0x18C8
    19ce:	30 91 c9 18 	lds	r19, 0x18C9
    19d2:	40 91 ca 18 	lds	r20, 0x18CA
    19d6:	50 91 cb 18 	lds	r21, 0x18CB
    19da:	60 91 cc 18 	lds	r22, 0x18CC
    19de:	70 91 cd 18 	lds	r23, 0x18CD
    19e2:	80 91 ce 18 	lds	r24, 0x18CE
    19e6:	90 91 cf 18 	lds	r25, 0x18CF
    19ea:	0c d4       	rcall	.+2072   	; 0x2204 <_Z18basis_change_leg6xff>
    19ec:	60 93 a0 15 	sts	0x15A0, r22
    19f0:	70 93 a1 15 	sts	0x15A1, r23
    19f4:	80 93 a2 15 	sts	0x15A2, r24
    19f8:	90 93 a3 15 	sts	0x15A3, r25
	leg6.newPosy = basis_change_leg6y(newPosxWB,newPosyWB);
    19fc:	20 91 c8 18 	lds	r18, 0x18C8
    1a00:	30 91 c9 18 	lds	r19, 0x18C9
    1a04:	40 91 ca 18 	lds	r20, 0x18CA
    1a08:	50 91 cb 18 	lds	r21, 0x18CB
    1a0c:	60 91 cc 18 	lds	r22, 0x18CC
    1a10:	70 91 cd 18 	lds	r23, 0x18CD
    1a14:	80 91 ce 18 	lds	r24, 0x18CE
    1a18:	90 91 cf 18 	lds	r25, 0x18CF
    1a1c:	2d d4       	rcall	.+2138   	; 0x2278 <_Z18basis_change_leg6yff>
    1a1e:	60 93 a4 15 	sts	0x15A4, r22
    1a22:	70 93 a5 15 	sts	0x15A5, r23
    1a26:	80 93 a6 15 	sts	0x15A6, r24
    1a2a:	90 93 a7 15 	sts	0x15A7, r25
	step_part2_calculator(&leg6);
    1a2e:	8c e8       	ldi	r24, 0x8C	; 140
    1a30:	95 e1       	ldi	r25, 0x15	; 21
    1a32:	0e 94 ff 03 	call	0x7fe	; 0x7fe <_Z21step_part2_calculatorP7LegData>

	leg_motion();
    1a36:	01 db       	rcall	.-2558   	; 0x103a <_Z10leg_motionv>
	}
}
    1a38:	6a 96       	adiw	r28, 0x1a	; 26
    1a3a:	0f b6       	in	r0, 0x3f	; 63
    1a3c:	f8 94       	cli
    1a3e:	de bf       	out	0x3e, r29	; 62
    1a40:	0f be       	out	0x3f, r0	; 63
    1a42:	cd bf       	out	0x3d, r28	; 61
    1a44:	df 91       	pop	r29
    1a46:	cf 91       	pop	r28
    1a48:	1f 91       	pop	r17
    1a4a:	0f 91       	pop	r16
    1a4c:	ff 90       	pop	r15
    1a4e:	ef 90       	pop	r14
    1a50:	df 90       	pop	r13
    1a52:	cf 90       	pop	r12
    1a54:	bf 90       	pop	r11
    1a56:	af 90       	pop	r10
    1a58:	9f 90       	pop	r9
    1a5a:	8f 90       	pop	r8
    1a5c:	7f 90       	pop	r7
    1a5e:	6f 90       	pop	r6
    1a60:	5f 90       	pop	r5
    1a62:	4f 90       	pop	r4
    1a64:	3f 90       	pop	r3
    1a66:	2f 90       	pop	r2
    1a68:	08 95       	ret

00001a6a <_Z11move_to_stdv>:
		
	}
}

void move_to_std()
{
    1a6a:	2f 92       	push	r2
    1a6c:	3f 92       	push	r3
    1a6e:	4f 92       	push	r4
    1a70:	5f 92       	push	r5
    1a72:	6f 92       	push	r6
    1a74:	7f 92       	push	r7
    1a76:	8f 92       	push	r8
    1a78:	9f 92       	push	r9
    1a7a:	af 92       	push	r10
    1a7c:	bf 92       	push	r11
    1a7e:	cf 92       	push	r12
    1a80:	df 92       	push	r13
    1a82:	ef 92       	push	r14
    1a84:	ff 92       	push	r15
    1a86:	0f 93       	push	r16
    1a88:	1f 93       	push	r17
    1a8a:	cf 93       	push	r28
    1a8c:	df 93       	push	r29
	
	z = USART_get_z();
    1a8e:	8e d5       	rcall	.+2844   	; 0x25ac <_Z11USART_get_zv>
    1a90:	60 93 6c 15 	sts	0x156C, r22
    1a94:	70 93 6d 15 	sts	0x156D, r23
    1a98:	80 93 6e 15 	sts	0x156E, r24
    1a9c:	90 93 6f 15 	sts	0x156F, r25
	
	leg1.lift = -1;
    1aa0:	0f 2e       	mov	r0, r31
    1aa2:	81 2c       	mov	r8, r1
    1aa4:	91 2c       	mov	r9, r1
    1aa6:	f0 e8       	ldi	r31, 0x80	; 128
    1aa8:	af 2e       	mov	r10, r31
    1aaa:	ff eb       	ldi	r31, 0xBF	; 191
    1aac:	bf 2e       	mov	r11, r31
    1aae:	f0 2d       	mov	r31, r0
    1ab0:	e2 e4       	ldi	r30, 0x42	; 66
    1ab2:	f8 e1       	ldi	r31, 0x18	; 24
    1ab4:	80 82       	st	Z, r8
    1ab6:	91 82       	std	Z+1, r9	; 0x01
    1ab8:	a2 82       	std	Z+2, r10	; 0x02
    1aba:	b3 82       	std	Z+3, r11	; 0x03
	leg2.lift = 1;
    1abc:	0f 2e       	mov	r0, r31
    1abe:	41 2c       	mov	r4, r1
    1ac0:	51 2c       	mov	r5, r1
    1ac2:	f0 e8       	ldi	r31, 0x80	; 128
    1ac4:	6f 2e       	mov	r6, r31
    1ac6:	ff e3       	ldi	r31, 0x3F	; 63
    1ac8:	7f 2e       	mov	r7, r31
    1aca:	f0 2d       	mov	r31, r0
    1acc:	e8 eb       	ldi	r30, 0xB8	; 184
    1ace:	f7 e1       	ldi	r31, 0x17	; 23
    1ad0:	40 82       	st	Z, r4
    1ad2:	51 82       	std	Z+1, r5	; 0x01
    1ad4:	62 82       	std	Z+2, r6	; 0x02
    1ad6:	73 82       	std	Z+3, r7	; 0x03
	leg3.lift = -1;
    1ad8:	ee e2       	ldi	r30, 0x2E	; 46
    1ada:	f7 e1       	ldi	r31, 0x17	; 23
    1adc:	80 82       	st	Z, r8
    1ade:	91 82       	std	Z+1, r9	; 0x01
    1ae0:	a2 82       	std	Z+2, r10	; 0x02
    1ae2:	b3 82       	std	Z+3, r11	; 0x03
	leg4.lift = 1;
    1ae4:	0f 2e       	mov	r0, r31
    1ae6:	f4 ea       	ldi	r31, 0xA4	; 164
    1ae8:	2f 2e       	mov	r2, r31
    1aea:	f6 e1       	ldi	r31, 0x16	; 22
    1aec:	3f 2e       	mov	r3, r31
    1aee:	f0 2d       	mov	r31, r0
    1af0:	f1 01       	movw	r30, r2
    1af2:	40 82       	st	Z, r4
    1af4:	51 82       	std	Z+1, r5	; 0x01
    1af6:	62 82       	std	Z+2, r6	; 0x02
    1af8:	73 82       	std	Z+3, r7	; 0x03
	leg5.lift = -1;
    1afa:	0a e1       	ldi	r16, 0x1A	; 26
    1afc:	16 e1       	ldi	r17, 0x16	; 22
    1afe:	f8 01       	movw	r30, r16
    1b00:	80 82       	st	Z, r8
    1b02:	91 82       	std	Z+1, r9	; 0x01
    1b04:	a2 82       	std	Z+2, r10	; 0x02
    1b06:	b3 82       	std	Z+3, r11	; 0x03
	leg6.lift = 1;
    1b08:	c0 e9       	ldi	r28, 0x90	; 144
    1b0a:	d5 e1       	ldi	r29, 0x15	; 21
    1b0c:	48 82       	st	Y, r4
    1b0e:	59 82       	std	Y+1, r5	; 0x01
    1b10:	6a 82       	std	Y+2, r6	; 0x02
    1b12:	7b 82       	std	Y+3, r7	; 0x03
	
	step_start(&leg1);
    1b14:	8e e3       	ldi	r24, 0x3E	; 62
    1b16:	98 e1       	ldi	r25, 0x18	; 24
    1b18:	0e 94 4d 03 	call	0x69a	; 0x69a <_Z10step_startP7LegData>
	step_start(&leg2);
    1b1c:	84 eb       	ldi	r24, 0xB4	; 180
    1b1e:	97 e1       	ldi	r25, 0x17	; 23
    1b20:	0e 94 4d 03 	call	0x69a	; 0x69a <_Z10step_startP7LegData>
	step_start(&leg3);
    1b24:	8a e2       	ldi	r24, 0x2A	; 42
    1b26:	97 e1       	ldi	r25, 0x17	; 23
    1b28:	0e 94 4d 03 	call	0x69a	; 0x69a <_Z10step_startP7LegData>
	step_start(&leg4);
    1b2c:	80 ea       	ldi	r24, 0xA0	; 160
    1b2e:	96 e1       	ldi	r25, 0x16	; 22
    1b30:	0e 94 4d 03 	call	0x69a	; 0x69a <_Z10step_startP7LegData>
	step_start(&leg5);
    1b34:	86 e1       	ldi	r24, 0x16	; 22
    1b36:	96 e1       	ldi	r25, 0x16	; 22
    1b38:	0e 94 4d 03 	call	0x69a	; 0x69a <_Z10step_startP7LegData>
	step_start(&leg6);
    1b3c:	8c e8       	ldi	r24, 0x8C	; 140
    1b3e:	95 e1       	ldi	r25, 0x15	; 21
    1b40:	0e 94 4d 03 	call	0x69a	; 0x69a <_Z10step_startP7LegData>
	
	leg2.newPosx = x0;
    1b44:	0f 2e       	mov	r0, r31
    1b46:	c1 2c       	mov	r12, r1
    1b48:	d1 2c       	mov	r13, r1
    1b4a:	f8 ec       	ldi	r31, 0xC8	; 200
    1b4c:	ef 2e       	mov	r14, r31
    1b4e:	f2 e4       	ldi	r31, 0x42	; 66
    1b50:	ff 2e       	mov	r15, r31
    1b52:	f0 2d       	mov	r31, r0
    1b54:	c0 92 c8 17 	sts	0x17C8, r12
    1b58:	d0 92 c9 17 	sts	0x17C9, r13
    1b5c:	e0 92 ca 17 	sts	0x17CA, r14
    1b60:	f0 92 cb 17 	sts	0x17CB, r15
	leg2.newPosy = y0;
    1b64:	10 92 cc 17 	sts	0x17CC, r1
    1b68:	10 92 cd 17 	sts	0x17CD, r1
    1b6c:	10 92 ce 17 	sts	0x17CE, r1
    1b70:	10 92 cf 17 	sts	0x17CF, r1
	step_part2_calculator(&leg2);
    1b74:	84 eb       	ldi	r24, 0xB4	; 180
    1b76:	97 e1       	ldi	r25, 0x17	; 23
    1b78:	0e 94 ff 03 	call	0x7fe	; 0x7fe <_Z21step_part2_calculatorP7LegData>
	
	leg4.newPosx = x0;
    1b7c:	c0 92 b4 16 	sts	0x16B4, r12
    1b80:	d0 92 b5 16 	sts	0x16B5, r13
    1b84:	e0 92 b6 16 	sts	0x16B6, r14
    1b88:	f0 92 b7 16 	sts	0x16B7, r15
	leg4.newPosy = y0;
    1b8c:	10 92 b8 16 	sts	0x16B8, r1
    1b90:	10 92 b9 16 	sts	0x16B9, r1
    1b94:	10 92 ba 16 	sts	0x16BA, r1
    1b98:	10 92 bb 16 	sts	0x16BB, r1
	step_part2_calculator(&leg4);
    1b9c:	80 ea       	ldi	r24, 0xA0	; 160
    1b9e:	96 e1       	ldi	r25, 0x16	; 22
    1ba0:	0e 94 ff 03 	call	0x7fe	; 0x7fe <_Z21step_part2_calculatorP7LegData>
	
	leg6.newPosx = x0;
    1ba4:	c0 92 a0 15 	sts	0x15A0, r12
    1ba8:	d0 92 a1 15 	sts	0x15A1, r13
    1bac:	e0 92 a2 15 	sts	0x15A2, r14
    1bb0:	f0 92 a3 15 	sts	0x15A3, r15
	leg6.newPosy = y0;
    1bb4:	10 92 a4 15 	sts	0x15A4, r1
    1bb8:	10 92 a5 15 	sts	0x15A5, r1
    1bbc:	10 92 a6 15 	sts	0x15A6, r1
    1bc0:	10 92 a7 15 	sts	0x15A7, r1
	step_part2_calculator(&leg6);
    1bc4:	8c e8       	ldi	r24, 0x8C	; 140
    1bc6:	95 e1       	ldi	r25, 0x15	; 21
    1bc8:	0e 94 ff 03 	call	0x7fe	; 0x7fe <_Z21step_part2_calculatorP7LegData>
	
	leg_motion();
    1bcc:	36 da       	rcall	.-2964   	; 0x103a <_Z10leg_motionv>
	
	leg1.lift = 1;
    1bce:	e2 e4       	ldi	r30, 0x42	; 66
    1bd0:	f8 e1       	ldi	r31, 0x18	; 24
    1bd2:	40 82       	st	Z, r4
    1bd4:	51 82       	std	Z+1, r5	; 0x01
    1bd6:	62 82       	std	Z+2, r6	; 0x02
    1bd8:	73 82       	std	Z+3, r7	; 0x03
	leg2.lift = -1;
    1bda:	e8 eb       	ldi	r30, 0xB8	; 184
    1bdc:	f7 e1       	ldi	r31, 0x17	; 23
    1bde:	80 82       	st	Z, r8
    1be0:	91 82       	std	Z+1, r9	; 0x01
    1be2:	a2 82       	std	Z+2, r10	; 0x02
    1be4:	b3 82       	std	Z+3, r11	; 0x03
	leg3.lift = 1;
    1be6:	ee e2       	ldi	r30, 0x2E	; 46
    1be8:	f7 e1       	ldi	r31, 0x17	; 23
    1bea:	40 82       	st	Z, r4
    1bec:	51 82       	std	Z+1, r5	; 0x01
    1bee:	62 82       	std	Z+2, r6	; 0x02
    1bf0:	73 82       	std	Z+3, r7	; 0x03
	leg4.lift = -1;
    1bf2:	f1 01       	movw	r30, r2
    1bf4:	80 82       	st	Z, r8
    1bf6:	91 82       	std	Z+1, r9	; 0x01
    1bf8:	a2 82       	std	Z+2, r10	; 0x02
    1bfa:	b3 82       	std	Z+3, r11	; 0x03
	leg5.lift = 1;
    1bfc:	f8 01       	movw	r30, r16
    1bfe:	40 82       	st	Z, r4
    1c00:	51 82       	std	Z+1, r5	; 0x01
    1c02:	62 82       	std	Z+2, r6	; 0x02
    1c04:	73 82       	std	Z+3, r7	; 0x03
	leg6.lift = -1;
    1c06:	88 82       	st	Y, r8
    1c08:	99 82       	std	Y+1, r9	; 0x01
    1c0a:	aa 82       	std	Y+2, r10	; 0x02
    1c0c:	bb 82       	std	Y+3, r11	; 0x03
	
	step_start(&leg1);
    1c0e:	8e e3       	ldi	r24, 0x3E	; 62
    1c10:	98 e1       	ldi	r25, 0x18	; 24
    1c12:	0e 94 4d 03 	call	0x69a	; 0x69a <_Z10step_startP7LegData>
	step_start(&leg2);
    1c16:	84 eb       	ldi	r24, 0xB4	; 180
    1c18:	97 e1       	ldi	r25, 0x17	; 23
    1c1a:	0e 94 4d 03 	call	0x69a	; 0x69a <_Z10step_startP7LegData>
	step_start(&leg3);
    1c1e:	8a e2       	ldi	r24, 0x2A	; 42
    1c20:	97 e1       	ldi	r25, 0x17	; 23
    1c22:	0e 94 4d 03 	call	0x69a	; 0x69a <_Z10step_startP7LegData>
	step_start(&leg4);
    1c26:	80 ea       	ldi	r24, 0xA0	; 160
    1c28:	96 e1       	ldi	r25, 0x16	; 22
    1c2a:	0e 94 4d 03 	call	0x69a	; 0x69a <_Z10step_startP7LegData>
	step_start(&leg5);
    1c2e:	86 e1       	ldi	r24, 0x16	; 22
    1c30:	96 e1       	ldi	r25, 0x16	; 22
    1c32:	0e 94 4d 03 	call	0x69a	; 0x69a <_Z10step_startP7LegData>
	step_start(&leg6);
    1c36:	8c e8       	ldi	r24, 0x8C	; 140
    1c38:	95 e1       	ldi	r25, 0x15	; 21
    1c3a:	0e 94 4d 03 	call	0x69a	; 0x69a <_Z10step_startP7LegData>

	leg1.newPosx = x0;
    1c3e:	c0 92 52 18 	sts	0x1852, r12
    1c42:	d0 92 53 18 	sts	0x1853, r13
    1c46:	e0 92 54 18 	sts	0x1854, r14
    1c4a:	f0 92 55 18 	sts	0x1855, r15
	leg1.newPosy = y0;
    1c4e:	10 92 56 18 	sts	0x1856, r1
    1c52:	10 92 57 18 	sts	0x1857, r1
    1c56:	10 92 58 18 	sts	0x1858, r1
    1c5a:	10 92 59 18 	sts	0x1859, r1
	step_part2_calculator(&leg1);
    1c5e:	8e e3       	ldi	r24, 0x3E	; 62
    1c60:	98 e1       	ldi	r25, 0x18	; 24
    1c62:	0e 94 ff 03 	call	0x7fe	; 0x7fe <_Z21step_part2_calculatorP7LegData>
	
	leg3.newPosx = x0;
    1c66:	c0 92 3e 17 	sts	0x173E, r12
    1c6a:	d0 92 3f 17 	sts	0x173F, r13
    1c6e:	e0 92 40 17 	sts	0x1740, r14
    1c72:	f0 92 41 17 	sts	0x1741, r15
	leg3.newPosy = y0;
    1c76:	10 92 42 17 	sts	0x1742, r1
    1c7a:	10 92 43 17 	sts	0x1743, r1
    1c7e:	10 92 44 17 	sts	0x1744, r1
    1c82:	10 92 45 17 	sts	0x1745, r1
	step_part2_calculator(&leg3);
    1c86:	8a e2       	ldi	r24, 0x2A	; 42
    1c88:	97 e1       	ldi	r25, 0x17	; 23
    1c8a:	0e 94 ff 03 	call	0x7fe	; 0x7fe <_Z21step_part2_calculatorP7LegData>
	
	leg5.newPosx = x0;
    1c8e:	c0 92 2a 16 	sts	0x162A, r12
    1c92:	d0 92 2b 16 	sts	0x162B, r13
    1c96:	e0 92 2c 16 	sts	0x162C, r14
    1c9a:	f0 92 2d 16 	sts	0x162D, r15
	leg5.newPosy = y0;
    1c9e:	10 92 2e 16 	sts	0x162E, r1
    1ca2:	10 92 2f 16 	sts	0x162F, r1
    1ca6:	10 92 30 16 	sts	0x1630, r1
    1caa:	10 92 31 16 	sts	0x1631, r1
	step_part2_calculator(&leg5);
    1cae:	86 e1       	ldi	r24, 0x16	; 22
    1cb0:	96 e1       	ldi	r25, 0x16	; 22
    1cb2:	0e 94 ff 03 	call	0x7fe	; 0x7fe <_Z21step_part2_calculatorP7LegData>

	leg_motion();
    1cb6:	c1 d9       	rcall	.-3198   	; 0x103a <_Z10leg_motionv>
	
	
}
    1cb8:	df 91       	pop	r29
    1cba:	cf 91       	pop	r28
    1cbc:	1f 91       	pop	r17
    1cbe:	0f 91       	pop	r16
    1cc0:	ff 90       	pop	r15
    1cc2:	ef 90       	pop	r14
    1cc4:	df 90       	pop	r13
    1cc6:	cf 90       	pop	r12
    1cc8:	bf 90       	pop	r11
    1cca:	af 90       	pop	r10
    1ccc:	9f 90       	pop	r9
    1cce:	8f 90       	pop	r8
    1cd0:	7f 90       	pop	r7
    1cd2:	6f 90       	pop	r6
    1cd4:	5f 90       	pop	r5
    1cd6:	4f 90       	pop	r4
    1cd8:	3f 90       	pop	r3
    1cda:	2f 90       	pop	r2
    1cdc:	08 95       	ret

00001cde <_Z6calc_dfff>:
float beta;
float gamma;
float d;

void calc_d(float x,float y,float z)
{
    1cde:	4f 92       	push	r4
    1ce0:	5f 92       	push	r5
    1ce2:	6f 92       	push	r6
    1ce4:	7f 92       	push	r7
    1ce6:	8f 92       	push	r8
    1ce8:	9f 92       	push	r9
    1cea:	af 92       	push	r10
    1cec:	bf 92       	push	r11
    1cee:	cf 92       	push	r12
    1cf0:	df 92       	push	r13
    1cf2:	ef 92       	push	r14
    1cf4:	ff 92       	push	r15
    1cf6:	0f 93       	push	r16
    1cf8:	1f 93       	push	r17
    1cfa:	49 01       	movw	r8, r18
    1cfc:	5a 01       	movw	r10, r20
    1cfe:	67 01       	movw	r12, r14
    1d00:	78 01       	movw	r14, r16
	d = sqrtf(powf(sqrtf(x*x + y*y)-coxa, 2) + z*z);
    1d02:	9b 01       	movw	r18, r22
    1d04:	ac 01       	movw	r20, r24
    1d06:	0e 94 2f 18 	call	0x305e	; 0x305e <__mulsf3>
    1d0a:	2b 01       	movw	r4, r22
    1d0c:	3c 01       	movw	r6, r24
    1d0e:	a5 01       	movw	r20, r10
    1d10:	94 01       	movw	r18, r8
    1d12:	c5 01       	movw	r24, r10
    1d14:	b4 01       	movw	r22, r8
    1d16:	0e 94 2f 18 	call	0x305e	; 0x305e <__mulsf3>
    1d1a:	9b 01       	movw	r18, r22
    1d1c:	ac 01       	movw	r20, r24
    1d1e:	c3 01       	movw	r24, r6
    1d20:	b2 01       	movw	r22, r4
    1d22:	f4 d6       	rcall	.+3560   	; 0x2b0c <__addsf3>
    1d24:	0e 94 9c 18 	call	0x3138	; 0x3138 <sqrt>
    1d28:	20 e0       	ldi	r18, 0x00	; 0
    1d2a:	30 e0       	ldi	r19, 0x00	; 0
    1d2c:	48 e5       	ldi	r20, 0x58	; 88
    1d2e:	52 e4       	ldi	r21, 0x42	; 66
    1d30:	ec d6       	rcall	.+3544   	; 0x2b0a <__subsf3>
    1d32:	86 2e       	mov	r8, r22
    1d34:	97 2e       	mov	r9, r23
    1d36:	a8 2e       	mov	r10, r24
    1d38:	b9 2e       	mov	r11, r25
    1d3a:	a7 01       	movw	r20, r14
    1d3c:	96 01       	movw	r18, r12
    1d3e:	c7 01       	movw	r24, r14
    1d40:	b6 01       	movw	r22, r12
    1d42:	0e 94 2f 18 	call	0x305e	; 0x305e <__mulsf3>
    1d46:	6b 01       	movw	r12, r22
    1d48:	7c 01       	movw	r14, r24
    1d4a:	28 2d       	mov	r18, r8
    1d4c:	39 2d       	mov	r19, r9
    1d4e:	4a 2d       	mov	r20, r10
    1d50:	5b 2d       	mov	r21, r11
    1d52:	68 2d       	mov	r22, r8
    1d54:	79 2d       	mov	r23, r9
    1d56:	8a 2d       	mov	r24, r10
    1d58:	9b 2d       	mov	r25, r11
    1d5a:	0e 94 2f 18 	call	0x305e	; 0x305e <__mulsf3>
    1d5e:	9b 01       	movw	r18, r22
    1d60:	ac 01       	movw	r20, r24
    1d62:	c7 01       	movw	r24, r14
    1d64:	b6 01       	movw	r22, r12
    1d66:	d2 d6       	rcall	.+3492   	; 0x2b0c <__addsf3>
    1d68:	0e 94 9c 18 	call	0x3138	; 0x3138 <sqrt>
    1d6c:	60 93 d6 18 	sts	0x18D6, r22
    1d70:	70 93 d7 18 	sts	0x18D7, r23
    1d74:	80 93 d8 18 	sts	0x18D8, r24
    1d78:	90 93 d9 18 	sts	0x18D9, r25
}
    1d7c:	1f 91       	pop	r17
    1d7e:	0f 91       	pop	r16
    1d80:	ff 90       	pop	r15
    1d82:	ef 90       	pop	r14
    1d84:	df 90       	pop	r13
    1d86:	cf 90       	pop	r12
    1d88:	bf 90       	pop	r11
    1d8a:	af 90       	pop	r10
    1d8c:	9f 90       	pop	r9
    1d8e:	8f 90       	pop	r8
    1d90:	7f 90       	pop	r7
    1d92:	6f 90       	pop	r6
    1d94:	5f 90       	pop	r5
    1d96:	4f 90       	pop	r4
    1d98:	08 95       	ret

00001d9a <_Z9get_gammaff>:

float get_gamma(float x,float y)
{
    1d9a:	cf 92       	push	r12
    1d9c:	df 92       	push	r13
    1d9e:	ef 92       	push	r14
    1da0:	ff 92       	push	r15
    1da2:	6b 01       	movw	r12, r22
    1da4:	7c 01       	movw	r14, r24
    1da6:	ca 01       	movw	r24, r20
    1da8:	b9 01       	movw	r22, r18
gamma = atanf(y/x);
    1daa:	a7 01       	movw	r20, r14
    1dac:	96 01       	movw	r18, r12
    1dae:	58 d7       	rcall	.+3760   	; 0x2c60 <__divsf3>
    1db0:	28 d7       	rcall	.+3664   	; 0x2c02 <atan>
    1db2:	26 2f       	mov	r18, r22
    1db4:	37 2f       	mov	r19, r23
    1db6:	46 2f       	mov	r20, r22
    1db8:	57 2f       	mov	r21, r23
    1dba:	68 2f       	mov	r22, r24
    1dbc:	79 2f       	mov	r23, r25
    1dbe:	40 93 da 18 	sts	0x18DA, r20
    1dc2:	50 93 db 18 	sts	0x18DB, r21
    1dc6:	60 93 dc 18 	sts	0x18DC, r22
    1dca:	70 93 dd 18 	sts	0x18DD, r23
return gamma;
}
    1dce:	62 2f       	mov	r22, r18
    1dd0:	73 2f       	mov	r23, r19
    1dd2:	ff 90       	pop	r15
    1dd4:	ef 90       	pop	r14
    1dd6:	df 90       	pop	r13
    1dd8:	cf 90       	pop	r12
    1dda:	08 95       	ret

00001ddc <_Z8get_betav>:

float get_beta()
{
	beta = pi - acosf((femur*femur+tibia*tibia-d*d)/(2*femur*tibia));
    1ddc:	60 91 d6 18 	lds	r22, 0x18D6
    1de0:	70 91 d7 18 	lds	r23, 0x18D7
    1de4:	80 91 d8 18 	lds	r24, 0x18D8
    1de8:	90 91 d9 18 	lds	r25, 0x18D9
    1dec:	9b 01       	movw	r18, r22
    1dee:	ac 01       	movw	r20, r24
    1df0:	0e 94 2f 18 	call	0x305e	; 0x305e <__mulsf3>
    1df4:	9b 01       	movw	r18, r22
    1df6:	ac 01       	movw	r20, r24
    1df8:	60 e0       	ldi	r22, 0x00	; 0
    1dfa:	72 e3       	ldi	r23, 0x32	; 50
    1dfc:	8b ea       	ldi	r24, 0xAB	; 171
    1dfe:	96 e4       	ldi	r25, 0x46	; 70
    1e00:	84 d6       	rcall	.+3336   	; 0x2b0a <__subsf3>
    1e02:	20 e0       	ldi	r18, 0x00	; 0
    1e04:	30 e3       	ldi	r19, 0x30	; 48
    1e06:	4a e8       	ldi	r20, 0x8A	; 138
    1e08:	56 e4       	ldi	r21, 0x46	; 70
    1e0a:	2a d7       	rcall	.+3668   	; 0x2c60 <__divsf3>
    1e0c:	70 d6       	rcall	.+3296   	; 0x2aee <acos>
    1e0e:	9b 01       	movw	r18, r22
    1e10:	ac 01       	movw	r20, r24
    1e12:	6b ed       	ldi	r22, 0xDB	; 219
    1e14:	7f e0       	ldi	r23, 0x0F	; 15
    1e16:	89 e4       	ldi	r24, 0x49	; 73
    1e18:	90 e4       	ldi	r25, 0x40	; 64
    1e1a:	77 d6       	rcall	.+3310   	; 0x2b0a <__subsf3>
    1e1c:	26 2f       	mov	r18, r22
    1e1e:	37 2f       	mov	r19, r23
    1e20:	46 2f       	mov	r20, r22
    1e22:	57 2f       	mov	r21, r23
    1e24:	68 2f       	mov	r22, r24
    1e26:	79 2f       	mov	r23, r25
    1e28:	40 93 de 18 	sts	0x18DE, r20
    1e2c:	50 93 df 18 	sts	0x18DF, r21
    1e30:	60 93 e0 18 	sts	0x18E0, r22
    1e34:	70 93 e1 18 	sts	0x18E1, r23
	return beta;
}
    1e38:	62 2f       	mov	r22, r18
    1e3a:	73 2f       	mov	r23, r19
    1e3c:	08 95       	ret

00001e3e <_Z9get_alphaf>:

float get_alpha(float z)
{
    1e3e:	4f 92       	push	r4
    1e40:	5f 92       	push	r5
    1e42:	6f 92       	push	r6
    1e44:	7f 92       	push	r7
    1e46:	8f 92       	push	r8
    1e48:	9f 92       	push	r9
    1e4a:	af 92       	push	r10
    1e4c:	bf 92       	push	r11
    1e4e:	cf 92       	push	r12
    1e50:	df 92       	push	r13
    1e52:	ef 92       	push	r14
    1e54:	ff 92       	push	r15
    1e56:	2b 01       	movw	r4, r22
    1e58:	3c 01       	movw	r6, r24
	alpha = acosf((femur*femur-tibia*tibia+d*d)/(2*femur*d))+asinf(z/d);
    1e5a:	c0 90 d6 18 	lds	r12, 0x18D6
    1e5e:	d0 90 d7 18 	lds	r13, 0x18D7
    1e62:	e0 90 d8 18 	lds	r14, 0x18D8
    1e66:	f0 90 d9 18 	lds	r15, 0x18D9
    1e6a:	a7 01       	movw	r20, r14
    1e6c:	96 01       	movw	r18, r12
    1e6e:	c7 01       	movw	r24, r14
    1e70:	b6 01       	movw	r22, r12
    1e72:	0e 94 2f 18 	call	0x305e	; 0x305e <__mulsf3>
    1e76:	20 e0       	ldi	r18, 0x00	; 0
    1e78:	3c e1       	ldi	r19, 0x1C	; 28
    1e7a:	4a e4       	ldi	r20, 0x4A	; 74
    1e7c:	56 e4       	ldi	r21, 0x46	; 70
    1e7e:	45 d6       	rcall	.+3210   	; 0x2b0a <__subsf3>
    1e80:	4b 01       	movw	r8, r22
    1e82:	5c 01       	movw	r10, r24
    1e84:	20 e0       	ldi	r18, 0x00	; 0
    1e86:	30 e0       	ldi	r19, 0x00	; 0
    1e88:	46 e0       	ldi	r20, 0x06	; 6
    1e8a:	53 e4       	ldi	r21, 0x43	; 67
    1e8c:	c7 01       	movw	r24, r14
    1e8e:	b6 01       	movw	r22, r12
    1e90:	0e 94 2f 18 	call	0x305e	; 0x305e <__mulsf3>
    1e94:	9b 01       	movw	r18, r22
    1e96:	ac 01       	movw	r20, r24
    1e98:	c5 01       	movw	r24, r10
    1e9a:	b4 01       	movw	r22, r8
    1e9c:	e1 d6       	rcall	.+3522   	; 0x2c60 <__divsf3>
    1e9e:	27 d6       	rcall	.+3150   	; 0x2aee <acos>
    1ea0:	4b 01       	movw	r8, r22
    1ea2:	5c 01       	movw	r10, r24
    1ea4:	a7 01       	movw	r20, r14
    1ea6:	96 01       	movw	r18, r12
    1ea8:	c3 01       	movw	r24, r6
    1eaa:	b2 01       	movw	r22, r4
    1eac:	d9 d6       	rcall	.+3506   	; 0x2c60 <__divsf3>
    1eae:	92 d6       	rcall	.+3364   	; 0x2bd4 <asin>
    1eb0:	9b 01       	movw	r18, r22
    1eb2:	ac 01       	movw	r20, r24
    1eb4:	c5 01       	movw	r24, r10
    1eb6:	b4 01       	movw	r22, r8
    1eb8:	29 d6       	rcall	.+3154   	; 0x2b0c <__addsf3>
    1eba:	26 2f       	mov	r18, r22
    1ebc:	37 2f       	mov	r19, r23
    1ebe:	46 2f       	mov	r20, r22
    1ec0:	57 2f       	mov	r21, r23
    1ec2:	68 2f       	mov	r22, r24
    1ec4:	79 2f       	mov	r23, r25
    1ec6:	40 93 e2 18 	sts	0x18E2, r20
    1eca:	50 93 e3 18 	sts	0x18E3, r21
    1ece:	60 93 e4 18 	sts	0x18E4, r22
    1ed2:	70 93 e5 18 	sts	0x18E5, r23
	return alpha;
}
    1ed6:	62 2f       	mov	r22, r18
    1ed8:	73 2f       	mov	r23, r19
    1eda:	ff 90       	pop	r15
    1edc:	ef 90       	pop	r14
    1ede:	df 90       	pop	r13
    1ee0:	cf 90       	pop	r12
    1ee2:	bf 90       	pop	r11
    1ee4:	af 90       	pop	r10
    1ee6:	9f 90       	pop	r9
    1ee8:	8f 90       	pop	r8
    1eea:	7f 90       	pop	r7
    1eec:	6f 90       	pop	r6
    1eee:	5f 90       	pop	r5
    1ef0:	4f 90       	pop	r4
    1ef2:	08 95       	ret

00001ef4 <_Z18basis_change_leg1xff>:


float basis_change_leg1x(float x, float y) {
    1ef4:	8f 92       	push	r8
    1ef6:	9f 92       	push	r9
    1ef8:	af 92       	push	r10
    1efa:	bf 92       	push	r11
    1efc:	cf 92       	push	r12
    1efe:	df 92       	push	r13
    1f00:	ef 92       	push	r14
    1f02:	ff 92       	push	r15
    1f04:	49 01       	movw	r8, r18
    1f06:	5a 01       	movw	r10, r20
return (x + x0_1 + centerToFrontLegsX)/(-sqrt2)-(y + y0_1 - centerToFrontLegsY)/(-sqrt2);}
    1f08:	28 e8       	ldi	r18, 0x88	; 136
    1f0a:	3f e8       	ldi	r19, 0x8F	; 143
    1f0c:	44 e0       	ldi	r20, 0x04	; 4
    1f0e:	53 e4       	ldi	r21, 0x43	; 67
    1f10:	fc d5       	rcall	.+3064   	; 0x2b0a <__subsf3>
    1f12:	26 e6       	ldi	r18, 0x66	; 102
    1f14:	36 e6       	ldi	r19, 0x66	; 102
    1f16:	47 e7       	ldi	r20, 0x77	; 119
    1f18:	52 e4       	ldi	r21, 0x42	; 66
    1f1a:	f8 d5       	rcall	.+3056   	; 0x2b0c <__addsf3>
    1f1c:	23 ef       	ldi	r18, 0xF3	; 243
    1f1e:	34 e0       	ldi	r19, 0x04	; 4
    1f20:	45 eb       	ldi	r20, 0xB5	; 181
    1f22:	5f eb       	ldi	r21, 0xBF	; 191
    1f24:	9d d6       	rcall	.+3386   	; 0x2c60 <__divsf3>
    1f26:	6b 01       	movw	r12, r22
    1f28:	7c 01       	movw	r14, r24
    1f2a:	2f ee       	ldi	r18, 0xEF	; 239
    1f2c:	35 eb       	ldi	r19, 0xB5	; 181
    1f2e:	4e e3       	ldi	r20, 0x3E	; 62
    1f30:	53 e4       	ldi	r21, 0x43	; 67
    1f32:	c5 01       	movw	r24, r10
    1f34:	b4 01       	movw	r22, r8
    1f36:	ea d5       	rcall	.+3028   	; 0x2b0c <__addsf3>
    1f38:	20 e0       	ldi	r18, 0x00	; 0
    1f3a:	30 e0       	ldi	r19, 0x00	; 0
    1f3c:	40 ef       	ldi	r20, 0xF0	; 240
    1f3e:	52 e4       	ldi	r21, 0x42	; 66
    1f40:	e4 d5       	rcall	.+3016   	; 0x2b0a <__subsf3>
    1f42:	23 ef       	ldi	r18, 0xF3	; 243
    1f44:	34 e0       	ldi	r19, 0x04	; 4
    1f46:	45 eb       	ldi	r20, 0xB5	; 181
    1f48:	5f e3       	ldi	r21, 0x3F	; 63
    1f4a:	8a d6       	rcall	.+3348   	; 0x2c60 <__divsf3>
    1f4c:	9b 01       	movw	r18, r22
    1f4e:	ac 01       	movw	r20, r24
    1f50:	c7 01       	movw	r24, r14
    1f52:	b6 01       	movw	r22, r12
    1f54:	db d5       	rcall	.+2998   	; 0x2b0c <__addsf3>
    1f56:	ff 90       	pop	r15
    1f58:	ef 90       	pop	r14
    1f5a:	df 90       	pop	r13
    1f5c:	cf 90       	pop	r12
    1f5e:	bf 90       	pop	r11
    1f60:	af 90       	pop	r10
    1f62:	9f 90       	pop	r9
    1f64:	8f 90       	pop	r8
    1f66:	08 95       	ret

00001f68 <_Z18basis_change_leg1yff>:

float basis_change_leg1y(float x, float y) {
    1f68:	8f 92       	push	r8
    1f6a:	9f 92       	push	r9
    1f6c:	af 92       	push	r10
    1f6e:	bf 92       	push	r11
    1f70:	cf 92       	push	r12
    1f72:	df 92       	push	r13
    1f74:	ef 92       	push	r14
    1f76:	ff 92       	push	r15
    1f78:	49 01       	movw	r8, r18
    1f7a:	5a 01       	movw	r10, r20
return (x + x0_1 + centerToFrontLegsX)/(-sqrt2)+(y + y0_1 - centerToFrontLegsY)/(-sqrt2);}
    1f7c:	28 e8       	ldi	r18, 0x88	; 136
    1f7e:	3f e8       	ldi	r19, 0x8F	; 143
    1f80:	44 e0       	ldi	r20, 0x04	; 4
    1f82:	53 e4       	ldi	r21, 0x43	; 67
    1f84:	c2 d5       	rcall	.+2948   	; 0x2b0a <__subsf3>
    1f86:	26 e6       	ldi	r18, 0x66	; 102
    1f88:	36 e6       	ldi	r19, 0x66	; 102
    1f8a:	47 e7       	ldi	r20, 0x77	; 119
    1f8c:	52 e4       	ldi	r21, 0x42	; 66
    1f8e:	be d5       	rcall	.+2940   	; 0x2b0c <__addsf3>
    1f90:	23 ef       	ldi	r18, 0xF3	; 243
    1f92:	34 e0       	ldi	r19, 0x04	; 4
    1f94:	45 eb       	ldi	r20, 0xB5	; 181
    1f96:	5f eb       	ldi	r21, 0xBF	; 191
    1f98:	63 d6       	rcall	.+3270   	; 0x2c60 <__divsf3>
    1f9a:	6b 01       	movw	r12, r22
    1f9c:	7c 01       	movw	r14, r24
    1f9e:	2f ee       	ldi	r18, 0xEF	; 239
    1fa0:	35 eb       	ldi	r19, 0xB5	; 181
    1fa2:	4e e3       	ldi	r20, 0x3E	; 62
    1fa4:	53 e4       	ldi	r21, 0x43	; 67
    1fa6:	c5 01       	movw	r24, r10
    1fa8:	b4 01       	movw	r22, r8
    1faa:	b0 d5       	rcall	.+2912   	; 0x2b0c <__addsf3>
    1fac:	20 e0       	ldi	r18, 0x00	; 0
    1fae:	30 e0       	ldi	r19, 0x00	; 0
    1fb0:	40 ef       	ldi	r20, 0xF0	; 240
    1fb2:	52 e4       	ldi	r21, 0x42	; 66
    1fb4:	aa d5       	rcall	.+2900   	; 0x2b0a <__subsf3>
    1fb6:	23 ef       	ldi	r18, 0xF3	; 243
    1fb8:	34 e0       	ldi	r19, 0x04	; 4
    1fba:	45 eb       	ldi	r20, 0xB5	; 181
    1fbc:	5f eb       	ldi	r21, 0xBF	; 191
    1fbe:	50 d6       	rcall	.+3232   	; 0x2c60 <__divsf3>
    1fc0:	9b 01       	movw	r18, r22
    1fc2:	ac 01       	movw	r20, r24
    1fc4:	c7 01       	movw	r24, r14
    1fc6:	b6 01       	movw	r22, r12
    1fc8:	a1 d5       	rcall	.+2882   	; 0x2b0c <__addsf3>
    1fca:	ff 90       	pop	r15
    1fcc:	ef 90       	pop	r14
    1fce:	df 90       	pop	r13
    1fd0:	cf 90       	pop	r12
    1fd2:	bf 90       	pop	r11
    1fd4:	af 90       	pop	r10
    1fd6:	9f 90       	pop	r9
    1fd8:	8f 90       	pop	r8
    1fda:	08 95       	ret

00001fdc <_Z18basis_change_leg2xf>:


float basis_change_leg2x(float x) {
return -(x + x0_2 + centerToSideLegs);}
    1fdc:	20 e0       	ldi	r18, 0x00	; 0
    1fde:	30 e0       	ldi	r19, 0x00	; 0
    1fe0:	48 e4       	ldi	r20, 0x48	; 72
    1fe2:	53 e4       	ldi	r21, 0x43	; 67
    1fe4:	92 d5       	rcall	.+2852   	; 0x2b0a <__subsf3>
    1fe6:	20 e0       	ldi	r18, 0x00	; 0
    1fe8:	30 e0       	ldi	r19, 0x00	; 0
    1fea:	48 ec       	ldi	r20, 0xC8	; 200
    1fec:	52 e4       	ldi	r21, 0x42	; 66
    1fee:	8e d5       	rcall	.+2844   	; 0x2b0c <__addsf3>
    1ff0:	dc 01       	movw	r26, r24
    1ff2:	cb 01       	movw	r24, r22
    1ff4:	b0 58       	subi	r27, 0x80	; 128
    1ff6:	68 2f       	mov	r22, r24
    1ff8:	79 2f       	mov	r23, r25
    1ffa:	8a 2f       	mov	r24, r26
    1ffc:	9b 2f       	mov	r25, r27
    1ffe:	08 95       	ret

00002000 <_Z18basis_change_leg2yf>:

float basis_change_leg2y(float y) {
return -(y + y0_2);}
    2000:	20 e0       	ldi	r18, 0x00	; 0
    2002:	30 e0       	ldi	r19, 0x00	; 0
    2004:	a9 01       	movw	r20, r18
    2006:	82 d5       	rcall	.+2820   	; 0x2b0c <__addsf3>
    2008:	dc 01       	movw	r26, r24
    200a:	cb 01       	movw	r24, r22
    200c:	b0 58       	subi	r27, 0x80	; 128
    200e:	68 2f       	mov	r22, r24
    2010:	79 2f       	mov	r23, r25
    2012:	8a 2f       	mov	r24, r26
    2014:	9b 2f       	mov	r25, r27
    2016:	08 95       	ret

00002018 <_Z18basis_change_leg3xff>:


float basis_change_leg3x(float x, float y) {
    2018:	8f 92       	push	r8
    201a:	9f 92       	push	r9
    201c:	af 92       	push	r10
    201e:	bf 92       	push	r11
    2020:	cf 92       	push	r12
    2022:	df 92       	push	r13
    2024:	ef 92       	push	r14
    2026:	ff 92       	push	r15
    2028:	49 01       	movw	r8, r18
    202a:	5a 01       	movw	r10, r20
return (x + x0_3 + centerToFrontLegsX)/(-sqrt2)-(y + y0_3 +centerToFrontLegsY)/sqrt2;}
    202c:	28 e8       	ldi	r18, 0x88	; 136
    202e:	3f e8       	ldi	r19, 0x8F	; 143
    2030:	44 e0       	ldi	r20, 0x04	; 4
    2032:	53 e4       	ldi	r21, 0x43	; 67
    2034:	6a d5       	rcall	.+2772   	; 0x2b0a <__subsf3>
    2036:	26 e6       	ldi	r18, 0x66	; 102
    2038:	36 e6       	ldi	r19, 0x66	; 102
    203a:	47 e7       	ldi	r20, 0x77	; 119
    203c:	52 e4       	ldi	r21, 0x42	; 66
    203e:	66 d5       	rcall	.+2764   	; 0x2b0c <__addsf3>
    2040:	23 ef       	ldi	r18, 0xF3	; 243
    2042:	34 e0       	ldi	r19, 0x04	; 4
    2044:	45 eb       	ldi	r20, 0xB5	; 181
    2046:	5f eb       	ldi	r21, 0xBF	; 191
    2048:	0b d6       	rcall	.+3094   	; 0x2c60 <__divsf3>
    204a:	6b 01       	movw	r12, r22
    204c:	7c 01       	movw	r14, r24
    204e:	2f ee       	ldi	r18, 0xEF	; 239
    2050:	35 eb       	ldi	r19, 0xB5	; 181
    2052:	4e e3       	ldi	r20, 0x3E	; 62
    2054:	53 e4       	ldi	r21, 0x43	; 67
    2056:	c5 01       	movw	r24, r10
    2058:	b4 01       	movw	r22, r8
    205a:	57 d5       	rcall	.+2734   	; 0x2b0a <__subsf3>
    205c:	20 e0       	ldi	r18, 0x00	; 0
    205e:	30 e0       	ldi	r19, 0x00	; 0
    2060:	40 ef       	ldi	r20, 0xF0	; 240
    2062:	52 e4       	ldi	r21, 0x42	; 66
    2064:	53 d5       	rcall	.+2726   	; 0x2b0c <__addsf3>
    2066:	23 ef       	ldi	r18, 0xF3	; 243
    2068:	34 e0       	ldi	r19, 0x04	; 4
    206a:	45 eb       	ldi	r20, 0xB5	; 181
    206c:	5f e3       	ldi	r21, 0x3F	; 63
    206e:	f8 d5       	rcall	.+3056   	; 0x2c60 <__divsf3>
    2070:	9b 01       	movw	r18, r22
    2072:	ac 01       	movw	r20, r24
    2074:	c7 01       	movw	r24, r14
    2076:	b6 01       	movw	r22, r12
    2078:	48 d5       	rcall	.+2704   	; 0x2b0a <__subsf3>
    207a:	ff 90       	pop	r15
    207c:	ef 90       	pop	r14
    207e:	df 90       	pop	r13
    2080:	cf 90       	pop	r12
    2082:	bf 90       	pop	r11
    2084:	af 90       	pop	r10
    2086:	9f 90       	pop	r9
    2088:	8f 90       	pop	r8
    208a:	08 95       	ret

0000208c <_Z18basis_change_leg3yff>:

float basis_change_leg3y(float x, float y) {
    208c:	8f 92       	push	r8
    208e:	9f 92       	push	r9
    2090:	af 92       	push	r10
    2092:	bf 92       	push	r11
    2094:	cf 92       	push	r12
    2096:	df 92       	push	r13
    2098:	ef 92       	push	r14
    209a:	ff 92       	push	r15
    209c:	49 01       	movw	r8, r18
    209e:	5a 01       	movw	r10, r20
return (x + x0_3 + centerToFrontLegsX)/sqrt2+(y + y0_3 + centerToFrontLegsY)/(-sqrt2);}
    20a0:	28 e8       	ldi	r18, 0x88	; 136
    20a2:	3f e8       	ldi	r19, 0x8F	; 143
    20a4:	44 e0       	ldi	r20, 0x04	; 4
    20a6:	53 e4       	ldi	r21, 0x43	; 67
    20a8:	30 d5       	rcall	.+2656   	; 0x2b0a <__subsf3>
    20aa:	26 e6       	ldi	r18, 0x66	; 102
    20ac:	36 e6       	ldi	r19, 0x66	; 102
    20ae:	47 e7       	ldi	r20, 0x77	; 119
    20b0:	52 e4       	ldi	r21, 0x42	; 66
    20b2:	2c d5       	rcall	.+2648   	; 0x2b0c <__addsf3>
    20b4:	23 ef       	ldi	r18, 0xF3	; 243
    20b6:	34 e0       	ldi	r19, 0x04	; 4
    20b8:	45 eb       	ldi	r20, 0xB5	; 181
    20ba:	5f e3       	ldi	r21, 0x3F	; 63
    20bc:	d1 d5       	rcall	.+2978   	; 0x2c60 <__divsf3>
    20be:	6b 01       	movw	r12, r22
    20c0:	7c 01       	movw	r14, r24
    20c2:	2f ee       	ldi	r18, 0xEF	; 239
    20c4:	35 eb       	ldi	r19, 0xB5	; 181
    20c6:	4e e3       	ldi	r20, 0x3E	; 62
    20c8:	53 e4       	ldi	r21, 0x43	; 67
    20ca:	c5 01       	movw	r24, r10
    20cc:	b4 01       	movw	r22, r8
    20ce:	1d d5       	rcall	.+2618   	; 0x2b0a <__subsf3>
    20d0:	20 e0       	ldi	r18, 0x00	; 0
    20d2:	30 e0       	ldi	r19, 0x00	; 0
    20d4:	40 ef       	ldi	r20, 0xF0	; 240
    20d6:	52 e4       	ldi	r21, 0x42	; 66
    20d8:	19 d5       	rcall	.+2610   	; 0x2b0c <__addsf3>
    20da:	23 ef       	ldi	r18, 0xF3	; 243
    20dc:	34 e0       	ldi	r19, 0x04	; 4
    20de:	45 eb       	ldi	r20, 0xB5	; 181
    20e0:	5f eb       	ldi	r21, 0xBF	; 191
    20e2:	be d5       	rcall	.+2940   	; 0x2c60 <__divsf3>
    20e4:	9b 01       	movw	r18, r22
    20e6:	ac 01       	movw	r20, r24
    20e8:	c7 01       	movw	r24, r14
    20ea:	b6 01       	movw	r22, r12
    20ec:	0f d5       	rcall	.+2590   	; 0x2b0c <__addsf3>
    20ee:	ff 90       	pop	r15
    20f0:	ef 90       	pop	r14
    20f2:	df 90       	pop	r13
    20f4:	cf 90       	pop	r12
    20f6:	bf 90       	pop	r11
    20f8:	af 90       	pop	r10
    20fa:	9f 90       	pop	r9
    20fc:	8f 90       	pop	r8
    20fe:	08 95       	ret

00002100 <_Z18basis_change_leg4xff>:


float basis_change_leg4x(float x, float y) {
    2100:	8f 92       	push	r8
    2102:	9f 92       	push	r9
    2104:	af 92       	push	r10
    2106:	bf 92       	push	r11
    2108:	cf 92       	push	r12
    210a:	df 92       	push	r13
    210c:	ef 92       	push	r14
    210e:	ff 92       	push	r15
    2110:	49 01       	movw	r8, r18
    2112:	5a 01       	movw	r10, r20
return (x + x0_4 - centerToFrontLegsX)/sqrt2-(y + y0_4 + centerToFrontLegsY)/sqrt2;}
    2114:	28 e8       	ldi	r18, 0x88	; 136
    2116:	3f e8       	ldi	r19, 0x8F	; 143
    2118:	44 e0       	ldi	r20, 0x04	; 4
    211a:	53 e4       	ldi	r21, 0x43	; 67
    211c:	f7 d4       	rcall	.+2542   	; 0x2b0c <__addsf3>
    211e:	26 e6       	ldi	r18, 0x66	; 102
    2120:	36 e6       	ldi	r19, 0x66	; 102
    2122:	47 e7       	ldi	r20, 0x77	; 119
    2124:	52 e4       	ldi	r21, 0x42	; 66
    2126:	f1 d4       	rcall	.+2530   	; 0x2b0a <__subsf3>
    2128:	23 ef       	ldi	r18, 0xF3	; 243
    212a:	34 e0       	ldi	r19, 0x04	; 4
    212c:	45 eb       	ldi	r20, 0xB5	; 181
    212e:	5f e3       	ldi	r21, 0x3F	; 63
    2130:	97 d5       	rcall	.+2862   	; 0x2c60 <__divsf3>
    2132:	6b 01       	movw	r12, r22
    2134:	7c 01       	movw	r14, r24
    2136:	2f ee       	ldi	r18, 0xEF	; 239
    2138:	35 eb       	ldi	r19, 0xB5	; 181
    213a:	4e e3       	ldi	r20, 0x3E	; 62
    213c:	53 e4       	ldi	r21, 0x43	; 67
    213e:	c5 01       	movw	r24, r10
    2140:	b4 01       	movw	r22, r8
    2142:	e3 d4       	rcall	.+2502   	; 0x2b0a <__subsf3>
    2144:	20 e0       	ldi	r18, 0x00	; 0
    2146:	30 e0       	ldi	r19, 0x00	; 0
    2148:	40 ef       	ldi	r20, 0xF0	; 240
    214a:	52 e4       	ldi	r21, 0x42	; 66
    214c:	df d4       	rcall	.+2494   	; 0x2b0c <__addsf3>
    214e:	23 ef       	ldi	r18, 0xF3	; 243
    2150:	34 e0       	ldi	r19, 0x04	; 4
    2152:	45 eb       	ldi	r20, 0xB5	; 181
    2154:	5f e3       	ldi	r21, 0x3F	; 63
    2156:	84 d5       	rcall	.+2824   	; 0x2c60 <__divsf3>
    2158:	9b 01       	movw	r18, r22
    215a:	ac 01       	movw	r20, r24
    215c:	c7 01       	movw	r24, r14
    215e:	b6 01       	movw	r22, r12
    2160:	d4 d4       	rcall	.+2472   	; 0x2b0a <__subsf3>
    2162:	ff 90       	pop	r15
    2164:	ef 90       	pop	r14
    2166:	df 90       	pop	r13
    2168:	cf 90       	pop	r12
    216a:	bf 90       	pop	r11
    216c:	af 90       	pop	r10
    216e:	9f 90       	pop	r9
    2170:	8f 90       	pop	r8
    2172:	08 95       	ret

00002174 <_Z18basis_change_leg4yff>:

float basis_change_leg4y(float x, float y) {
    2174:	8f 92       	push	r8
    2176:	9f 92       	push	r9
    2178:	af 92       	push	r10
    217a:	bf 92       	push	r11
    217c:	cf 92       	push	r12
    217e:	df 92       	push	r13
    2180:	ef 92       	push	r14
    2182:	ff 92       	push	r15
    2184:	49 01       	movw	r8, r18
    2186:	5a 01       	movw	r10, r20
return (x + x0_4 - centerToFrontLegsX)/sqrt2+(y + y0_4 + centerToFrontLegsY)/sqrt2;}
    2188:	28 e8       	ldi	r18, 0x88	; 136
    218a:	3f e8       	ldi	r19, 0x8F	; 143
    218c:	44 e0       	ldi	r20, 0x04	; 4
    218e:	53 e4       	ldi	r21, 0x43	; 67
    2190:	bd d4       	rcall	.+2426   	; 0x2b0c <__addsf3>
    2192:	26 e6       	ldi	r18, 0x66	; 102
    2194:	36 e6       	ldi	r19, 0x66	; 102
    2196:	47 e7       	ldi	r20, 0x77	; 119
    2198:	52 e4       	ldi	r21, 0x42	; 66
    219a:	b7 d4       	rcall	.+2414   	; 0x2b0a <__subsf3>
    219c:	23 ef       	ldi	r18, 0xF3	; 243
    219e:	34 e0       	ldi	r19, 0x04	; 4
    21a0:	45 eb       	ldi	r20, 0xB5	; 181
    21a2:	5f e3       	ldi	r21, 0x3F	; 63
    21a4:	5d d5       	rcall	.+2746   	; 0x2c60 <__divsf3>
    21a6:	6b 01       	movw	r12, r22
    21a8:	7c 01       	movw	r14, r24
    21aa:	2f ee       	ldi	r18, 0xEF	; 239
    21ac:	35 eb       	ldi	r19, 0xB5	; 181
    21ae:	4e e3       	ldi	r20, 0x3E	; 62
    21b0:	53 e4       	ldi	r21, 0x43	; 67
    21b2:	c5 01       	movw	r24, r10
    21b4:	b4 01       	movw	r22, r8
    21b6:	a9 d4       	rcall	.+2386   	; 0x2b0a <__subsf3>
    21b8:	20 e0       	ldi	r18, 0x00	; 0
    21ba:	30 e0       	ldi	r19, 0x00	; 0
    21bc:	40 ef       	ldi	r20, 0xF0	; 240
    21be:	52 e4       	ldi	r21, 0x42	; 66
    21c0:	a5 d4       	rcall	.+2378   	; 0x2b0c <__addsf3>
    21c2:	23 ef       	ldi	r18, 0xF3	; 243
    21c4:	34 e0       	ldi	r19, 0x04	; 4
    21c6:	45 eb       	ldi	r20, 0xB5	; 181
    21c8:	5f e3       	ldi	r21, 0x3F	; 63
    21ca:	4a d5       	rcall	.+2708   	; 0x2c60 <__divsf3>
    21cc:	9b 01       	movw	r18, r22
    21ce:	ac 01       	movw	r20, r24
    21d0:	c7 01       	movw	r24, r14
    21d2:	b6 01       	movw	r22, r12
    21d4:	9b d4       	rcall	.+2358   	; 0x2b0c <__addsf3>
    21d6:	ff 90       	pop	r15
    21d8:	ef 90       	pop	r14
    21da:	df 90       	pop	r13
    21dc:	cf 90       	pop	r12
    21de:	bf 90       	pop	r11
    21e0:	af 90       	pop	r10
    21e2:	9f 90       	pop	r9
    21e4:	8f 90       	pop	r8
    21e6:	08 95       	ret

000021e8 <_Z18basis_change_leg5xf>:


float basis_change_leg5x(float x) {
return (x + x0_5 - centerToSideLegs);}
    21e8:	20 e0       	ldi	r18, 0x00	; 0
    21ea:	30 e0       	ldi	r19, 0x00	; 0
    21ec:	48 e4       	ldi	r20, 0x48	; 72
    21ee:	53 e4       	ldi	r21, 0x43	; 67
    21f0:	8d d4       	rcall	.+2330   	; 0x2b0c <__addsf3>
    21f2:	20 e0       	ldi	r18, 0x00	; 0
    21f4:	30 e0       	ldi	r19, 0x00	; 0
    21f6:	48 ec       	ldi	r20, 0xC8	; 200
    21f8:	52 e4       	ldi	r21, 0x42	; 66
    21fa:	87 c4       	rjmp	.+2318   	; 0x2b0a <__subsf3>

000021fc <_Z18basis_change_leg5yf>:

float basis_change_leg5y(float y) {
return (y + y0_5);}
    21fc:	20 e0       	ldi	r18, 0x00	; 0
    21fe:	30 e0       	ldi	r19, 0x00	; 0
    2200:	a9 01       	movw	r20, r18
    2202:	84 c4       	rjmp	.+2312   	; 0x2b0c <__addsf3>

00002204 <_Z18basis_change_leg6xff>:


float basis_change_leg6x(float x, float y) {
    2204:	8f 92       	push	r8
    2206:	9f 92       	push	r9
    2208:	af 92       	push	r10
    220a:	bf 92       	push	r11
    220c:	cf 92       	push	r12
    220e:	df 92       	push	r13
    2210:	ef 92       	push	r14
    2212:	ff 92       	push	r15
    2214:	49 01       	movw	r8, r18
    2216:	5a 01       	movw	r10, r20
return (x + x0_6 - centerToFrontLegsX)/sqrt2-(y + y0_6 - centerToFrontLegsY)/(-sqrt2);}
    2218:	28 e8       	ldi	r18, 0x88	; 136
    221a:	3f e8       	ldi	r19, 0x8F	; 143
    221c:	44 e0       	ldi	r20, 0x04	; 4
    221e:	53 e4       	ldi	r21, 0x43	; 67
    2220:	75 d4       	rcall	.+2282   	; 0x2b0c <__addsf3>
    2222:	26 e6       	ldi	r18, 0x66	; 102
    2224:	36 e6       	ldi	r19, 0x66	; 102
    2226:	47 e7       	ldi	r20, 0x77	; 119
    2228:	52 e4       	ldi	r21, 0x42	; 66
    222a:	6f d4       	rcall	.+2270   	; 0x2b0a <__subsf3>
    222c:	23 ef       	ldi	r18, 0xF3	; 243
    222e:	34 e0       	ldi	r19, 0x04	; 4
    2230:	45 eb       	ldi	r20, 0xB5	; 181
    2232:	5f e3       	ldi	r21, 0x3F	; 63
    2234:	15 d5       	rcall	.+2602   	; 0x2c60 <__divsf3>
    2236:	6b 01       	movw	r12, r22
    2238:	7c 01       	movw	r14, r24
    223a:	2f ee       	ldi	r18, 0xEF	; 239
    223c:	35 eb       	ldi	r19, 0xB5	; 181
    223e:	4e e3       	ldi	r20, 0x3E	; 62
    2240:	53 e4       	ldi	r21, 0x43	; 67
    2242:	c5 01       	movw	r24, r10
    2244:	b4 01       	movw	r22, r8
    2246:	62 d4       	rcall	.+2244   	; 0x2b0c <__addsf3>
    2248:	20 e0       	ldi	r18, 0x00	; 0
    224a:	30 e0       	ldi	r19, 0x00	; 0
    224c:	40 ef       	ldi	r20, 0xF0	; 240
    224e:	52 e4       	ldi	r21, 0x42	; 66
    2250:	5c d4       	rcall	.+2232   	; 0x2b0a <__subsf3>
    2252:	23 ef       	ldi	r18, 0xF3	; 243
    2254:	34 e0       	ldi	r19, 0x04	; 4
    2256:	45 eb       	ldi	r20, 0xB5	; 181
    2258:	5f e3       	ldi	r21, 0x3F	; 63
    225a:	02 d5       	rcall	.+2564   	; 0x2c60 <__divsf3>
    225c:	9b 01       	movw	r18, r22
    225e:	ac 01       	movw	r20, r24
    2260:	c7 01       	movw	r24, r14
    2262:	b6 01       	movw	r22, r12
    2264:	53 d4       	rcall	.+2214   	; 0x2b0c <__addsf3>
    2266:	ff 90       	pop	r15
    2268:	ef 90       	pop	r14
    226a:	df 90       	pop	r13
    226c:	cf 90       	pop	r12
    226e:	bf 90       	pop	r11
    2270:	af 90       	pop	r10
    2272:	9f 90       	pop	r9
    2274:	8f 90       	pop	r8
    2276:	08 95       	ret

00002278 <_Z18basis_change_leg6yff>:

float basis_change_leg6y(float x, float y) {
    2278:	8f 92       	push	r8
    227a:	9f 92       	push	r9
    227c:	af 92       	push	r10
    227e:	bf 92       	push	r11
    2280:	cf 92       	push	r12
    2282:	df 92       	push	r13
    2284:	ef 92       	push	r14
    2286:	ff 92       	push	r15
    2288:	49 01       	movw	r8, r18
    228a:	5a 01       	movw	r10, r20
	return (x + x0_6 - centerToFrontLegsX)/(-sqrt2)+(y + y0_6 - centerToFrontLegsY)/sqrt2;}
    228c:	28 e8       	ldi	r18, 0x88	; 136
    228e:	3f e8       	ldi	r19, 0x8F	; 143
    2290:	44 e0       	ldi	r20, 0x04	; 4
    2292:	53 e4       	ldi	r21, 0x43	; 67
    2294:	3b d4       	rcall	.+2166   	; 0x2b0c <__addsf3>
    2296:	26 e6       	ldi	r18, 0x66	; 102
    2298:	36 e6       	ldi	r19, 0x66	; 102
    229a:	47 e7       	ldi	r20, 0x77	; 119
    229c:	52 e4       	ldi	r21, 0x42	; 66
    229e:	35 d4       	rcall	.+2154   	; 0x2b0a <__subsf3>
    22a0:	23 ef       	ldi	r18, 0xF3	; 243
    22a2:	34 e0       	ldi	r19, 0x04	; 4
    22a4:	45 eb       	ldi	r20, 0xB5	; 181
    22a6:	5f eb       	ldi	r21, 0xBF	; 191
    22a8:	db d4       	rcall	.+2486   	; 0x2c60 <__divsf3>
    22aa:	6b 01       	movw	r12, r22
    22ac:	7c 01       	movw	r14, r24
    22ae:	2f ee       	ldi	r18, 0xEF	; 239
    22b0:	35 eb       	ldi	r19, 0xB5	; 181
    22b2:	4e e3       	ldi	r20, 0x3E	; 62
    22b4:	53 e4       	ldi	r21, 0x43	; 67
    22b6:	c5 01       	movw	r24, r10
    22b8:	b4 01       	movw	r22, r8
    22ba:	28 d4       	rcall	.+2128   	; 0x2b0c <__addsf3>
    22bc:	20 e0       	ldi	r18, 0x00	; 0
    22be:	30 e0       	ldi	r19, 0x00	; 0
    22c0:	40 ef       	ldi	r20, 0xF0	; 240
    22c2:	52 e4       	ldi	r21, 0x42	; 66
    22c4:	22 d4       	rcall	.+2116   	; 0x2b0a <__subsf3>
    22c6:	23 ef       	ldi	r18, 0xF3	; 243
    22c8:	34 e0       	ldi	r19, 0x04	; 4
    22ca:	45 eb       	ldi	r20, 0xB5	; 181
    22cc:	5f e3       	ldi	r21, 0x3F	; 63
    22ce:	c8 d4       	rcall	.+2448   	; 0x2c60 <__divsf3>
    22d0:	9b 01       	movw	r18, r22
    22d2:	ac 01       	movw	r20, r24
    22d4:	c7 01       	movw	r24, r14
    22d6:	b6 01       	movw	r22, r12
    22d8:	19 d4       	rcall	.+2098   	; 0x2b0c <__addsf3>
    22da:	ff 90       	pop	r15
    22dc:	ef 90       	pop	r14
    22de:	df 90       	pop	r13
    22e0:	cf 90       	pop	r12
    22e2:	bf 90       	pop	r11
    22e4:	af 90       	pop	r10
    22e6:	9f 90       	pop	r9
    22e8:	8f 90       	pop	r8
    22ea:	08 95       	ret

000022ec <_Z20servo_check_tx_readyv>:
}

uint8_t SERVO_get_voltage()
{
	return gServoVoltage;
}
    22ec:	80 91 c8 00 	lds	r24, 0x00C8
    22f0:	80 72       	andi	r24, 0x20	; 32
    22f2:	08 95       	ret

000022f4 <_Z16servo_write_byteh>:
    22f4:	cf 93       	push	r28
    22f6:	c8 2f       	mov	r28, r24
    22f8:	f9 df       	rcall	.-14     	; 0x22ec <_Z20servo_check_tx_readyv>
    22fa:	88 23       	and	r24, r24
    22fc:	e9 f3       	breq	.-6      	; 0x22f8 <_Z16servo_write_byteh+0x4>
    22fe:	c0 93 ce 00 	sts	0x00CE, r28
    2302:	cf 91       	pop	r28
    2304:	08 95       	ret

00002306 <_Z17send_servo_packethhh>:
    2306:	0f 93       	push	r16
    2308:	1f 93       	push	r17
    230a:	cf 93       	push	r28
    230c:	df 93       	push	r29
    230e:	9f ef       	ldi	r25, 0xFF	; 255
    2310:	90 93 e6 18 	sts	0x18E6, r25
    2314:	90 93 e7 18 	sts	0x18E7, r25
    2318:	80 93 e8 18 	sts	0x18E8, r24
    231c:	84 2f       	mov	r24, r20
    231e:	8e 5f       	subi	r24, 0xFE	; 254
    2320:	80 93 e9 18 	sts	0x18E9, r24
    2324:	60 93 ea 18 	sts	0x18EA, r22
    2328:	44 23       	and	r20, r20
    232a:	c1 f1       	breq	.+112    	; 0x239c <_Z17send_servo_packethhh+0x96>
    232c:	e6 e6       	ldi	r30, 0x66	; 102
    232e:	f9 e1       	ldi	r31, 0x19	; 25
    2330:	ab ee       	ldi	r26, 0xEB	; 235
    2332:	b8 e1       	ldi	r27, 0x18	; 24
    2334:	83 50       	subi	r24, 0x03	; 3
    2336:	90 e0       	ldi	r25, 0x00	; 0
    2338:	89 59       	subi	r24, 0x99	; 153
    233a:	96 4e       	sbci	r25, 0xE6	; 230
    233c:	21 91       	ld	r18, Z+
    233e:	2d 93       	st	X+, r18
    2340:	e8 17       	cp	r30, r24
    2342:	f9 07       	cpc	r31, r25
    2344:	d9 f7       	brne	.-10     	; 0x233c <_Z17send_servo_packethhh+0x36>
    2346:	4a 5f       	subi	r20, 0xFA	; 250
    2348:	24 2f       	mov	r18, r20
    234a:	30 e0       	ldi	r19, 0x00	; 0
    234c:	21 50       	subi	r18, 0x01	; 1
    234e:	31 09       	sbc	r19, r1
    2350:	23 30       	cpi	r18, 0x03	; 3
    2352:	31 05       	cpc	r19, r1
    2354:	34 f5       	brge	.+76     	; 0x23a2 <_Z17send_servo_packethhh+0x9c>
    2356:	82 e0       	ldi	r24, 0x02	; 2
    2358:	90 e0       	ldi	r25, 0x00	; 0
    235a:	60 e0       	ldi	r22, 0x00	; 0
    235c:	0b c0       	rjmp	.+22     	; 0x2374 <_Z17send_servo_packethhh+0x6e>
    235e:	fc 01       	movw	r30, r24
    2360:	ea 51       	subi	r30, 0x1A	; 26
    2362:	f7 4e       	sbci	r31, 0xE7	; 231
    2364:	80 81       	ld	r24, Z
    2366:	68 0f       	add	r22, r24
    2368:	5f 5f       	subi	r21, 0xFF	; 255
    236a:	85 2f       	mov	r24, r21
    236c:	90 e0       	ldi	r25, 0x00	; 0
    236e:	82 17       	cp	r24, r18
    2370:	93 07       	cpc	r25, r19
    2372:	ac f3       	brlt	.-22     	; 0x235e <_Z17send_servo_packethhh+0x58>
    2374:	fc 01       	movw	r30, r24
    2376:	ea 51       	subi	r30, 0x1A	; 26
    2378:	f7 4e       	sbci	r31, 0xE7	; 231
    237a:	60 95       	com	r22
    237c:	60 83       	st	Z, r22
    237e:	44 23       	and	r20, r20
    2380:	a9 f0       	breq	.+42     	; 0x23ac <_Z17send_servo_packethhh+0xa6>
    2382:	c6 ee       	ldi	r28, 0xE6	; 230
    2384:	d8 e1       	ldi	r29, 0x18	; 24
    2386:	41 50       	subi	r20, 0x01	; 1
    2388:	04 2f       	mov	r16, r20
    238a:	10 e0       	ldi	r17, 0x00	; 0
    238c:	09 51       	subi	r16, 0x19	; 25
    238e:	17 4e       	sbci	r17, 0xE7	; 231
    2390:	89 91       	ld	r24, Y+
    2392:	b0 df       	rcall	.-160    	; 0x22f4 <_Z16servo_write_byteh>
    2394:	c0 17       	cp	r28, r16
    2396:	d1 07       	cpc	r29, r17
    2398:	d9 f7       	brne	.-10     	; 0x2390 <_Z17send_servo_packethhh+0x8a>
    239a:	08 c0       	rjmp	.+16     	; 0x23ac <_Z17send_servo_packethhh+0xa6>
    239c:	25 e0       	ldi	r18, 0x05	; 5
    239e:	30 e0       	ldi	r19, 0x00	; 0
    23a0:	46 e0       	ldi	r20, 0x06	; 6
    23a2:	82 e0       	ldi	r24, 0x02	; 2
    23a4:	90 e0       	ldi	r25, 0x00	; 0
    23a6:	60 e0       	ldi	r22, 0x00	; 0
    23a8:	52 e0       	ldi	r21, 0x02	; 2
    23aa:	d9 cf       	rjmp	.-78     	; 0x235e <_Z17send_servo_packethhh+0x58>
    23ac:	df 91       	pop	r29
    23ae:	cf 91       	pop	r28
    23b0:	1f 91       	pop	r17
    23b2:	0f 91       	pop	r16
    23b4:	08 95       	ret

000023b6 <_Z21SERVO_buffer_positionhdj>:
    23b6:	9f 92       	push	r9
    23b8:	af 92       	push	r10
    23ba:	bf 92       	push	r11
    23bc:	cf 92       	push	r12
    23be:	df 92       	push	r13
    23c0:	ef 92       	push	r14
    23c2:	ff 92       	push	r15
    23c4:	0f 93       	push	r16
    23c6:	1f 93       	push	r17
    23c8:	cf 93       	push	r28
    23ca:	df 93       	push	r29
    23cc:	c8 2f       	mov	r28, r24
    23ce:	cb 01       	movw	r24, r22
    23d0:	ba 01       	movw	r22, r20
    23d2:	12 2f       	mov	r17, r18
    23d4:	d3 2f       	mov	r29, r19
    23d6:	5c 98       	cbi	0x0b, 4	; 11
    23d8:	ef e3       	ldi	r30, 0x3F	; 63
    23da:	ff e1       	ldi	r31, 0x1F	; 31
    23dc:	31 97       	sbiw	r30, 0x01	; 1
    23de:	f1 f7       	brne	.-4      	; 0x23dc <_Z21SERVO_buffer_positionhdj+0x26>
    23e0:	00 c0       	rjmp	.+0      	; 0x23e2 <_Z21SERVO_buffer_positionhdj+0x2c>
    23e2:	00 00       	nop
    23e4:	20 e0       	ldi	r18, 0x00	; 0
    23e6:	30 e0       	ldi	r19, 0x00	; 0
    23e8:	46 e1       	ldi	r20, 0x16	; 22
    23ea:	53 e4       	ldi	r21, 0x43	; 67
    23ec:	38 d6       	rcall	.+3184   	; 0x305e <__mulsf3>
    23ee:	26 e5       	ldi	r18, 0x56	; 86
    23f0:	3e e0       	ldi	r19, 0x0E	; 14
    23f2:	49 e4       	ldi	r20, 0x49	; 73
    23f4:	50 e4       	ldi	r21, 0x40	; 64
    23f6:	34 d4       	rcall	.+2152   	; 0x2c60 <__divsf3>
    23f8:	20 e0       	ldi	r18, 0x00	; 0
    23fa:	30 e0       	ldi	r19, 0x00	; 0
    23fc:	46 e1       	ldi	r20, 0x16	; 22
    23fe:	53 e4       	ldi	r21, 0x43	; 67
    2400:	85 d3       	rcall	.+1802   	; 0x2b0c <__addsf3>
    2402:	96 2e       	mov	r9, r22
    2404:	e7 2e       	mov	r14, r23
    2406:	f8 2e       	mov	r15, r24
    2408:	09 2f       	mov	r16, r25
    240a:	a6 2e       	mov	r10, r22
    240c:	b7 2e       	mov	r11, r23
    240e:	c8 2e       	mov	r12, r24
    2410:	d9 2e       	mov	r13, r25
    2412:	20 e0       	ldi	r18, 0x00	; 0
    2414:	30 e0       	ldi	r19, 0x00	; 0
    2416:	46 e9       	ldi	r20, 0x96	; 150
    2418:	53 e4       	ldi	r21, 0x43	; 67
    241a:	16 d6       	rcall	.+3116   	; 0x3048 <__gesf2>
    241c:	18 16       	cp	r1, r24
    241e:	5c f0       	brlt	.+22     	; 0x2436 <_Z21SERVO_buffer_positionhdj+0x80>
    2420:	20 e0       	ldi	r18, 0x00	; 0
    2422:	30 e0       	ldi	r19, 0x00	; 0
    2424:	a9 01       	movw	r20, r18
    2426:	69 2d       	mov	r22, r9
    2428:	7e 2d       	mov	r23, r14
    242a:	8f 2d       	mov	r24, r15
    242c:	90 2f       	mov	r25, r16
    242e:	11 d4       	rcall	.+2082   	; 0x2c52 <__cmpsf2>
    2430:	88 23       	and	r24, r24
    2432:	84 f4       	brge	.+32     	; 0x2454 <_Z21SERVO_buffer_positionhdj+0x9e>
    2434:	0b c0       	rjmp	.+22     	; 0x244c <_Z21SERVO_buffer_positionhdj+0x96>
    2436:	a1 2c       	mov	r10, r1
    2438:	b1 2c       	mov	r11, r1
    243a:	0f 2e       	mov	r0, r31
    243c:	f6 e9       	ldi	r31, 0x96	; 150
    243e:	cf 2e       	mov	r12, r31
    2440:	f0 2d       	mov	r31, r0
    2442:	0f 2e       	mov	r0, r31
    2444:	f3 e4       	ldi	r31, 0x43	; 67
    2446:	df 2e       	mov	r13, r31
    2448:	f0 2d       	mov	r31, r0
    244a:	04 c0       	rjmp	.+8      	; 0x2454 <_Z21SERVO_buffer_positionhdj+0x9e>
    244c:	a1 2c       	mov	r10, r1
    244e:	b1 2c       	mov	r11, r1
    2450:	c1 2c       	mov	r12, r1
    2452:	d1 2c       	mov	r13, r1
    2454:	20 e0       	ldi	r18, 0x00	; 0
    2456:	30 ec       	ldi	r19, 0xC0	; 192
    2458:	4f e7       	ldi	r20, 0x7F	; 127
    245a:	54 e4       	ldi	r21, 0x44	; 68
    245c:	6a 2d       	mov	r22, r10
    245e:	7b 2d       	mov	r23, r11
    2460:	8c 2d       	mov	r24, r12
    2462:	9d 2d       	mov	r25, r13
    2464:	fc d5       	rcall	.+3064   	; 0x305e <__mulsf3>
    2466:	20 e0       	ldi	r18, 0x00	; 0
    2468:	30 e0       	ldi	r19, 0x00	; 0
    246a:	46 e9       	ldi	r20, 0x96	; 150
    246c:	53 e4       	ldi	r21, 0x43	; 67
    246e:	f8 d3       	rcall	.+2032   	; 0x2c60 <__divsf3>
    2470:	64 d4       	rcall	.+2248   	; 0x2d3a <__fixunssfsi>
    2472:	26 2f       	mov	r18, r22
    2474:	9e e1       	ldi	r25, 0x1E	; 30
    2476:	90 93 66 19 	sts	0x1966, r25
    247a:	20 93 67 19 	sts	0x1967, r18
    247e:	70 93 68 19 	sts	0x1968, r23
    2482:	10 93 69 19 	sts	0x1969, r17
    2486:	d0 93 6a 19 	sts	0x196A, r29
    248a:	45 e0       	ldi	r20, 0x05	; 5
    248c:	64 e0       	ldi	r22, 0x04	; 4
    248e:	8c 2f       	mov	r24, r28
    2490:	3a df       	rcall	.-396    	; 0x2306 <_Z17send_servo_packethhh>
    2492:	df 91       	pop	r29
    2494:	cf 91       	pop	r28
    2496:	1f 91       	pop	r17
    2498:	0f 91       	pop	r16
    249a:	ff 90       	pop	r15
    249c:	ef 90       	pop	r14
    249e:	df 90       	pop	r13
    24a0:	cf 90       	pop	r12
    24a2:	bf 90       	pop	r11
    24a4:	af 90       	pop	r10
    24a6:	9f 90       	pop	r9
    24a8:	08 95       	ret

000024aa <_Z12SERVO_actionv>:
    24aa:	40 e0       	ldi	r20, 0x00	; 0
    24ac:	65 e0       	ldi	r22, 0x05	; 5
    24ae:	8e ef       	ldi	r24, 0xFE	; 254
    24b0:	2a cf       	rjmp	.-428    	; 0x2306 <_Z17send_servo_packethhh>

000024b2 <_Z22SERVO_set_torque_limithj>:
    24b2:	92 e2       	ldi	r25, 0x22	; 34
    24b4:	90 93 66 19 	sts	0x1966, r25
    24b8:	60 93 67 19 	sts	0x1967, r22
    24bc:	70 93 68 19 	sts	0x1968, r23
    24c0:	43 e0       	ldi	r20, 0x03	; 3
    24c2:	63 e0       	ldi	r22, 0x03	; 3
    24c4:	20 cf       	rjmp	.-448    	; 0x2306 <_Z17send_servo_packethhh>

000024c6 <_Z10SERVO_initv>:
    24c6:	5c 98       	cbi	0x0b, 4	; 11
    24c8:	10 92 cd 00 	sts	0x00CD, r1
    24cc:	10 92 cc 00 	sts	0x00CC, r1
    24d0:	88 e9       	ldi	r24, 0x98	; 152
    24d2:	80 93 c9 00 	sts	0x00C9, r24
    24d6:	86 e0       	ldi	r24, 0x06	; 6
    24d8:	80 93 ca 00 	sts	0x00CA, r24
    24dc:	54 9a       	sbi	0x0a, 4	; 10
    24de:	60 e0       	ldi	r22, 0x00	; 0
    24e0:	72 e0       	ldi	r23, 0x02	; 2
    24e2:	8e ef       	ldi	r24, 0xFE	; 254
    24e4:	e6 cf       	rjmp	.-52     	; 0x24b2 <_Z22SERVO_set_torque_limithj>

000024e6 <_Z22SERVO_set_return_levelhh>:
    24e6:	90 e1       	ldi	r25, 0x10	; 16
    24e8:	90 93 66 19 	sts	0x1966, r25
    24ec:	60 93 67 19 	sts	0x1967, r22
    24f0:	42 e0       	ldi	r20, 0x02	; 2
    24f2:	63 e0       	ldi	r22, 0x03	; 3
    24f4:	08 cf       	rjmp	.-496    	; 0x2306 <_Z17send_servo_packethhh>

000024f6 <_Z27SERVO_set_return_delay_timehh>:
    24f6:	95 e0       	ldi	r25, 0x05	; 5
    24f8:	90 93 66 19 	sts	0x1966, r25
    24fc:	60 93 67 19 	sts	0x1967, r22
    2500:	42 e0       	ldi	r20, 0x02	; 2
    2502:	63 e0       	ldi	r22, 0x03	; 3
    2504:	00 cf       	rjmp	.-512    	; 0x2306 <_Z17send_servo_packethhh>

00002506 <_Z19SERVO_update_EEPROMh>:
    2506:	cf 93       	push	r28
    2508:	c8 2f       	mov	r28, r24
    250a:	5c 98       	cbi	0x0b, 4	; 11
    250c:	61 e0       	ldi	r22, 0x01	; 1
    250e:	eb df       	rcall	.-42     	; 0x24e6 <_Z22SERVO_set_return_levelhh>
    2510:	8f e3       	ldi	r24, 0x3F	; 63
    2512:	9f e1       	ldi	r25, 0x1F	; 31
    2514:	01 97       	sbiw	r24, 0x01	; 1
    2516:	f1 f7       	brne	.-4      	; 0x2514 <_Z19SERVO_update_EEPROMh+0xe>
    2518:	00 c0       	rjmp	.+0      	; 0x251a <_Z19SERVO_update_EEPROMh+0x14>
    251a:	00 00       	nop
    251c:	64 e1       	ldi	r22, 0x14	; 20
    251e:	8c 2f       	mov	r24, r28
    2520:	ea df       	rcall	.-44     	; 0x24f6 <_Z27SERVO_set_return_delay_timehh>
    2522:	cf 91       	pop	r28
    2524:	08 95       	ret

00002526 <__vector_28>:


// -- Interrupts --

ISR (USART1_RX_vect)
{
    2526:	1f 92       	push	r1
    2528:	0f 92       	push	r0
    252a:	0f b6       	in	r0, 0x3f	; 63
    252c:	0f 92       	push	r0
    252e:	11 24       	eor	r1, r1
    2530:	0b b6       	in	r0, 0x3b	; 59
    2532:	0f 92       	push	r0
    2534:	2f 93       	push	r18
    2536:	3f 93       	push	r19
    2538:	4f 93       	push	r20
    253a:	5f 93       	push	r21
    253c:	6f 93       	push	r22
    253e:	7f 93       	push	r23
    2540:	8f 93       	push	r24
    2542:	9f 93       	push	r25
    2544:	af 93       	push	r26
    2546:	bf 93       	push	r27
    2548:	ef 93       	push	r30
    254a:	ff 93       	push	r31
	uint8_t data;
	data = UDR1;
    254c:	60 91 ce 00 	lds	r22, 0x00CE
	if(FifoWrite(gServoRxFIFO, data))
    2550:	80 91 01 01 	lds	r24, 0x0101
    2554:	90 91 02 01 	lds	r25, 0x0102
    2558:	0e 94 0b 01 	call	0x216	; 0x216 <_Z9FifoWriteP4fifoh>
    255c:	88 23       	and	r24, r24
    255e:	19 f0       	breq	.+6      	; 0x2566 <__vector_28+0x40>
	{
		USART_SendMessage("ServoError: 1");
    2560:	82 e3       	ldi	r24, 0x32	; 50
    2562:	95 e1       	ldi	r25, 0x15	; 21
    2564:	09 d1       	rcall	.+530    	; 0x2778 <_Z17USART_SendMessagePc>
	}
}
    2566:	ff 91       	pop	r31
    2568:	ef 91       	pop	r30
    256a:	bf 91       	pop	r27
    256c:	af 91       	pop	r26
    256e:	9f 91       	pop	r25
    2570:	8f 91       	pop	r24
    2572:	7f 91       	pop	r23
    2574:	6f 91       	pop	r22
    2576:	5f 91       	pop	r21
    2578:	4f 91       	pop	r20
    257a:	3f 91       	pop	r19
    257c:	2f 91       	pop	r18
    257e:	0f 90       	pop	r0
    2580:	0b be       	out	0x3b, r0	; 59
    2582:	0f 90       	pop	r0
    2584:	0f be       	out	0x3f, r0	; 63
    2586:	0f 90       	pop	r0
    2588:	1f 90       	pop	r1
    258a:	18 95       	reti

0000258c <_Z17USART_getRotationv>:
{
	for(int i = 0; i < gRxBuffer[1]; i++)
	{
		gTxPayload[i] = gRxBuffer[i+2];
	}
	USART_SendPacket(gRxBuffer[0], gRxBuffer[1]);
    258c:	80 91 15 15 	lds	r24, 0x1515
    2590:	92 e3       	ldi	r25, 0x32	; 50
    2592:	90 93 15 15 	sts	0x1515, r25
    2596:	08 95       	ret

00002598 <_Z14USART_getSpeedv>:
    2598:	80 91 e7 19 	lds	r24, 0x19E7
    259c:	10 92 e7 19 	sts	0x19E7, r1
    25a0:	08 95       	ret

000025a2 <_Z18USART_getDirectionv>:
    25a2:	80 91 e6 19 	lds	r24, 0x19E6
    25a6:	10 92 e6 19 	sts	0x19E6, r1
    25aa:	08 95       	ret

000025ac <_Z11USART_get_zv>:
    25ac:	50 91 11 15 	lds	r21, 0x1511
    25b0:	40 91 12 15 	lds	r20, 0x1512
    25b4:	30 91 13 15 	lds	r19, 0x1513
    25b8:	20 91 14 15 	lds	r18, 0x1514
    25bc:	65 2f       	mov	r22, r21
    25be:	74 2f       	mov	r23, r20
    25c0:	83 2f       	mov	r24, r19
    25c2:	92 2f       	mov	r25, r18
    25c4:	08 95       	ret

000025c6 <_Z10USART_initv>:
    25c6:	10 92 c5 00 	sts	0x00C5, r1
    25ca:	87 e0       	ldi	r24, 0x07	; 7
    25cc:	80 93 c4 00 	sts	0x00C4, r24
    25d0:	88 e9       	ldi	r24, 0x98	; 152
    25d2:	80 93 c1 00 	sts	0x00C1, r24
    25d6:	86 e0       	ldi	r24, 0x06	; 6
    25d8:	80 93 c2 00 	sts	0x00C2, r24
    25dc:	82 e3       	ldi	r24, 0x32	; 50
    25de:	80 93 15 15 	sts	0x1515, r24
    25e2:	10 92 e7 19 	sts	0x19E7, r1
    25e6:	10 92 e6 19 	sts	0x19E6, r1
    25ea:	08 95       	ret

000025ec <_Z18USART_CheckTxReadyv>:
    25ec:	80 91 c0 00 	lds	r24, 0x00C0
    25f0:	80 72       	andi	r24, 0x20	; 32
    25f2:	08 95       	ret

000025f4 <_Z15USART_WriteByteh>:
    25f4:	cf 93       	push	r28
    25f6:	c8 2f       	mov	r28, r24
    25f8:	f9 df       	rcall	.-14     	; 0x25ec <_Z18USART_CheckTxReadyv>
    25fa:	88 23       	and	r24, r24
    25fc:	e9 f3       	breq	.-6      	; 0x25f8 <_Z15USART_WriteByteh+0x4>
    25fe:	c0 93 c6 00 	sts	0x00C6, r28
    2602:	cf 91       	pop	r28
    2604:	08 95       	ret

00002606 <_Z11USART_crc16hh>:
    2606:	cf 92       	push	r12
    2608:	df 92       	push	r13
    260a:	ef 92       	push	r14
    260c:	ff 92       	push	r15
    260e:	0f 93       	push	r16
    2610:	1f 93       	push	r17
    2612:	cf 93       	push	r28
    2614:	df 93       	push	r29
    2616:	66 23       	and	r22, r22
    2618:	09 f4       	brne	.+2      	; 0x261c <_Z11USART_crc16hh+0x16>
    261a:	3e c0       	rjmp	.+124    	; 0x2698 <_Z11USART_crc16hh+0x92>
    261c:	06 2f       	mov	r16, r22
    261e:	10 e0       	ldi	r17, 0x00	; 0
    2620:	4f ef       	ldi	r20, 0xFF	; 255
    2622:	5f ef       	ldi	r21, 0xFF	; 255
    2624:	ee ef       	ldi	r30, 0xFE	; 254
    2626:	ff ef       	ldi	r31, 0xFF	; 255
    2628:	c6 2e       	mov	r12, r22
    262a:	d1 2c       	mov	r13, r1
    262c:	e8 2e       	mov	r14, r24
    262e:	f1 2c       	mov	r15, r1
    2630:	c8 e0       	ldi	r28, 0x08	; 8
    2632:	d0 e0       	ldi	r29, 0x00	; 0
    2634:	ee 3f       	cpi	r30, 0xFE	; 254
    2636:	6f ef       	ldi	r22, 0xFF	; 255
    2638:	f6 07       	cpc	r31, r22
    263a:	19 f4       	brne	.+6      	; 0x2642 <_Z11USART_crc16hh+0x3c>
    263c:	8e 2d       	mov	r24, r14
    263e:	9f 2d       	mov	r25, r15
    2640:	30 c0       	rjmp	.+96     	; 0x26a2 <_Z11USART_crc16hh+0x9c>
    2642:	ef 3f       	cpi	r30, 0xFF	; 255
    2644:	8f ef       	ldi	r24, 0xFF	; 255
    2646:	f8 07       	cpc	r31, r24
    2648:	19 f4       	brne	.+6      	; 0x2650 <_Z11USART_crc16hh+0x4a>
    264a:	8c 2d       	mov	r24, r12
    264c:	9d 2d       	mov	r25, r13
    264e:	29 c0       	rjmp	.+82     	; 0x26a2 <_Z11USART_crc16hh+0x9c>
    2650:	df 01       	movw	r26, r30
    2652:	aa 50       	subi	r26, 0x0A	; 10
    2654:	b2 4e       	sbci	r27, 0xE2	; 226
    2656:	8c 91       	ld	r24, X
    2658:	90 e0       	ldi	r25, 0x00	; 0
    265a:	23 c0       	rjmp	.+70     	; 0x26a2 <_Z11USART_crc16hh+0x9c>
    265c:	ba 01       	movw	r22, r20
    265e:	68 27       	eor	r22, r24
    2660:	79 27       	eor	r23, r25
    2662:	60 ff       	sbrs	r22, 0
    2664:	07 c0       	rjmp	.+14     	; 0x2674 <_Z11USART_crc16hh+0x6e>
    2666:	56 95       	lsr	r21
    2668:	47 95       	ror	r20
    266a:	68 e0       	ldi	r22, 0x08	; 8
    266c:	46 27       	eor	r20, r22
    266e:	64 e8       	ldi	r22, 0x84	; 132
    2670:	56 27       	eor	r21, r22
    2672:	02 c0       	rjmp	.+4      	; 0x2678 <_Z11USART_crc16hh+0x72>
    2674:	56 95       	lsr	r21
    2676:	47 95       	ror	r20
    2678:	96 95       	lsr	r25
    267a:	87 95       	ror	r24
    267c:	21 50       	subi	r18, 0x01	; 1
    267e:	31 09       	sbc	r19, r1
    2680:	69 f7       	brne	.-38     	; 0x265c <_Z11USART_crc16hh+0x56>
    2682:	31 96       	adiw	r30, 0x01	; 1
    2684:	e0 17       	cp	r30, r16
    2686:	f1 07       	cpc	r31, r17
    2688:	a9 f6       	brne	.-86     	; 0x2634 <_Z11USART_crc16hh+0x2e>
    268a:	9a 01       	movw	r18, r20
    268c:	20 95       	com	r18
    268e:	30 95       	com	r19
    2690:	32 27       	eor	r19, r18
    2692:	23 27       	eor	r18, r19
    2694:	32 27       	eor	r19, r18
    2696:	02 c0       	rjmp	.+4      	; 0x269c <_Z11USART_crc16hh+0x96>
    2698:	20 e0       	ldi	r18, 0x00	; 0
    269a:	30 e0       	ldi	r19, 0x00	; 0
    269c:	82 2f       	mov	r24, r18
    269e:	93 2f       	mov	r25, r19
    26a0:	02 c0       	rjmp	.+4      	; 0x26a6 <_Z11USART_crc16hh+0xa0>
    26a2:	9e 01       	movw	r18, r28
    26a4:	db cf       	rjmp	.-74     	; 0x265c <_Z11USART_crc16hh+0x56>
    26a6:	df 91       	pop	r29
    26a8:	cf 91       	pop	r28
    26aa:	1f 91       	pop	r17
    26ac:	0f 91       	pop	r16
    26ae:	ff 90       	pop	r15
    26b0:	ef 90       	pop	r14
    26b2:	df 90       	pop	r13
    26b4:	cf 90       	pop	r12
    26b6:	08 95       	ret

000026b8 <_Z16USART_SendPacketch>:
    26b8:	0f 93       	push	r16
    26ba:	1f 93       	push	r17
    26bc:	cf 93       	push	r28
    26be:	df 93       	push	r29
    26c0:	9e e7       	ldi	r25, 0x7E	; 126
    26c2:	90 93 f1 1b 	sts	0x1BF1, r25
    26c6:	80 93 f2 1b 	sts	0x1BF2, r24
    26ca:	60 93 f3 1b 	sts	0x1BF3, r22
    26ce:	26 2f       	mov	r18, r22
    26d0:	30 e0       	ldi	r19, 0x00	; 0
    26d2:	12 16       	cp	r1, r18
    26d4:	13 06       	cpc	r1, r19
    26d6:	4c f5       	brge	.+82     	; 0x272a <_Z16USART_SendPacketch+0x72>
    26d8:	e6 ef       	ldi	r30, 0xF6	; 246
    26da:	fd e1       	ldi	r31, 0x1D	; 29
    26dc:	03 e0       	ldi	r16, 0x03	; 3
    26de:	10 e0       	ldi	r17, 0x00	; 0
    26e0:	c0 e0       	ldi	r28, 0x00	; 0
    26e2:	d0 e0       	ldi	r29, 0x00	; 0
    26e4:	7d e7       	ldi	r23, 0x7D	; 125
    26e6:	50 e2       	ldi	r21, 0x20	; 32
    26e8:	90 81       	ld	r25, Z
    26ea:	49 2f       	mov	r20, r25
    26ec:	4d 57       	subi	r20, 0x7D	; 125
    26ee:	42 30       	cpi	r20, 0x02	; 2
    26f0:	80 f4       	brcc	.+32     	; 0x2712 <_Z16USART_SendPacketch+0x5a>
    26f2:	d8 01       	movw	r26, r16
    26f4:	af 50       	subi	r26, 0x0F	; 15
    26f6:	b4 4e       	sbci	r27, 0xE4	; 228
    26f8:	ac 0f       	add	r26, r28
    26fa:	bd 1f       	adc	r27, r29
    26fc:	7c 93       	st	X, r23
    26fe:	0f 5f       	subi	r16, 0xFF	; 255
    2700:	1f 4f       	sbci	r17, 0xFF	; 255
    2702:	d8 01       	movw	r26, r16
    2704:	af 50       	subi	r26, 0x0F	; 15
    2706:	b4 4e       	sbci	r27, 0xE4	; 228
    2708:	ac 0f       	add	r26, r28
    270a:	bd 1f       	adc	r27, r29
    270c:	95 27       	eor	r25, r21
    270e:	9c 93       	st	X, r25
    2710:	06 c0       	rjmp	.+12     	; 0x271e <_Z16USART_SendPacketch+0x66>
    2712:	d8 01       	movw	r26, r16
    2714:	af 50       	subi	r26, 0x0F	; 15
    2716:	b4 4e       	sbci	r27, 0xE4	; 228
    2718:	ac 0f       	add	r26, r28
    271a:	bd 1f       	adc	r27, r29
    271c:	9c 93       	st	X, r25
    271e:	21 96       	adiw	r28, 0x01	; 1
    2720:	31 96       	adiw	r30, 0x01	; 1
    2722:	c2 17       	cp	r28, r18
    2724:	d3 07       	cpc	r29, r19
    2726:	01 f7       	brne	.-64     	; 0x26e8 <_Z16USART_SendPacketch+0x30>
    2728:	04 c0       	rjmp	.+8      	; 0x2732 <_Z16USART_SendPacketch+0x7a>
    272a:	03 e0       	ldi	r16, 0x03	; 3
    272c:	10 e0       	ldi	r17, 0x00	; 0
    272e:	c0 e0       	ldi	r28, 0x00	; 0
    2730:	d0 e0       	ldi	r29, 0x00	; 0
    2732:	69 df       	rcall	.-302    	; 0x2606 <_Z11USART_crc16hh>
    2734:	f8 01       	movw	r30, r16
    2736:	ef 50       	subi	r30, 0x0F	; 15
    2738:	f4 4e       	sbci	r31, 0xE4	; 228
    273a:	ec 0f       	add	r30, r28
    273c:	fd 1f       	adc	r31, r29
    273e:	90 83       	st	Z, r25
    2740:	81 83       	std	Z+1, r24	; 0x01
    2742:	22 96       	adiw	r28, 0x02	; 2
    2744:	0c 0f       	add	r16, r28
    2746:	1d 1f       	adc	r17, r29
    2748:	f8 01       	movw	r30, r16
    274a:	ef 50       	subi	r30, 0x0F	; 15
    274c:	f4 4e       	sbci	r31, 0xE4	; 228
    274e:	8e e7       	ldi	r24, 0x7E	; 126
    2750:	80 83       	st	Z, r24
    2752:	c8 01       	movw	r24, r16
    2754:	01 96       	adiw	r24, 0x01	; 1
    2756:	18 16       	cp	r1, r24
    2758:	19 06       	cpc	r1, r25
    275a:	4c f4       	brge	.+18     	; 0x276e <_Z16USART_SendPacketch+0xb6>
    275c:	c1 ef       	ldi	r28, 0xF1	; 241
    275e:	db e1       	ldi	r29, 0x1B	; 27
    2760:	0e 50       	subi	r16, 0x0E	; 14
    2762:	14 4e       	sbci	r17, 0xE4	; 228
    2764:	89 91       	ld	r24, Y+
    2766:	46 df       	rcall	.-372    	; 0x25f4 <_Z15USART_WriteByteh>
    2768:	c0 17       	cp	r28, r16
    276a:	d1 07       	cpc	r29, r17
    276c:	d9 f7       	brne	.-10     	; 0x2764 <_Z16USART_SendPacketch+0xac>
    276e:	df 91       	pop	r29
    2770:	cf 91       	pop	r28
    2772:	1f 91       	pop	r17
    2774:	0f 91       	pop	r16
    2776:	08 95       	ret

00002778 <_Z17USART_SendMessagePc>:
    2778:	cf 93       	push	r28
    277a:	df 93       	push	r29
    277c:	c8 2f       	mov	r28, r24
    277e:	d9 2f       	mov	r29, r25
    2780:	46 ef       	ldi	r20, 0xF6	; 246
    2782:	5d e1       	ldi	r21, 0x1D	; 29
    2784:	20 e0       	ldi	r18, 0x00	; 0
    2786:	30 e0       	ldi	r19, 0x00	; 0
    2788:	06 c0       	rjmp	.+12     	; 0x2796 <_Z17USART_SendMessagePc+0x1e>
    278a:	69 91       	ld	r22, Y+
    278c:	fa 01       	movw	r30, r20
    278e:	61 93       	st	Z+, r22
    2790:	af 01       	movw	r20, r30
    2792:	2f 5f       	subi	r18, 0xFF	; 255
    2794:	3f 4f       	sbci	r19, 0xFF	; 255
    2796:	e8 2f       	mov	r30, r24
    2798:	f9 2f       	mov	r31, r25
    279a:	df 01       	movw	r26, r30
    279c:	0d 90       	ld	r0, X+
    279e:	00 20       	and	r0, r0
    27a0:	e9 f7       	brne	.-6      	; 0x279c <_Z17USART_SendMessagePc+0x24>
    27a2:	11 97       	sbiw	r26, 0x01	; 1
    27a4:	bd 01       	movw	r22, r26
    27a6:	6e 1b       	sub	r22, r30
    27a8:	7f 0b       	sbc	r23, r31
    27aa:	26 17       	cp	r18, r22
    27ac:	37 07       	cpc	r19, r23
    27ae:	68 f3       	brcs	.-38     	; 0x278a <_Z17USART_SendMessagePc+0x12>
    27b0:	8d e4       	ldi	r24, 0x4D	; 77
    27b2:	82 df       	rcall	.-252    	; 0x26b8 <_Z16USART_SendPacketch>
    27b4:	df 91       	pop	r29
    27b6:	cf 91       	pop	r28
    27b8:	08 95       	ret

000027ba <_Z16USART_send_readyv>:
    27ba:	60 e0       	ldi	r22, 0x00	; 0
    27bc:	82 e5       	ldi	r24, 0x52	; 82
    27be:	7c cf       	rjmp	.-264    	; 0x26b8 <_Z16USART_SendPacketch>

000027c0 <_Z25USART_DecodeMessageRxFIFOv>:
    27c0:	0f 93       	push	r16
    27c2:	1f 93       	push	r17
    27c4:	cf 93       	push	r28
    27c6:	df 93       	push	r29
    27c8:	60 e0       	ldi	r22, 0x00	; 0
    27ca:	70 e0       	ldi	r23, 0x00	; 0
    27cc:	80 91 09 05 	lds	r24, 0x0509
    27d0:	90 91 0a 05 	lds	r25, 0x050A
    27d4:	0e 94 2b 01 	call	0x256	; 0x256 <_Z8FifoReadP4fifoPh>
    27d8:	81 11       	cpse	r24, r1
    27da:	17 c0       	rjmp	.+46     	; 0x280a <_Z25USART_DecodeMessageRxFIFOv+0x4a>
    27dc:	00 91 00 00 	lds	r16, 0x0000
    27e0:	10 e0       	ldi	r17, 0x00	; 0
    27e2:	10 16       	cp	r1, r16
    27e4:	11 06       	cpc	r1, r17
    27e6:	9c f4       	brge	.+38     	; 0x280e <_Z25USART_DecodeMessageRxFIFOv+0x4e>
    27e8:	c0 e0       	ldi	r28, 0x00	; 0
    27ea:	d0 e0       	ldi	r29, 0x00	; 0
    27ec:	60 e0       	ldi	r22, 0x00	; 0
    27ee:	70 e0       	ldi	r23, 0x00	; 0
    27f0:	80 91 09 05 	lds	r24, 0x0509
    27f4:	90 91 0a 05 	lds	r25, 0x050A
    27f8:	0e 94 2b 01 	call	0x256	; 0x256 <_Z8FifoReadP4fifoPh>
    27fc:	81 11       	cpse	r24, r1
    27fe:	09 c0       	rjmp	.+18     	; 0x2812 <_Z25USART_DecodeMessageRxFIFOv+0x52>
    2800:	21 96       	adiw	r28, 0x01	; 1
    2802:	c0 17       	cp	r28, r16
    2804:	d1 07       	cpc	r29, r17
    2806:	94 f3       	brlt	.-28     	; 0x27ec <_Z25USART_DecodeMessageRxFIFOv+0x2c>
    2808:	05 c0       	rjmp	.+10     	; 0x2814 <_Z25USART_DecodeMessageRxFIFOv+0x54>
    280a:	81 e0       	ldi	r24, 0x01	; 1
    280c:	03 c0       	rjmp	.+6      	; 0x2814 <_Z25USART_DecodeMessageRxFIFOv+0x54>
    280e:	80 e0       	ldi	r24, 0x00	; 0
    2810:	01 c0       	rjmp	.+2      	; 0x2814 <_Z25USART_DecodeMessageRxFIFOv+0x54>
    2812:	81 e0       	ldi	r24, 0x01	; 1
    2814:	df 91       	pop	r29
    2816:	cf 91       	pop	r28
    2818:	1f 91       	pop	r17
    281a:	0f 91       	pop	r16
    281c:	08 95       	ret

0000281e <_Z25USART_DecodeCommandRxFIFOv>:
    281e:	cf 93       	push	r28
    2820:	df 93       	push	r29
    2822:	60 e0       	ldi	r22, 0x00	; 0
    2824:	70 e0       	ldi	r23, 0x00	; 0
    2826:	80 91 09 05 	lds	r24, 0x0509
    282a:	90 91 0a 05 	lds	r25, 0x050A
    282e:	0e 94 2b 01 	call	0x256	; 0x256 <_Z8FifoReadP4fifoPh>
    2832:	81 11       	cpse	r24, r1
    2834:	34 c0       	rjmp	.+104    	; 0x289e <_Z25USART_DecodeCommandRxFIFOv+0x80>
    2836:	80 91 00 00 	lds	r24, 0x0000
    283a:	83 30       	cpi	r24, 0x03	; 3
    283c:	91 f5       	brne	.+100    	; 0x28a2 <_Z25USART_DecodeCommandRxFIFOv+0x84>
    283e:	60 e0       	ldi	r22, 0x00	; 0
    2840:	70 e0       	ldi	r23, 0x00	; 0
    2842:	80 91 09 05 	lds	r24, 0x0509
    2846:	90 91 0a 05 	lds	r25, 0x050A
    284a:	0e 94 2b 01 	call	0x256	; 0x256 <_Z8FifoReadP4fifoPh>
    284e:	81 11       	cpse	r24, r1
    2850:	2a c0       	rjmp	.+84     	; 0x28a6 <_Z25USART_DecodeCommandRxFIFOv+0x88>
    2852:	c0 91 00 00 	lds	r28, 0x0000
    2856:	60 e0       	ldi	r22, 0x00	; 0
    2858:	70 e0       	ldi	r23, 0x00	; 0
    285a:	80 91 09 05 	lds	r24, 0x0509
    285e:	90 91 0a 05 	lds	r25, 0x050A
    2862:	0e 94 2b 01 	call	0x256	; 0x256 <_Z8FifoReadP4fifoPh>
    2866:	81 11       	cpse	r24, r1
    2868:	20 c0       	rjmp	.+64     	; 0x28aa <_Z25USART_DecodeCommandRxFIFOv+0x8c>
    286a:	d0 91 00 00 	lds	r29, 0x0000
    286e:	60 e0       	ldi	r22, 0x00	; 0
    2870:	70 e0       	ldi	r23, 0x00	; 0
    2872:	80 91 09 05 	lds	r24, 0x0509
    2876:	90 91 0a 05 	lds	r25, 0x050A
    287a:	0e 94 2b 01 	call	0x256	; 0x256 <_Z8FifoReadP4fifoPh>
    287e:	81 11       	cpse	r24, r1
    2880:	16 c0       	rjmp	.+44     	; 0x28ae <_Z25USART_DecodeCommandRxFIFOv+0x90>
    2882:	80 91 00 00 	lds	r24, 0x0000
    2886:	80 93 e7 19 	sts	0x19E7, r24
    288a:	c0 93 e6 19 	sts	0x19E6, r28
    288e:	d0 93 15 15 	sts	0x1515, r29
    2892:	9b b1       	in	r25, 0x0b	; 11
    2894:	80 e2       	ldi	r24, 0x20	; 32
    2896:	89 27       	eor	r24, r25
    2898:	8b b9       	out	0x0b, r24	; 11
    289a:	80 e0       	ldi	r24, 0x00	; 0
    289c:	09 c0       	rjmp	.+18     	; 0x28b0 <_Z25USART_DecodeCommandRxFIFOv+0x92>
    289e:	81 e0       	ldi	r24, 0x01	; 1
    28a0:	07 c0       	rjmp	.+14     	; 0x28b0 <_Z25USART_DecodeCommandRxFIFOv+0x92>
    28a2:	81 e0       	ldi	r24, 0x01	; 1
    28a4:	05 c0       	rjmp	.+10     	; 0x28b0 <_Z25USART_DecodeCommandRxFIFOv+0x92>
    28a6:	81 e0       	ldi	r24, 0x01	; 1
    28a8:	03 c0       	rjmp	.+6      	; 0x28b0 <_Z25USART_DecodeCommandRxFIFOv+0x92>
    28aa:	81 e0       	ldi	r24, 0x01	; 1
    28ac:	01 c0       	rjmp	.+2      	; 0x28b0 <_Z25USART_DecodeCommandRxFIFOv+0x92>
    28ae:	81 e0       	ldi	r24, 0x01	; 1
    28b0:	df 91       	pop	r29
    28b2:	cf 91       	pop	r28
    28b4:	08 95       	ret

000028b6 <_Z27USART_DecodeElevationRxFIFOv>:
    28b6:	cf 92       	push	r12
    28b8:	df 92       	push	r13
    28ba:	ef 92       	push	r14
    28bc:	ff 92       	push	r15
    28be:	60 e0       	ldi	r22, 0x00	; 0
    28c0:	70 e0       	ldi	r23, 0x00	; 0
    28c2:	80 91 09 05 	lds	r24, 0x0509
    28c6:	90 91 0a 05 	lds	r25, 0x050A
    28ca:	0e 94 2b 01 	call	0x256	; 0x256 <_Z8FifoReadP4fifoPh>
    28ce:	81 11       	cpse	r24, r1
    28d0:	59 c0       	rjmp	.+178    	; 0x2984 <_Z27USART_DecodeElevationRxFIFOv+0xce>
    28d2:	80 91 00 00 	lds	r24, 0x0000
    28d6:	81 30       	cpi	r24, 0x01	; 1
    28d8:	09 f0       	breq	.+2      	; 0x28dc <_Z27USART_DecodeElevationRxFIFOv+0x26>
    28da:	56 c0       	rjmp	.+172    	; 0x2988 <_Z27USART_DecodeElevationRxFIFOv+0xd2>
    28dc:	60 e0       	ldi	r22, 0x00	; 0
    28de:	70 e0       	ldi	r23, 0x00	; 0
    28e0:	80 91 09 05 	lds	r24, 0x0509
    28e4:	90 91 0a 05 	lds	r25, 0x050A
    28e8:	0e 94 2b 01 	call	0x256	; 0x256 <_Z8FifoReadP4fifoPh>
    28ec:	81 11       	cpse	r24, r1
    28ee:	4e c0       	rjmp	.+156    	; 0x298c <_Z27USART_DecodeElevationRxFIFOv+0xd6>
    28f0:	80 91 00 00 	lds	r24, 0x0000
    28f4:	81 30       	cpi	r24, 0x01	; 1
    28f6:	11 f5       	brne	.+68     	; 0x293c <_Z27USART_DecodeElevationRxFIFOv+0x86>
    28f8:	c0 90 11 15 	lds	r12, 0x1511
    28fc:	d0 90 12 15 	lds	r13, 0x1512
    2900:	e0 90 13 15 	lds	r14, 0x1513
    2904:	f0 90 14 15 	lds	r15, 0x1514
    2908:	20 e0       	ldi	r18, 0x00	; 0
    290a:	30 e0       	ldi	r19, 0x00	; 0
    290c:	46 e1       	ldi	r20, 0x16	; 22
    290e:	53 ec       	ldi	r21, 0xC3	; 195
    2910:	c7 01       	movw	r24, r14
    2912:	b6 01       	movw	r22, r12
    2914:	99 d3       	rcall	.+1842   	; 0x3048 <__gesf2>
    2916:	18 16       	cp	r1, r24
    2918:	dc f5       	brge	.+118    	; 0x2990 <_Z27USART_DecodeElevationRxFIFOv+0xda>
    291a:	20 e0       	ldi	r18, 0x00	; 0
    291c:	30 e0       	ldi	r19, 0x00	; 0
    291e:	40 ea       	ldi	r20, 0xA0	; 160
    2920:	50 e4       	ldi	r21, 0x40	; 64
    2922:	c7 01       	movw	r24, r14
    2924:	b6 01       	movw	r22, r12
    2926:	f1 d0       	rcall	.+482    	; 0x2b0a <__subsf3>
    2928:	60 93 11 15 	sts	0x1511, r22
    292c:	70 93 12 15 	sts	0x1512, r23
    2930:	80 93 13 15 	sts	0x1513, r24
    2934:	90 93 14 15 	sts	0x1514, r25
    2938:	80 e0       	ldi	r24, 0x00	; 0
    293a:	2f c0       	rjmp	.+94     	; 0x299a <_Z27USART_DecodeElevationRxFIFOv+0xe4>
    293c:	81 11       	cpse	r24, r1
    293e:	2a c0       	rjmp	.+84     	; 0x2994 <_Z27USART_DecodeElevationRxFIFOv+0xde>
    2940:	c0 90 11 15 	lds	r12, 0x1511
    2944:	d0 90 12 15 	lds	r13, 0x1512
    2948:	e0 90 13 15 	lds	r14, 0x1513
    294c:	f0 90 14 15 	lds	r15, 0x1514
    2950:	20 e0       	ldi	r18, 0x00	; 0
    2952:	30 e0       	ldi	r19, 0x00	; 0
    2954:	40 ea       	ldi	r20, 0xA0	; 160
    2956:	52 ec       	ldi	r21, 0xC2	; 194
    2958:	c7 01       	movw	r24, r14
    295a:	b6 01       	movw	r22, r12
    295c:	7a d1       	rcall	.+756    	; 0x2c52 <__cmpsf2>
    295e:	88 23       	and	r24, r24
    2960:	dc f4       	brge	.+54     	; 0x2998 <_Z27USART_DecodeElevationRxFIFOv+0xe2>
    2962:	20 e0       	ldi	r18, 0x00	; 0
    2964:	30 e0       	ldi	r19, 0x00	; 0
    2966:	40 ea       	ldi	r20, 0xA0	; 160
    2968:	50 e4       	ldi	r21, 0x40	; 64
    296a:	c7 01       	movw	r24, r14
    296c:	b6 01       	movw	r22, r12
    296e:	ce d0       	rcall	.+412    	; 0x2b0c <__addsf3>
    2970:	60 93 11 15 	sts	0x1511, r22
    2974:	70 93 12 15 	sts	0x1512, r23
    2978:	80 93 13 15 	sts	0x1513, r24
    297c:	90 93 14 15 	sts	0x1514, r25
    2980:	80 e0       	ldi	r24, 0x00	; 0
    2982:	0b c0       	rjmp	.+22     	; 0x299a <_Z27USART_DecodeElevationRxFIFOv+0xe4>
    2984:	81 e0       	ldi	r24, 0x01	; 1
    2986:	09 c0       	rjmp	.+18     	; 0x299a <_Z27USART_DecodeElevationRxFIFOv+0xe4>
    2988:	81 e0       	ldi	r24, 0x01	; 1
    298a:	07 c0       	rjmp	.+14     	; 0x299a <_Z27USART_DecodeElevationRxFIFOv+0xe4>
    298c:	81 e0       	ldi	r24, 0x01	; 1
    298e:	05 c0       	rjmp	.+10     	; 0x299a <_Z27USART_DecodeElevationRxFIFOv+0xe4>
    2990:	80 e0       	ldi	r24, 0x00	; 0
    2992:	03 c0       	rjmp	.+6      	; 0x299a <_Z27USART_DecodeElevationRxFIFOv+0xe4>
    2994:	80 e0       	ldi	r24, 0x00	; 0
    2996:	01 c0       	rjmp	.+2      	; 0x299a <_Z27USART_DecodeElevationRxFIFOv+0xe4>
    2998:	80 e0       	ldi	r24, 0x00	; 0
    299a:	ff 90       	pop	r15
    299c:	ef 90       	pop	r14
    299e:	df 90       	pop	r13
    29a0:	cf 90       	pop	r12
    29a2:	08 95       	ret

000029a4 <_Z18USART_DecodeRxFIFOv>:
    29a4:	14 c0       	rjmp	.+40     	; 0x29ce <_Z18USART_DecodeRxFIFOv+0x2a>
    29a6:	80 91 00 00 	lds	r24, 0x0000
    29aa:	85 34       	cpi	r24, 0x45	; 69
    29ac:	69 f0       	breq	.+26     	; 0x29c8 <_Z18USART_DecodeRxFIFOv+0x24>
    29ae:	8d 34       	cpi	r24, 0x4D	; 77
    29b0:	19 f0       	breq	.+6      	; 0x29b8 <_Z18USART_DecodeRxFIFOv+0x14>
    29b2:	83 34       	cpi	r24, 0x43	; 67
    29b4:	61 f4       	brne	.+24     	; 0x29ce <_Z18USART_DecodeRxFIFOv+0x2a>
    29b6:	04 c0       	rjmp	.+8      	; 0x29c0 <_Z18USART_DecodeRxFIFOv+0x1c>
    29b8:	03 df       	rcall	.-506    	; 0x27c0 <_Z25USART_DecodeMessageRxFIFOv>
    29ba:	88 23       	and	r24, r24
    29bc:	41 f0       	breq	.+16     	; 0x29ce <_Z18USART_DecodeRxFIFOv+0x2a>
    29be:	08 95       	ret
    29c0:	2e df       	rcall	.-420    	; 0x281e <_Z25USART_DecodeCommandRxFIFOv>
    29c2:	88 23       	and	r24, r24
    29c4:	21 f0       	breq	.+8      	; 0x29ce <_Z18USART_DecodeRxFIFOv+0x2a>
    29c6:	08 95       	ret
    29c8:	76 df       	rcall	.-276    	; 0x28b6 <_Z27USART_DecodeElevationRxFIFOv>
    29ca:	81 11       	cpse	r24, r1
    29cc:	0a c0       	rjmp	.+20     	; 0x29e2 <_Z18USART_DecodeRxFIFOv+0x3e>
    29ce:	60 e0       	ldi	r22, 0x00	; 0
    29d0:	70 e0       	ldi	r23, 0x00	; 0
    29d2:	80 91 09 05 	lds	r24, 0x0509
    29d6:	90 91 0a 05 	lds	r25, 0x050A
    29da:	0e 94 2b 01 	call	0x256	; 0x256 <_Z8FifoReadP4fifoPh>
    29de:	88 23       	and	r24, r24
    29e0:	11 f3       	breq	.-60     	; 0x29a6 <_Z18USART_DecodeRxFIFOv+0x2>
    29e2:	08 95       	ret

000029e4 <__vector_20>:
}


ISR (USART0_RX_vect)
{
    29e4:	1f 92       	push	r1
    29e6:	0f 92       	push	r0
    29e8:	0f b6       	in	r0, 0x3f	; 63
    29ea:	0f 92       	push	r0
    29ec:	11 24       	eor	r1, r1
    29ee:	0b b6       	in	r0, 0x3b	; 59
    29f0:	0f 92       	push	r0
    29f2:	ef 92       	push	r14
    29f4:	ff 92       	push	r15
    29f6:	0f 93       	push	r16
    29f8:	1f 93       	push	r17
    29fa:	2f 93       	push	r18
    29fc:	3f 93       	push	r19
    29fe:	4f 93       	push	r20
    2a00:	5f 93       	push	r21
    2a02:	6f 93       	push	r22
    2a04:	7f 93       	push	r23
    2a06:	8f 93       	push	r24
    2a08:	9f 93       	push	r25
    2a0a:	af 93       	push	r26
    2a0c:	bf 93       	push	r27
    2a0e:	cf 93       	push	r28
    2a10:	df 93       	push	r29
    2a12:	ef 93       	push	r30
    2a14:	ff 93       	push	r31
	uint8_t data;
	data = UDR0; // read data from buffer TODO: add check for overflow
    2a16:	20 91 c6 00 	lds	r18, 0x00C6
	
	
	
	if(data == 0x7e)
    2a1a:	2e 37       	cpi	r18, 0x7E	; 126
    2a1c:	c9 f5       	brne	.+114    	; 0x2a90 <__vector_20+0xac>
	{
		if(gRxBufferIndex >= 4 || gRxBufferIndex == gRxBuffer[1] + 4) //TODO: add crc check
    2a1e:	80 91 ea 19 	lds	r24, 0x19EA
    2a22:	90 91 eb 19 	lds	r25, 0x19EB
    2a26:	84 30       	cpi	r24, 0x04	; 4
    2a28:	91 05       	cpc	r25, r1
    2a2a:	40 f4       	brcc	.+16     	; 0x2a3c <__vector_20+0x58>
    2a2c:	20 91 ed 19 	lds	r18, 0x19ED
    2a30:	30 e0       	ldi	r19, 0x00	; 0
    2a32:	2c 5f       	subi	r18, 0xFC	; 252
    2a34:	3f 4f       	sbci	r19, 0xFF	; 255
    2a36:	82 17       	cp	r24, r18
    2a38:	93 07       	cpc	r25, r19
    2a3a:	29 f5       	brne	.+74     	; 0x2a86 <__vector_20+0xa2>
		{
			if(gInvertNextFlag)
    2a3c:	80 91 e8 19 	lds	r24, 0x19E8
    2a40:	90 91 e9 19 	lds	r25, 0x19E9
    2a44:	89 2b       	or	r24, r25
    2a46:	21 f0       	breq	.+8      	; 0x2a50 <__vector_20+0x6c>
			{
				data = (1<<5)^data;
				gInvertNextFlag = 0;
    2a48:	10 92 e9 19 	sts	0x19E9, r1
    2a4c:	10 92 e8 19 	sts	0x19E8, r1
    2a50:	0c ee       	ldi	r16, 0xEC	; 236
    2a52:	19 e1       	ldi	r17, 0x19	; 25
			}
			
			
			// Add packet (no crc) to fifo-buffer to cue it for decoding
			for(int i = 0; i < gRxBuffer[1] + 2; ++i)
    2a54:	c0 e0       	ldi	r28, 0x00	; 0
    2a56:	d0 e0       	ldi	r29, 0x00	; 0
    2a58:	0f 2e       	mov	r0, r31
    2a5a:	fd ee       	ldi	r31, 0xED	; 237
    2a5c:	ef 2e       	mov	r14, r31
    2a5e:	f9 e1       	ldi	r31, 0x19	; 25
    2a60:	ff 2e       	mov	r15, r31
    2a62:	f0 2d       	mov	r31, r0
			{
				if(FifoWrite(gRxFIFO, gRxBuffer[i]))
    2a64:	f8 01       	movw	r30, r16
    2a66:	61 91       	ld	r22, Z+
    2a68:	8f 01       	movw	r16, r30
    2a6a:	80 91 09 05 	lds	r24, 0x0509
    2a6e:	90 91 0a 05 	lds	r25, 0x050A
    2a72:	0e 94 0b 01 	call	0x216	; 0x216 <_Z9FifoWriteP4fifoh>
				gInvertNextFlag = 0;
			}
			
			
			// Add packet (no crc) to fifo-buffer to cue it for decoding
			for(int i = 0; i < gRxBuffer[1] + 2; ++i)
    2a76:	21 96       	adiw	r28, 0x01	; 1
    2a78:	f7 01       	movw	r30, r14
    2a7a:	80 81       	ld	r24, Z
    2a7c:	90 e0       	ldi	r25, 0x00	; 0
    2a7e:	02 96       	adiw	r24, 0x02	; 2
    2a80:	c8 17       	cp	r28, r24
    2a82:	d9 07       	cpc	r29, r25
    2a84:	7c f3       	brlt	.-34     	; 0x2a64 <__vector_20+0x80>
					//send_string(S_ADRESS,"U_FIFO-full");
				}
			}
		}
		
		gRxBufferIndex = 0; // always reset buffer index when frame delimiter (0x7e) is read
    2a86:	10 92 eb 19 	sts	0x19EB, r1
    2a8a:	10 92 ea 19 	sts	0x19EA, r1
    2a8e:	16 c0       	rjmp	.+44     	; 0x2abc <__vector_20+0xd8>
		
	}else if(data == 0x7d)
    2a90:	2d 37       	cpi	r18, 0x7D	; 125
    2a92:	39 f4       	brne	.+14     	; 0x2aa2 <__vector_20+0xbe>
	{
		gInvertNextFlag = 1;
    2a94:	81 e0       	ldi	r24, 0x01	; 1
    2a96:	90 e0       	ldi	r25, 0x00	; 0
    2a98:	90 93 e9 19 	sts	0x19E9, r25
    2a9c:	80 93 e8 19 	sts	0x19E8, r24
    2aa0:	0d c0       	rjmp	.+26     	; 0x2abc <__vector_20+0xd8>
	}else
	{
		gRxBuffer[gRxBufferIndex] = data;
    2aa2:	80 91 ea 19 	lds	r24, 0x19EA
    2aa6:	90 91 eb 19 	lds	r25, 0x19EB
    2aaa:	fc 01       	movw	r30, r24
    2aac:	e4 51       	subi	r30, 0x14	; 20
    2aae:	f6 4e       	sbci	r31, 0xE6	; 230
    2ab0:	20 83       	st	Z, r18
		++gRxBufferIndex;
    2ab2:	01 96       	adiw	r24, 0x01	; 1
    2ab4:	90 93 eb 19 	sts	0x19EB, r25
    2ab8:	80 93 ea 19 	sts	0x19EA, r24
	}
	
	
}
    2abc:	ff 91       	pop	r31
    2abe:	ef 91       	pop	r30
    2ac0:	df 91       	pop	r29
    2ac2:	cf 91       	pop	r28
    2ac4:	bf 91       	pop	r27
    2ac6:	af 91       	pop	r26
    2ac8:	9f 91       	pop	r25
    2aca:	8f 91       	pop	r24
    2acc:	7f 91       	pop	r23
    2ace:	6f 91       	pop	r22
    2ad0:	5f 91       	pop	r21
    2ad2:	4f 91       	pop	r20
    2ad4:	3f 91       	pop	r19
    2ad6:	2f 91       	pop	r18
    2ad8:	1f 91       	pop	r17
    2ada:	0f 91       	pop	r16
    2adc:	ff 90       	pop	r15
    2ade:	ef 90       	pop	r14
    2ae0:	0f 90       	pop	r0
    2ae2:	0b be       	out	0x3b, r0	; 59
    2ae4:	0f 90       	pop	r0
    2ae6:	0f be       	out	0x3f, r0	; 63
    2ae8:	0f 90       	pop	r0
    2aea:	1f 90       	pop	r1
    2aec:	18 95       	reti

00002aee <acos>:
    2aee:	9f 93       	push	r25
    2af0:	9f 77       	andi	r25, 0x7F	; 127
    2af2:	ab d1       	rcall	.+854    	; 0x2e4a <__fp_arccos>
    2af4:	0f 90       	pop	r0
    2af6:	00 20       	and	r0, r0
    2af8:	3a f4       	brpl	.+14     	; 0x2b08 <acos+0x1a>
    2afa:	90 58       	subi	r25, 0x80	; 128
    2afc:	a2 ea       	ldi	r26, 0xA2	; 162
    2afe:	2a ed       	ldi	r18, 0xDA	; 218
    2b00:	3f e0       	ldi	r19, 0x0F	; 15
    2b02:	49 e4       	ldi	r20, 0x49	; 73
    2b04:	50 e4       	ldi	r21, 0x40	; 64
    2b06:	13 d0       	rcall	.+38     	; 0x2b2e <__addsf3x>
    2b08:	54 c2       	rjmp	.+1192   	; 0x2fb2 <__fp_round>

00002b0a <__subsf3>:
    2b0a:	50 58       	subi	r21, 0x80	; 128

00002b0c <__addsf3>:
    2b0c:	bb 27       	eor	r27, r27
    2b0e:	aa 27       	eor	r26, r26
    2b10:	0e d0       	rcall	.+28     	; 0x2b2e <__addsf3x>
    2b12:	4f c2       	rjmp	.+1182   	; 0x2fb2 <__fp_round>
    2b14:	18 d2       	rcall	.+1072   	; 0x2f46 <__fp_pscA>
    2b16:	30 f0       	brcs	.+12     	; 0x2b24 <__addsf3+0x18>
    2b18:	1d d2       	rcall	.+1082   	; 0x2f54 <__fp_pscB>
    2b1a:	20 f0       	brcs	.+8      	; 0x2b24 <__addsf3+0x18>
    2b1c:	31 f4       	brne	.+12     	; 0x2b2a <__addsf3+0x1e>
    2b1e:	9f 3f       	cpi	r25, 0xFF	; 255
    2b20:	11 f4       	brne	.+4      	; 0x2b26 <__addsf3+0x1a>
    2b22:	1e f4       	brtc	.+6      	; 0x2b2a <__addsf3+0x1e>
    2b24:	d7 c1       	rjmp	.+942    	; 0x2ed4 <__fp_nan>
    2b26:	0e f4       	brtc	.+2      	; 0x2b2a <__addsf3+0x1e>
    2b28:	e0 95       	com	r30
    2b2a:	e7 fb       	bst	r30, 7
    2b2c:	cd c1       	rjmp	.+922    	; 0x2ec8 <__fp_inf>

00002b2e <__addsf3x>:
    2b2e:	e9 2f       	mov	r30, r25
    2b30:	62 d2       	rcall	.+1220   	; 0x2ff6 <__fp_split3>
    2b32:	80 f3       	brcs	.-32     	; 0x2b14 <__addsf3+0x8>
    2b34:	ba 17       	cp	r27, r26
    2b36:	62 07       	cpc	r22, r18
    2b38:	73 07       	cpc	r23, r19
    2b3a:	84 07       	cpc	r24, r20
    2b3c:	95 07       	cpc	r25, r21
    2b3e:	18 f0       	brcs	.+6      	; 0x2b46 <__addsf3x+0x18>
    2b40:	71 f4       	brne	.+28     	; 0x2b5e <__addsf3x+0x30>
    2b42:	9e f5       	brtc	.+102    	; 0x2baa <__addsf3x+0x7c>
    2b44:	7a c2       	rjmp	.+1268   	; 0x303a <__fp_zero>
    2b46:	0e f4       	brtc	.+2      	; 0x2b4a <__addsf3x+0x1c>
    2b48:	e0 95       	com	r30
    2b4a:	0b 2e       	mov	r0, r27
    2b4c:	ba 2f       	mov	r27, r26
    2b4e:	a0 2d       	mov	r26, r0
    2b50:	0b 01       	movw	r0, r22
    2b52:	b9 01       	movw	r22, r18
    2b54:	90 01       	movw	r18, r0
    2b56:	0c 01       	movw	r0, r24
    2b58:	ca 01       	movw	r24, r20
    2b5a:	a0 01       	movw	r20, r0
    2b5c:	11 24       	eor	r1, r1
    2b5e:	ff 27       	eor	r31, r31
    2b60:	59 1b       	sub	r21, r25
    2b62:	99 f0       	breq	.+38     	; 0x2b8a <__addsf3x+0x5c>
    2b64:	59 3f       	cpi	r21, 0xF9	; 249
    2b66:	50 f4       	brcc	.+20     	; 0x2b7c <__addsf3x+0x4e>
    2b68:	50 3e       	cpi	r21, 0xE0	; 224
    2b6a:	68 f1       	brcs	.+90     	; 0x2bc6 <__addsf3x+0x98>
    2b6c:	1a 16       	cp	r1, r26
    2b6e:	f0 40       	sbci	r31, 0x00	; 0
    2b70:	a2 2f       	mov	r26, r18
    2b72:	23 2f       	mov	r18, r19
    2b74:	34 2f       	mov	r19, r20
    2b76:	44 27       	eor	r20, r20
    2b78:	58 5f       	subi	r21, 0xF8	; 248
    2b7a:	f3 cf       	rjmp	.-26     	; 0x2b62 <__addsf3x+0x34>
    2b7c:	46 95       	lsr	r20
    2b7e:	37 95       	ror	r19
    2b80:	27 95       	ror	r18
    2b82:	a7 95       	ror	r26
    2b84:	f0 40       	sbci	r31, 0x00	; 0
    2b86:	53 95       	inc	r21
    2b88:	c9 f7       	brne	.-14     	; 0x2b7c <__addsf3x+0x4e>
    2b8a:	7e f4       	brtc	.+30     	; 0x2baa <__addsf3x+0x7c>
    2b8c:	1f 16       	cp	r1, r31
    2b8e:	ba 0b       	sbc	r27, r26
    2b90:	62 0b       	sbc	r22, r18
    2b92:	73 0b       	sbc	r23, r19
    2b94:	84 0b       	sbc	r24, r20
    2b96:	ba f0       	brmi	.+46     	; 0x2bc6 <__addsf3x+0x98>
    2b98:	91 50       	subi	r25, 0x01	; 1
    2b9a:	a1 f0       	breq	.+40     	; 0x2bc4 <__addsf3x+0x96>
    2b9c:	ff 0f       	add	r31, r31
    2b9e:	bb 1f       	adc	r27, r27
    2ba0:	66 1f       	adc	r22, r22
    2ba2:	77 1f       	adc	r23, r23
    2ba4:	88 1f       	adc	r24, r24
    2ba6:	c2 f7       	brpl	.-16     	; 0x2b98 <__addsf3x+0x6a>
    2ba8:	0e c0       	rjmp	.+28     	; 0x2bc6 <__addsf3x+0x98>
    2baa:	ba 0f       	add	r27, r26
    2bac:	62 1f       	adc	r22, r18
    2bae:	73 1f       	adc	r23, r19
    2bb0:	84 1f       	adc	r24, r20
    2bb2:	48 f4       	brcc	.+18     	; 0x2bc6 <__addsf3x+0x98>
    2bb4:	87 95       	ror	r24
    2bb6:	77 95       	ror	r23
    2bb8:	67 95       	ror	r22
    2bba:	b7 95       	ror	r27
    2bbc:	f7 95       	ror	r31
    2bbe:	9e 3f       	cpi	r25, 0xFE	; 254
    2bc0:	08 f0       	brcs	.+2      	; 0x2bc4 <__addsf3x+0x96>
    2bc2:	b3 cf       	rjmp	.-154    	; 0x2b2a <__addsf3+0x1e>
    2bc4:	93 95       	inc	r25
    2bc6:	88 0f       	add	r24, r24
    2bc8:	08 f0       	brcs	.+2      	; 0x2bcc <__addsf3x+0x9e>
    2bca:	99 27       	eor	r25, r25
    2bcc:	ee 0f       	add	r30, r30
    2bce:	97 95       	ror	r25
    2bd0:	87 95       	ror	r24
    2bd2:	08 95       	ret

00002bd4 <asin>:
    2bd4:	9f 93       	push	r25
    2bd6:	9f 77       	andi	r25, 0x7F	; 127
    2bd8:	ee e3       	ldi	r30, 0x3E	; 62
    2bda:	89 37       	cpi	r24, 0x79	; 121
    2bdc:	9e 07       	cpc	r25, r30
    2bde:	20 f4       	brcc	.+8      	; 0x2be8 <asin+0x14>
    2be0:	ec e8       	ldi	r30, 0x8C	; 140
    2be2:	f0 e0       	ldi	r31, 0x00	; 0
    2be4:	9f d1       	rcall	.+830    	; 0x2f24 <__fp_powsodd>
    2be6:	09 c0       	rjmp	.+18     	; 0x2bfa <asin+0x26>
    2be8:	30 d1       	rcall	.+608    	; 0x2e4a <__fp_arccos>
    2bea:	90 58       	subi	r25, 0x80	; 128
    2bec:	a2 ea       	ldi	r26, 0xA2	; 162
    2bee:	2a ed       	ldi	r18, 0xDA	; 218
    2bf0:	3f e0       	ldi	r19, 0x0F	; 15
    2bf2:	49 ec       	ldi	r20, 0xC9	; 201
    2bf4:	5f e3       	ldi	r21, 0x3F	; 63
    2bf6:	9b df       	rcall	.-202    	; 0x2b2e <__addsf3x>
    2bf8:	dc d1       	rcall	.+952    	; 0x2fb2 <__fp_round>
    2bfa:	0f 90       	pop	r0
    2bfc:	07 fc       	sbrc	r0, 7
    2bfe:	90 58       	subi	r25, 0x80	; 128
    2c00:	08 95       	ret

00002c02 <atan>:
    2c02:	df 93       	push	r29
    2c04:	dd 27       	eor	r29, r29
    2c06:	b9 2f       	mov	r27, r25
    2c08:	bf 77       	andi	r27, 0x7F	; 127
    2c0a:	40 e8       	ldi	r20, 0x80	; 128
    2c0c:	5f e3       	ldi	r21, 0x3F	; 63
    2c0e:	16 16       	cp	r1, r22
    2c10:	17 06       	cpc	r1, r23
    2c12:	48 07       	cpc	r20, r24
    2c14:	5b 07       	cpc	r21, r27
    2c16:	10 f4       	brcc	.+4      	; 0x2c1c <atan+0x1a>
    2c18:	d9 2f       	mov	r29, r25
    2c1a:	1a d2       	rcall	.+1076   	; 0x3050 <inverse>
    2c1c:	9f 93       	push	r25
    2c1e:	8f 93       	push	r24
    2c20:	7f 93       	push	r23
    2c22:	6f 93       	push	r22
    2c24:	c7 d2       	rcall	.+1422   	; 0x31b4 <square>
    2c26:	e0 ea       	ldi	r30, 0xA0	; 160
    2c28:	f0 e0       	ldi	r31, 0x00	; 0
    2c2a:	57 d1       	rcall	.+686    	; 0x2eda <__fp_powser>
    2c2c:	c2 d1       	rcall	.+900    	; 0x2fb2 <__fp_round>
    2c2e:	2f 91       	pop	r18
    2c30:	3f 91       	pop	r19
    2c32:	4f 91       	pop	r20
    2c34:	5f 91       	pop	r21
    2c36:	1f d2       	rcall	.+1086   	; 0x3076 <__mulsf3x>
    2c38:	dd 23       	and	r29, r29
    2c3a:	49 f0       	breq	.+18     	; 0x2c4e <atan+0x4c>
    2c3c:	90 58       	subi	r25, 0x80	; 128
    2c3e:	a2 ea       	ldi	r26, 0xA2	; 162
    2c40:	2a ed       	ldi	r18, 0xDA	; 218
    2c42:	3f e0       	ldi	r19, 0x0F	; 15
    2c44:	49 ec       	ldi	r20, 0xC9	; 201
    2c46:	5f e3       	ldi	r21, 0x3F	; 63
    2c48:	d0 78       	andi	r29, 0x80	; 128
    2c4a:	5d 27       	eor	r21, r29
    2c4c:	70 df       	rcall	.-288    	; 0x2b2e <__addsf3x>
    2c4e:	df 91       	pop	r29
    2c50:	b0 c1       	rjmp	.+864    	; 0x2fb2 <__fp_round>

00002c52 <__cmpsf2>:
    2c52:	16 d1       	rcall	.+556    	; 0x2e80 <__fp_cmp>
    2c54:	08 f4       	brcc	.+2      	; 0x2c58 <__cmpsf2+0x6>
    2c56:	81 e0       	ldi	r24, 0x01	; 1
    2c58:	08 95       	ret

00002c5a <cos>:
    2c5a:	84 d1       	rcall	.+776    	; 0x2f64 <__fp_rempio2>
    2c5c:	e3 95       	inc	r30
    2c5e:	ba c1       	rjmp	.+884    	; 0x2fd4 <__fp_sinus>

00002c60 <__divsf3>:
    2c60:	0c d0       	rcall	.+24     	; 0x2c7a <__divsf3x>
    2c62:	a7 c1       	rjmp	.+846    	; 0x2fb2 <__fp_round>
    2c64:	77 d1       	rcall	.+750    	; 0x2f54 <__fp_pscB>
    2c66:	40 f0       	brcs	.+16     	; 0x2c78 <__divsf3+0x18>
    2c68:	6e d1       	rcall	.+732    	; 0x2f46 <__fp_pscA>
    2c6a:	30 f0       	brcs	.+12     	; 0x2c78 <__divsf3+0x18>
    2c6c:	21 f4       	brne	.+8      	; 0x2c76 <__divsf3+0x16>
    2c6e:	5f 3f       	cpi	r21, 0xFF	; 255
    2c70:	19 f0       	breq	.+6      	; 0x2c78 <__divsf3+0x18>
    2c72:	2a c1       	rjmp	.+596    	; 0x2ec8 <__fp_inf>
    2c74:	51 11       	cpse	r21, r1
    2c76:	e2 c1       	rjmp	.+964    	; 0x303c <__fp_szero>
    2c78:	2d c1       	rjmp	.+602    	; 0x2ed4 <__fp_nan>

00002c7a <__divsf3x>:
    2c7a:	bd d1       	rcall	.+890    	; 0x2ff6 <__fp_split3>
    2c7c:	98 f3       	brcs	.-26     	; 0x2c64 <__divsf3+0x4>

00002c7e <__divsf3_pse>:
    2c7e:	99 23       	and	r25, r25
    2c80:	c9 f3       	breq	.-14     	; 0x2c74 <__divsf3+0x14>
    2c82:	55 23       	and	r21, r21
    2c84:	b1 f3       	breq	.-20     	; 0x2c72 <__divsf3+0x12>
    2c86:	95 1b       	sub	r25, r21
    2c88:	55 0b       	sbc	r21, r21
    2c8a:	bb 27       	eor	r27, r27
    2c8c:	aa 27       	eor	r26, r26
    2c8e:	62 17       	cp	r22, r18
    2c90:	73 07       	cpc	r23, r19
    2c92:	84 07       	cpc	r24, r20
    2c94:	38 f0       	brcs	.+14     	; 0x2ca4 <__divsf3_pse+0x26>
    2c96:	9f 5f       	subi	r25, 0xFF	; 255
    2c98:	5f 4f       	sbci	r21, 0xFF	; 255
    2c9a:	22 0f       	add	r18, r18
    2c9c:	33 1f       	adc	r19, r19
    2c9e:	44 1f       	adc	r20, r20
    2ca0:	aa 1f       	adc	r26, r26
    2ca2:	a9 f3       	breq	.-22     	; 0x2c8e <__divsf3_pse+0x10>
    2ca4:	33 d0       	rcall	.+102    	; 0x2d0c <__divsf3_pse+0x8e>
    2ca6:	0e 2e       	mov	r0, r30
    2ca8:	3a f0       	brmi	.+14     	; 0x2cb8 <__divsf3_pse+0x3a>
    2caa:	e0 e8       	ldi	r30, 0x80	; 128
    2cac:	30 d0       	rcall	.+96     	; 0x2d0e <__divsf3_pse+0x90>
    2cae:	91 50       	subi	r25, 0x01	; 1
    2cb0:	50 40       	sbci	r21, 0x00	; 0
    2cb2:	e6 95       	lsr	r30
    2cb4:	00 1c       	adc	r0, r0
    2cb6:	ca f7       	brpl	.-14     	; 0x2caa <__divsf3_pse+0x2c>
    2cb8:	29 d0       	rcall	.+82     	; 0x2d0c <__divsf3_pse+0x8e>
    2cba:	fe 2f       	mov	r31, r30
    2cbc:	27 d0       	rcall	.+78     	; 0x2d0c <__divsf3_pse+0x8e>
    2cbe:	66 0f       	add	r22, r22
    2cc0:	77 1f       	adc	r23, r23
    2cc2:	88 1f       	adc	r24, r24
    2cc4:	bb 1f       	adc	r27, r27
    2cc6:	26 17       	cp	r18, r22
    2cc8:	37 07       	cpc	r19, r23
    2cca:	48 07       	cpc	r20, r24
    2ccc:	ab 07       	cpc	r26, r27
    2cce:	b0 e8       	ldi	r27, 0x80	; 128
    2cd0:	09 f0       	breq	.+2      	; 0x2cd4 <__divsf3_pse+0x56>
    2cd2:	bb 0b       	sbc	r27, r27
    2cd4:	80 2d       	mov	r24, r0
    2cd6:	bf 01       	movw	r22, r30
    2cd8:	ff 27       	eor	r31, r31
    2cda:	93 58       	subi	r25, 0x83	; 131
    2cdc:	5f 4f       	sbci	r21, 0xFF	; 255
    2cde:	2a f0       	brmi	.+10     	; 0x2cea <__divsf3_pse+0x6c>
    2ce0:	9e 3f       	cpi	r25, 0xFE	; 254
    2ce2:	51 05       	cpc	r21, r1
    2ce4:	68 f0       	brcs	.+26     	; 0x2d00 <__divsf3_pse+0x82>
    2ce6:	f0 c0       	rjmp	.+480    	; 0x2ec8 <__fp_inf>
    2ce8:	a9 c1       	rjmp	.+850    	; 0x303c <__fp_szero>
    2cea:	5f 3f       	cpi	r21, 0xFF	; 255
    2cec:	ec f3       	brlt	.-6      	; 0x2ce8 <__divsf3_pse+0x6a>
    2cee:	98 3e       	cpi	r25, 0xE8	; 232
    2cf0:	dc f3       	brlt	.-10     	; 0x2ce8 <__divsf3_pse+0x6a>
    2cf2:	86 95       	lsr	r24
    2cf4:	77 95       	ror	r23
    2cf6:	67 95       	ror	r22
    2cf8:	b7 95       	ror	r27
    2cfa:	f7 95       	ror	r31
    2cfc:	9f 5f       	subi	r25, 0xFF	; 255
    2cfe:	c9 f7       	brne	.-14     	; 0x2cf2 <__divsf3_pse+0x74>
    2d00:	88 0f       	add	r24, r24
    2d02:	91 1d       	adc	r25, r1
    2d04:	96 95       	lsr	r25
    2d06:	87 95       	ror	r24
    2d08:	97 f9       	bld	r25, 7
    2d0a:	08 95       	ret
    2d0c:	e1 e0       	ldi	r30, 0x01	; 1
    2d0e:	66 0f       	add	r22, r22
    2d10:	77 1f       	adc	r23, r23
    2d12:	88 1f       	adc	r24, r24
    2d14:	bb 1f       	adc	r27, r27
    2d16:	62 17       	cp	r22, r18
    2d18:	73 07       	cpc	r23, r19
    2d1a:	84 07       	cpc	r24, r20
    2d1c:	ba 07       	cpc	r27, r26
    2d1e:	20 f0       	brcs	.+8      	; 0x2d28 <__divsf3_pse+0xaa>
    2d20:	62 1b       	sub	r22, r18
    2d22:	73 0b       	sbc	r23, r19
    2d24:	84 0b       	sbc	r24, r20
    2d26:	ba 0b       	sbc	r27, r26
    2d28:	ee 1f       	adc	r30, r30
    2d2a:	88 f7       	brcc	.-30     	; 0x2d0e <__divsf3_pse+0x90>
    2d2c:	e0 95       	com	r30
    2d2e:	08 95       	ret

00002d30 <__fixsfsi>:
    2d30:	04 d0       	rcall	.+8      	; 0x2d3a <__fixunssfsi>
    2d32:	68 94       	set
    2d34:	b1 11       	cpse	r27, r1
    2d36:	82 c1       	rjmp	.+772    	; 0x303c <__fp_szero>
    2d38:	08 95       	ret

00002d3a <__fixunssfsi>:
    2d3a:	65 d1       	rcall	.+714    	; 0x3006 <__fp_splitA>
    2d3c:	88 f0       	brcs	.+34     	; 0x2d60 <__fixunssfsi+0x26>
    2d3e:	9f 57       	subi	r25, 0x7F	; 127
    2d40:	90 f0       	brcs	.+36     	; 0x2d66 <__fixunssfsi+0x2c>
    2d42:	b9 2f       	mov	r27, r25
    2d44:	99 27       	eor	r25, r25
    2d46:	b7 51       	subi	r27, 0x17	; 23
    2d48:	a0 f0       	brcs	.+40     	; 0x2d72 <__fixunssfsi+0x38>
    2d4a:	d1 f0       	breq	.+52     	; 0x2d80 <__fixunssfsi+0x46>
    2d4c:	66 0f       	add	r22, r22
    2d4e:	77 1f       	adc	r23, r23
    2d50:	88 1f       	adc	r24, r24
    2d52:	99 1f       	adc	r25, r25
    2d54:	1a f0       	brmi	.+6      	; 0x2d5c <__fixunssfsi+0x22>
    2d56:	ba 95       	dec	r27
    2d58:	c9 f7       	brne	.-14     	; 0x2d4c <__fixunssfsi+0x12>
    2d5a:	12 c0       	rjmp	.+36     	; 0x2d80 <__fixunssfsi+0x46>
    2d5c:	b1 30       	cpi	r27, 0x01	; 1
    2d5e:	81 f0       	breq	.+32     	; 0x2d80 <__fixunssfsi+0x46>
    2d60:	6c d1       	rcall	.+728    	; 0x303a <__fp_zero>
    2d62:	b1 e0       	ldi	r27, 0x01	; 1
    2d64:	08 95       	ret
    2d66:	69 c1       	rjmp	.+722    	; 0x303a <__fp_zero>
    2d68:	67 2f       	mov	r22, r23
    2d6a:	78 2f       	mov	r23, r24
    2d6c:	88 27       	eor	r24, r24
    2d6e:	b8 5f       	subi	r27, 0xF8	; 248
    2d70:	39 f0       	breq	.+14     	; 0x2d80 <__fixunssfsi+0x46>
    2d72:	b9 3f       	cpi	r27, 0xF9	; 249
    2d74:	cc f3       	brlt	.-14     	; 0x2d68 <__fixunssfsi+0x2e>
    2d76:	86 95       	lsr	r24
    2d78:	77 95       	ror	r23
    2d7a:	67 95       	ror	r22
    2d7c:	b3 95       	inc	r27
    2d7e:	d9 f7       	brne	.-10     	; 0x2d76 <__fixunssfsi+0x3c>
    2d80:	3e f4       	brtc	.+14     	; 0x2d90 <__fixunssfsi+0x56>
    2d82:	90 95       	com	r25
    2d84:	80 95       	com	r24
    2d86:	70 95       	com	r23
    2d88:	61 95       	neg	r22
    2d8a:	7f 4f       	sbci	r23, 0xFF	; 255
    2d8c:	8f 4f       	sbci	r24, 0xFF	; 255
    2d8e:	9f 4f       	sbci	r25, 0xFF	; 255
    2d90:	08 95       	ret

00002d92 <__floatunsisf>:
    2d92:	e8 94       	clt
    2d94:	09 c0       	rjmp	.+18     	; 0x2da8 <__floatsisf+0x12>

00002d96 <__floatsisf>:
    2d96:	97 fb       	bst	r25, 7
    2d98:	3e f4       	brtc	.+14     	; 0x2da8 <__floatsisf+0x12>
    2d9a:	90 95       	com	r25
    2d9c:	80 95       	com	r24
    2d9e:	70 95       	com	r23
    2da0:	61 95       	neg	r22
    2da2:	7f 4f       	sbci	r23, 0xFF	; 255
    2da4:	8f 4f       	sbci	r24, 0xFF	; 255
    2da6:	9f 4f       	sbci	r25, 0xFF	; 255
    2da8:	99 23       	and	r25, r25
    2daa:	a9 f0       	breq	.+42     	; 0x2dd6 <__floatsisf+0x40>
    2dac:	f9 2f       	mov	r31, r25
    2dae:	96 e9       	ldi	r25, 0x96	; 150
    2db0:	bb 27       	eor	r27, r27
    2db2:	93 95       	inc	r25
    2db4:	f6 95       	lsr	r31
    2db6:	87 95       	ror	r24
    2db8:	77 95       	ror	r23
    2dba:	67 95       	ror	r22
    2dbc:	b7 95       	ror	r27
    2dbe:	f1 11       	cpse	r31, r1
    2dc0:	f8 cf       	rjmp	.-16     	; 0x2db2 <__floatsisf+0x1c>
    2dc2:	fa f4       	brpl	.+62     	; 0x2e02 <__floatsisf+0x6c>
    2dc4:	bb 0f       	add	r27, r27
    2dc6:	11 f4       	brne	.+4      	; 0x2dcc <__floatsisf+0x36>
    2dc8:	60 ff       	sbrs	r22, 0
    2dca:	1b c0       	rjmp	.+54     	; 0x2e02 <__floatsisf+0x6c>
    2dcc:	6f 5f       	subi	r22, 0xFF	; 255
    2dce:	7f 4f       	sbci	r23, 0xFF	; 255
    2dd0:	8f 4f       	sbci	r24, 0xFF	; 255
    2dd2:	9f 4f       	sbci	r25, 0xFF	; 255
    2dd4:	16 c0       	rjmp	.+44     	; 0x2e02 <__floatsisf+0x6c>
    2dd6:	88 23       	and	r24, r24
    2dd8:	11 f0       	breq	.+4      	; 0x2dde <__floatsisf+0x48>
    2dda:	96 e9       	ldi	r25, 0x96	; 150
    2ddc:	11 c0       	rjmp	.+34     	; 0x2e00 <__floatsisf+0x6a>
    2dde:	77 23       	and	r23, r23
    2de0:	21 f0       	breq	.+8      	; 0x2dea <__floatsisf+0x54>
    2de2:	9e e8       	ldi	r25, 0x8E	; 142
    2de4:	87 2f       	mov	r24, r23
    2de6:	76 2f       	mov	r23, r22
    2de8:	05 c0       	rjmp	.+10     	; 0x2df4 <__floatsisf+0x5e>
    2dea:	66 23       	and	r22, r22
    2dec:	71 f0       	breq	.+28     	; 0x2e0a <__floatsisf+0x74>
    2dee:	96 e8       	ldi	r25, 0x86	; 134
    2df0:	86 2f       	mov	r24, r22
    2df2:	70 e0       	ldi	r23, 0x00	; 0
    2df4:	60 e0       	ldi	r22, 0x00	; 0
    2df6:	2a f0       	brmi	.+10     	; 0x2e02 <__floatsisf+0x6c>
    2df8:	9a 95       	dec	r25
    2dfa:	66 0f       	add	r22, r22
    2dfc:	77 1f       	adc	r23, r23
    2dfe:	88 1f       	adc	r24, r24
    2e00:	da f7       	brpl	.-10     	; 0x2df8 <__floatsisf+0x62>
    2e02:	88 0f       	add	r24, r24
    2e04:	96 95       	lsr	r25
    2e06:	87 95       	ror	r24
    2e08:	97 f9       	bld	r25, 7
    2e0a:	08 95       	ret

00002e0c <fmax>:
    2e0c:	99 0f       	add	r25, r25
    2e0e:	bb 0b       	sbc	r27, r27
    2e10:	55 0f       	add	r21, r21
    2e12:	aa 0b       	sbc	r26, r26
    2e14:	e0 e8       	ldi	r30, 0x80	; 128
    2e16:	fe ef       	ldi	r31, 0xFE	; 254
    2e18:	16 16       	cp	r1, r22
    2e1a:	17 06       	cpc	r1, r23
    2e1c:	e8 07       	cpc	r30, r24
    2e1e:	f9 07       	cpc	r31, r25
    2e20:	70 f0       	brcs	.+28     	; 0x2e3e <fmax+0x32>
    2e22:	12 16       	cp	r1, r18
    2e24:	13 06       	cpc	r1, r19
    2e26:	e4 07       	cpc	r30, r20
    2e28:	f5 07       	cpc	r31, r21
    2e2a:	60 f0       	brcs	.+24     	; 0x2e44 <fmax+0x38>
    2e2c:	ba 17       	cp	r27, r26
    2e2e:	3c f0       	brlt	.+14     	; 0x2e3e <fmax+0x32>
    2e30:	49 f4       	brne	.+18     	; 0x2e44 <fmax+0x38>
    2e32:	62 17       	cp	r22, r18
    2e34:	73 07       	cpc	r23, r19
    2e36:	84 07       	cpc	r24, r20
    2e38:	95 07       	cpc	r25, r21
    2e3a:	a7 95       	ror	r26
    2e3c:	1b f4       	brvc	.+6      	; 0x2e44 <fmax+0x38>
    2e3e:	b9 01       	movw	r22, r18
    2e40:	ca 01       	movw	r24, r20
    2e42:	ba 2f       	mov	r27, r26
    2e44:	b6 95       	lsr	r27
    2e46:	97 95       	ror	r25
    2e48:	08 95       	ret

00002e4a <__fp_arccos>:
    2e4a:	df 93       	push	r29
    2e4c:	cf 93       	push	r28
    2e4e:	1f 93       	push	r17
    2e50:	0f 93       	push	r16
    2e52:	8b 01       	movw	r16, r22
    2e54:	ec 01       	movw	r28, r24
    2e56:	ed ec       	ldi	r30, 0xCD	; 205
    2e58:	f0 e0       	ldi	r31, 0x00	; 0
    2e5a:	3f d0       	rcall	.+126    	; 0x2eda <__fp_powser>
    2e5c:	aa d0       	rcall	.+340    	; 0x2fb2 <__fp_round>
    2e5e:	98 01       	movw	r18, r16
    2e60:	ae 01       	movw	r20, r28
    2e62:	8b 01       	movw	r16, r22
    2e64:	ec 01       	movw	r28, r24
    2e66:	60 e0       	ldi	r22, 0x00	; 0
    2e68:	70 e0       	ldi	r23, 0x00	; 0
    2e6a:	80 e8       	ldi	r24, 0x80	; 128
    2e6c:	9f e3       	ldi	r25, 0x3F	; 63
    2e6e:	4d de       	rcall	.-870    	; 0x2b0a <__subsf3>
    2e70:	63 d1       	rcall	.+710    	; 0x3138 <sqrt>
    2e72:	98 01       	movw	r18, r16
    2e74:	ae 01       	movw	r20, r28
    2e76:	0f 91       	pop	r16
    2e78:	1f 91       	pop	r17
    2e7a:	cf 91       	pop	r28
    2e7c:	df 91       	pop	r29
    2e7e:	fb c0       	rjmp	.+502    	; 0x3076 <__mulsf3x>

00002e80 <__fp_cmp>:
    2e80:	99 0f       	add	r25, r25
    2e82:	00 08       	sbc	r0, r0
    2e84:	55 0f       	add	r21, r21
    2e86:	aa 0b       	sbc	r26, r26
    2e88:	e0 e8       	ldi	r30, 0x80	; 128
    2e8a:	fe ef       	ldi	r31, 0xFE	; 254
    2e8c:	16 16       	cp	r1, r22
    2e8e:	17 06       	cpc	r1, r23
    2e90:	e8 07       	cpc	r30, r24
    2e92:	f9 07       	cpc	r31, r25
    2e94:	c0 f0       	brcs	.+48     	; 0x2ec6 <__fp_cmp+0x46>
    2e96:	12 16       	cp	r1, r18
    2e98:	13 06       	cpc	r1, r19
    2e9a:	e4 07       	cpc	r30, r20
    2e9c:	f5 07       	cpc	r31, r21
    2e9e:	98 f0       	brcs	.+38     	; 0x2ec6 <__fp_cmp+0x46>
    2ea0:	62 1b       	sub	r22, r18
    2ea2:	73 0b       	sbc	r23, r19
    2ea4:	84 0b       	sbc	r24, r20
    2ea6:	95 0b       	sbc	r25, r21
    2ea8:	39 f4       	brne	.+14     	; 0x2eb8 <__fp_cmp+0x38>
    2eaa:	0a 26       	eor	r0, r26
    2eac:	61 f0       	breq	.+24     	; 0x2ec6 <__fp_cmp+0x46>
    2eae:	23 2b       	or	r18, r19
    2eb0:	24 2b       	or	r18, r20
    2eb2:	25 2b       	or	r18, r21
    2eb4:	21 f4       	brne	.+8      	; 0x2ebe <__fp_cmp+0x3e>
    2eb6:	08 95       	ret
    2eb8:	0a 26       	eor	r0, r26
    2eba:	09 f4       	brne	.+2      	; 0x2ebe <__fp_cmp+0x3e>
    2ebc:	a1 40       	sbci	r26, 0x01	; 1
    2ebe:	a6 95       	lsr	r26
    2ec0:	8f ef       	ldi	r24, 0xFF	; 255
    2ec2:	81 1d       	adc	r24, r1
    2ec4:	81 1d       	adc	r24, r1
    2ec6:	08 95       	ret

00002ec8 <__fp_inf>:
    2ec8:	97 f9       	bld	r25, 7
    2eca:	9f 67       	ori	r25, 0x7F	; 127
    2ecc:	80 e8       	ldi	r24, 0x80	; 128
    2ece:	70 e0       	ldi	r23, 0x00	; 0
    2ed0:	60 e0       	ldi	r22, 0x00	; 0
    2ed2:	08 95       	ret

00002ed4 <__fp_nan>:
    2ed4:	9f ef       	ldi	r25, 0xFF	; 255
    2ed6:	80 ec       	ldi	r24, 0xC0	; 192
    2ed8:	08 95       	ret

00002eda <__fp_powser>:
    2eda:	df 93       	push	r29
    2edc:	cf 93       	push	r28
    2ede:	1f 93       	push	r17
    2ee0:	0f 93       	push	r16
    2ee2:	ff 92       	push	r15
    2ee4:	ef 92       	push	r14
    2ee6:	df 92       	push	r13
    2ee8:	7b 01       	movw	r14, r22
    2eea:	8c 01       	movw	r16, r24
    2eec:	68 94       	set
    2eee:	05 c0       	rjmp	.+10     	; 0x2efa <__fp_powser+0x20>
    2ef0:	da 2e       	mov	r13, r26
    2ef2:	ef 01       	movw	r28, r30
    2ef4:	c0 d0       	rcall	.+384    	; 0x3076 <__mulsf3x>
    2ef6:	fe 01       	movw	r30, r28
    2ef8:	e8 94       	clt
    2efa:	a5 91       	lpm	r26, Z+
    2efc:	25 91       	lpm	r18, Z+
    2efe:	35 91       	lpm	r19, Z+
    2f00:	45 91       	lpm	r20, Z+
    2f02:	55 91       	lpm	r21, Z+
    2f04:	ae f3       	brts	.-22     	; 0x2ef0 <__fp_powser+0x16>
    2f06:	ef 01       	movw	r28, r30
    2f08:	12 de       	rcall	.-988    	; 0x2b2e <__addsf3x>
    2f0a:	fe 01       	movw	r30, r28
    2f0c:	97 01       	movw	r18, r14
    2f0e:	a8 01       	movw	r20, r16
    2f10:	da 94       	dec	r13
    2f12:	79 f7       	brne	.-34     	; 0x2ef2 <__fp_powser+0x18>
    2f14:	df 90       	pop	r13
    2f16:	ef 90       	pop	r14
    2f18:	ff 90       	pop	r15
    2f1a:	0f 91       	pop	r16
    2f1c:	1f 91       	pop	r17
    2f1e:	cf 91       	pop	r28
    2f20:	df 91       	pop	r29
    2f22:	08 95       	ret

00002f24 <__fp_powsodd>:
    2f24:	9f 93       	push	r25
    2f26:	8f 93       	push	r24
    2f28:	7f 93       	push	r23
    2f2a:	6f 93       	push	r22
    2f2c:	ff 93       	push	r31
    2f2e:	ef 93       	push	r30
    2f30:	9b 01       	movw	r18, r22
    2f32:	ac 01       	movw	r20, r24
    2f34:	94 d0       	rcall	.+296    	; 0x305e <__mulsf3>
    2f36:	ef 91       	pop	r30
    2f38:	ff 91       	pop	r31
    2f3a:	cf df       	rcall	.-98     	; 0x2eda <__fp_powser>
    2f3c:	2f 91       	pop	r18
    2f3e:	3f 91       	pop	r19
    2f40:	4f 91       	pop	r20
    2f42:	5f 91       	pop	r21
    2f44:	8c c0       	rjmp	.+280    	; 0x305e <__mulsf3>

00002f46 <__fp_pscA>:
    2f46:	00 24       	eor	r0, r0
    2f48:	0a 94       	dec	r0
    2f4a:	16 16       	cp	r1, r22
    2f4c:	17 06       	cpc	r1, r23
    2f4e:	18 06       	cpc	r1, r24
    2f50:	09 06       	cpc	r0, r25
    2f52:	08 95       	ret

00002f54 <__fp_pscB>:
    2f54:	00 24       	eor	r0, r0
    2f56:	0a 94       	dec	r0
    2f58:	12 16       	cp	r1, r18
    2f5a:	13 06       	cpc	r1, r19
    2f5c:	14 06       	cpc	r1, r20
    2f5e:	05 06       	cpc	r0, r21
    2f60:	08 95       	ret
    2f62:	b8 cf       	rjmp	.-144    	; 0x2ed4 <__fp_nan>

00002f64 <__fp_rempio2>:
    2f64:	50 d0       	rcall	.+160    	; 0x3006 <__fp_splitA>
    2f66:	e8 f3       	brcs	.-6      	; 0x2f62 <__fp_pscB+0xe>
    2f68:	e8 94       	clt
    2f6a:	e0 e0       	ldi	r30, 0x00	; 0
    2f6c:	bb 27       	eor	r27, r27
    2f6e:	9f 57       	subi	r25, 0x7F	; 127
    2f70:	f0 f0       	brcs	.+60     	; 0x2fae <__fp_rempio2+0x4a>
    2f72:	2a ed       	ldi	r18, 0xDA	; 218
    2f74:	3f e0       	ldi	r19, 0x0F	; 15
    2f76:	49 ec       	ldi	r20, 0xC9	; 201
    2f78:	06 c0       	rjmp	.+12     	; 0x2f86 <__fp_rempio2+0x22>
    2f7a:	ee 0f       	add	r30, r30
    2f7c:	bb 0f       	add	r27, r27
    2f7e:	66 1f       	adc	r22, r22
    2f80:	77 1f       	adc	r23, r23
    2f82:	88 1f       	adc	r24, r24
    2f84:	28 f0       	brcs	.+10     	; 0x2f90 <__fp_rempio2+0x2c>
    2f86:	b2 3a       	cpi	r27, 0xA2	; 162
    2f88:	62 07       	cpc	r22, r18
    2f8a:	73 07       	cpc	r23, r19
    2f8c:	84 07       	cpc	r24, r20
    2f8e:	28 f0       	brcs	.+10     	; 0x2f9a <__fp_rempio2+0x36>
    2f90:	b2 5a       	subi	r27, 0xA2	; 162
    2f92:	62 0b       	sbc	r22, r18
    2f94:	73 0b       	sbc	r23, r19
    2f96:	84 0b       	sbc	r24, r20
    2f98:	e3 95       	inc	r30
    2f9a:	9a 95       	dec	r25
    2f9c:	72 f7       	brpl	.-36     	; 0x2f7a <__fp_rempio2+0x16>
    2f9e:	80 38       	cpi	r24, 0x80	; 128
    2fa0:	30 f4       	brcc	.+12     	; 0x2fae <__fp_rempio2+0x4a>
    2fa2:	9a 95       	dec	r25
    2fa4:	bb 0f       	add	r27, r27
    2fa6:	66 1f       	adc	r22, r22
    2fa8:	77 1f       	adc	r23, r23
    2faa:	88 1f       	adc	r24, r24
    2fac:	d2 f7       	brpl	.-12     	; 0x2fa2 <__fp_rempio2+0x3e>
    2fae:	90 48       	sbci	r25, 0x80	; 128
    2fb0:	06 c1       	rjmp	.+524    	; 0x31be <__fp_mpack_finite>

00002fb2 <__fp_round>:
    2fb2:	09 2e       	mov	r0, r25
    2fb4:	03 94       	inc	r0
    2fb6:	00 0c       	add	r0, r0
    2fb8:	11 f4       	brne	.+4      	; 0x2fbe <__fp_round+0xc>
    2fba:	88 23       	and	r24, r24
    2fbc:	52 f0       	brmi	.+20     	; 0x2fd2 <__fp_round+0x20>
    2fbe:	bb 0f       	add	r27, r27
    2fc0:	40 f4       	brcc	.+16     	; 0x2fd2 <__fp_round+0x20>
    2fc2:	bf 2b       	or	r27, r31
    2fc4:	11 f4       	brne	.+4      	; 0x2fca <__fp_round+0x18>
    2fc6:	60 ff       	sbrs	r22, 0
    2fc8:	04 c0       	rjmp	.+8      	; 0x2fd2 <__fp_round+0x20>
    2fca:	6f 5f       	subi	r22, 0xFF	; 255
    2fcc:	7f 4f       	sbci	r23, 0xFF	; 255
    2fce:	8f 4f       	sbci	r24, 0xFF	; 255
    2fd0:	9f 4f       	sbci	r25, 0xFF	; 255
    2fd2:	08 95       	ret

00002fd4 <__fp_sinus>:
    2fd4:	ef 93       	push	r30
    2fd6:	e0 ff       	sbrs	r30, 0
    2fd8:	06 c0       	rjmp	.+12     	; 0x2fe6 <__fp_sinus+0x12>
    2fda:	a2 ea       	ldi	r26, 0xA2	; 162
    2fdc:	2a ed       	ldi	r18, 0xDA	; 218
    2fde:	3f e0       	ldi	r19, 0x0F	; 15
    2fe0:	49 ec       	ldi	r20, 0xC9	; 201
    2fe2:	5f eb       	ldi	r21, 0xBF	; 191
    2fe4:	a4 dd       	rcall	.-1208   	; 0x2b2e <__addsf3x>
    2fe6:	e5 df       	rcall	.-54     	; 0x2fb2 <__fp_round>
    2fe8:	0f 90       	pop	r0
    2fea:	03 94       	inc	r0
    2fec:	01 fc       	sbrc	r0, 1
    2fee:	90 58       	subi	r25, 0x80	; 128
    2ff0:	e5 ef       	ldi	r30, 0xF5	; 245
    2ff2:	f0 e0       	ldi	r31, 0x00	; 0
    2ff4:	97 cf       	rjmp	.-210    	; 0x2f24 <__fp_powsodd>

00002ff6 <__fp_split3>:
    2ff6:	57 fd       	sbrc	r21, 7
    2ff8:	90 58       	subi	r25, 0x80	; 128
    2ffa:	44 0f       	add	r20, r20
    2ffc:	55 1f       	adc	r21, r21
    2ffe:	59 f0       	breq	.+22     	; 0x3016 <__fp_splitA+0x10>
    3000:	5f 3f       	cpi	r21, 0xFF	; 255
    3002:	71 f0       	breq	.+28     	; 0x3020 <__fp_splitA+0x1a>
    3004:	47 95       	ror	r20

00003006 <__fp_splitA>:
    3006:	88 0f       	add	r24, r24
    3008:	97 fb       	bst	r25, 7
    300a:	99 1f       	adc	r25, r25
    300c:	61 f0       	breq	.+24     	; 0x3026 <__fp_splitA+0x20>
    300e:	9f 3f       	cpi	r25, 0xFF	; 255
    3010:	79 f0       	breq	.+30     	; 0x3030 <__fp_splitA+0x2a>
    3012:	87 95       	ror	r24
    3014:	08 95       	ret
    3016:	12 16       	cp	r1, r18
    3018:	13 06       	cpc	r1, r19
    301a:	14 06       	cpc	r1, r20
    301c:	55 1f       	adc	r21, r21
    301e:	f2 cf       	rjmp	.-28     	; 0x3004 <__fp_split3+0xe>
    3020:	46 95       	lsr	r20
    3022:	f1 df       	rcall	.-30     	; 0x3006 <__fp_splitA>
    3024:	08 c0       	rjmp	.+16     	; 0x3036 <__fp_splitA+0x30>
    3026:	16 16       	cp	r1, r22
    3028:	17 06       	cpc	r1, r23
    302a:	18 06       	cpc	r1, r24
    302c:	99 1f       	adc	r25, r25
    302e:	f1 cf       	rjmp	.-30     	; 0x3012 <__fp_splitA+0xc>
    3030:	86 95       	lsr	r24
    3032:	71 05       	cpc	r23, r1
    3034:	61 05       	cpc	r22, r1
    3036:	08 94       	sec
    3038:	08 95       	ret

0000303a <__fp_zero>:
    303a:	e8 94       	clt

0000303c <__fp_szero>:
    303c:	bb 27       	eor	r27, r27
    303e:	66 27       	eor	r22, r22
    3040:	77 27       	eor	r23, r23
    3042:	cb 01       	movw	r24, r22
    3044:	97 f9       	bld	r25, 7
    3046:	08 95       	ret

00003048 <__gesf2>:
    3048:	1b df       	rcall	.-458    	; 0x2e80 <__fp_cmp>
    304a:	08 f4       	brcc	.+2      	; 0x304e <__gesf2+0x6>
    304c:	8f ef       	ldi	r24, 0xFF	; 255
    304e:	08 95       	ret

00003050 <inverse>:
    3050:	9b 01       	movw	r18, r22
    3052:	ac 01       	movw	r20, r24
    3054:	60 e0       	ldi	r22, 0x00	; 0
    3056:	70 e0       	ldi	r23, 0x00	; 0
    3058:	80 e8       	ldi	r24, 0x80	; 128
    305a:	9f e3       	ldi	r25, 0x3F	; 63
    305c:	01 ce       	rjmp	.-1022   	; 0x2c60 <__divsf3>

0000305e <__mulsf3>:
    305e:	0b d0       	rcall	.+22     	; 0x3076 <__mulsf3x>
    3060:	a8 cf       	rjmp	.-176    	; 0x2fb2 <__fp_round>
    3062:	71 df       	rcall	.-286    	; 0x2f46 <__fp_pscA>
    3064:	28 f0       	brcs	.+10     	; 0x3070 <__mulsf3+0x12>
    3066:	76 df       	rcall	.-276    	; 0x2f54 <__fp_pscB>
    3068:	18 f0       	brcs	.+6      	; 0x3070 <__mulsf3+0x12>
    306a:	95 23       	and	r25, r21
    306c:	09 f0       	breq	.+2      	; 0x3070 <__mulsf3+0x12>
    306e:	2c cf       	rjmp	.-424    	; 0x2ec8 <__fp_inf>
    3070:	31 cf       	rjmp	.-414    	; 0x2ed4 <__fp_nan>
    3072:	11 24       	eor	r1, r1
    3074:	e3 cf       	rjmp	.-58     	; 0x303c <__fp_szero>

00003076 <__mulsf3x>:
    3076:	bf df       	rcall	.-130    	; 0x2ff6 <__fp_split3>
    3078:	a0 f3       	brcs	.-24     	; 0x3062 <__mulsf3+0x4>

0000307a <__mulsf3_pse>:
    307a:	95 9f       	mul	r25, r21
    307c:	d1 f3       	breq	.-12     	; 0x3072 <__mulsf3+0x14>
    307e:	95 0f       	add	r25, r21
    3080:	50 e0       	ldi	r21, 0x00	; 0
    3082:	55 1f       	adc	r21, r21
    3084:	62 9f       	mul	r22, r18
    3086:	f0 01       	movw	r30, r0
    3088:	72 9f       	mul	r23, r18
    308a:	bb 27       	eor	r27, r27
    308c:	f0 0d       	add	r31, r0
    308e:	b1 1d       	adc	r27, r1
    3090:	63 9f       	mul	r22, r19
    3092:	aa 27       	eor	r26, r26
    3094:	f0 0d       	add	r31, r0
    3096:	b1 1d       	adc	r27, r1
    3098:	aa 1f       	adc	r26, r26
    309a:	64 9f       	mul	r22, r20
    309c:	66 27       	eor	r22, r22
    309e:	b0 0d       	add	r27, r0
    30a0:	a1 1d       	adc	r26, r1
    30a2:	66 1f       	adc	r22, r22
    30a4:	82 9f       	mul	r24, r18
    30a6:	22 27       	eor	r18, r18
    30a8:	b0 0d       	add	r27, r0
    30aa:	a1 1d       	adc	r26, r1
    30ac:	62 1f       	adc	r22, r18
    30ae:	73 9f       	mul	r23, r19
    30b0:	b0 0d       	add	r27, r0
    30b2:	a1 1d       	adc	r26, r1
    30b4:	62 1f       	adc	r22, r18
    30b6:	83 9f       	mul	r24, r19
    30b8:	a0 0d       	add	r26, r0
    30ba:	61 1d       	adc	r22, r1
    30bc:	22 1f       	adc	r18, r18
    30be:	74 9f       	mul	r23, r20
    30c0:	33 27       	eor	r19, r19
    30c2:	a0 0d       	add	r26, r0
    30c4:	61 1d       	adc	r22, r1
    30c6:	23 1f       	adc	r18, r19
    30c8:	84 9f       	mul	r24, r20
    30ca:	60 0d       	add	r22, r0
    30cc:	21 1d       	adc	r18, r1
    30ce:	82 2f       	mov	r24, r18
    30d0:	76 2f       	mov	r23, r22
    30d2:	6a 2f       	mov	r22, r26
    30d4:	11 24       	eor	r1, r1
    30d6:	9f 57       	subi	r25, 0x7F	; 127
    30d8:	50 40       	sbci	r21, 0x00	; 0
    30da:	8a f0       	brmi	.+34     	; 0x30fe <__mulsf3_pse+0x84>
    30dc:	e1 f0       	breq	.+56     	; 0x3116 <__mulsf3_pse+0x9c>
    30de:	88 23       	and	r24, r24
    30e0:	4a f0       	brmi	.+18     	; 0x30f4 <__mulsf3_pse+0x7a>
    30e2:	ee 0f       	add	r30, r30
    30e4:	ff 1f       	adc	r31, r31
    30e6:	bb 1f       	adc	r27, r27
    30e8:	66 1f       	adc	r22, r22
    30ea:	77 1f       	adc	r23, r23
    30ec:	88 1f       	adc	r24, r24
    30ee:	91 50       	subi	r25, 0x01	; 1
    30f0:	50 40       	sbci	r21, 0x00	; 0
    30f2:	a9 f7       	brne	.-22     	; 0x30de <__mulsf3_pse+0x64>
    30f4:	9e 3f       	cpi	r25, 0xFE	; 254
    30f6:	51 05       	cpc	r21, r1
    30f8:	70 f0       	brcs	.+28     	; 0x3116 <__mulsf3_pse+0x9c>
    30fa:	e6 ce       	rjmp	.-564    	; 0x2ec8 <__fp_inf>
    30fc:	9f cf       	rjmp	.-194    	; 0x303c <__fp_szero>
    30fe:	5f 3f       	cpi	r21, 0xFF	; 255
    3100:	ec f3       	brlt	.-6      	; 0x30fc <__mulsf3_pse+0x82>
    3102:	98 3e       	cpi	r25, 0xE8	; 232
    3104:	dc f3       	brlt	.-10     	; 0x30fc <__mulsf3_pse+0x82>
    3106:	86 95       	lsr	r24
    3108:	77 95       	ror	r23
    310a:	67 95       	ror	r22
    310c:	b7 95       	ror	r27
    310e:	f7 95       	ror	r31
    3110:	e7 95       	ror	r30
    3112:	9f 5f       	subi	r25, 0xFF	; 255
    3114:	c1 f7       	brne	.-16     	; 0x3106 <__mulsf3_pse+0x8c>
    3116:	fe 2b       	or	r31, r30
    3118:	88 0f       	add	r24, r24
    311a:	91 1d       	adc	r25, r1
    311c:	96 95       	lsr	r25
    311e:	87 95       	ror	r24
    3120:	97 f9       	bld	r25, 7
    3122:	08 95       	ret

00003124 <sin>:
    3124:	9f 93       	push	r25
    3126:	1e df       	rcall	.-452    	; 0x2f64 <__fp_rempio2>
    3128:	0f 90       	pop	r0
    312a:	07 fc       	sbrc	r0, 7
    312c:	ee 5f       	subi	r30, 0xFE	; 254
    312e:	52 cf       	rjmp	.-348    	; 0x2fd4 <__fp_sinus>
    3130:	11 f4       	brne	.+4      	; 0x3136 <sin+0x12>
    3132:	0e f4       	brtc	.+2      	; 0x3136 <sin+0x12>
    3134:	cf ce       	rjmp	.-610    	; 0x2ed4 <__fp_nan>
    3136:	41 c0       	rjmp	.+130    	; 0x31ba <__fp_mpack>

00003138 <sqrt>:
    3138:	66 df       	rcall	.-308    	; 0x3006 <__fp_splitA>
    313a:	d0 f3       	brcs	.-12     	; 0x3130 <sin+0xc>
    313c:	99 23       	and	r25, r25
    313e:	d9 f3       	breq	.-10     	; 0x3136 <sin+0x12>
    3140:	ce f3       	brts	.-14     	; 0x3134 <sin+0x10>
    3142:	9f 57       	subi	r25, 0x7F	; 127
    3144:	55 0b       	sbc	r21, r21
    3146:	87 ff       	sbrs	r24, 7
    3148:	46 d0       	rcall	.+140    	; 0x31d6 <__fp_norm2>
    314a:	00 24       	eor	r0, r0
    314c:	a0 e6       	ldi	r26, 0x60	; 96
    314e:	40 ea       	ldi	r20, 0xA0	; 160
    3150:	90 01       	movw	r18, r0
    3152:	80 58       	subi	r24, 0x80	; 128
    3154:	56 95       	lsr	r21
    3156:	97 95       	ror	r25
    3158:	28 f4       	brcc	.+10     	; 0x3164 <sqrt+0x2c>
    315a:	80 5c       	subi	r24, 0xC0	; 192
    315c:	66 0f       	add	r22, r22
    315e:	77 1f       	adc	r23, r23
    3160:	88 1f       	adc	r24, r24
    3162:	20 f0       	brcs	.+8      	; 0x316c <sqrt+0x34>
    3164:	26 17       	cp	r18, r22
    3166:	37 07       	cpc	r19, r23
    3168:	48 07       	cpc	r20, r24
    316a:	30 f4       	brcc	.+12     	; 0x3178 <sqrt+0x40>
    316c:	62 1b       	sub	r22, r18
    316e:	73 0b       	sbc	r23, r19
    3170:	84 0b       	sbc	r24, r20
    3172:	20 29       	or	r18, r0
    3174:	31 29       	or	r19, r1
    3176:	4a 2b       	or	r20, r26
    3178:	a6 95       	lsr	r26
    317a:	17 94       	ror	r1
    317c:	07 94       	ror	r0
    317e:	20 25       	eor	r18, r0
    3180:	31 25       	eor	r19, r1
    3182:	4a 27       	eor	r20, r26
    3184:	58 f7       	brcc	.-42     	; 0x315c <sqrt+0x24>
    3186:	66 0f       	add	r22, r22
    3188:	77 1f       	adc	r23, r23
    318a:	88 1f       	adc	r24, r24
    318c:	20 f0       	brcs	.+8      	; 0x3196 <sqrt+0x5e>
    318e:	26 17       	cp	r18, r22
    3190:	37 07       	cpc	r19, r23
    3192:	48 07       	cpc	r20, r24
    3194:	30 f4       	brcc	.+12     	; 0x31a2 <sqrt+0x6a>
    3196:	62 0b       	sbc	r22, r18
    3198:	73 0b       	sbc	r23, r19
    319a:	84 0b       	sbc	r24, r20
    319c:	20 0d       	add	r18, r0
    319e:	31 1d       	adc	r19, r1
    31a0:	41 1d       	adc	r20, r1
    31a2:	a0 95       	com	r26
    31a4:	81 f7       	brne	.-32     	; 0x3186 <sqrt+0x4e>
    31a6:	b9 01       	movw	r22, r18
    31a8:	84 2f       	mov	r24, r20
    31aa:	91 58       	subi	r25, 0x81	; 129
    31ac:	88 0f       	add	r24, r24
    31ae:	96 95       	lsr	r25
    31b0:	87 95       	ror	r24
    31b2:	08 95       	ret

000031b4 <square>:
    31b4:	9b 01       	movw	r18, r22
    31b6:	ac 01       	movw	r20, r24
    31b8:	52 cf       	rjmp	.-348    	; 0x305e <__mulsf3>

000031ba <__fp_mpack>:
    31ba:	9f 3f       	cpi	r25, 0xFF	; 255
    31bc:	31 f0       	breq	.+12     	; 0x31ca <__fp_mpack_finite+0xc>

000031be <__fp_mpack_finite>:
    31be:	91 50       	subi	r25, 0x01	; 1
    31c0:	20 f4       	brcc	.+8      	; 0x31ca <__fp_mpack_finite+0xc>
    31c2:	87 95       	ror	r24
    31c4:	77 95       	ror	r23
    31c6:	67 95       	ror	r22
    31c8:	b7 95       	ror	r27
    31ca:	88 0f       	add	r24, r24
    31cc:	91 1d       	adc	r25, r1
    31ce:	96 95       	lsr	r25
    31d0:	87 95       	ror	r24
    31d2:	97 f9       	bld	r25, 7
    31d4:	08 95       	ret

000031d6 <__fp_norm2>:
    31d6:	91 50       	subi	r25, 0x01	; 1
    31d8:	50 40       	sbci	r21, 0x00	; 0
    31da:	66 0f       	add	r22, r22
    31dc:	77 1f       	adc	r23, r23
    31de:	88 1f       	adc	r24, r24
    31e0:	d2 f7       	brpl	.-12     	; 0x31d6 <__fp_norm2>
    31e2:	08 95       	ret

000031e4 <_exit>:
    31e4:	f8 94       	cli

000031e6 <__stop_program>:
    31e6:	ff cf       	rjmp	.-2      	; 0x31e6 <__stop_program>
