
Gangenheten.elf:     file format elf32-avr

Sections:
Idx Name          Size      VMA       LMA       File off  Algn
  0 .data         00001480  00800100  00007096  0000712a  2**0
                  CONTENTS, ALLOC, LOAD, DATA
  1 .text         00007096  00000000  00000000  00000094  2**1
                  CONTENTS, ALLOC, LOAD, READONLY, CODE
  2 .bss          00000a82  00801580  00801580  000085aa  2**0
                  ALLOC
  3 .stab         00003ffc  00000000  00000000  000085ac  2**2
                  CONTENTS, READONLY, DEBUGGING
  4 .stabstr      00001232  00000000  00000000  0000c5a8  2**0
                  CONTENTS, READONLY, DEBUGGING
  5 .comment      0000002f  00000000  00000000  0000d7da  2**0
                  CONTENTS, READONLY
  6 .debug_aranges 00000e30  00000000  00000000  0000d809  2**0
                  CONTENTS, READONLY, DEBUGGING
  7 .debug_info   0001318a  00000000  00000000  0000e639  2**0
                  CONTENTS, READONLY, DEBUGGING
  8 .debug_abbrev 00001ad5  00000000  00000000  000217c3  2**0
                  CONTENTS, READONLY, DEBUGGING
  9 .debug_line   00006091  00000000  00000000  00023298  2**0
                  CONTENTS, READONLY, DEBUGGING
 10 .debug_frame  00003770  00000000  00000000  0002932c  2**2
                  CONTENTS, READONLY, DEBUGGING
 11 .debug_str    00006a2a  00000000  00000000  0002ca9c  2**0
                  CONTENTS, READONLY, DEBUGGING
 12 .debug_loc    00010737  00000000  00000000  000334c6  2**0
                  CONTENTS, READONLY, DEBUGGING
 13 .debug_ranges 00000e08  00000000  00000000  00043bfd  2**0
                  CONTENTS, READONLY, DEBUGGING

Disassembly of section .text:

00000000 <__vectors>:
       0:	c6 c4       	rjmp	.+2444   	; 0x98e <__ctors_end>
       2:	00 00       	nop
       4:	f2 c4       	rjmp	.+2532   	; 0x9ea <__bad_interrupt>
       6:	00 00       	nop
       8:	f0 c4       	rjmp	.+2528   	; 0x9ea <__bad_interrupt>
       a:	00 00       	nop
       c:	ee c4       	rjmp	.+2524   	; 0x9ea <__bad_interrupt>
       e:	00 00       	nop
      10:	0c 94 25 2c 	jmp	0x584a	; 0x584a <__vector_4>
      14:	ea c4       	rjmp	.+2516   	; 0x9ea <__bad_interrupt>
      16:	00 00       	nop
      18:	e8 c4       	rjmp	.+2512   	; 0x9ea <__bad_interrupt>
      1a:	00 00       	nop
      1c:	e6 c4       	rjmp	.+2508   	; 0x9ea <__bad_interrupt>
      1e:	00 00       	nop
      20:	e4 c4       	rjmp	.+2504   	; 0x9ea <__bad_interrupt>
      22:	00 00       	nop
      24:	e2 c4       	rjmp	.+2500   	; 0x9ea <__bad_interrupt>
      26:	00 00       	nop
      28:	e0 c4       	rjmp	.+2496   	; 0x9ea <__bad_interrupt>
      2a:	00 00       	nop
      2c:	de c4       	rjmp	.+2492   	; 0x9ea <__bad_interrupt>
      2e:	00 00       	nop
      30:	dc c4       	rjmp	.+2488   	; 0x9ea <__bad_interrupt>
      32:	00 00       	nop
      34:	98 c5       	rjmp	.+2864   	; 0xb66 <__vector_13>
      36:	00 00       	nop
      38:	d8 c4       	rjmp	.+2480   	; 0x9ea <__bad_interrupt>
      3a:	00 00       	nop
      3c:	d6 c4       	rjmp	.+2476   	; 0x9ea <__bad_interrupt>
      3e:	00 00       	nop
      40:	d4 c4       	rjmp	.+2472   	; 0x9ea <__bad_interrupt>
      42:	00 00       	nop
      44:	d2 c4       	rjmp	.+2468   	; 0x9ea <__bad_interrupt>
      46:	00 00       	nop
      48:	0c 94 c9 1a 	jmp	0x3592	; 0x3592 <__vector_18>
      4c:	ce c4       	rjmp	.+2460   	; 0x9ea <__bad_interrupt>
      4e:	00 00       	nop
      50:	0c 94 51 31 	jmp	0x62a2	; 0x62a2 <__vector_20>
      54:	ca c4       	rjmp	.+2452   	; 0x9ea <__bad_interrupt>
      56:	00 00       	nop
      58:	c8 c4       	rjmp	.+2448   	; 0x9ea <__bad_interrupt>
      5a:	00 00       	nop
      5c:	c6 c4       	rjmp	.+2444   	; 0x9ea <__bad_interrupt>
      5e:	00 00       	nop
      60:	c4 c4       	rjmp	.+2440   	; 0x9ea <__bad_interrupt>
      62:	00 00       	nop
      64:	c2 c4       	rjmp	.+2436   	; 0x9ea <__bad_interrupt>
      66:	00 00       	nop
      68:	c0 c4       	rjmp	.+2432   	; 0x9ea <__bad_interrupt>
      6a:	00 00       	nop
      6c:	be c4       	rjmp	.+2428   	; 0x9ea <__bad_interrupt>
      6e:	00 00       	nop
      70:	0c 94 19 30 	jmp	0x6032	; 0x6032 <__vector_28>
      74:	ba c4       	rjmp	.+2420   	; 0x9ea <__bad_interrupt>
      76:	00 00       	nop
      78:	b8 c4       	rjmp	.+2416   	; 0x9ea <__bad_interrupt>
      7a:	00 00       	nop
      7c:	b6 c4       	rjmp	.+2412   	; 0x9ea <__bad_interrupt>
      7e:	00 00       	nop
      80:	14 c5       	rjmp	.+2600   	; 0xaaa <__vector_32>
      82:	00 00       	nop
      84:	b2 c4       	rjmp	.+2404   	; 0x9ea <__bad_interrupt>
      86:	00 00       	nop
      88:	b0 c4       	rjmp	.+2400   	; 0x9ea <__bad_interrupt>
      8a:	00 00       	nop
      8c:	03 6e       	ori	r16, 0xE3	; 227
      8e:	db 36       	cpi	r29, 0x6B	; 107
      90:	3d 9a       	sbi	0x07, 5	; 7
      92:	99 99       	sbic	0x13, 1	; 19
      94:	99 3d       	cpi	r25, 0xD9	; 217
      96:	ab aa       	std	Y+51, r10	; 0x33
      98:	aa 2a       	or	r10, r26
      9a:	3e 00       	.word	0x003e	; ????
      9c:	00 00       	nop
      9e:	80 3f       	cpi	r24, 0xF0	; 240
      a0:	08 4a       	sbci	r16, 0xA8	; 168
      a2:	d7 3b       	cpi	r29, 0xB7	; 183
      a4:	3b ce       	rjmp	.-906    	; 0xfffffd1c <__eeprom_end+0xff7efd1c>
      a6:	01 6e       	ori	r16, 0xE1	; 225
      a8:	84 bc       	out	0x24, r8	; 36
      aa:	bf fd       	.word	0xfdbf	; ????
      ac:	c1 2f       	mov	r28, r17
      ae:	3d 6c       	ori	r19, 0xCD	; 205
      b0:	74 31       	cpi	r23, 0x14	; 20
      b2:	9a bd       	out	0x2a, r25	; 42
      b4:	56 83       	std	Z+6, r21	; 0x06
      b6:	3d da       	rcall	.-2950   	; 0xfffff532 <__eeprom_end+0xff7ef532>
      b8:	3d 00       	.word	0x003d	; ????
      ba:	c7 7f       	andi	r28, 0xF7	; 247
      bc:	11 be       	out	0x31, r1	; 49
      be:	d9 e4       	ldi	r29, 0x49	; 73
      c0:	bb 4c       	sbci	r27, 0xCB	; 203
      c2:	3e 91       	ld	r19, -X
      c4:	6b aa       	std	Y+51, r6	; 0x33
      c6:	aa be       	out	0x3a, r10	; 58
      c8:	00 00       	nop
      ca:	00 80       	ld	r0, Z
      cc:	3f 07       	cpc	r19, r31
      ce:	2c 7a       	andi	r18, 0xAC	; 172
      d0:	a5 ba       	out	0x15, r10	; 21
      d2:	6c c5       	rjmp	.+2776   	; 0xbac <_Z22wait_until_gyro_stablev+0x14>
      d4:	90 da       	rcall	.-2784   	; 0xfffff5f6 <__eeprom_end+0xff7ef5f6>
      d6:	3b 93       	.word	0x933b	; ????
      d8:	65 fc       	sbrc	r6, 5
      da:	8b bc       	out	0x2b, r8	; 43
      dc:	53 f8       	bld	r5, 3
      de:	10 fd       	sbrc	r17, 0
      e0:	3c 56       	subi	r19, 0x6C	; 108
      e2:	92 83       	std	Z+2, r25	; 0x02
      e4:	4d bd       	out	0x2d, r20	; 45
      e6:	87 9d       	mul	r24, r7
      e8:	3a b6       	in	r3, 0x3a	; 58
      ea:	3d cb       	rjmp	.-2438   	; 0xfffff766 <__eeprom_end+0xff7ef766>
      ec:	c9 bf       	out	0x39, r28	; 57
      ee:	5b be       	out	0x3b, r5	; 59
      f0:	73 da       	rcall	.-2842   	; 0xfffff5d8 <__eeprom_end+0xff7ef5d8>
      f2:	0f c9       	rjmp	.-3554   	; 0xfffff312 <__eeprom_end+0xff7ef312>
      f4:	3f 05       	cpc	r19, r15
      f6:	a8 4c       	sbci	r26, 0xC8	; 200
      f8:	cd b2       	in	r12, 0x1d	; 29
      fa:	d4 4e       	sbci	r29, 0xE4	; 228
      fc:	b9 38       	cpi	r27, 0x89	; 137
      fe:	36 a9       	ldd	r19, Z+54	; 0x36
     100:	02 0c       	add	r0, r2
     102:	50 b9       	out	0x00, r21	; 0
     104:	91 86       	std	Z+9, r9	; 0x09
     106:	88 08       	sbc	r8, r8
     108:	3c a6       	std	Y+44, r3	; 0x2c
     10a:	aa aa       	std	Y+50, r10	; 0x32
     10c:	2a be       	out	0x3a, r2	; 58
     10e:	00 00       	nop
     110:	00 80       	ld	r0, Z
     112:	3f fb       	.word	0xfb3f	; ????

00000113 <_ZL9dmpMemory>:
     113:	fb 00 00 3e 00 0b 00 36 00 01 00 02 00 03 00 00     ...>...6........
     123:	00 65 00 54 ff ef 00 00 fa 80 00 0b 12 82 00 01     .e.T............
     133:	00 02 00 00 00 00 00 00 00 00 00 00 00 00 00 00     ................
     143:	00 28 00 00 ff ff 45 81 ff ff fa 72 00 00 00 00     .(....E....r....
     153:	00 00 03 e8 00 00 00 01 00 01 7f ff ff fe 80 01     ................
     163:	00 1b 00 00 00 00 00 00 00 00 00 00 00 00 00 00     ................
     173:	00 3e 03 30 40 00 00 00 02 ca e3 09 3e 80 00 00     .>.0@.......>...
     183:	20 00 00 00 00 00 00 00 40 00 00 00 60 00 00 00      .......@...`...
     193:	41 ff 00 00 00 00 0b 2a 00 00 16 55 00 00 21 82     A......*...U..!.
     1a3:	fd 87 26 50 fd 80 00 00 00 1f 00 00 00 05 80 00     ..&P............
     1b3:	00 00 00 00 00 01 00 00 00 02 00 00 00 03 00 00     ................
     1c3:	40 00 00 00 00 00 04 6f 00 02 65 32 00 00 5e c0     @......o..e2..^.
     1d3:	40 00 00 00 00 00 00 00 00 00 00 00 00 00 00 00     @...............
     1e3:	fb 8c 6f 5d fd 5d 08 d9 00 7c 73 3b 00 6c 12 cc     ..o].]...|s;.l..
     1f3:	32 00 13 9d 32 00 d0 d6 32 00 08 00 40 00 01 f4     2...2...2...@...
     203:	ff e6 80 79 02 00 00 00 00 00 d0 d6 00 00 27 10     ...y..........'.
     213:	fb 00 00 00 40 00 00 00 00 00 00 00 00 00 00 00     ....@...........
     223:	00 00 00 01 00 00 00 00 00 00 01 00 01 00 00 00     ................
     233:	00 00 fa 36 ff bc 30 8e 00 05 fb f0 ff d9 5b c8     ...6..0.......[.
     243:	ff d0 9a be 00 00 10 a9 ff f4 1e b2 00 ce bb f7     ................
     253:	00 00 00 01 00 00 00 04 00 02 00 02 02 00 00 0c     ................
     263:	ff c2 80 00 00 01 80 00 00 cf 80 00 40 00 00 00     ............@...
     273:	00 00 00 01 00 00 00 00 00 00 06 00 00 00 00 14     ................
	...
     2b7:	03 3f 68 b6 79 35 28 bc c6 7e d1 6c 80 00 00 00     .?h.y5(..~.l....
     2c7:	40 00 00 00 00 00 b2 6a 00 00 00 00 00 00 00 00     @......j........
     2d7:	00 00 00 00 00 00 3f f0 00 00 00 30 00 00 00 00     ......?....0....
	...
     303:	00 00 25 4d 00 2f 70 6d 00 00 05 ae 00 0c 02 d0     ..%M./pm........
     313:	00 00 00 00 00 65 00 54 ff ef 00 00 00 00 00 00     .....e.T........
     323:	00 00 01 00 00 44 00 00 00 00 0c 00 00 00 01 00     .....D..........
     333:	00 00 00 00 00 65 00 00 00 54 00 00 ff ef 00 00     .....e...T......
	...
     353:	40 00 00 00 00 00 00 00 00 00 00 00 00 00 00 00     @...............
     363:	40 00 00 00 00 00 00 00 00 00 00 00 00 00 00 00     @...............
     373:	00 00 00 01 00 00 00 02 00 00 00 00 00 00 00 00     ................
	...
     3a3:	00 1b 00 00 00 00 00 00 00 00 00 00 00 00 00 00     ................
	...
     3cf:	40 00 00 00 00 1b 00 00 00 00 00 00 00 00 00 00     @...............
	...
     413:	d8 dc ba a2 f1 de b2 b8 b4 a8 81 91 f7 4a 90 7f     .............J..
     423:	91 6a f3 f9 db a8 f9 b0 ba a0 80 f2 ce 81 f3 c2     .j..............
     433:	f1 c1 f2 c3 f3 cc a2 b2 80 f1 c6 d8 80 ba a7 df     ................
     443:	df df f2 a7 c3 cb c5 b6 f0 87 a2 94 24 48 70 3c     ............$Hp<
     453:	95 40 68 34 58 9b 78 a2 f1 83 92 2d 55 7d d8 b1     .@h4X.x....-U}..
     463:	b4 b8 a1 d0 91 80 f2 70 f3 70 f2 7c 80 a8 f1 01     .......p.p.|....
     473:	b0 98 87 d9 43 d8 86 c9 88 ba a1 f2 0e b8 97 80     ....C...........
     483:	f1 a9 df df df aa df df df f2 aa c5 cd c7 a9 0c     ................
     493:	c9 2c 97 97 97 97 f1 a9 89 26 46 66 b0 b4 ba 80     .,.......&Ff....
     4a3:	ac de f2 ca f1 b2 8c 02 a9 b6 98 00 89 0e 16 1e     ................
     4b3:	b8 a9 b4 99 2c 54 7c b0 8a a8 96 36 56 76 f1 b9     ....,T|....6Vv..
     4c3:	af b4 b0 83 c0 b8 a8 97 11 b1 8f 98 b9 af f0 24     ...............$
     4d3:	08 44 10 64 18 f1 a3 29 55 7d af 83 b5 93 af f0     .D.d...)U}......
     4e3:	00 28 50 f1 a3 86 9f 61 a6 da de df d9 fa a3 86     .(P....a........
     4f3:	96 db 31 a6 d9 f8 df ba a6 8f c2 c5 c7 b2 8c c1     ..1.............
     503:	b8 a2 df df df a3 df df df d8 d8 f1 b8 a8 b2 86     ................
     513:	b4 98 0d 35 5d b8 aa 98 b0 87 2d 35 3d b2 b6 ba     ...5].....-5=...
     523:	af 8c 96 19 8f 9f a7 0e 16 1e b4 9a b8 aa 87 2c     ...............,
     533:	54 7c b9 a3 de df df a3 b1 80 f2 c4 cd c9 f1 b8     T|..............
     543:	a9 b4 99 83 0d 35 5d 89 b9 a3 2d 55 7d b5 93 a3     .....5]...-U}...
     553:	0e 16 1e a9 2c 54 7c b8 b4 b0 f1 97 83 a8 11 84     ....,T|.........
     563:	a5 09 98 a3 83 f0 da 24 08 44 10 64 18 d8 f1 a5     .......$.D.d....
     573:	29 55 7d a5 85 95 02 1a 2e 3a 56 5a 40 48 f9 f3     )U}......:VZ@H..
     583:	a3 d9 f8 f0 98 83 24 08 44 10 64 18 97 82 a8 f1     ......$.D.d.....
     593:	11 f0 98 a2 24 08 44 10 64 18 da f3 de d8 83 a5     ....$.D.d.......
     5a3:	94 01 d9 a3 02 f1 a2 c3 c5 c7 d8 f1 84 92 a2 4d     ...............M
     5b3:	da 2a d8 48 69 d9 2a d8 68 55 da 32 d8 50 71 d9     .*.Hi.*.hU.2.Pq.
     5c3:	32 d8 70 5d da 3a d8 58 79 d9 3a d8 78 93 a3 4d     2.p].:.Xy.:.x..M
     5d3:	da 2a d8 48 69 d9 2a d8 68 55 da 32 d8 50 71 d9     .*.Hi.*.hU.2.Pq.
     5e3:	32 d8 70 5d da 3a d8 58 79 d9 3a d8 78 a8 8a 9a     2.p].:.Xy.:.x...
     5f3:	f0 28 50 78 9e f3 88 18 f1 9f 1d 98 a8 d9 08 d8     .(Px............
     603:	c8 9f 12 9e f3 15 a8 da 12 10 d8 f1 af c8 97 87     ................
     613:	34 b5 b9 94 a4 21 f3 d9 22 d8 f2 2d f3 d9 2a d8     4....!.."..-..*.
     623:	f2 35 f3 d9 32 d8 81 a4 60 60 61 d9 61 d8 6c 68     .5..2...``a.a.lh
     633:	69 d9 69 d8 74 70 71 d9 71 d8 b1 a3 84 19 3d 5d     i.i.tpq.q.....=]
     643:	a3 83 1a 3e 5e 93 10 30 81 10 11 b8 b0 af 8f 94     ...>^..0........
     653:	f2 da 3e d8 b4 9a a8 87 29 da f8 d8 87 9a 35 da     ..>.....).....5.
     663:	f8 d8 87 9a 3d da f8 d8 b1 b9 a4 98 85 02 2e 56     ....=..........V
     673:	a5 81 00 0c 14 a3 97 b0 8a f1 2d d9 28 d8 4d d9     ..........-.(.M.
     683:	48 d8 6d d9 68 d8 b1 84 0d da 0e d8 a3 29 83 da     H.m.h........)..
     693:	2c 0e d8 a3 84 49 83 da 2c 4c 0e d8 b8 b0 a8 8a     ,....I..,L......
     6a3:	9a f5 20 aa da df d8 a8 40 aa d0 da de d8 a8 60     .. .....@......`
     6b3:	aa da d0 df d8 f1 97 86 a8 31 9b 06 99 07 ab 97     .........1......
     6c3:	28 88 9b f0 0c 20 14 40 b8 b0 b4 a8 8c 9c f0 04     (.... .@........
     6d3:	28 51 79 1d 30 14 38 b2 82 ab d0 98 2c 50 50 78     (Qy.0.8.....,PPx
     6e3:	78 9b f1 1a b0 f0 8a 9c a8 29 51 79 8b 29 51 79     x........)Qy.)Qy
     6f3:	8a 24 70 59 8b 20 58 71 8a 44 69 38 8b 39 40 68     .$pY. Xq.Di8.9@h
     703:	8a 64 48 31 8b 30 49 60 a5 88 20 09 71 58 44 68     .dH1.0I`.. .qXDh
     713:	11 39 64 49 30 19 f1 ac 00 2c 54 7c f0 8c a8 04     .9dI0....,T|....
     723:	28 50 78 f1 88 97 26 a8 59 98 ac 8c 02 26 46 66     (Px...&.Y....&Ff
     733:	f0 89 9c a8 29 51 79 24 70 59 44 69 38 64 48 31     ....)Qy$pYDi8dH1
     743:	a9 88 09 20 59 70 ab 11 38 40 69 a8 19 31 48 60     ... Yp..8@i..1H`
     753:	8c a8 3c 41 5c 20 7c 00 f1 87 98 19 86 a8 6e 76     ..<A\ |.......nv
     763:	7e a9 99 88 2d 55 7d 9e b9 a3 8a 22 8a 6e 8a 56     ~...-U}....".n.V
     773:	8a 5e 9f b1 83 06 26 46 66 0e 2e 4e 6e 9d b8 ad     .^....&Ff..Nn...
     783:	00 2c 54 7c f2 b1 8c b4 99 b9 a3 2d 55 7d 81 91     .,T|.......-U}..
     793:	ac 38 ad 3a b5 83 91 ac 2d d9 28 d8 4d d9 48 d8     .8.:....-.(.M.H.
     7a3:	6d d9 68 d8 8c 9d ae 29 d9 04 ae d8 51 d9 04 ae     m.h....)....Q...
     7b3:	d8 79 d9 04 d8 81 f3 9d ad 00 8d ae 19 81 ad d9     .y..............
     7c3:	01 d8 f2 ae da 26 d8 8e 91 29 83 a7 d9 ad ad ad     .....&...)......
     7d3:	ad f3 2a d8 d8 f1 b0 ac 89 91 3e 5e 76 f3 ac 2e     ..*.......>^v...
     7e3:	2e f1 b1 8c 5a 9c ac 2c 28 28 28 9c ac 30 18 a8     ....Z..,(((..0..
     7f3:	98 81 28 34 3c 97 24 a7 28 34 3c 9c 24 f2 b0 89     ..(4<.$.(4<.$...
     803:	ac 91 2c 4c 6c 8a 9b 2d d9 d8 d8 51 d9 d8 d8 79     ..,Ll..-...Q...y
     813:	d9 d8 d8 f1 9e 88 a3 31 da d8 d8 91 2d d9 28 d8     .......1....-.(.
     823:	4d d9 48 d8 6d d9 68 d8 b1 83 93 35 3d 80 25 da     M.H.m.h....5=.%.
     833:	d8 d8 85 69 da d8 d8 b4 93 81 a3 28 34 3c f3 ab     ...i.......(4<..
     843:	8b f8 a3 91 b6 09 b4 d9 ab de fa b0 87 9c b9 a3     ................
     853:	dd f1 a3 a3 a3 a3 95 f1 a3 a3 a3 9d f1 a3 a3 a3     ................
     863:	a3 f2 a3 b4 90 80 f2 a3 a3 a3 a3 a3 a3 a3 a3 a3     ................
     873:	a3 b2 a3 a3 a3 a3 a3 a3 b0 87 b5 99 f1 a3 a3 a3     ................
     883:	98 f1 a3 a3 a3 a3 97 a3 a3 a3 a3 f3 9b a3 a3 dc     ................
     893:	b9 a7 f1 26 26 26 d8 d8 ff                          ...&&&...

0000089c <_ZL9dmpConfig>:
     89c:	03 7b 03 4c cd 6c 03 ab 03 36 56 76 00 68 04 02     .{.L.l...6Vv.h..
     8ac:	cb 47 a2 02 18 04 00 05 8b c1 01 0c 04 00 00 00     .G..............
     8bc:	00 03 7f 06 0c c9 2c 97 97 97 03 89 03 26 46 66     ......,......&Ff
     8cc:	00 6c 02 20 00 02 40 04 00 00 00 00 02 44 04 00     .l. ..@......D..
     8dc:	00 00 00 02 48 04 00 00 00 00 02 4c 04 00 00 00     ....H......L....
     8ec:	00 02 50 04 00 00 00 00 02 54 04 00 00 00 00 02     ..P......T......
     8fc:	58 04 00 00 00 00 02 5c 04 00 00 00 00 02 bc 04     X......\........
     90c:	00 00 00 00 01 ec 04 00 00 40 00 03 7f 06 0c c9     .........@......
     91c:	2c 97 97 97 04 02 03 0d 35 5d 04 09 04 87 2d 35     ,.......5]....-5
     92c:	3d 00 a3 01 00 00 00 00 01 07 86 01 fe 07 41 05     =.............A.
     93c:	f1 20 28 30 38 07 7e 01 30 07 46 01 9a 07 47 04     . (08.~.0.F...G.
     94c:	f1 28 30 38 07 6c 04 f1 28 30 38 02 16 02 00 01     .(08.l..(08.....

0000095c <_ZL10dmpUpdates>:
     95c:	01 b2 02 ff ff 01 90 04 09 23 a1 35 01 6a 02 06     .........#.5.j..
     96c:	00 01 60 08 00 00 00 00 00 00 00 00 00 60 04 40     ..`..........`.@
     97c:	00 00 00 01 62 02 00 00 00 60 04 00 40 00 00 00     ....b....`..@...

0000098c <__ctors_start>:
     98c:	f5 2c       	mov	r15, r5

0000098e <__ctors_end>:
     98e:	11 24       	eor	r1, r1
     990:	1f be       	out	0x3f, r1	; 63
     992:	cf ef       	ldi	r28, 0xFF	; 255
     994:	d0 e4       	ldi	r29, 0x40	; 64
     996:	de bf       	out	0x3e, r29	; 62
     998:	cd bf       	out	0x3d, r28	; 61

0000099a <__do_copy_data>:
     99a:	15 e1       	ldi	r17, 0x15	; 21
     99c:	a0 e0       	ldi	r26, 0x00	; 0
     99e:	b1 e0       	ldi	r27, 0x01	; 1
     9a0:	e6 e9       	ldi	r30, 0x96	; 150
     9a2:	f0 e7       	ldi	r31, 0x70	; 112
     9a4:	00 e0       	ldi	r16, 0x00	; 0
     9a6:	0b bf       	out	0x3b, r16	; 59
     9a8:	02 c0       	rjmp	.+4      	; 0x9ae <__do_copy_data+0x14>
     9aa:	07 90       	elpm	r0, Z+
     9ac:	0d 92       	st	X+, r0
     9ae:	a0 38       	cpi	r26, 0x80	; 128
     9b0:	b1 07       	cpc	r27, r17
     9b2:	d9 f7       	brne	.-10     	; 0x9aa <__do_copy_data+0x10>

000009b4 <__do_clear_bss>:
     9b4:	20 e2       	ldi	r18, 0x20	; 32
     9b6:	a0 e8       	ldi	r26, 0x80	; 128
     9b8:	b5 e1       	ldi	r27, 0x15	; 21
     9ba:	01 c0       	rjmp	.+2      	; 0x9be <.do_clear_bss_start>

000009bc <.do_clear_bss_loop>:
     9bc:	1d 92       	st	X+, r1

000009be <.do_clear_bss_start>:
     9be:	a2 30       	cpi	r26, 0x02	; 2
     9c0:	b2 07       	cpc	r27, r18
     9c2:	e1 f7       	brne	.-8      	; 0x9bc <.do_clear_bss_loop>

000009c4 <__do_global_ctors>:
     9c4:	19 e0       	ldi	r17, 0x09	; 9
     9c6:	ce e8       	ldi	r28, 0x8E	; 142
     9c8:	d9 e0       	ldi	r29, 0x09	; 9
     9ca:	00 e0       	ldi	r16, 0x00	; 0
     9cc:	06 c0       	rjmp	.+12     	; 0x9da <__do_global_ctors+0x16>
     9ce:	22 97       	sbiw	r28, 0x02	; 2
     9d0:	01 09       	sbc	r16, r1
     9d2:	fe 01       	movw	r30, r28
     9d4:	0b bf       	out	0x3b, r16	; 59
     9d6:	0e 94 f4 35 	call	0x6be8	; 0x6be8 <__tablejump_elpm__>
     9da:	cc 38       	cpi	r28, 0x8C	; 140
     9dc:	d1 07       	cpc	r29, r17
     9de:	80 e0       	ldi	r24, 0x00	; 0
     9e0:	08 07       	cpc	r16, r24
     9e2:	a9 f7       	brne	.-22     	; 0x9ce <__do_global_ctors+0xa>
     9e4:	e6 d0       	rcall	.+460    	; 0xbb2 <main>
     9e6:	0c 94 49 38 	jmp	0x7092	; 0x7092 <_exit>

000009ea <__bad_interrupt>:
     9ea:	0a cb       	rjmp	.-2540   	; 0x0 <__vectors>

000009ec <_Z15reset_counter_1v>:
	reset_counter_3();
}

void reset_counter_1()
{
	TCNT1 = 0;
     9ec:	10 92 85 00 	sts	0x0085, r1
     9f0:	10 92 84 00 	sts	0x0084, r1
     9f4:	08 95       	ret

000009f6 <_Z13set_counter_1j>:
	TCNT3 = 0;
}

void set_counter_1(uint16_t delay)
{
	delay = 15.625 * delay;
     9f6:	bc 01       	movw	r22, r24
     9f8:	80 e0       	ldi	r24, 0x00	; 0
     9fa:	90 e0       	ldi	r25, 0x00	; 0
     9fc:	0e 94 62 33 	call	0x66c4	; 0x66c4 <__floatunsisf>
     a00:	20 e0       	ldi	r18, 0x00	; 0
     a02:	30 e0       	ldi	r19, 0x00	; 0
     a04:	4a e7       	ldi	r20, 0x7A	; 122
     a06:	51 e4       	ldi	r21, 0x41	; 65
     a08:	0e 94 24 35 	call	0x6a48	; 0x6a48 <__mulsf3>
     a0c:	0e 94 36 33 	call	0x666c	; 0x666c <__fixunssfsi>
	OCR1A = delay;
     a10:	70 93 89 00 	sts	0x0089, r23
     a14:	60 93 88 00 	sts	0x0088, r22
	reset_counter_1();
     a18:	e9 cf       	rjmp	.-46     	; 0x9ec <_Z15reset_counter_1v>

00000a1a <_Z15reset_counter_3v>:
	TCNT1 = 0;
}

void reset_counter_3()
{
	TCNT3 = 0;
     a1a:	10 92 95 00 	sts	0x0095, r1
     a1e:	10 92 94 00 	sts	0x0094, r1
     a22:	08 95       	ret

00000a24 <_Z13set_counter_3j>:
	reset_counter_1();
}

void set_counter_3(uint16_t delay)
{
	delay = 15.625 * delay;
     a24:	bc 01       	movw	r22, r24
     a26:	80 e0       	ldi	r24, 0x00	; 0
     a28:	90 e0       	ldi	r25, 0x00	; 0
     a2a:	0e 94 62 33 	call	0x66c4	; 0x66c4 <__floatunsisf>
     a2e:	20 e0       	ldi	r18, 0x00	; 0
     a30:	30 e0       	ldi	r19, 0x00	; 0
     a32:	4a e7       	ldi	r20, 0x7A	; 122
     a34:	51 e4       	ldi	r21, 0x41	; 65
     a36:	0e 94 24 35 	call	0x6a48	; 0x6a48 <__mulsf3>
     a3a:	0e 94 36 33 	call	0x666c	; 0x666c <__fixunssfsi>
	OCR3A = delay;
     a3e:	70 93 99 00 	sts	0x0099, r23
     a42:	60 93 98 00 	sts	0x0098, r22
	reset_counter_3();
     a46:	e9 cf       	rjmp	.-46     	; 0xa1a <_Z15reset_counter_3v>

00000a48 <_Z13init_countersv>:

//---------------------------------------COUNTERS/TIMERS-----------
void init_counters()
{
	// WGMn3:0 = 4 (OCRnA) or 12 (OCRn), where top value is read from.
	TCCR1B |= 0b00000101; // clock 1, prescaler 1024
     a48:	e1 e8       	ldi	r30, 0x81	; 129
     a4a:	f0 e0       	ldi	r31, 0x00	; 0
     a4c:	80 81       	ld	r24, Z
     a4e:	85 60       	ori	r24, 0x05	; 5
     a50:	80 83       	st	Z, r24
	TCCR3B |= 0b00000101; // clock 2, prescaler 1024
     a52:	e1 e9       	ldi	r30, 0x91	; 145
     a54:	f0 e0       	ldi	r31, 0x00	; 0
     a56:	80 81       	ld	r24, Z
     a58:	85 60       	ori	r24, 0x05	; 5
     a5a:	80 83       	st	Z, r24
	
	// standardvalue for interrupt is 1000ms
	set_counter_1(1000);
     a5c:	88 ee       	ldi	r24, 0xE8	; 232
     a5e:	93 e0       	ldi	r25, 0x03	; 3
     a60:	ca df       	rcall	.-108    	; 0x9f6 <_Z13set_counter_1j>
	set_counter_3(1000);
     a62:	88 ee       	ldi	r24, 0xE8	; 232
     a64:	93 e0       	ldi	r25, 0x03	; 3
     a66:	de df       	rcall	.-68     	; 0xa24 <_Z13set_counter_3j>
	
	TIMSK1 |= 0b00000010; // Enable interrupts when OCF1A, in TIFR1, is set.
     a68:	ef e6       	ldi	r30, 0x6F	; 111
     a6a:	f0 e0       	ldi	r31, 0x00	; 0
     a6c:	80 81       	ld	r24, Z
     a6e:	82 60       	ori	r24, 0x02	; 2
     a70:	80 83       	st	Z, r24
	TIMSK3 |= 0b00000010; // Enable interrupts when OCF2A, in TIFR2, is set.
     a72:	e1 e7       	ldi	r30, 0x71	; 113
     a74:	f0 e0       	ldi	r31, 0x00	; 0
     a76:	80 81       	ld	r24, Z
     a78:	82 60       	ori	r24, 0x02	; 2
     a7a:	80 83       	st	Z, r24
	// OCF1A (or ICFn) Flag, in TIFR1, can be used to generate interrupts.
	TCNT1 = 0;
     a7c:	10 92 85 00 	sts	0x0085, r1
     a80:	10 92 84 00 	sts	0x0084, r1
	TCNT3 = 0;
     a84:	10 92 95 00 	sts	0x0095, r1
     a88:	10 92 94 00 	sts	0x0094, r1
     a8c:	08 95       	ret

00000a8e <_Z4waitj>:
}

//---------------------------------------------------------------------------------------
void wait(uint16_t delaytime)
{
	gWaitFlag = 0;
     a8e:	10 92 80 15 	sts	0x1580, r1
	set_counter_3(delaytime);
     a92:	c8 df       	rcall	.-112    	; 0xa24 <_Z13set_counter_3j>
	while(gWaitFlag == 0)
     a94:	80 91 80 15 	lds	r24, 0x1580
     a98:	81 11       	cpse	r24, r1
     a9a:	06 c0       	rjmp	.+12     	; 0xaa8 <_Z4waitj+0x1a>
	{
		MPU_update();
     a9c:	0e 94 83 2c 	call	0x5906	; 0x5906 <_Z10MPU_updatev>
//---------------------------------------------------------------------------------------
void wait(uint16_t delaytime)
{
	gWaitFlag = 0;
	set_counter_3(delaytime);
	while(gWaitFlag == 0)
     aa0:	80 91 80 15 	lds	r24, 0x1580
     aa4:	88 23       	and	r24, r24
     aa6:	d1 f3       	breq	.-12     	; 0xa9c <_Z4waitj+0xe>
     aa8:	08 95       	ret

00000aaa <__vector_32>:
		MPU_update();
	}
}

ISR(TIMER3_COMPA_vect)
{
     aaa:	1f 92       	push	r1
     aac:	0f 92       	push	r0
     aae:	0f b6       	in	r0, 0x3f	; 63
     ab0:	0f 92       	push	r0
     ab2:	11 24       	eor	r1, r1
     ab4:	8f 93       	push	r24
	gWaitFlag = 1;
     ab6:	81 e0       	ldi	r24, 0x01	; 1
     ab8:	80 93 80 15 	sts	0x1580, r24
	TCNT3 = 0;
     abc:	10 92 95 00 	sts	0x0095, r1
     ac0:	10 92 94 00 	sts	0x0094, r1
     ac4:	8f 91       	pop	r24
     ac6:	0f 90       	pop	r0
     ac8:	0f be       	out	0x3f, r0	; 63
     aca:	0f 90       	pop	r0
     acc:	1f 90       	pop	r1
     ace:	18 95       	reti

00000ad0 <_Z14FifoDataLengthP4fifo>:
     ad0:	fc 01       	movw	r30, r24
     ad2:	90 81       	ld	r25, Z
     ad4:	91 50       	subi	r25, 0x01	; 1
     ad6:	84 81       	ldd	r24, Z+4	; 0x04
     ad8:	22 81       	ldd	r18, Z+2	; 0x02
     ada:	82 1b       	sub	r24, r18
     adc:	89 23       	and	r24, r25
     ade:	08 95       	ret

00000ae0 <_Z9FifoWriteP4fifoh>:
     ae0:	1f 93       	push	r17
     ae2:	cf 93       	push	r28
     ae4:	df 93       	push	r29
     ae6:	ec 01       	movw	r28, r24
     ae8:	16 2f       	mov	r17, r22
     aea:	f2 df       	rcall	.-28     	; 0xad0 <_Z14FifoDataLengthP4fifo>
     aec:	28 81       	ld	r18, Y
     aee:	39 81       	ldd	r19, Y+1	; 0x01
     af0:	21 50       	subi	r18, 0x01	; 1
     af2:	31 09       	sbc	r19, r1
     af4:	90 e0       	ldi	r25, 0x00	; 0
     af6:	82 17       	cp	r24, r18
     af8:	93 07       	cpc	r25, r19
     afa:	69 f0       	breq	.+26     	; 0xb16 <_Z9FifoWriteP4fifoh+0x36>
     afc:	8c 81       	ldd	r24, Y+4	; 0x04
     afe:	9d 81       	ldd	r25, Y+5	; 0x05
     b00:	fe 01       	movw	r30, r28
     b02:	e8 0f       	add	r30, r24
     b04:	f9 1f       	adc	r31, r25
     b06:	16 83       	std	Z+6, r17	; 0x06
     b08:	01 96       	adiw	r24, 0x01	; 1
     b0a:	28 23       	and	r18, r24
     b0c:	39 23       	and	r19, r25
     b0e:	3d 83       	std	Y+5, r19	; 0x05
     b10:	2c 83       	std	Y+4, r18	; 0x04
     b12:	80 e0       	ldi	r24, 0x00	; 0
     b14:	01 c0       	rjmp	.+2      	; 0xb18 <_Z9FifoWriteP4fifoh+0x38>
     b16:	81 e0       	ldi	r24, 0x01	; 1
     b18:	df 91       	pop	r29
     b1a:	cf 91       	pop	r28
     b1c:	1f 91       	pop	r17
     b1e:	08 95       	ret

00000b20 <_Z8FifoReadP4fifoPh>:
     b20:	0f 93       	push	r16
     b22:	1f 93       	push	r17
     b24:	cf 93       	push	r28
     b26:	df 93       	push	r29
     b28:	ec 01       	movw	r28, r24
     b2a:	8b 01       	movw	r16, r22
     b2c:	d1 df       	rcall	.-94     	; 0xad0 <_Z14FifoDataLengthP4fifo>
     b2e:	88 23       	and	r24, r24
     b30:	a1 f0       	breq	.+40     	; 0xb5a <_Z8FifoReadP4fifoPh+0x3a>
     b32:	ea 81       	ldd	r30, Y+2	; 0x02
     b34:	fb 81       	ldd	r31, Y+3	; 0x03
     b36:	ec 0f       	add	r30, r28
     b38:	fd 1f       	adc	r31, r29
     b3a:	86 81       	ldd	r24, Z+6	; 0x06
     b3c:	f8 01       	movw	r30, r16
     b3e:	80 83       	st	Z, r24
     b40:	28 81       	ld	r18, Y
     b42:	39 81       	ldd	r19, Y+1	; 0x01
     b44:	21 50       	subi	r18, 0x01	; 1
     b46:	31 09       	sbc	r19, r1
     b48:	8a 81       	ldd	r24, Y+2	; 0x02
     b4a:	9b 81       	ldd	r25, Y+3	; 0x03
     b4c:	01 96       	adiw	r24, 0x01	; 1
     b4e:	82 23       	and	r24, r18
     b50:	93 23       	and	r25, r19
     b52:	9b 83       	std	Y+3, r25	; 0x03
     b54:	8a 83       	std	Y+2, r24	; 0x02
     b56:	80 e0       	ldi	r24, 0x00	; 0
     b58:	01 c0       	rjmp	.+2      	; 0xb5c <_Z8FifoReadP4fifoPh+0x3c>
     b5a:	81 e0       	ldi	r24, 0x01	; 1
     b5c:	df 91       	pop	r29
     b5e:	cf 91       	pop	r28
     b60:	1f 91       	pop	r17
     b62:	0f 91       	pop	r16
     b64:	08 95       	ret

00000b66 <__vector_13>:
		USART_DecodeRxFIFO();
	}
}

ISR(TIMER1_COMPA_vect)
{
     b66:	1f 92       	push	r1
     b68:	0f 92       	push	r0
     b6a:	0f b6       	in	r0, 0x3f	; 63
     b6c:	0f 92       	push	r0
     b6e:	11 24       	eor	r1, r1
     b70:	8f 93       	push	r24
	if(std_pos_flag == 0)
     b72:	80 91 06 01 	lds	r24, 0x0106
     b76:	81 11       	cpse	r24, r1
     b78:	05 c0       	rjmp	.+10     	; 0xb84 <__vector_13+0x1e>
	{
		std_pos_flag = 1;
     b7a:	81 e0       	ldi	r24, 0x01	; 1
     b7c:	80 93 06 01 	sts	0x0106, r24
		move_to_std_flag = 1;
     b80:	80 93 81 15 	sts	0x1581, r24
	}
	
	//USART_SendValue(MPU_get_y() * 180/M_PI);
	TCNT1 = 0;
     b84:	10 92 85 00 	sts	0x0085, r1
     b88:	10 92 84 00 	sts	0x0084, r1
}
     b8c:	8f 91       	pop	r24
     b8e:	0f 90       	pop	r0
     b90:	0f be       	out	0x3f, r0	; 63
     b92:	0f 90       	pop	r0
     b94:	1f 90       	pop	r1
     b96:	18 95       	reti

00000b98 <_Z22wait_until_gyro_stablev>:
	#else
		//round up by default
		__ticks_dc = (uint32_t)(ceil(fabs(__tmp)));
	#endif

	__builtin_avr_delay_cycles(__ticks_dc);
     b98:	24 e5       	ldi	r18, 0x54	; 84
     b9a:	3d ec       	ldi	r19, 0xCD	; 205
     b9c:	8d e2       	ldi	r24, 0x2D	; 45
     b9e:	93 e0       	ldi	r25, 0x03	; 3
     ba0:	21 50       	subi	r18, 0x01	; 1
     ba2:	30 40       	sbci	r19, 0x00	; 0
     ba4:	80 40       	sbci	r24, 0x00	; 0
     ba6:	90 40       	sbci	r25, 0x00	; 0
     ba8:	d9 f7       	brne	.-10     	; 0xba0 <_Z22wait_until_gyro_stablev+0x8>
     baa:	00 c0       	rjmp	.+0      	; 0xbac <_Z22wait_until_gyro_stablev+0x14>
     bac:	00 c0       	rjmp	.+0      	; 0xbae <_Z22wait_until_gyro_stablev+0x16>
     bae:	00 00       	nop
     bb0:	08 95       	ret

00000bb2 <main>:

void wait_until_gyro_stable();

int main(void)
{
	DDRC |= (1<<PORTC6 | 1<<PORTC7); //init LED
     bb2:	87 b1       	in	r24, 0x07	; 7
     bb4:	80 6c       	ori	r24, 0xC0	; 192
     bb6:	87 b9       	out	0x07, r24	; 7
	//servoTx;
	sei();
     bb8:	78 94       	sei
	USART_init();
     bba:	0e 94 4c 30 	call	0x6098	; 0x6098 <_Z10USART_initv>
	MPU_init();
     bbe:	0e 94 4b 2c 	call	0x5896	; 0x5896 <_Z8MPU_initv>
	SERVO_init(); //Init servos
     bc2:	0e 94 c5 2e 	call	0x5d8a	; 0x5d8a <_Z10SERVO_initv>
	init_counters();
     bc6:	40 df       	rcall	.-384    	; 0xa48 <_Z13init_countersv>
	
	initvar();
     bc8:	58 d0       	rcall	.+176    	; 0xc7a <_Z7initvarv>
	
	SERVO_update_EEPROM(BROADCASTING_ID);
     bca:	8e ef       	ldi	r24, 0xFE	; 254
     bcc:	0e 94 e5 2e 	call	0x5dca	; 0x5dca <_Z19SERVO_update_EEPROMh>
	
	wait(10);
     bd0:	8a e0       	ldi	r24, 0x0A	; 10
     bd2:	90 e0       	ldi	r25, 0x00	; 0
     bd4:	5c df       	rcall	.-328    	; 0xa8e <_Z4waitj>
	move_to_std();
     bd6:	0e 94 0c 12 	call	0x2418	; 0x2418 <_Z11move_to_stdv>
	wait_until_gyro_stable();
     bda:	de df       	rcall	.-68     	; 0xb98 <_Z22wait_until_gyro_stablev>
	USART_SendMessage("Gyro Stable");
     bdc:	8a e4       	ldi	r24, 0x4A	; 74
     bde:	95 e1       	ldi	r25, 0x15	; 21
     be0:	0e 94 25 31 	call	0x624a	; 0x624a <_Z17USART_SendMessagePc>
	
	// ------ TESTCODE FOR READING SERVO -------
		
	//servoGoto(1, 3.14/3, 0x200);
	SERVO_update_EEPROM(BROADCASTING_ID); // NOTE: needs to run once for SERVO_get position to work	
     be4:	8e ef       	ldi	r24, 0xFE	; 254
     be6:	0e 94 e5 2e 	call	0x5dca	; 0x5dca <_Z19SERVO_update_EEPROMh>
	//----------------------------
	
	wait(5000);
     bea:	88 e8       	ldi	r24, 0x88	; 136
     bec:	93 e1       	ldi	r25, 0x13	; 19
     bee:	4f df       	rcall	.-354    	; 0xa8e <_Z4waitj>
	
	reset_counter_1();
     bf0:	fd de       	rcall	.-518    	; 0x9ec <_Z15reset_counter_1v>
	set_counter_1(3000);
     bf2:	88 eb       	ldi	r24, 0xB8	; 184
     bf4:	9b e0       	ldi	r25, 0x0B	; 11
     bf6:	ff de       	rcall	.-514    	; 0x9f6 <_Z13set_counter_1j>
	
	//climb();
	
	while(1)
	{
		turn_degrees(90, -1);
     bf8:	6f ef       	ldi	r22, 0xFF	; 255
     bfa:	8a e5       	ldi	r24, 0x5A	; 90
     bfc:	90 e0       	ldi	r25, 0x00	; 0
     bfe:	0e 94 4e 19 	call	0x329c	; 0x329c <_Z12turn_degreesja>
		wait(3000);
     c02:	88 eb       	ldi	r24, 0xB8	; 184
     c04:	9b e0       	ldi	r25, 0x0B	; 11
     c06:	43 df       	rcall	.-378    	; 0xa8e <_Z4waitj>
     c08:	f7 cf       	rjmp	.-18     	; 0xbf8 <main+0x46>

00000c0a <_Z11init_structP7LegData>:
	leg4.climbing = 1;
	move_robot(0,50,100);
	leg4.climbing = 0;

	_delay_ms(5000);
}
     c0a:	cf 93       	push	r28
     c0c:	df 93       	push	r29
     c0e:	ec 01       	movw	r28, r24
     c10:	82 e7       	ldi	r24, 0x72	; 114
     c12:	99 ef       	ldi	r25, 0xF9	; 249
     c14:	af e0       	ldi	r26, 0x0F	; 15
     c16:	be e3       	ldi	r27, 0x3E	; 62
     c18:	88 ab       	std	Y+48, r24	; 0x30
     c1a:	99 ab       	std	Y+49, r25	; 0x31
     c1c:	aa ab       	std	Y+50, r26	; 0x32
     c1e:	bb ab       	std	Y+51, r27	; 0x33
     c20:	40 e0       	ldi	r20, 0x00	; 0
     c22:	50 e0       	ldi	r21, 0x00	; 0
     c24:	60 ef       	ldi	r22, 0xF0	; 240
     c26:	7f e3       	ldi	r23, 0x3F	; 63
     c28:	4c a7       	std	Y+44, r20	; 0x2c
     c2a:	5d a7       	std	Y+45, r21	; 0x2d
     c2c:	6e a7       	std	Y+46, r22	; 0x2e
     c2e:	7f a7       	std	Y+47, r23	; 0x2f
     c30:	18 a6       	std	Y+40, r1	; 0x28
     c32:	19 a6       	std	Y+41, r1	; 0x29
     c34:	1a a6       	std	Y+42, r1	; 0x2a
     c36:	1b a6       	std	Y+43, r1	; 0x2b
     c38:	8c af       	std	Y+60, r24	; 0x3c
     c3a:	9d af       	std	Y+61, r25	; 0x3d
     c3c:	ae af       	std	Y+62, r26	; 0x3e
     c3e:	bf af       	std	Y+63, r27	; 0x3f
     c40:	48 af       	std	Y+56, r20	; 0x38
     c42:	59 af       	std	Y+57, r21	; 0x39
     c44:	6a af       	std	Y+58, r22	; 0x3a
     c46:	7b af       	std	Y+59, r23	; 0x3b
     c48:	1c aa       	std	Y+52, r1	; 0x34
     c4a:	1d aa       	std	Y+53, r1	; 0x35
     c4c:	1e aa       	std	Y+54, r1	; 0x36
     c4e:	1f aa       	std	Y+55, r1	; 0x37
     c50:	0e 94 fa 1f 	call	0x3ff4	; 0x3ff4 <_Z6get_x0v>
     c54:	6c 8b       	std	Y+20, r22	; 0x14
     c56:	7d 8b       	std	Y+21, r23	; 0x15
     c58:	8e 8b       	std	Y+22, r24	; 0x16
     c5a:	9f 8b       	std	Y+23, r25	; 0x17
     c5c:	0e 94 07 20 	call	0x400e	; 0x400e <_Z6get_y0v>
     c60:	68 8f       	std	Y+24, r22	; 0x18
     c62:	79 8f       	std	Y+25, r23	; 0x19
     c64:	8a 8f       	std	Y+26, r24	; 0x1a
     c66:	9b 8f       	std	Y+27, r25	; 0x1b
     c68:	0e 94 14 20 	call	0x4028	; 0x4028 <_Z6get_z0v>
     c6c:	68 8b       	std	Y+16, r22	; 0x10
     c6e:	79 8b       	std	Y+17, r23	; 0x11
     c70:	8a 8b       	std	Y+18, r24	; 0x12
     c72:	9b 8b       	std	Y+19, r25	; 0x13
     c74:	df 91       	pop	r29
     c76:	cf 91       	pop	r28
     c78:	08 95       	ret

00000c7a <_Z7initvarv>:
     c7a:	cf 92       	push	r12
     c7c:	df 92       	push	r13
     c7e:	ef 92       	push	r14
     c80:	ff 92       	push	r15
     c82:	0f 93       	push	r16
     c84:	1f 93       	push	r17
     c86:	cf 93       	push	r28
     c88:	df 93       	push	r29
     c8a:	80 e0       	ldi	r24, 0x00	; 0
     c8c:	90 e8       	ldi	r25, 0x80	; 128
     c8e:	ab eb       	ldi	r26, 0xBB	; 187
     c90:	b4 e4       	ldi	r27, 0x44	; 68
     c92:	80 93 ba 15 	sts	0x15BA, r24
     c96:	90 93 bb 15 	sts	0x15BB, r25
     c9a:	a0 93 bc 15 	sts	0x15BC, r26
     c9e:	b0 93 bd 15 	sts	0x15BD, r27
     ca2:	8c e2       	ldi	r24, 0x2C	; 44
     ca4:	91 e0       	ldi	r25, 0x01	; 1
     ca6:	90 93 19 19 	sts	0x1919, r25
     caa:	80 93 18 19 	sts	0x1918, r24
     cae:	80 e0       	ldi	r24, 0x00	; 0
     cb0:	90 e0       	ldi	r25, 0x00	; 0
     cb2:	a0 ea       	ldi	r26, 0xA0	; 160
     cb4:	b0 e4       	ldi	r27, 0x40	; 64
     cb6:	80 93 14 19 	sts	0x1914, r24
     cba:	90 93 15 19 	sts	0x1915, r25
     cbe:	a0 93 16 19 	sts	0x1916, r26
     cc2:	b0 93 17 19 	sts	0x1917, r27
     cc6:	80 e0       	ldi	r24, 0x00	; 0
     cc8:	90 e0       	ldi	r25, 0x00	; 0
     cca:	ac e5       	ldi	r26, 0x5C	; 92
     ccc:	b2 e4       	ldi	r27, 0x42	; 66
     cce:	80 93 82 15 	sts	0x1582, r24
     cd2:	90 93 83 15 	sts	0x1583, r25
     cd6:	a0 93 84 15 	sts	0x1584, r26
     cda:	b0 93 85 15 	sts	0x1585, r27
     cde:	0e 94 e0 1f 	call	0x3fc0	; 0x3fc0 <_Z8get_x0_1v>
     ce2:	6b 01       	movw	r12, r22
     ce4:	7c 01       	movw	r14, r24
     ce6:	0e 94 e0 1f 	call	0x3fc0	; 0x3fc0 <_Z8get_x0_1v>
     cea:	9b 01       	movw	r18, r22
     cec:	ac 01       	movw	r20, r24
     cee:	c7 01       	movw	r24, r14
     cf0:	b6 01       	movw	r22, r12
     cf2:	0e 94 24 35 	call	0x6a48	; 0x6a48 <__mulsf3>
     cf6:	06 2f       	mov	r16, r22
     cf8:	17 2f       	mov	r17, r23
     cfa:	d8 2f       	mov	r29, r24
     cfc:	c9 2f       	mov	r28, r25
     cfe:	0e 94 ed 1f 	call	0x3fda	; 0x3fda <_Z8get_y0_1v>
     d02:	6b 01       	movw	r12, r22
     d04:	7c 01       	movw	r14, r24
     d06:	0e 94 ed 1f 	call	0x3fda	; 0x3fda <_Z8get_y0_1v>
     d0a:	9b 01       	movw	r18, r22
     d0c:	ac 01       	movw	r20, r24
     d0e:	c7 01       	movw	r24, r14
     d10:	b6 01       	movw	r22, r12
     d12:	0e 94 24 35 	call	0x6a48	; 0x6a48 <__mulsf3>
     d16:	9b 01       	movw	r18, r22
     d18:	ac 01       	movw	r20, r24
     d1a:	60 2f       	mov	r22, r16
     d1c:	71 2f       	mov	r23, r17
     d1e:	8d 2f       	mov	r24, r29
     d20:	9c 2f       	mov	r25, r28
     d22:	0e 94 e5 31 	call	0x63ca	; 0x63ca <__addsf3>
     d26:	0e 94 91 35 	call	0x6b22	; 0x6b22 <sqrt>
     d2a:	60 93 86 15 	sts	0x1586, r22
     d2e:	70 93 87 15 	sts	0x1587, r23
     d32:	80 93 88 15 	sts	0x1588, r24
     d36:	90 93 89 15 	sts	0x1589, r25
     d3a:	80 e0       	ldi	r24, 0x00	; 0
     d3c:	90 e0       	ldi	r25, 0x00	; 0
     d3e:	a0 ef       	ldi	r26, 0xF0	; 240
     d40:	b2 ec       	ldi	r27, 0xC2	; 194
     d42:	80 93 aa 15 	sts	0x15AA, r24
     d46:	90 93 ab 15 	sts	0x15AB, r25
     d4a:	a0 93 ac 15 	sts	0x15AC, r26
     d4e:	b0 93 ad 15 	sts	0x15AD, r27
     d52:	8c e7       	ldi	r24, 0x7C	; 124
     d54:	98 e1       	ldi	r25, 0x18	; 24
     d56:	59 df       	rcall	.-334    	; 0xc0a <_Z11init_structP7LegData>
     d58:	82 ef       	ldi	r24, 0xF2	; 242
     d5a:	97 e1       	ldi	r25, 0x17	; 23
     d5c:	56 df       	rcall	.-340    	; 0xc0a <_Z11init_structP7LegData>
     d5e:	88 e6       	ldi	r24, 0x68	; 104
     d60:	97 e1       	ldi	r25, 0x17	; 23
     d62:	53 df       	rcall	.-346    	; 0xc0a <_Z11init_structP7LegData>
     d64:	8e ed       	ldi	r24, 0xDE	; 222
     d66:	96 e1       	ldi	r25, 0x16	; 22
     d68:	50 df       	rcall	.-352    	; 0xc0a <_Z11init_structP7LegData>
     d6a:	84 e5       	ldi	r24, 0x54	; 84
     d6c:	96 e1       	ldi	r25, 0x16	; 22
     d6e:	4d df       	rcall	.-358    	; 0xc0a <_Z11init_structP7LegData>
     d70:	8a ec       	ldi	r24, 0xCA	; 202
     d72:	95 e1       	ldi	r25, 0x15	; 21
     d74:	4a df       	rcall	.-364    	; 0xc0a <_Z11init_structP7LegData>
     d76:	40 e0       	ldi	r20, 0x00	; 0
     d78:	50 e0       	ldi	r21, 0x00	; 0
     d7a:	60 e8       	ldi	r22, 0x80	; 128
     d7c:	7f e3       	ldi	r23, 0x3F	; 63
     d7e:	40 93 80 18 	sts	0x1880, r20
     d82:	50 93 81 18 	sts	0x1881, r21
     d86:	60 93 82 18 	sts	0x1882, r22
     d8a:	70 93 83 18 	sts	0x1883, r23
     d8e:	80 e0       	ldi	r24, 0x00	; 0
     d90:	90 e0       	ldi	r25, 0x00	; 0
     d92:	a0 e8       	ldi	r26, 0x80	; 128
     d94:	bf eb       	ldi	r27, 0xBF	; 191
     d96:	80 93 f6 17 	sts	0x17F6, r24
     d9a:	90 93 f7 17 	sts	0x17F7, r25
     d9e:	a0 93 f8 17 	sts	0x17F8, r26
     da2:	b0 93 f9 17 	sts	0x17F9, r27
     da6:	40 93 6c 17 	sts	0x176C, r20
     daa:	50 93 6d 17 	sts	0x176D, r21
     dae:	60 93 6e 17 	sts	0x176E, r22
     db2:	70 93 6f 17 	sts	0x176F, r23
     db6:	80 93 e2 16 	sts	0x16E2, r24
     dba:	90 93 e3 16 	sts	0x16E3, r25
     dbe:	a0 93 e4 16 	sts	0x16E4, r26
     dc2:	b0 93 e5 16 	sts	0x16E5, r27
     dc6:	40 93 58 16 	sts	0x1658, r20
     dca:	50 93 59 16 	sts	0x1659, r21
     dce:	60 93 5a 16 	sts	0x165A, r22
     dd2:	70 93 5b 16 	sts	0x165B, r23
     dd6:	80 93 ce 15 	sts	0x15CE, r24
     dda:	90 93 cf 15 	sts	0x15CF, r25
     dde:	a0 93 d0 15 	sts	0x15D0, r26
     de2:	b0 93 d1 15 	sts	0x15D1, r27
     de6:	40 93 7c 18 	sts	0x187C, r20
     dea:	50 93 7d 18 	sts	0x187D, r21
     dee:	60 93 7e 18 	sts	0x187E, r22
     df2:	70 93 7f 18 	sts	0x187F, r23
     df6:	40 93 f2 17 	sts	0x17F2, r20
     dfa:	50 93 f3 17 	sts	0x17F3, r21
     dfe:	60 93 f4 17 	sts	0x17F4, r22
     e02:	70 93 f5 17 	sts	0x17F5, r23
     e06:	40 93 68 17 	sts	0x1768, r20
     e0a:	50 93 69 17 	sts	0x1769, r21
     e0e:	60 93 6a 17 	sts	0x176A, r22
     e12:	70 93 6b 17 	sts	0x176B, r23
     e16:	80 93 de 16 	sts	0x16DE, r24
     e1a:	90 93 df 16 	sts	0x16DF, r25
     e1e:	a0 93 e0 16 	sts	0x16E0, r26
     e22:	b0 93 e1 16 	sts	0x16E1, r27
     e26:	80 93 54 16 	sts	0x1654, r24
     e2a:	90 93 55 16 	sts	0x1655, r25
     e2e:	a0 93 56 16 	sts	0x1656, r26
     e32:	b0 93 57 16 	sts	0x1657, r27
     e36:	80 93 ca 15 	sts	0x15CA, r24
     e3a:	90 93 cb 15 	sts	0x15CB, r25
     e3e:	a0 93 cc 15 	sts	0x15CC, r26
     e42:	b0 93 cd 15 	sts	0x15CD, r27
     e46:	8a e0       	ldi	r24, 0x0A	; 10
     e48:	90 e0       	ldi	r25, 0x00	; 0
     e4a:	90 93 d9 18 	sts	0x18D9, r25
     e4e:	80 93 d8 18 	sts	0x18D8, r24
     e52:	8c e0       	ldi	r24, 0x0C	; 12
     e54:	90 e0       	ldi	r25, 0x00	; 0
     e56:	90 93 d7 18 	sts	0x18D7, r25
     e5a:	80 93 d6 18 	sts	0x18D6, r24
     e5e:	88 e0       	ldi	r24, 0x08	; 8
     e60:	90 e0       	ldi	r25, 0x00	; 0
     e62:	90 93 d5 18 	sts	0x18D5, r25
     e66:	80 93 d4 18 	sts	0x18D4, r24
     e6a:	80 e1       	ldi	r24, 0x10	; 16
     e6c:	90 e0       	ldi	r25, 0x00	; 0
     e6e:	90 93 4f 18 	sts	0x184F, r25
     e72:	80 93 4e 18 	sts	0x184E, r24
     e76:	82 e1       	ldi	r24, 0x12	; 18
     e78:	90 e0       	ldi	r25, 0x00	; 0
     e7a:	90 93 4d 18 	sts	0x184D, r25
     e7e:	80 93 4c 18 	sts	0x184C, r24
     e82:	8e e0       	ldi	r24, 0x0E	; 14
     e84:	90 e0       	ldi	r25, 0x00	; 0
     e86:	90 93 4b 18 	sts	0x184B, r25
     e8a:	80 93 4a 18 	sts	0x184A, r24
     e8e:	84 e0       	ldi	r24, 0x04	; 4
     e90:	90 e0       	ldi	r25, 0x00	; 0
     e92:	90 93 c5 17 	sts	0x17C5, r25
     e96:	80 93 c4 17 	sts	0x17C4, r24
     e9a:	86 e0       	ldi	r24, 0x06	; 6
     e9c:	90 e0       	ldi	r25, 0x00	; 0
     e9e:	90 93 c3 17 	sts	0x17C3, r25
     ea2:	80 93 c2 17 	sts	0x17C2, r24
     ea6:	82 e0       	ldi	r24, 0x02	; 2
     ea8:	90 e0       	ldi	r25, 0x00	; 0
     eaa:	90 93 c1 17 	sts	0x17C1, r25
     eae:	80 93 c0 17 	sts	0x17C0, r24
     eb2:	83 e0       	ldi	r24, 0x03	; 3
     eb4:	90 e0       	ldi	r25, 0x00	; 0
     eb6:	90 93 3b 17 	sts	0x173B, r25
     eba:	80 93 3a 17 	sts	0x173A, r24
     ebe:	85 e0       	ldi	r24, 0x05	; 5
     ec0:	90 e0       	ldi	r25, 0x00	; 0
     ec2:	90 93 39 17 	sts	0x1739, r25
     ec6:	80 93 38 17 	sts	0x1738, r24
     eca:	81 e0       	ldi	r24, 0x01	; 1
     ecc:	90 e0       	ldi	r25, 0x00	; 0
     ece:	90 93 37 17 	sts	0x1737, r25
     ed2:	80 93 36 17 	sts	0x1736, r24
     ed6:	8f e0       	ldi	r24, 0x0F	; 15
     ed8:	90 e0       	ldi	r25, 0x00	; 0
     eda:	90 93 b1 16 	sts	0x16B1, r25
     ede:	80 93 b0 16 	sts	0x16B0, r24
     ee2:	81 e1       	ldi	r24, 0x11	; 17
     ee4:	90 e0       	ldi	r25, 0x00	; 0
     ee6:	90 93 af 16 	sts	0x16AF, r25
     eea:	80 93 ae 16 	sts	0x16AE, r24
     eee:	8d e0       	ldi	r24, 0x0D	; 13
     ef0:	90 e0       	ldi	r25, 0x00	; 0
     ef2:	90 93 ad 16 	sts	0x16AD, r25
     ef6:	80 93 ac 16 	sts	0x16AC, r24
     efa:	89 e0       	ldi	r24, 0x09	; 9
     efc:	90 e0       	ldi	r25, 0x00	; 0
     efe:	90 93 27 16 	sts	0x1627, r25
     f02:	80 93 26 16 	sts	0x1626, r24
     f06:	8b e0       	ldi	r24, 0x0B	; 11
     f08:	90 e0       	ldi	r25, 0x00	; 0
     f0a:	90 93 25 16 	sts	0x1625, r25
     f0e:	80 93 24 16 	sts	0x1624, r24
     f12:	87 e0       	ldi	r24, 0x07	; 7
     f14:	90 e0       	ldi	r25, 0x00	; 0
     f16:	90 93 23 16 	sts	0x1623, r25
     f1a:	80 93 22 16 	sts	0x1622, r24
     f1e:	df 91       	pop	r29
     f20:	cf 91       	pop	r28
     f22:	1f 91       	pop	r17
     f24:	0f 91       	pop	r16
     f26:	ff 90       	pop	r15
     f28:	ef 90       	pop	r14
     f2a:	df 90       	pop	r13
     f2c:	cf 90       	pop	r12
     f2e:	08 95       	ret

00000f30 <_Z15update_leg_infoP7LegData>:
     f30:	cf 93       	push	r28
     f32:	df 93       	push	r29
     f34:	ec 01       	movw	r28, r24
     f36:	fc 01       	movw	r30, r24
     f38:	e4 5a       	subi	r30, 0xA4	; 164
     f3a:	ff 4f       	sbci	r31, 0xFF	; 255
     f3c:	80 81       	ld	r24, Z
     f3e:	0e 94 f5 2e 	call	0x5dea	; 0x5dea <_Z17SERVO_update_datah>
     f42:	0e 94 04 30 	call	0x6008	; 0x6008 <_Z13SERVO_get_posv>
     f46:	fe 01       	movw	r30, r28
     f48:	e0 5a       	subi	r30, 0xA0	; 160
     f4a:	ff 4f       	sbci	r31, 0xFF	; 255
     f4c:	91 83       	std	Z+1, r25	; 0x01
     f4e:	80 83       	st	Z, r24
     f50:	0e 94 0e 30 	call	0x601c	; 0x601c <_Z14SERVO_get_loadv>
     f54:	fe 01       	movw	r30, r28
     f56:	e4 59       	subi	r30, 0x94	; 148
     f58:	ff 4f       	sbci	r31, 0xFF	; 255
     f5a:	91 83       	std	Z+1, r25	; 0x01
     f5c:	80 83       	st	Z, r24
     f5e:	0e 94 09 30 	call	0x6012	; 0x6012 <_Z15SERVO_get_speedv>
     f62:	fe 01       	movw	r30, r28
     f64:	ea 59       	subi	r30, 0x9A	; 154
     f66:	ff 4f       	sbci	r31, 0xFF	; 255
     f68:	91 83       	std	Z+1, r25	; 0x01
     f6a:	80 83       	st	Z, r24
     f6c:	0e 94 13 30 	call	0x6026	; 0x6026 <_Z21SERVO_get_temperaturev>
     f70:	fe 01       	movw	r30, r28
     f72:	e8 58       	subi	r30, 0x88	; 136
     f74:	ff 4f       	sbci	r31, 0xFF	; 255
     f76:	80 83       	st	Z, r24
     f78:	11 82       	std	Z+1, r1	; 0x01
     f7a:	0e 94 16 30 	call	0x602c	; 0x602c <_Z17SERVO_get_voltagev>
     f7e:	fe 01       	movw	r30, r28
     f80:	ee 58       	subi	r30, 0x8E	; 142
     f82:	ff 4f       	sbci	r31, 0xFF	; 255
     f84:	80 83       	st	Z, r24
     f86:	11 82       	std	Z+1, r1	; 0x01
     f88:	fe 01       	movw	r30, r28
     f8a:	e6 5a       	subi	r30, 0xA6	; 166
     f8c:	ff 4f       	sbci	r31, 0xFF	; 255
     f8e:	80 81       	ld	r24, Z
     f90:	0e 94 f5 2e 	call	0x5dea	; 0x5dea <_Z17SERVO_update_datah>
     f94:	0e 94 04 30 	call	0x6008	; 0x6008 <_Z13SERVO_get_posv>
     f98:	fe 01       	movw	r30, r28
     f9a:	ee 59       	subi	r30, 0x9E	; 158
     f9c:	ff 4f       	sbci	r31, 0xFF	; 255
     f9e:	91 83       	std	Z+1, r25	; 0x01
     fa0:	80 83       	st	Z, r24
     fa2:	0e 94 0e 30 	call	0x601c	; 0x601c <_Z14SERVO_get_loadv>
     fa6:	fe 01       	movw	r30, r28
     fa8:	e2 59       	subi	r30, 0x92	; 146
     faa:	ff 4f       	sbci	r31, 0xFF	; 255
     fac:	91 83       	std	Z+1, r25	; 0x01
     fae:	80 83       	st	Z, r24
     fb0:	0e 94 09 30 	call	0x6012	; 0x6012 <_Z15SERVO_get_speedv>
     fb4:	fe 01       	movw	r30, r28
     fb6:	e8 59       	subi	r30, 0x98	; 152
     fb8:	ff 4f       	sbci	r31, 0xFF	; 255
     fba:	91 83       	std	Z+1, r25	; 0x01
     fbc:	80 83       	st	Z, r24
     fbe:	0e 94 13 30 	call	0x6026	; 0x6026 <_Z21SERVO_get_temperaturev>
     fc2:	fe 01       	movw	r30, r28
     fc4:	e6 58       	subi	r30, 0x86	; 134
     fc6:	ff 4f       	sbci	r31, 0xFF	; 255
     fc8:	80 83       	st	Z, r24
     fca:	11 82       	std	Z+1, r1	; 0x01
     fcc:	0e 94 16 30 	call	0x602c	; 0x602c <_Z17SERVO_get_voltagev>
     fd0:	fe 01       	movw	r30, r28
     fd2:	ec 58       	subi	r30, 0x8C	; 140
     fd4:	ff 4f       	sbci	r31, 0xFF	; 255
     fd6:	80 83       	st	Z, r24
     fd8:	11 82       	std	Z+1, r1	; 0x01
     fda:	fe 01       	movw	r30, r28
     fdc:	e8 5a       	subi	r30, 0xA8	; 168
     fde:	ff 4f       	sbci	r31, 0xFF	; 255
     fe0:	80 81       	ld	r24, Z
     fe2:	0e 94 f5 2e 	call	0x5dea	; 0x5dea <_Z17SERVO_update_datah>
     fe6:	0e 94 04 30 	call	0x6008	; 0x6008 <_Z13SERVO_get_posv>
     fea:	fe 01       	movw	r30, r28
     fec:	ec 59       	subi	r30, 0x9C	; 156
     fee:	ff 4f       	sbci	r31, 0xFF	; 255
     ff0:	91 83       	std	Z+1, r25	; 0x01
     ff2:	80 83       	st	Z, r24
     ff4:	0e 94 0e 30 	call	0x601c	; 0x601c <_Z14SERVO_get_loadv>
     ff8:	fe 01       	movw	r30, r28
     ffa:	e0 59       	subi	r30, 0x90	; 144
     ffc:	ff 4f       	sbci	r31, 0xFF	; 255
     ffe:	91 83       	std	Z+1, r25	; 0x01
    1000:	80 83       	st	Z, r24
    1002:	0e 94 09 30 	call	0x6012	; 0x6012 <_Z15SERVO_get_speedv>
    1006:	fe 01       	movw	r30, r28
    1008:	e6 59       	subi	r30, 0x96	; 150
    100a:	ff 4f       	sbci	r31, 0xFF	; 255
    100c:	91 83       	std	Z+1, r25	; 0x01
    100e:	80 83       	st	Z, r24
    1010:	0e 94 13 30 	call	0x6026	; 0x6026 <_Z21SERVO_get_temperaturev>
    1014:	fe 01       	movw	r30, r28
    1016:	e4 58       	subi	r30, 0x84	; 132
    1018:	ff 4f       	sbci	r31, 0xFF	; 255
    101a:	80 83       	st	Z, r24
    101c:	11 82       	std	Z+1, r1	; 0x01
    101e:	0e 94 16 30 	call	0x602c	; 0x602c <_Z17SERVO_get_voltagev>
    1022:	ca 58       	subi	r28, 0x8A	; 138
    1024:	df 4f       	sbci	r29, 0xFF	; 255
    1026:	88 83       	st	Y, r24
    1028:	19 82       	std	Y+1, r1	; 0x01
    102a:	df 91       	pop	r29
    102c:	cf 91       	pop	r28
    102e:	08 95       	ret

00001030 <_Z10step_startP7LegData>:
    1030:	fc 01       	movw	r30, r24
    1032:	84 89       	ldd	r24, Z+20	; 0x14
    1034:	95 89       	ldd	r25, Z+21	; 0x15
    1036:	a6 89       	ldd	r26, Z+22	; 0x16
    1038:	b7 89       	ldd	r27, Z+23	; 0x17
    103a:	84 8f       	std	Z+28, r24	; 0x1c
    103c:	95 8f       	std	Z+29, r25	; 0x1d
    103e:	a6 8f       	std	Z+30, r26	; 0x1e
    1040:	b7 8f       	std	Z+31, r27	; 0x1f
    1042:	80 8d       	ldd	r24, Z+24	; 0x18
    1044:	91 8d       	ldd	r25, Z+25	; 0x19
    1046:	a2 8d       	ldd	r26, Z+26	; 0x1a
    1048:	b3 8d       	ldd	r27, Z+27	; 0x1b
    104a:	80 a3       	std	Z+32, r24	; 0x20
    104c:	91 a3       	std	Z+33, r25	; 0x21
    104e:	a2 a3       	std	Z+34, r26	; 0x22
    1050:	b3 a3       	std	Z+35, r27	; 0x23
    1052:	44 ad       	ldd	r20, Z+60	; 0x3c
    1054:	55 ad       	ldd	r21, Z+61	; 0x3d
    1056:	66 ad       	ldd	r22, Z+62	; 0x3e
    1058:	77 ad       	ldd	r23, Z+63	; 0x3f
    105a:	40 ab       	std	Z+48, r20	; 0x30
    105c:	51 ab       	std	Z+49, r21	; 0x31
    105e:	62 ab       	std	Z+50, r22	; 0x32
    1060:	73 ab       	std	Z+51, r23	; 0x33
    1062:	40 ad       	ldd	r20, Z+56	; 0x38
    1064:	51 ad       	ldd	r21, Z+57	; 0x39
    1066:	62 ad       	ldd	r22, Z+58	; 0x3a
    1068:	73 ad       	ldd	r23, Z+59	; 0x3b
    106a:	44 a7       	std	Z+44, r20	; 0x2c
    106c:	55 a7       	std	Z+45, r21	; 0x2d
    106e:	66 a7       	std	Z+46, r22	; 0x2e
    1070:	77 a7       	std	Z+47, r23	; 0x2f
    1072:	44 a9       	ldd	r20, Z+52	; 0x34
    1074:	55 a9       	ldd	r21, Z+53	; 0x35
    1076:	66 a9       	ldd	r22, Z+54	; 0x36
    1078:	77 a9       	ldd	r23, Z+55	; 0x37
    107a:	40 a7       	std	Z+40, r20	; 0x28
    107c:	51 a7       	std	Z+41, r21	; 0x29
    107e:	62 a7       	std	Z+42, r22	; 0x2a
    1080:	73 a7       	std	Z+43, r23	; 0x2b
    1082:	08 95       	ret

00001084 <_Z21step_part1_calculatorP7LegData>:
    1084:	6f 92       	push	r6
    1086:	7f 92       	push	r7
    1088:	8f 92       	push	r8
    108a:	9f 92       	push	r9
    108c:	af 92       	push	r10
    108e:	bf 92       	push	r11
    1090:	0f 93       	push	r16
    1092:	1f 93       	push	r17
    1094:	cf 93       	push	r28
    1096:	df 93       	push	r29
    1098:	ec 01       	movw	r28, r24
    109a:	20 91 82 15 	lds	r18, 0x1582
    109e:	30 91 83 15 	lds	r19, 0x1583
    10a2:	40 91 84 15 	lds	r20, 0x1584
    10a6:	50 91 85 15 	lds	r21, 0x1585
    10aa:	6c 81       	ldd	r22, Y+4	; 0x04
    10ac:	7d 81       	ldd	r23, Y+5	; 0x05
    10ae:	8e 81       	ldd	r24, Y+6	; 0x06
    10b0:	9f 81       	ldd	r25, Y+7	; 0x07
    10b2:	0e 94 24 35 	call	0x6a48	; 0x6a48 <__mulsf3>
    10b6:	20 91 92 15 	lds	r18, 0x1592
    10ba:	30 91 93 15 	lds	r19, 0x1593
    10be:	40 91 94 15 	lds	r20, 0x1594
    10c2:	50 91 95 15 	lds	r21, 0x1595
    10c6:	0e 94 c9 32 	call	0x6592	; 0x6592 <__divsf3>
    10ca:	66 2e       	mov	r6, r22
    10cc:	77 2e       	mov	r7, r23
    10ce:	08 2f       	mov	r16, r24
    10d0:	19 2f       	mov	r17, r25
    10d2:	80 90 8a 15 	lds	r8, 0x158A
    10d6:	90 90 8b 15 	lds	r9, 0x158B
    10da:	a0 90 8c 15 	lds	r10, 0x158C
    10de:	b0 90 8d 15 	lds	r11, 0x158D
    10e2:	20 91 9a 15 	lds	r18, 0x159A
    10e6:	30 91 9b 15 	lds	r19, 0x159B
    10ea:	40 91 9c 15 	lds	r20, 0x159C
    10ee:	50 91 9d 15 	lds	r21, 0x159D
    10f2:	68 85       	ldd	r22, Y+8	; 0x08
    10f4:	79 85       	ldd	r23, Y+9	; 0x09
    10f6:	8a 85       	ldd	r24, Y+10	; 0x0a
    10f8:	9b 85       	ldd	r25, Y+11	; 0x0b
    10fa:	0e 94 e5 31 	call	0x63ca	; 0x63ca <__addsf3>
    10fe:	9b 01       	movw	r18, r22
    1100:	ac 01       	movw	r20, r24
    1102:	66 2d       	mov	r22, r6
    1104:	77 2d       	mov	r23, r7
    1106:	80 2f       	mov	r24, r16
    1108:	91 2f       	mov	r25, r17
    110a:	0e 94 24 35 	call	0x6a48	; 0x6a48 <__mulsf3>
    110e:	a5 01       	movw	r20, r10
    1110:	94 01       	movw	r18, r8
    1112:	0e 94 24 35 	call	0x6a48	; 0x6a48 <__mulsf3>
    1116:	60 93 0a 19 	sts	0x190A, r22
    111a:	70 93 0b 19 	sts	0x190B, r23
    111e:	80 93 0c 19 	sts	0x190C, r24
    1122:	90 93 0d 19 	sts	0x190D, r25
    1126:	20 91 96 15 	lds	r18, 0x1596
    112a:	30 91 97 15 	lds	r19, 0x1597
    112e:	40 91 98 15 	lds	r20, 0x1598
    1132:	50 91 99 15 	lds	r21, 0x1599
    1136:	6c 85       	ldd	r22, Y+12	; 0x0c
    1138:	7d 85       	ldd	r23, Y+13	; 0x0d
    113a:	8e 85       	ldd	r24, Y+14	; 0x0e
    113c:	9f 85       	ldd	r25, Y+15	; 0x0f
    113e:	0e 94 e5 31 	call	0x63ca	; 0x63ca <__addsf3>
    1142:	9b 01       	movw	r18, r22
    1144:	ac 01       	movw	r20, r24
    1146:	66 2d       	mov	r22, r6
    1148:	77 2d       	mov	r23, r7
    114a:	80 2f       	mov	r24, r16
    114c:	91 2f       	mov	r25, r17
    114e:	0e 94 24 35 	call	0x6a48	; 0x6a48 <__mulsf3>
    1152:	9b 01       	movw	r18, r22
    1154:	ac 01       	movw	r20, r24
    1156:	c5 01       	movw	r24, r10
    1158:	b4 01       	movw	r22, r8
    115a:	0e 94 24 35 	call	0x6a48	; 0x6a48 <__mulsf3>
    115e:	60 93 06 19 	sts	0x1906, r22
    1162:	70 93 07 19 	sts	0x1907, r23
    1166:	80 93 08 19 	sts	0x1908, r24
    116a:	90 93 09 19 	sts	0x1909, r25
    116e:	df 91       	pop	r29
    1170:	cf 91       	pop	r28
    1172:	1f 91       	pop	r17
    1174:	0f 91       	pop	r16
    1176:	bf 90       	pop	r11
    1178:	af 90       	pop	r10
    117a:	9f 90       	pop	r9
    117c:	8f 90       	pop	r8
    117e:	7f 90       	pop	r7
    1180:	6f 90       	pop	r6
    1182:	08 95       	ret

00001184 <_Z21step_part2_calculatorP7LegData>:
    1184:	ef 92       	push	r14
    1186:	ff 92       	push	r15
    1188:	0f 93       	push	r16
    118a:	1f 93       	push	r17
    118c:	cf 93       	push	r28
    118e:	df 93       	push	r29
    1190:	ec 01       	movw	r28, r24
    1192:	e8 88       	ldd	r14, Y+16	; 0x10
    1194:	f9 88       	ldd	r15, Y+17	; 0x11
    1196:	0a 89       	ldd	r16, Y+18	; 0x12
    1198:	1b 89       	ldd	r17, Y+19	; 0x13
    119a:	28 8d       	ldd	r18, Y+24	; 0x18
    119c:	39 8d       	ldd	r19, Y+25	; 0x19
    119e:	4a 8d       	ldd	r20, Y+26	; 0x1a
    11a0:	5b 8d       	ldd	r21, Y+27	; 0x1b
    11a2:	6c 89       	ldd	r22, Y+20	; 0x14
    11a4:	7d 89       	ldd	r23, Y+21	; 0x15
    11a6:	8e 89       	ldd	r24, Y+22	; 0x16
    11a8:	9f 89       	ldd	r25, Y+23	; 0x17
    11aa:	0e 94 21 20 	call	0x4042	; 0x4042 <_Z6calc_dfff>
    11ae:	28 8d       	ldd	r18, Y+24	; 0x18
    11b0:	39 8d       	ldd	r19, Y+25	; 0x19
    11b2:	4a 8d       	ldd	r20, Y+26	; 0x1a
    11b4:	5b 8d       	ldd	r21, Y+27	; 0x1b
    11b6:	6c 89       	ldd	r22, Y+20	; 0x14
    11b8:	7d 89       	ldd	r23, Y+21	; 0x15
    11ba:	8e 89       	ldd	r24, Y+22	; 0x16
    11bc:	9f 89       	ldd	r25, Y+23	; 0x17
    11be:	0e 94 82 20 	call	0x4104	; 0x4104 <_Z9get_gammaff>
    11c2:	6c ab       	std	Y+52, r22	; 0x34
    11c4:	7d ab       	std	Y+53, r23	; 0x35
    11c6:	8e ab       	std	Y+54, r24	; 0x36
    11c8:	9f ab       	std	Y+55, r25	; 0x37
    11ca:	0e 94 a5 20 	call	0x414a	; 0x414a <_Z8get_betav>
    11ce:	68 af       	std	Y+56, r22	; 0x38
    11d0:	79 af       	std	Y+57, r23	; 0x39
    11d2:	8a af       	std	Y+58, r24	; 0x3a
    11d4:	9b af       	std	Y+59, r25	; 0x3b
    11d6:	68 89       	ldd	r22, Y+16	; 0x10
    11d8:	79 89       	ldd	r23, Y+17	; 0x11
    11da:	8a 89       	ldd	r24, Y+18	; 0x12
    11dc:	9b 89       	ldd	r25, Y+19	; 0x13
    11de:	0e 94 da 20 	call	0x41b4	; 0x41b4 <_Z9get_alphaf>
    11e2:	6c af       	std	Y+60, r22	; 0x3c
    11e4:	7d af       	std	Y+61, r23	; 0x3d
    11e6:	8e af       	std	Y+62, r24	; 0x3e
    11e8:	9f af       	std	Y+63, r25	; 0x3f
    11ea:	df 91       	pop	r29
    11ec:	cf 91       	pop	r28
    11ee:	1f 91       	pop	r17
    11f0:	0f 91       	pop	r16
    11f2:	ff 90       	pop	r15
    11f4:	ef 90       	pop	r14
    11f6:	08 95       	ret

000011f8 <_Z15leg_motion_initv>:
    11f8:	80 91 ac 18 	lds	r24, 0x18AC
    11fc:	90 91 ad 18 	lds	r25, 0x18AD
    1200:	a0 91 ae 18 	lds	r26, 0x18AE
    1204:	b0 91 af 18 	lds	r27, 0x18AF
    1208:	80 93 d0 18 	sts	0x18D0, r24
    120c:	90 93 d1 18 	sts	0x18D1, r25
    1210:	a0 93 d2 18 	sts	0x18D2, r26
    1214:	b0 93 d3 18 	sts	0x18D3, r27
    1218:	80 91 a8 18 	lds	r24, 0x18A8
    121c:	90 91 a9 18 	lds	r25, 0x18A9
    1220:	a0 91 aa 18 	lds	r26, 0x18AA
    1224:	b0 91 ab 18 	lds	r27, 0x18AB
    1228:	80 93 cc 18 	sts	0x18CC, r24
    122c:	90 93 cd 18 	sts	0x18CD, r25
    1230:	a0 93 ce 18 	sts	0x18CE, r26
    1234:	b0 93 cf 18 	sts	0x18CF, r27
    1238:	80 91 a4 18 	lds	r24, 0x18A4
    123c:	90 91 a5 18 	lds	r25, 0x18A5
    1240:	a0 91 a6 18 	lds	r26, 0x18A6
    1244:	b0 91 a7 18 	lds	r27, 0x18A7
    1248:	80 93 c8 18 	sts	0x18C8, r24
    124c:	90 93 c9 18 	sts	0x18C9, r25
    1250:	a0 93 ca 18 	sts	0x18CA, r26
    1254:	b0 93 cb 18 	sts	0x18CB, r27
    1258:	80 91 22 18 	lds	r24, 0x1822
    125c:	90 91 23 18 	lds	r25, 0x1823
    1260:	a0 91 24 18 	lds	r26, 0x1824
    1264:	b0 91 25 18 	lds	r27, 0x1825
    1268:	80 93 46 18 	sts	0x1846, r24
    126c:	90 93 47 18 	sts	0x1847, r25
    1270:	a0 93 48 18 	sts	0x1848, r26
    1274:	b0 93 49 18 	sts	0x1849, r27
    1278:	80 91 1e 18 	lds	r24, 0x181E
    127c:	90 91 1f 18 	lds	r25, 0x181F
    1280:	a0 91 20 18 	lds	r26, 0x1820
    1284:	b0 91 21 18 	lds	r27, 0x1821
    1288:	80 93 42 18 	sts	0x1842, r24
    128c:	90 93 43 18 	sts	0x1843, r25
    1290:	a0 93 44 18 	sts	0x1844, r26
    1294:	b0 93 45 18 	sts	0x1845, r27
    1298:	80 91 1a 18 	lds	r24, 0x181A
    129c:	90 91 1b 18 	lds	r25, 0x181B
    12a0:	a0 91 1c 18 	lds	r26, 0x181C
    12a4:	b0 91 1d 18 	lds	r27, 0x181D
    12a8:	80 93 3e 18 	sts	0x183E, r24
    12ac:	90 93 3f 18 	sts	0x183F, r25
    12b0:	a0 93 40 18 	sts	0x1840, r26
    12b4:	b0 93 41 18 	sts	0x1841, r27
    12b8:	80 91 98 17 	lds	r24, 0x1798
    12bc:	90 91 99 17 	lds	r25, 0x1799
    12c0:	a0 91 9a 17 	lds	r26, 0x179A
    12c4:	b0 91 9b 17 	lds	r27, 0x179B
    12c8:	80 93 bc 17 	sts	0x17BC, r24
    12cc:	90 93 bd 17 	sts	0x17BD, r25
    12d0:	a0 93 be 17 	sts	0x17BE, r26
    12d4:	b0 93 bf 17 	sts	0x17BF, r27
    12d8:	80 91 94 17 	lds	r24, 0x1794
    12dc:	90 91 95 17 	lds	r25, 0x1795
    12e0:	a0 91 96 17 	lds	r26, 0x1796
    12e4:	b0 91 97 17 	lds	r27, 0x1797
    12e8:	80 93 b8 17 	sts	0x17B8, r24
    12ec:	90 93 b9 17 	sts	0x17B9, r25
    12f0:	a0 93 ba 17 	sts	0x17BA, r26
    12f4:	b0 93 bb 17 	sts	0x17BB, r27
    12f8:	80 91 90 17 	lds	r24, 0x1790
    12fc:	90 91 91 17 	lds	r25, 0x1791
    1300:	a0 91 92 17 	lds	r26, 0x1792
    1304:	b0 91 93 17 	lds	r27, 0x1793
    1308:	80 93 b4 17 	sts	0x17B4, r24
    130c:	90 93 b5 17 	sts	0x17B5, r25
    1310:	a0 93 b6 17 	sts	0x17B6, r26
    1314:	b0 93 b7 17 	sts	0x17B7, r27
    1318:	80 91 0e 17 	lds	r24, 0x170E
    131c:	90 91 0f 17 	lds	r25, 0x170F
    1320:	a0 91 10 17 	lds	r26, 0x1710
    1324:	b0 91 11 17 	lds	r27, 0x1711
    1328:	80 93 32 17 	sts	0x1732, r24
    132c:	90 93 33 17 	sts	0x1733, r25
    1330:	a0 93 34 17 	sts	0x1734, r26
    1334:	b0 93 35 17 	sts	0x1735, r27
    1338:	80 91 0a 17 	lds	r24, 0x170A
    133c:	90 91 0b 17 	lds	r25, 0x170B
    1340:	a0 91 0c 17 	lds	r26, 0x170C
    1344:	b0 91 0d 17 	lds	r27, 0x170D
    1348:	80 93 2e 17 	sts	0x172E, r24
    134c:	90 93 2f 17 	sts	0x172F, r25
    1350:	a0 93 30 17 	sts	0x1730, r26
    1354:	b0 93 31 17 	sts	0x1731, r27
    1358:	80 91 06 17 	lds	r24, 0x1706
    135c:	90 91 07 17 	lds	r25, 0x1707
    1360:	a0 91 08 17 	lds	r26, 0x1708
    1364:	b0 91 09 17 	lds	r27, 0x1709
    1368:	80 93 2a 17 	sts	0x172A, r24
    136c:	90 93 2b 17 	sts	0x172B, r25
    1370:	a0 93 2c 17 	sts	0x172C, r26
    1374:	b0 93 2d 17 	sts	0x172D, r27
    1378:	80 91 84 16 	lds	r24, 0x1684
    137c:	90 91 85 16 	lds	r25, 0x1685
    1380:	a0 91 86 16 	lds	r26, 0x1686
    1384:	b0 91 87 16 	lds	r27, 0x1687
    1388:	80 93 a8 16 	sts	0x16A8, r24
    138c:	90 93 a9 16 	sts	0x16A9, r25
    1390:	a0 93 aa 16 	sts	0x16AA, r26
    1394:	b0 93 ab 16 	sts	0x16AB, r27
    1398:	80 91 80 16 	lds	r24, 0x1680
    139c:	90 91 81 16 	lds	r25, 0x1681
    13a0:	a0 91 82 16 	lds	r26, 0x1682
    13a4:	b0 91 83 16 	lds	r27, 0x1683
    13a8:	80 93 a4 16 	sts	0x16A4, r24
    13ac:	90 93 a5 16 	sts	0x16A5, r25
    13b0:	a0 93 a6 16 	sts	0x16A6, r26
    13b4:	b0 93 a7 16 	sts	0x16A7, r27
    13b8:	80 91 7c 16 	lds	r24, 0x167C
    13bc:	90 91 7d 16 	lds	r25, 0x167D
    13c0:	a0 91 7e 16 	lds	r26, 0x167E
    13c4:	b0 91 7f 16 	lds	r27, 0x167F
    13c8:	80 93 a0 16 	sts	0x16A0, r24
    13cc:	90 93 a1 16 	sts	0x16A1, r25
    13d0:	a0 93 a2 16 	sts	0x16A2, r26
    13d4:	b0 93 a3 16 	sts	0x16A3, r27
    13d8:	80 91 fa 15 	lds	r24, 0x15FA
    13dc:	90 91 fb 15 	lds	r25, 0x15FB
    13e0:	a0 91 fc 15 	lds	r26, 0x15FC
    13e4:	b0 91 fd 15 	lds	r27, 0x15FD
    13e8:	80 93 1e 16 	sts	0x161E, r24
    13ec:	90 93 1f 16 	sts	0x161F, r25
    13f0:	a0 93 20 16 	sts	0x1620, r26
    13f4:	b0 93 21 16 	sts	0x1621, r27
    13f8:	80 91 f6 15 	lds	r24, 0x15F6
    13fc:	90 91 f7 15 	lds	r25, 0x15F7
    1400:	a0 91 f8 15 	lds	r26, 0x15F8
    1404:	b0 91 f9 15 	lds	r27, 0x15F9
    1408:	80 93 1a 16 	sts	0x161A, r24
    140c:	90 93 1b 16 	sts	0x161B, r25
    1410:	a0 93 1c 16 	sts	0x161C, r26
    1414:	b0 93 1d 16 	sts	0x161D, r27
    1418:	80 91 f2 15 	lds	r24, 0x15F2
    141c:	90 91 f3 15 	lds	r25, 0x15F3
    1420:	a0 91 f4 15 	lds	r26, 0x15F4
    1424:	b0 91 f5 15 	lds	r27, 0x15F5
    1428:	80 93 16 16 	sts	0x1616, r24
    142c:	90 93 17 16 	sts	0x1617, r25
    1430:	a0 93 18 16 	sts	0x1618, r26
    1434:	b0 93 19 16 	sts	0x1619, r27
    1438:	08 95       	ret

0000143a <_Z8move_legP7LegDataf>:
    143a:	2f 92       	push	r2
    143c:	3f 92       	push	r3
    143e:	4f 92       	push	r4
    1440:	5f 92       	push	r5
    1442:	6f 92       	push	r6
    1444:	7f 92       	push	r7
    1446:	8f 92       	push	r8
    1448:	9f 92       	push	r9
    144a:	af 92       	push	r10
    144c:	bf 92       	push	r11
    144e:	cf 92       	push	r12
    1450:	df 92       	push	r13
    1452:	ef 92       	push	r14
    1454:	ff 92       	push	r15
    1456:	0f 93       	push	r16
    1458:	1f 93       	push	r17
    145a:	cf 93       	push	r28
    145c:	df 93       	push	r29
    145e:	cd b7       	in	r28, 0x3d	; 61
    1460:	de b7       	in	r29, 0x3e	; 62
    1462:	28 97       	sbiw	r28, 0x08	; 8
    1464:	0f b6       	in	r0, 0x3f	; 63
    1466:	f8 94       	cli
    1468:	de bf       	out	0x3e, r29	; 62
    146a:	0f be       	out	0x3f, r0	; 63
    146c:	cd bf       	out	0x3d, r28	; 61
    146e:	98 87       	std	Y+8, r25	; 0x08
    1470:	8f 83       	std	Y+7, r24	; 0x07
    1472:	6a 01       	movw	r12, r20
    1474:	7b 01       	movw	r14, r22
    1476:	20 e0       	ldi	r18, 0x00	; 0
    1478:	30 e0       	ldi	r19, 0x00	; 0
    147a:	40 e8       	ldi	r20, 0x80	; 128
    147c:	5f e3       	ldi	r21, 0x3F	; 63
    147e:	dc 01       	movw	r26, r24
    1480:	14 96       	adiw	r26, 0x04	; 4
    1482:	6d 91       	ld	r22, X+
    1484:	7d 91       	ld	r23, X+
    1486:	8d 91       	ld	r24, X+
    1488:	9c 91       	ld	r25, X
    148a:	17 97       	sbiw	r26, 0x07	; 7
    148c:	0e 94 c2 32 	call	0x6584	; 0x6584 <__cmpsf2>
    1490:	81 11       	cpse	r24, r1
    1492:	29 c0       	rjmp	.+82     	; 0x14e6 <_Z8move_legP7LegDataf+0xac>
    1494:	20 e0       	ldi	r18, 0x00	; 0
    1496:	30 e0       	ldi	r19, 0x00	; 0
    1498:	40 e8       	ldi	r20, 0x80	; 128
    149a:	5f e3       	ldi	r21, 0x3F	; 63
    149c:	60 91 14 19 	lds	r22, 0x1914
    14a0:	70 91 15 19 	lds	r23, 0x1915
    14a4:	80 91 16 19 	lds	r24, 0x1916
    14a8:	90 91 17 19 	lds	r25, 0x1917
    14ac:	0e 94 e5 31 	call	0x63ca	; 0x63ca <__addsf3>
    14b0:	a7 01       	movw	r20, r14
    14b2:	96 01       	movw	r18, r12
    14b4:	0e 94 c2 32 	call	0x6584	; 0x6584 <__cmpsf2>
    14b8:	88 23       	and	r24, r24
    14ba:	a9 f0       	breq	.+42     	; 0x14e6 <_Z8move_legP7LegDataf+0xac>
    14bc:	20 e0       	ldi	r18, 0x00	; 0
    14be:	30 e0       	ldi	r19, 0x00	; 0
    14c0:	40 ef       	ldi	r20, 0xF0	; 240
    14c2:	51 e4       	ldi	r21, 0x41	; 65
    14c4:	ef 81       	ldd	r30, Y+7	; 0x07
    14c6:	f8 85       	ldd	r31, Y+8	; 0x08
    14c8:	60 89       	ldd	r22, Z+16	; 0x10
    14ca:	71 89       	ldd	r23, Z+17	; 0x11
    14cc:	82 89       	ldd	r24, Z+18	; 0x12
    14ce:	93 89       	ldd	r25, Z+19	; 0x13
    14d0:	0e 94 e5 31 	call	0x63ca	; 0x63ca <__addsf3>
    14d4:	60 93 ae 15 	sts	0x15AE, r22
    14d8:	70 93 af 15 	sts	0x15AF, r23
    14dc:	80 93 b0 15 	sts	0x15B0, r24
    14e0:	90 93 b1 15 	sts	0x15B1, r25
    14e4:	0e c0       	rjmp	.+28     	; 0x1502 <_Z8move_legP7LegDataf+0xc8>
    14e6:	ef 81       	ldd	r30, Y+7	; 0x07
    14e8:	f8 85       	ldd	r31, Y+8	; 0x08
    14ea:	80 89       	ldd	r24, Z+16	; 0x10
    14ec:	91 89       	ldd	r25, Z+17	; 0x11
    14ee:	a2 89       	ldd	r26, Z+18	; 0x12
    14f0:	b3 89       	ldd	r27, Z+19	; 0x13
    14f2:	80 93 ae 15 	sts	0x15AE, r24
    14f6:	90 93 af 15 	sts	0x15AF, r25
    14fa:	a0 93 b0 15 	sts	0x15B0, r26
    14fe:	b0 93 b1 15 	sts	0x15B1, r27
    1502:	20 e0       	ldi	r18, 0x00	; 0
    1504:	30 e0       	ldi	r19, 0x00	; 0
    1506:	a9 01       	movw	r20, r18
    1508:	c7 01       	movw	r24, r14
    150a:	b6 01       	movw	r22, r12
    150c:	0e 94 c2 32 	call	0x6584	; 0x6584 <__cmpsf2>
    1510:	88 23       	and	r24, r24
    1512:	09 f4       	brne	.+2      	; 0x1516 <_Z8move_legP7LegDataf+0xdc>
    1514:	97 c0       	rjmp	.+302    	; 0x1644 <_Z8move_legP7LegDataf+0x20a>
    1516:	80 90 14 19 	lds	r8, 0x1914
    151a:	90 90 15 19 	lds	r9, 0x1915
    151e:	a0 90 16 19 	lds	r10, 0x1916
    1522:	b0 90 17 19 	lds	r11, 0x1917
    1526:	20 e0       	ldi	r18, 0x00	; 0
    1528:	30 e0       	ldi	r19, 0x00	; 0
    152a:	40 e8       	ldi	r20, 0x80	; 128
    152c:	5f e3       	ldi	r21, 0x3F	; 63
    152e:	c5 01       	movw	r24, r10
    1530:	b4 01       	movw	r22, r8
    1532:	0e 94 e5 31 	call	0x63ca	; 0x63ca <__addsf3>
    1536:	a7 01       	movw	r20, r14
    1538:	96 01       	movw	r18, r12
    153a:	0e 94 c2 32 	call	0x6584	; 0x6584 <__cmpsf2>
    153e:	88 23       	and	r24, r24
    1540:	09 f4       	brne	.+2      	; 0x1544 <_Z8move_legP7LegDataf+0x10a>
    1542:	94 c0       	rjmp	.+296    	; 0x166c <_Z8move_legP7LegDataf+0x232>
    1544:	ef 81       	ldd	r30, Y+7	; 0x07
    1546:	f8 85       	ldd	r31, Y+8	; 0x08
    1548:	e0 5c       	subi	r30, 0xC0	; 192
    154a:	ff 4f       	sbci	r31, 0xFF	; 255
    154c:	af 81       	ldd	r26, Y+7	; 0x07
    154e:	b8 85       	ldd	r27, Y+8	; 0x08
    1550:	a4 5b       	subi	r26, 0xB4	; 180
    1552:	bf 4f       	sbci	r27, 0xFF	; 255
    1554:	8d 91       	ld	r24, X+
    1556:	9d 91       	ld	r25, X+
    1558:	0d 90       	ld	r0, X+
    155a:	bc 91       	ld	r27, X
    155c:	a0 2d       	mov	r26, r0
    155e:	80 83       	st	Z, r24
    1560:	91 83       	std	Z+1, r25	; 0x01
    1562:	a2 83       	std	Z+2, r26	; 0x02
    1564:	b3 83       	std	Z+3, r27	; 0x03
    1566:	ef 81       	ldd	r30, Y+7	; 0x07
    1568:	f8 85       	ldd	r31, Y+8	; 0x08
    156a:	ec 5b       	subi	r30, 0xBC	; 188
    156c:	ff 4f       	sbci	r31, 0xFF	; 255
    156e:	af 81       	ldd	r26, Y+7	; 0x07
    1570:	b8 85       	ldd	r27, Y+8	; 0x08
    1572:	a0 5b       	subi	r26, 0xB0	; 176
    1574:	bf 4f       	sbci	r27, 0xFF	; 255
    1576:	8d 91       	ld	r24, X+
    1578:	9d 91       	ld	r25, X+
    157a:	0d 90       	ld	r0, X+
    157c:	bc 91       	ld	r27, X
    157e:	a0 2d       	mov	r26, r0
    1580:	80 83       	st	Z, r24
    1582:	91 83       	std	Z+1, r25	; 0x01
    1584:	a2 83       	std	Z+2, r26	; 0x02
    1586:	b3 83       	std	Z+3, r27	; 0x03
    1588:	ef 81       	ldd	r30, Y+7	; 0x07
    158a:	f8 85       	ldd	r31, Y+8	; 0x08
    158c:	e8 5b       	subi	r30, 0xB8	; 184
    158e:	ff 4f       	sbci	r31, 0xFF	; 255
    1590:	af 81       	ldd	r26, Y+7	; 0x07
    1592:	b8 85       	ldd	r27, Y+8	; 0x08
    1594:	ac 5a       	subi	r26, 0xAC	; 172
    1596:	bf 4f       	sbci	r27, 0xFF	; 255
    1598:	8d 91       	ld	r24, X+
    159a:	9d 91       	ld	r25, X+
    159c:	0d 90       	ld	r0, X+
    159e:	bc 91       	ld	r27, X
    15a0:	a0 2d       	mov	r26, r0
    15a2:	80 83       	st	Z, r24
    15a4:	91 83       	std	Z+1, r25	; 0x01
    15a6:	a2 83       	std	Z+2, r26	; 0x02
    15a8:	b3 83       	std	Z+3, r27	; 0x03
    15aa:	af 81       	ldd	r26, Y+7	; 0x07
    15ac:	b8 85       	ldd	r27, Y+8	; 0x08
    15ae:	5c 96       	adiw	r26, 0x1c	; 28
    15b0:	4d 90       	ld	r4, X+
    15b2:	5d 90       	ld	r5, X+
    15b4:	6d 90       	ld	r6, X+
    15b6:	7c 90       	ld	r7, X
    15b8:	5f 97       	sbiw	r26, 0x1f	; 31
    15ba:	a3 01       	movw	r20, r6
    15bc:	92 01       	movw	r18, r4
    15be:	54 96       	adiw	r26, 0x14	; 20
    15c0:	6d 91       	ld	r22, X+
    15c2:	7d 91       	ld	r23, X+
    15c4:	8d 91       	ld	r24, X+
    15c6:	9c 91       	ld	r25, X
    15c8:	57 97       	sbiw	r26, 0x17	; 23
    15ca:	0e 94 e4 31 	call	0x63c8	; 0x63c8 <__subsf3>
    15ce:	a7 01       	movw	r20, r14
    15d0:	96 01       	movw	r18, r12
    15d2:	0e 94 24 35 	call	0x6a48	; 0x6a48 <__mulsf3>
    15d6:	a5 01       	movw	r20, r10
    15d8:	94 01       	movw	r18, r8
    15da:	0e 94 c9 32 	call	0x6592	; 0x6592 <__divsf3>
    15de:	9b 01       	movw	r18, r22
    15e0:	ac 01       	movw	r20, r24
    15e2:	c3 01       	movw	r24, r6
    15e4:	b2 01       	movw	r22, r4
    15e6:	0e 94 e5 31 	call	0x63ca	; 0x63ca <__addsf3>
    15ea:	60 93 b6 15 	sts	0x15B6, r22
    15ee:	70 93 b7 15 	sts	0x15B7, r23
    15f2:	80 93 b8 15 	sts	0x15B8, r24
    15f6:	90 93 b9 15 	sts	0x15B9, r25
    15fa:	ef 81       	ldd	r30, Y+7	; 0x07
    15fc:	f8 85       	ldd	r31, Y+8	; 0x08
    15fe:	40 a0       	ldd	r4, Z+32	; 0x20
    1600:	51 a0       	ldd	r5, Z+33	; 0x21
    1602:	62 a0       	ldd	r6, Z+34	; 0x22
    1604:	73 a0       	ldd	r7, Z+35	; 0x23
    1606:	a3 01       	movw	r20, r6
    1608:	92 01       	movw	r18, r4
    160a:	60 8d       	ldd	r22, Z+24	; 0x18
    160c:	71 8d       	ldd	r23, Z+25	; 0x19
    160e:	82 8d       	ldd	r24, Z+26	; 0x1a
    1610:	93 8d       	ldd	r25, Z+27	; 0x1b
    1612:	0e 94 e4 31 	call	0x63c8	; 0x63c8 <__subsf3>
    1616:	a7 01       	movw	r20, r14
    1618:	96 01       	movw	r18, r12
    161a:	0e 94 24 35 	call	0x6a48	; 0x6a48 <__mulsf3>
    161e:	a5 01       	movw	r20, r10
    1620:	94 01       	movw	r18, r8
    1622:	0e 94 c9 32 	call	0x6592	; 0x6592 <__divsf3>
    1626:	9b 01       	movw	r18, r22
    1628:	ac 01       	movw	r20, r24
    162a:	c3 01       	movw	r24, r6
    162c:	b2 01       	movw	r22, r4
    162e:	0e 94 e5 31 	call	0x63ca	; 0x63ca <__addsf3>
    1632:	60 93 b2 15 	sts	0x15B2, r22
    1636:	70 93 b3 15 	sts	0x15B3, r23
    163a:	80 93 b4 15 	sts	0x15B4, r24
    163e:	90 93 b5 15 	sts	0x15B5, r25
    1642:	4d c0       	rjmp	.+154    	; 0x16de <_Z8move_legP7LegDataf+0x2a4>
    1644:	20 e0       	ldi	r18, 0x00	; 0
    1646:	30 e0       	ldi	r19, 0x00	; 0
    1648:	40 e8       	ldi	r20, 0x80	; 128
    164a:	5f e3       	ldi	r21, 0x3F	; 63
    164c:	60 91 14 19 	lds	r22, 0x1914
    1650:	70 91 15 19 	lds	r23, 0x1915
    1654:	80 91 16 19 	lds	r24, 0x1916
    1658:	90 91 17 19 	lds	r25, 0x1917
    165c:	0e 94 e5 31 	call	0x63ca	; 0x63ca <__addsf3>
    1660:	a7 01       	movw	r20, r14
    1662:	96 01       	movw	r18, r12
    1664:	0e 94 c2 32 	call	0x6584	; 0x6584 <__cmpsf2>
    1668:	81 11       	cpse	r24, r1
    166a:	1f c0       	rjmp	.+62     	; 0x16aa <_Z8move_legP7LegDataf+0x270>
    166c:	ef 81       	ldd	r30, Y+7	; 0x07
    166e:	f8 85       	ldd	r31, Y+8	; 0x08
    1670:	84 89       	ldd	r24, Z+20	; 0x14
    1672:	95 89       	ldd	r25, Z+21	; 0x15
    1674:	a6 89       	ldd	r26, Z+22	; 0x16
    1676:	b7 89       	ldd	r27, Z+23	; 0x17
    1678:	80 93 b6 15 	sts	0x15B6, r24
    167c:	90 93 b7 15 	sts	0x15B7, r25
    1680:	a0 93 b8 15 	sts	0x15B8, r26
    1684:	b0 93 b9 15 	sts	0x15B9, r27
    1688:	80 8d       	ldd	r24, Z+24	; 0x18
    168a:	91 8d       	ldd	r25, Z+25	; 0x19
    168c:	a2 8d       	ldd	r26, Z+26	; 0x1a
    168e:	b3 8d       	ldd	r27, Z+27	; 0x1b
    1690:	80 93 b2 15 	sts	0x15B2, r24
    1694:	90 93 b3 15 	sts	0x15B3, r25
    1698:	a0 93 b4 15 	sts	0x15B4, r26
    169c:	b0 93 b5 15 	sts	0x15B5, r27
    16a0:	e2 5a       	subi	r30, 0xA2	; 162
    16a2:	ff 4f       	sbci	r31, 0xFF	; 255
    16a4:	11 82       	std	Z+1, r1	; 0x01
    16a6:	10 82       	st	Z, r1
    16a8:	1a c0       	rjmp	.+52     	; 0x16de <_Z8move_legP7LegDataf+0x2a4>
    16aa:	ef 81       	ldd	r30, Y+7	; 0x07
    16ac:	f8 85       	ldd	r31, Y+8	; 0x08
    16ae:	84 8d       	ldd	r24, Z+28	; 0x1c
    16b0:	95 8d       	ldd	r25, Z+29	; 0x1d
    16b2:	a6 8d       	ldd	r26, Z+30	; 0x1e
    16b4:	b7 8d       	ldd	r27, Z+31	; 0x1f
    16b6:	80 93 b6 15 	sts	0x15B6, r24
    16ba:	90 93 b7 15 	sts	0x15B7, r25
    16be:	a0 93 b8 15 	sts	0x15B8, r26
    16c2:	b0 93 b9 15 	sts	0x15B9, r27
    16c6:	80 a1       	ldd	r24, Z+32	; 0x20
    16c8:	91 a1       	ldd	r25, Z+33	; 0x21
    16ca:	a2 a1       	ldd	r26, Z+34	; 0x22
    16cc:	b3 a1       	ldd	r27, Z+35	; 0x23
    16ce:	80 93 b2 15 	sts	0x15B2, r24
    16d2:	90 93 b3 15 	sts	0x15B3, r25
    16d6:	a0 93 b4 15 	sts	0x15B4, r26
    16da:	b0 93 b5 15 	sts	0x15B5, r27
    16de:	e0 90 ae 15 	lds	r14, 0x15AE
    16e2:	f0 90 af 15 	lds	r15, 0x15AF
    16e6:	00 91 b0 15 	lds	r16, 0x15B0
    16ea:	10 91 b1 15 	lds	r17, 0x15B1
    16ee:	20 91 b2 15 	lds	r18, 0x15B2
    16f2:	30 91 b3 15 	lds	r19, 0x15B3
    16f6:	40 91 b4 15 	lds	r20, 0x15B4
    16fa:	50 91 b5 15 	lds	r21, 0x15B5
    16fe:	60 91 b6 15 	lds	r22, 0x15B6
    1702:	70 91 b7 15 	lds	r23, 0x15B7
    1706:	80 91 b8 15 	lds	r24, 0x15B8
    170a:	90 91 b9 15 	lds	r25, 0x15B9
    170e:	0e 94 21 20 	call	0x4042	; 0x4042 <_Z6calc_dfff>
    1712:	20 91 b2 15 	lds	r18, 0x15B2
    1716:	30 91 b3 15 	lds	r19, 0x15B3
    171a:	40 91 b4 15 	lds	r20, 0x15B4
    171e:	50 91 b5 15 	lds	r21, 0x15B5
    1722:	60 91 b6 15 	lds	r22, 0x15B6
    1726:	70 91 b7 15 	lds	r23, 0x15B7
    172a:	80 91 b8 15 	lds	r24, 0x15B8
    172e:	90 91 b9 15 	lds	r25, 0x15B9
    1732:	0e 94 82 20 	call	0x4104	; 0x4104 <_Z9get_gammaff>
    1736:	0f 81       	ldd	r16, Y+7	; 0x07
    1738:	18 85       	ldd	r17, Y+8	; 0x08
    173a:	04 5b       	subi	r16, 0xB4	; 180
    173c:	1f 4f       	sbci	r17, 0xFF	; 255
    173e:	d8 01       	movw	r26, r16
    1740:	6d 93       	st	X+, r22
    1742:	7d 93       	st	X+, r23
    1744:	8d 93       	st	X+, r24
    1746:	9c 93       	st	X, r25
    1748:	13 97       	sbiw	r26, 0x03	; 3
    174a:	0e 94 a5 20 	call	0x414a	; 0x414a <_Z8get_betav>
    174e:	af 80       	ldd	r10, Y+7	; 0x07
    1750:	b8 84       	ldd	r11, Y+8	; 0x08
    1752:	b0 e5       	ldi	r27, 0x50	; 80
    1754:	ab 0e       	add	r10, r27
    1756:	b1 1c       	adc	r11, r1
    1758:	f5 01       	movw	r30, r10
    175a:	60 83       	st	Z, r22
    175c:	71 83       	std	Z+1, r23	; 0x01
    175e:	82 83       	std	Z+2, r24	; 0x02
    1760:	93 83       	std	Z+3, r25	; 0x03
    1762:	60 91 ae 15 	lds	r22, 0x15AE
    1766:	70 91 af 15 	lds	r23, 0x15AF
    176a:	80 91 b0 15 	lds	r24, 0x15B0
    176e:	90 91 b1 15 	lds	r25, 0x15B1
    1772:	0e 94 da 20 	call	0x41b4	; 0x41b4 <_Z9get_alphaf>
    1776:	2b 01       	movw	r4, r22
    1778:	3c 01       	movw	r6, r24
    177a:	ef 81       	ldd	r30, Y+7	; 0x07
    177c:	f8 85       	ldd	r31, Y+8	; 0x08
    177e:	ec 5a       	subi	r30, 0xAC	; 172
    1780:	ff 4f       	sbci	r31, 0xFF	; 255
    1782:	60 83       	st	Z, r22
    1784:	71 83       	std	Z+1, r23	; 0x01
    1786:	82 83       	std	Z+2, r24	; 0x02
    1788:	93 83       	std	Z+3, r25	; 0x03
    178a:	c0 90 ba 15 	lds	r12, 0x15BA
    178e:	d0 90 bb 15 	lds	r13, 0x15BB
    1792:	e0 90 bc 15 	lds	r14, 0x15BC
    1796:	f0 90 bd 15 	lds	r15, 0x15BD
    179a:	ef 81       	ldd	r30, Y+7	; 0x07
    179c:	f8 85       	ldd	r31, Y+8	; 0x08
    179e:	e8 5b       	subi	r30, 0xB8	; 184
    17a0:	ff 4f       	sbci	r31, 0xFF	; 255
    17a2:	9b 01       	movw	r18, r22
    17a4:	ac 01       	movw	r20, r24
    17a6:	60 81       	ld	r22, Z
    17a8:	71 81       	ldd	r23, Z+1	; 0x01
    17aa:	82 81       	ldd	r24, Z+2	; 0x02
    17ac:	93 81       	ldd	r25, Z+3	; 0x03
    17ae:	0e 94 e4 31 	call	0x63c8	; 0x63c8 <__subsf3>
    17b2:	9f 77       	andi	r25, 0x7F	; 127
    17b4:	a7 01       	movw	r20, r14
    17b6:	96 01       	movw	r18, r12
    17b8:	0e 94 24 35 	call	0x6a48	; 0x6a48 <__mulsf3>
    17bc:	36 2e       	mov	r3, r22
    17be:	27 2e       	mov	r2, r23
    17c0:	8d 83       	std	Y+5, r24	; 0x05
    17c2:	9e 83       	std	Y+6, r25	; 0x06
    17c4:	38 2f       	mov	r19, r24
    17c6:	29 2f       	mov	r18, r25
    17c8:	86 2f       	mov	r24, r22
    17ca:	92 2d       	mov	r25, r2
    17cc:	a3 2f       	mov	r26, r19
    17ce:	b2 2f       	mov	r27, r18
    17d0:	80 93 c6 15 	sts	0x15C6, r24
    17d4:	90 93 c7 15 	sts	0x15C7, r25
    17d8:	a0 93 c8 15 	sts	0x15C8, r26
    17dc:	b0 93 c9 15 	sts	0x15C9, r27
    17e0:	d5 01       	movw	r26, r10
    17e2:	8d 90       	ld	r8, X+
    17e4:	9d 90       	ld	r9, X+
    17e6:	ad 90       	ld	r10, X+
    17e8:	bc 90       	ld	r11, X
    17ea:	ef 81       	ldd	r30, Y+7	; 0x07
    17ec:	f8 85       	ldd	r31, Y+8	; 0x08
    17ee:	ec 5b       	subi	r30, 0xBC	; 188
    17f0:	ff 4f       	sbci	r31, 0xFF	; 255
    17f2:	a5 01       	movw	r20, r10
    17f4:	94 01       	movw	r18, r8
    17f6:	60 81       	ld	r22, Z
    17f8:	71 81       	ldd	r23, Z+1	; 0x01
    17fa:	82 81       	ldd	r24, Z+2	; 0x02
    17fc:	93 81       	ldd	r25, Z+3	; 0x03
    17fe:	0e 94 e4 31 	call	0x63c8	; 0x63c8 <__subsf3>
    1802:	9b 01       	movw	r18, r22
    1804:	ac 01       	movw	r20, r24
    1806:	5f 77       	andi	r21, 0x7F	; 127
    1808:	c7 01       	movw	r24, r14
    180a:	b6 01       	movw	r22, r12
    180c:	0e 94 24 35 	call	0x6a48	; 0x6a48 <__mulsf3>
    1810:	60 93 c2 15 	sts	0x15C2, r22
    1814:	70 93 c3 15 	sts	0x15C3, r23
    1818:	80 93 c4 15 	sts	0x15C4, r24
    181c:	90 93 c5 15 	sts	0x15C5, r25
    1820:	d8 01       	movw	r26, r16
    1822:	8d 91       	ld	r24, X+
    1824:	9d 91       	ld	r25, X+
    1826:	0d 90       	ld	r0, X+
    1828:	bc 91       	ld	r27, X
    182a:	a0 2d       	mov	r26, r0
    182c:	89 83       	std	Y+1, r24	; 0x01
    182e:	9a 83       	std	Y+2, r25	; 0x02
    1830:	ab 83       	std	Y+3, r26	; 0x03
    1832:	bc 83       	std	Y+4, r27	; 0x04
    1834:	ef 81       	ldd	r30, Y+7	; 0x07
    1836:	f8 85       	ldd	r31, Y+8	; 0x08
    1838:	e0 5c       	subi	r30, 0xC0	; 192
    183a:	ff 4f       	sbci	r31, 0xFF	; 255
    183c:	9c 01       	movw	r18, r24
    183e:	ad 01       	movw	r20, r26
    1840:	60 81       	ld	r22, Z
    1842:	71 81       	ldd	r23, Z+1	; 0x01
    1844:	82 81       	ldd	r24, Z+2	; 0x02
    1846:	93 81       	ldd	r25, Z+3	; 0x03
    1848:	0e 94 e4 31 	call	0x63c8	; 0x63c8 <__subsf3>
    184c:	9b 01       	movw	r18, r22
    184e:	ac 01       	movw	r20, r24
    1850:	5f 77       	andi	r21, 0x7F	; 127
    1852:	c7 01       	movw	r24, r14
    1854:	b6 01       	movw	r22, r12
    1856:	0e 94 24 35 	call	0x6a48	; 0x6a48 <__mulsf3>
    185a:	60 93 be 15 	sts	0x15BE, r22
    185e:	70 93 bf 15 	sts	0x15BF, r23
    1862:	80 93 c0 15 	sts	0x15C0, r24
    1866:	90 93 c1 15 	sts	0x15C1, r25
    186a:	ef 81       	ldd	r30, Y+7	; 0x07
    186c:	f8 85       	ldd	r31, Y+8	; 0x08
    186e:	c0 80       	ld	r12, Z
    1870:	d1 80       	ldd	r13, Z+1	; 0x01
    1872:	e2 80       	ldd	r14, Z+2	; 0x02
    1874:	f3 80       	ldd	r15, Z+3	; 0x03
    1876:	2e ed       	ldi	r18, 0xDE	; 222
    1878:	34 e2       	ldi	r19, 0x24	; 36
    187a:	46 e0       	ldi	r20, 0x06	; 6
    187c:	5e e3       	ldi	r21, 0x3E	; 62
    187e:	c3 01       	movw	r24, r6
    1880:	b2 01       	movw	r22, r4
    1882:	0e 94 e5 31 	call	0x63ca	; 0x63ca <__addsf3>
    1886:	9b 01       	movw	r18, r22
    1888:	ac 01       	movw	r20, r24
    188a:	c7 01       	movw	r24, r14
    188c:	b6 01       	movw	r22, r12
    188e:	0e 94 24 35 	call	0x6a48	; 0x6a48 <__mulsf3>
    1892:	76 2e       	mov	r7, r22
    1894:	67 2e       	mov	r6, r23
    1896:	58 2e       	mov	r5, r24
    1898:	49 2e       	mov	r4, r25
    189a:	ef 81       	ldd	r30, Y+7	; 0x07
    189c:	f8 85       	ldd	r31, Y+8	; 0x08
    189e:	e2 58       	subi	r30, 0x82	; 130
    18a0:	ff 4f       	sbci	r31, 0xFF	; 255
    18a2:	86 2f       	mov	r24, r22
    18a4:	96 2d       	mov	r25, r6
    18a6:	a5 2d       	mov	r26, r5
    18a8:	b4 2d       	mov	r27, r4
    18aa:	80 83       	st	Z, r24
    18ac:	91 83       	std	Z+1, r25	; 0x01
    18ae:	a2 83       	std	Z+2, r26	; 0x02
    18b0:	b3 83       	std	Z+3, r27	; 0x03
    18b2:	0f 81       	ldd	r16, Y+7	; 0x07
    18b4:	18 85       	ldd	r17, Y+8	; 0x08
    18b6:	0e 57       	subi	r16, 0x7E	; 126
    18b8:	1f 4f       	sbci	r17, 0xFF	; 255
    18ba:	a5 01       	movw	r20, r10
    18bc:	94 01       	movw	r18, r8
    18be:	6b e3       	ldi	r22, 0x3B	; 59
    18c0:	7f ed       	ldi	r23, 0xDF	; 223
    18c2:	8f e0       	ldi	r24, 0x0F	; 15
    18c4:	9f e3       	ldi	r25, 0x3F	; 63
    18c6:	0e 94 e4 31 	call	0x63c8	; 0x63c8 <__subsf3>
    18ca:	9b 01       	movw	r18, r22
    18cc:	ac 01       	movw	r20, r24
    18ce:	c7 01       	movw	r24, r14
    18d0:	b6 01       	movw	r22, r12
    18d2:	0e 94 24 35 	call	0x6a48	; 0x6a48 <__mulsf3>
    18d6:	d8 01       	movw	r26, r16
    18d8:	6d 93       	st	X+, r22
    18da:	7d 93       	st	X+, r23
    18dc:	8d 93       	st	X+, r24
    18de:	9c 93       	st	X, r25
    18e0:	13 97       	sbiw	r26, 0x03	; 3
    18e2:	ef 80       	ldd	r14, Y+7	; 0x07
    18e4:	f8 84       	ldd	r15, Y+8	; 0x08
    18e6:	b6 e8       	ldi	r27, 0x86	; 134
    18e8:	eb 0e       	add	r14, r27
    18ea:	f1 1c       	adc	r15, r1
    18ec:	89 81       	ldd	r24, Y+1	; 0x01
    18ee:	9a 81       	ldd	r25, Y+2	; 0x02
    18f0:	ab 81       	ldd	r26, Y+3	; 0x03
    18f2:	bc 81       	ldd	r27, Y+4	; 0x04
    18f4:	f7 01       	movw	r30, r14
    18f6:	80 83       	st	Z, r24
    18f8:	91 83       	std	Z+1, r25	; 0x01
    18fa:	a2 83       	std	Z+2, r26	; 0x02
    18fc:	b3 83       	std	Z+3, r27	; 0x03
    18fe:	3d 81       	ldd	r19, Y+5	; 0x05
    1900:	2e 81       	ldd	r18, Y+6	; 0x06
    1902:	63 2d       	mov	r22, r3
    1904:	72 2d       	mov	r23, r2
    1906:	83 2f       	mov	r24, r19
    1908:	92 2f       	mov	r25, r18
    190a:	0e 94 31 33 	call	0x6662	; 0x6662 <__fixsfsi>
    190e:	ef 81       	ldd	r30, Y+7	; 0x07
    1910:	f8 85       	ldd	r31, Y+8	; 0x08
    1912:	e4 5a       	subi	r30, 0xA4	; 164
    1914:	ff 4f       	sbci	r31, 0xFF	; 255
    1916:	9b 01       	movw	r18, r22
    1918:	47 2d       	mov	r20, r7
    191a:	56 2d       	mov	r21, r6
    191c:	65 2d       	mov	r22, r5
    191e:	74 2d       	mov	r23, r4
    1920:	80 81       	ld	r24, Z
    1922:	0e 94 3d 2e 	call	0x5c7a	; 0x5c7a <_Z21SERVO_buffer_positionhdj>
    1926:	60 91 c2 15 	lds	r22, 0x15C2
    192a:	70 91 c3 15 	lds	r23, 0x15C3
    192e:	80 91 c4 15 	lds	r24, 0x15C4
    1932:	90 91 c5 15 	lds	r25, 0x15C5
    1936:	0e 94 31 33 	call	0x6662	; 0x6662 <__fixsfsi>
    193a:	dc 01       	movw	r26, r24
    193c:	cb 01       	movw	r24, r22
    193e:	f8 01       	movw	r30, r16
    1940:	40 81       	ld	r20, Z
    1942:	51 81       	ldd	r21, Z+1	; 0x01
    1944:	62 81       	ldd	r22, Z+2	; 0x02
    1946:	73 81       	ldd	r23, Z+3	; 0x03
    1948:	ef 81       	ldd	r30, Y+7	; 0x07
    194a:	f8 85       	ldd	r31, Y+8	; 0x08
    194c:	e6 5a       	subi	r30, 0xA6	; 166
    194e:	ff 4f       	sbci	r31, 0xFF	; 255
    1950:	9c 01       	movw	r18, r24
    1952:	80 81       	ld	r24, Z
    1954:	0e 94 3d 2e 	call	0x5c7a	; 0x5c7a <_Z21SERVO_buffer_positionhdj>
    1958:	60 91 be 15 	lds	r22, 0x15BE
    195c:	70 91 bf 15 	lds	r23, 0x15BF
    1960:	80 91 c0 15 	lds	r24, 0x15C0
    1964:	90 91 c1 15 	lds	r25, 0x15C1
    1968:	0e 94 31 33 	call	0x6662	; 0x6662 <__fixsfsi>
    196c:	dc 01       	movw	r26, r24
    196e:	cb 01       	movw	r24, r22
    1970:	f7 01       	movw	r30, r14
    1972:	40 81       	ld	r20, Z
    1974:	51 81       	ldd	r21, Z+1	; 0x01
    1976:	62 81       	ldd	r22, Z+2	; 0x02
    1978:	73 81       	ldd	r23, Z+3	; 0x03
    197a:	ef 81       	ldd	r30, Y+7	; 0x07
    197c:	f8 85       	ldd	r31, Y+8	; 0x08
    197e:	e8 5a       	subi	r30, 0xA8	; 168
    1980:	ff 4f       	sbci	r31, 0xFF	; 255
    1982:	9c 01       	movw	r18, r24
    1984:	80 81       	ld	r24, Z
    1986:	0e 94 3d 2e 	call	0x5c7a	; 0x5c7a <_Z21SERVO_buffer_positionhdj>
    198a:	28 96       	adiw	r28, 0x08	; 8
    198c:	0f b6       	in	r0, 0x3f	; 63
    198e:	f8 94       	cli
    1990:	de bf       	out	0x3e, r29	; 62
    1992:	0f be       	out	0x3f, r0	; 63
    1994:	cd bf       	out	0x3d, r28	; 61
    1996:	df 91       	pop	r29
    1998:	cf 91       	pop	r28
    199a:	1f 91       	pop	r17
    199c:	0f 91       	pop	r16
    199e:	ff 90       	pop	r15
    19a0:	ef 90       	pop	r14
    19a2:	df 90       	pop	r13
    19a4:	cf 90       	pop	r12
    19a6:	bf 90       	pop	r11
    19a8:	af 90       	pop	r10
    19aa:	9f 90       	pop	r9
    19ac:	8f 90       	pop	r8
    19ae:	7f 90       	pop	r7
    19b0:	6f 90       	pop	r6
    19b2:	5f 90       	pop	r5
    19b4:	4f 90       	pop	r4
    19b6:	3f 90       	pop	r3
    19b8:	2f 90       	pop	r2
    19ba:	08 95       	ret

000019bc <_Z9leg_climbP7LegData>:
    19bc:	2f 92       	push	r2
    19be:	3f 92       	push	r3
    19c0:	4f 92       	push	r4
    19c2:	5f 92       	push	r5
    19c4:	6f 92       	push	r6
    19c6:	7f 92       	push	r7
    19c8:	8f 92       	push	r8
    19ca:	9f 92       	push	r9
    19cc:	af 92       	push	r10
    19ce:	bf 92       	push	r11
    19d0:	cf 92       	push	r12
    19d2:	df 92       	push	r13
    19d4:	ef 92       	push	r14
    19d6:	ff 92       	push	r15
    19d8:	0f 93       	push	r16
    19da:	1f 93       	push	r17
    19dc:	cf 93       	push	r28
    19de:	df 93       	push	r29
    19e0:	cd b7       	in	r28, 0x3d	; 61
    19e2:	de b7       	in	r29, 0x3e	; 62
    19e4:	28 97       	sbiw	r28, 0x08	; 8
    19e6:	0f b6       	in	r0, 0x3f	; 63
    19e8:	f8 94       	cli
    19ea:	de bf       	out	0x3e, r29	; 62
    19ec:	0f be       	out	0x3f, r0	; 63
    19ee:	cd bf       	out	0x3d, r28	; 61
    19f0:	98 87       	std	Y+8, r25	; 0x08
    19f2:	8f 83       	std	Y+7, r24	; 0x07
    19f4:	20 91 10 19 	lds	r18, 0x1910
    19f8:	30 91 11 19 	lds	r19, 0x1911
    19fc:	40 91 12 19 	lds	r20, 0x1912
    1a00:	50 91 13 19 	lds	r21, 0x1913
    1a04:	60 91 aa 15 	lds	r22, 0x15AA
    1a08:	70 91 ab 15 	lds	r23, 0x15AB
    1a0c:	80 91 ac 15 	lds	r24, 0x15AC
    1a10:	90 91 ad 15 	lds	r25, 0x15AD
    1a14:	0e 94 e5 31 	call	0x63ca	; 0x63ca <__addsf3>
    1a18:	20 e0       	ldi	r18, 0x00	; 0
    1a1a:	30 e0       	ldi	r19, 0x00	; 0
    1a1c:	40 ef       	ldi	r20, 0xF0	; 240
    1a1e:	51 e4       	ldi	r21, 0x41	; 65
    1a20:	0e 94 e5 31 	call	0x63ca	; 0x63ca <__addsf3>
    1a24:	e6 2f       	mov	r30, r22
    1a26:	f7 2f       	mov	r31, r23
    1a28:	08 2f       	mov	r16, r24
    1a2a:	19 2f       	mov	r17, r25
    1a2c:	98 2f       	mov	r25, r24
    1a2e:	4e 2f       	mov	r20, r30
    1a30:	5f 2f       	mov	r21, r31
    1a32:	69 2f       	mov	r22, r25
    1a34:	71 2f       	mov	r23, r17
    1a36:	40 93 ae 15 	sts	0x15AE, r20
    1a3a:	50 93 af 15 	sts	0x15AF, r21
    1a3e:	60 93 b0 15 	sts	0x15B0, r22
    1a42:	70 93 b1 15 	sts	0x15B1, r23
    1a46:	af 81       	ldd	r26, Y+7	; 0x07
    1a48:	b8 85       	ldd	r27, Y+8	; 0x08
    1a4a:	54 96       	adiw	r26, 0x14	; 20
    1a4c:	6d 91       	ld	r22, X+
    1a4e:	7d 91       	ld	r23, X+
    1a50:	8d 91       	ld	r24, X+
    1a52:	9c 91       	ld	r25, X
    1a54:	57 97       	sbiw	r26, 0x17	; 23
    1a56:	60 93 b6 15 	sts	0x15B6, r22
    1a5a:	70 93 b7 15 	sts	0x15B7, r23
    1a5e:	80 93 b8 15 	sts	0x15B8, r24
    1a62:	90 93 b9 15 	sts	0x15B9, r25
    1a66:	58 96       	adiw	r26, 0x18	; 24
    1a68:	2d 91       	ld	r18, X+
    1a6a:	3d 91       	ld	r19, X+
    1a6c:	4d 91       	ld	r20, X+
    1a6e:	5c 91       	ld	r21, X
    1a70:	5b 97       	sbiw	r26, 0x1b	; 27
    1a72:	20 93 b2 15 	sts	0x15B2, r18
    1a76:	30 93 b3 15 	sts	0x15B3, r19
    1a7a:	40 93 b4 15 	sts	0x15B4, r20
    1a7e:	50 93 b5 15 	sts	0x15B5, r21
    1a82:	ee 2e       	mov	r14, r30
    1a84:	ff 2e       	mov	r15, r31
    1a86:	0e 94 21 20 	call	0x4042	; 0x4042 <_Z6calc_dfff>
    1a8a:	20 91 b2 15 	lds	r18, 0x15B2
    1a8e:	30 91 b3 15 	lds	r19, 0x15B3
    1a92:	40 91 b4 15 	lds	r20, 0x15B4
    1a96:	50 91 b5 15 	lds	r21, 0x15B5
    1a9a:	60 91 b6 15 	lds	r22, 0x15B6
    1a9e:	70 91 b7 15 	lds	r23, 0x15B7
    1aa2:	80 91 b8 15 	lds	r24, 0x15B8
    1aa6:	90 91 b9 15 	lds	r25, 0x15B9
    1aaa:	0e 94 82 20 	call	0x4104	; 0x4104 <_Z9get_gammaff>
    1aae:	cf 80       	ldd	r12, Y+7	; 0x07
    1ab0:	d8 84       	ldd	r13, Y+8	; 0x08
    1ab2:	bc e4       	ldi	r27, 0x4C	; 76
    1ab4:	cb 0e       	add	r12, r27
    1ab6:	d1 1c       	adc	r13, r1
    1ab8:	f6 01       	movw	r30, r12
    1aba:	60 83       	st	Z, r22
    1abc:	71 83       	std	Z+1, r23	; 0x01
    1abe:	82 83       	std	Z+2, r24	; 0x02
    1ac0:	93 83       	std	Z+3, r25	; 0x03
    1ac2:	0e 94 a5 20 	call	0x414a	; 0x414a <_Z8get_betav>
    1ac6:	ef 80       	ldd	r14, Y+7	; 0x07
    1ac8:	f8 84       	ldd	r15, Y+8	; 0x08
    1aca:	f0 e5       	ldi	r31, 0x50	; 80
    1acc:	ef 0e       	add	r14, r31
    1ace:	f1 1c       	adc	r15, r1
    1ad0:	d7 01       	movw	r26, r14
    1ad2:	6d 93       	st	X+, r22
    1ad4:	7d 93       	st	X+, r23
    1ad6:	8d 93       	st	X+, r24
    1ad8:	9c 93       	st	X, r25
    1ada:	13 97       	sbiw	r26, 0x03	; 3
    1adc:	60 91 ae 15 	lds	r22, 0x15AE
    1ae0:	70 91 af 15 	lds	r23, 0x15AF
    1ae4:	80 91 b0 15 	lds	r24, 0x15B0
    1ae8:	90 91 b1 15 	lds	r25, 0x15B1
    1aec:	0e 94 da 20 	call	0x41b4	; 0x41b4 <_Z9get_alphaf>
    1af0:	ef 81       	ldd	r30, Y+7	; 0x07
    1af2:	f8 85       	ldd	r31, Y+8	; 0x08
    1af4:	ec 5a       	subi	r30, 0xAC	; 172
    1af6:	ff 4f       	sbci	r31, 0xFF	; 255
    1af8:	60 83       	st	Z, r22
    1afa:	71 83       	std	Z+1, r23	; 0x01
    1afc:	82 83       	std	Z+2, r24	; 0x02
    1afe:	93 83       	std	Z+3, r25	; 0x03
    1b00:	ef 81       	ldd	r30, Y+7	; 0x07
    1b02:	f8 85       	ldd	r31, Y+8	; 0x08
    1b04:	40 80       	ld	r4, Z
    1b06:	51 80       	ldd	r5, Z+1	; 0x01
    1b08:	62 80       	ldd	r6, Z+2	; 0x02
    1b0a:	73 80       	ldd	r7, Z+3	; 0x03
    1b0c:	2e ed       	ldi	r18, 0xDE	; 222
    1b0e:	34 e2       	ldi	r19, 0x24	; 36
    1b10:	46 e0       	ldi	r20, 0x06	; 6
    1b12:	5e e3       	ldi	r21, 0x3E	; 62
    1b14:	0e 94 e5 31 	call	0x63ca	; 0x63ca <__addsf3>
    1b18:	9b 01       	movw	r18, r22
    1b1a:	ac 01       	movw	r20, r24
    1b1c:	c3 01       	movw	r24, r6
    1b1e:	b2 01       	movw	r22, r4
    1b20:	0e 94 24 35 	call	0x6a48	; 0x6a48 <__mulsf3>
    1b24:	86 2e       	mov	r8, r22
    1b26:	97 2e       	mov	r9, r23
    1b28:	a8 2e       	mov	r10, r24
    1b2a:	b9 2e       	mov	r11, r25
    1b2c:	ef 81       	ldd	r30, Y+7	; 0x07
    1b2e:	f8 85       	ldd	r31, Y+8	; 0x08
    1b30:	e2 58       	subi	r30, 0x82	; 130
    1b32:	ff 4f       	sbci	r31, 0xFF	; 255
    1b34:	86 2f       	mov	r24, r22
    1b36:	99 2d       	mov	r25, r9
    1b38:	aa 2d       	mov	r26, r10
    1b3a:	bb 2d       	mov	r27, r11
    1b3c:	80 83       	st	Z, r24
    1b3e:	91 83       	std	Z+1, r25	; 0x01
    1b40:	a2 83       	std	Z+2, r26	; 0x02
    1b42:	b3 83       	std	Z+3, r27	; 0x03
    1b44:	0f 81       	ldd	r16, Y+7	; 0x07
    1b46:	18 85       	ldd	r17, Y+8	; 0x08
    1b48:	0e 57       	subi	r16, 0x7E	; 126
    1b4a:	1f 4f       	sbci	r17, 0xFF	; 255
    1b4c:	d7 01       	movw	r26, r14
    1b4e:	2d 91       	ld	r18, X+
    1b50:	3d 91       	ld	r19, X+
    1b52:	4d 91       	ld	r20, X+
    1b54:	5c 91       	ld	r21, X
    1b56:	6b e3       	ldi	r22, 0x3B	; 59
    1b58:	7f ed       	ldi	r23, 0xDF	; 223
    1b5a:	8f e0       	ldi	r24, 0x0F	; 15
    1b5c:	9f e3       	ldi	r25, 0x3F	; 63
    1b5e:	0e 94 e4 31 	call	0x63c8	; 0x63c8 <__subsf3>
    1b62:	9b 01       	movw	r18, r22
    1b64:	ac 01       	movw	r20, r24
    1b66:	c3 01       	movw	r24, r6
    1b68:	b2 01       	movw	r22, r4
    1b6a:	0e 94 24 35 	call	0x6a48	; 0x6a48 <__mulsf3>
    1b6e:	f8 01       	movw	r30, r16
    1b70:	60 83       	st	Z, r22
    1b72:	71 83       	std	Z+1, r23	; 0x01
    1b74:	82 83       	std	Z+2, r24	; 0x02
    1b76:	93 83       	std	Z+3, r25	; 0x03
    1b78:	ef 80       	ldd	r14, Y+7	; 0x07
    1b7a:	f8 84       	ldd	r15, Y+8	; 0x08
    1b7c:	f6 e8       	ldi	r31, 0x86	; 134
    1b7e:	ef 0e       	add	r14, r31
    1b80:	f1 1c       	adc	r15, r1
    1b82:	f6 01       	movw	r30, r12
    1b84:	80 81       	ld	r24, Z
    1b86:	91 81       	ldd	r25, Z+1	; 0x01
    1b88:	a2 81       	ldd	r26, Z+2	; 0x02
    1b8a:	b3 81       	ldd	r27, Z+3	; 0x03
    1b8c:	f7 01       	movw	r30, r14
    1b8e:	80 83       	st	Z, r24
    1b90:	91 83       	std	Z+1, r25	; 0x01
    1b92:	a2 83       	std	Z+2, r26	; 0x02
    1b94:	b3 83       	std	Z+3, r27	; 0x03
    1b96:	ef 81       	ldd	r30, Y+7	; 0x07
    1b98:	f8 85       	ldd	r31, Y+8	; 0x08
    1b9a:	e4 5a       	subi	r30, 0xA4	; 164
    1b9c:	ff 4f       	sbci	r31, 0xFF	; 255
    1b9e:	24 e6       	ldi	r18, 0x64	; 100
    1ba0:	30 e0       	ldi	r19, 0x00	; 0
    1ba2:	48 2d       	mov	r20, r8
    1ba4:	59 2d       	mov	r21, r9
    1ba6:	6a 2d       	mov	r22, r10
    1ba8:	7b 2d       	mov	r23, r11
    1baa:	80 81       	ld	r24, Z
    1bac:	0e 94 c3 2d 	call	0x5b86	; 0x5b86 <_Z10SERVO_gotohdj>
    1bb0:	d8 01       	movw	r26, r16
    1bb2:	4d 91       	ld	r20, X+
    1bb4:	5d 91       	ld	r21, X+
    1bb6:	6d 91       	ld	r22, X+
    1bb8:	7c 91       	ld	r23, X
    1bba:	ef 81       	ldd	r30, Y+7	; 0x07
    1bbc:	f8 85       	ldd	r31, Y+8	; 0x08
    1bbe:	e6 5a       	subi	r30, 0xA6	; 166
    1bc0:	ff 4f       	sbci	r31, 0xFF	; 255
    1bc2:	24 e6       	ldi	r18, 0x64	; 100
    1bc4:	30 e0       	ldi	r19, 0x00	; 0
    1bc6:	80 81       	ld	r24, Z
    1bc8:	0e 94 c3 2d 	call	0x5b86	; 0x5b86 <_Z10SERVO_gotohdj>
    1bcc:	bf ef       	ldi	r27, 0xFF	; 255
    1bce:	ef e0       	ldi	r30, 0x0F	; 15
    1bd0:	f7 e2       	ldi	r31, 0x27	; 39
    1bd2:	b1 50       	subi	r27, 0x01	; 1
    1bd4:	e0 40       	sbci	r30, 0x00	; 0
    1bd6:	f0 40       	sbci	r31, 0x00	; 0
    1bd8:	e1 f7       	brne	.-8      	; 0x1bd2 <_Z9leg_climbP7LegData+0x216>
    1bda:	00 c0       	rjmp	.+0      	; 0x1bdc <_Z9leg_climbP7LegData+0x220>
    1bdc:	00 00       	nop
    1bde:	d7 01       	movw	r26, r14
    1be0:	4d 91       	ld	r20, X+
    1be2:	5d 91       	ld	r21, X+
    1be4:	6d 91       	ld	r22, X+
    1be6:	7c 91       	ld	r23, X
    1be8:	ef 81       	ldd	r30, Y+7	; 0x07
    1bea:	f8 85       	ldd	r31, Y+8	; 0x08
    1bec:	e8 5a       	subi	r30, 0xA8	; 168
    1bee:	ff 4f       	sbci	r31, 0xFF	; 255
    1bf0:	24 e6       	ldi	r18, 0x64	; 100
    1bf2:	30 e0       	ldi	r19, 0x00	; 0
    1bf4:	80 81       	ld	r24, Z
    1bf6:	0e 94 c3 2d 	call	0x5b86	; 0x5b86 <_Z10SERVO_gotohdj>
    1bfa:	bf ef       	ldi	r27, 0xFF	; 255
    1bfc:	e7 e8       	ldi	r30, 0x87	; 135
    1bfe:	f3 e1       	ldi	r31, 0x13	; 19
    1c00:	b1 50       	subi	r27, 0x01	; 1
    1c02:	e0 40       	sbci	r30, 0x00	; 0
    1c04:	f0 40       	sbci	r31, 0x00	; 0
    1c06:	e1 f7       	brne	.-8      	; 0x1c00 <_Z9leg_climbP7LegData+0x244>
    1c08:	00 c0       	rjmp	.+0      	; 0x1c0a <_Z9leg_climbP7LegData+0x24e>
    1c0a:	00 00       	nop
    1c0c:	80 91 0e 19 	lds	r24, 0x190E
    1c10:	90 91 0f 19 	lds	r25, 0x190F
    1c14:	89 2b       	or	r24, r25
    1c16:	09 f4       	brne	.+2      	; 0x1c1a <_Z9leg_climbP7LegData+0x25e>
    1c18:	5b c0       	rjmp	.+182    	; 0x1cd0 <_Z9leg_climbP7LegData+0x314>
    1c1a:	20 91 aa 15 	lds	r18, 0x15AA
    1c1e:	30 91 ab 15 	lds	r19, 0x15AB
    1c22:	40 91 ac 15 	lds	r20, 0x15AC
    1c26:	50 91 ad 15 	lds	r21, 0x15AD
    1c2a:	60 91 10 19 	lds	r22, 0x1910
    1c2e:	70 91 11 19 	lds	r23, 0x1911
    1c32:	80 91 12 19 	lds	r24, 0x1912
    1c36:	90 91 13 19 	lds	r25, 0x1913
    1c3a:	0e 94 e5 31 	call	0x63ca	; 0x63ca <__addsf3>
    1c3e:	a6 2f       	mov	r26, r22
    1c40:	b7 2f       	mov	r27, r23
    1c42:	46 2f       	mov	r20, r22
    1c44:	57 2f       	mov	r21, r23
    1c46:	68 2f       	mov	r22, r24
    1c48:	79 2f       	mov	r23, r25
    1c4a:	40 93 ae 15 	sts	0x15AE, r20
    1c4e:	50 93 af 15 	sts	0x15AF, r21
    1c52:	60 93 b0 15 	sts	0x15B0, r22
    1c56:	70 93 b1 15 	sts	0x15B1, r23
    1c5a:	ef 81       	ldd	r30, Y+7	; 0x07
    1c5c:	f8 85       	ldd	r31, Y+8	; 0x08
    1c5e:	e8 5a       	subi	r30, 0xA8	; 168
    1c60:	ff 4f       	sbci	r31, 0xFF	; 255
    1c62:	20 81       	ld	r18, Z
    1c64:	31 81       	ldd	r19, Z+1	; 0x01
    1c66:	27 30       	cpi	r18, 0x07	; 7
    1c68:	31 05       	cpc	r19, r1
    1c6a:	f1 f0       	breq	.+60     	; 0x1ca8 <_Z9leg_climbP7LegData+0x2ec>
    1c6c:	44 f4       	brge	.+16     	; 0x1c7e <_Z9leg_climbP7LegData+0x2c2>
    1c6e:	21 30       	cpi	r18, 0x01	; 1
    1c70:	31 05       	cpc	r19, r1
    1c72:	81 f0       	breq	.+32     	; 0x1c94 <_Z9leg_climbP7LegData+0x2d8>
    1c74:	22 30       	cpi	r18, 0x02	; 2
    1c76:	31 05       	cpc	r19, r1
    1c78:	09 f0       	breq	.+2      	; 0x1c7c <_Z9leg_climbP7LegData+0x2c0>
    1c7a:	d6 c2       	rjmp	.+1452   	; 0x2228 <_Z9leg_climbP7LegData+0x86c>
    1c7c:	10 c0       	rjmp	.+32     	; 0x1c9e <_Z9leg_climbP7LegData+0x2e2>
    1c7e:	2d 30       	cpi	r18, 0x0D	; 13
    1c80:	31 05       	cpc	r19, r1
    1c82:	e1 f0       	breq	.+56     	; 0x1cbc <_Z9leg_climbP7LegData+0x300>
    1c84:	2e 30       	cpi	r18, 0x0E	; 14
    1c86:	31 05       	cpc	r19, r1
    1c88:	f1 f0       	breq	.+60     	; 0x1cc6 <_Z9leg_climbP7LegData+0x30a>
    1c8a:	28 30       	cpi	r18, 0x08	; 8
    1c8c:	31 05       	cpc	r19, r1
    1c8e:	09 f0       	breq	.+2      	; 0x1c92 <_Z9leg_climbP7LegData+0x2d6>
    1c90:	cb c2       	rjmp	.+1430   	; 0x2228 <_Z9leg_climbP7LegData+0x86c>
    1c92:	0f c0       	rjmp	.+30     	; 0x1cb2 <_Z9leg_climbP7LegData+0x2f6>
    1c94:	6a 2f       	mov	r22, r26
    1c96:	7b 2f       	mov	r23, r27
    1c98:	0e 94 82 1e 	call	0x3d04	; 0x3d04 <_Z18height_change_leg1f>
    1c9c:	c5 c2       	rjmp	.+1418   	; 0x2228 <_Z9leg_climbP7LegData+0x86c>
    1c9e:	6a 2f       	mov	r22, r26
    1ca0:	7b 2f       	mov	r23, r27
    1ca2:	0e 94 30 1f 	call	0x3e60	; 0x3e60 <_Z18height_change_leg4f>
    1ca6:	c0 c2       	rjmp	.+1408   	; 0x2228 <_Z9leg_climbP7LegData+0x86c>
    1ca8:	6a 2f       	mov	r22, r26
    1caa:	7b 2f       	mov	r23, r27
    1cac:	0e 94 7e 1f 	call	0x3efc	; 0x3efc <_Z18height_change_leg5f>
    1cb0:	bb c2       	rjmp	.+1398   	; 0x2228 <_Z9leg_climbP7LegData+0x86c>
    1cb2:	6a 2f       	mov	r22, r26
    1cb4:	7b 2f       	mov	r23, r27
    1cb6:	0e 94 9d 1f 	call	0x3f3a	; 0x3f3a <_Z18height_change_leg6f>
    1cba:	b6 c2       	rjmp	.+1388   	; 0x2228 <_Z9leg_climbP7LegData+0x86c>
    1cbc:	6a 2f       	mov	r22, r26
    1cbe:	7b 2f       	mov	r23, r27
    1cc0:	0e 94 cc 1e 	call	0x3d98	; 0x3d98 <_Z18height_change_leg2f>
    1cc4:	b1 c2       	rjmp	.+1378   	; 0x2228 <_Z9leg_climbP7LegData+0x86c>
    1cc6:	6a 2f       	mov	r22, r26
    1cc8:	7b 2f       	mov	r23, r27
    1cca:	0e 94 ec 1e 	call	0x3dd8	; 0x3dd8 <_Z18height_change_leg3f>
    1cce:	ac c2       	rjmp	.+1368   	; 0x2228 <_Z9leg_climbP7LegData+0x86c>
    1cd0:	20 91 10 19 	lds	r18, 0x1910
    1cd4:	30 91 11 19 	lds	r19, 0x1911
    1cd8:	40 91 12 19 	lds	r20, 0x1912
    1cdc:	50 91 13 19 	lds	r21, 0x1913
    1ce0:	60 91 aa 15 	lds	r22, 0x15AA
    1ce4:	70 91 ab 15 	lds	r23, 0x15AB
    1ce8:	80 91 ac 15 	lds	r24, 0x15AC
    1cec:	90 91 ad 15 	lds	r25, 0x15AD
    1cf0:	0e 94 e5 31 	call	0x63ca	; 0x63ca <__addsf3>
    1cf4:	20 e0       	ldi	r18, 0x00	; 0
    1cf6:	30 e0       	ldi	r19, 0x00	; 0
    1cf8:	40 ef       	ldi	r20, 0xF0	; 240
    1cfa:	51 e4       	ldi	r21, 0x41	; 65
    1cfc:	0e 94 e5 31 	call	0x63ca	; 0x63ca <__addsf3>
    1d00:	a6 2f       	mov	r26, r22
    1d02:	b7 2f       	mov	r27, r23
    1d04:	46 2f       	mov	r20, r22
    1d06:	57 2f       	mov	r21, r23
    1d08:	68 2f       	mov	r22, r24
    1d0a:	79 2f       	mov	r23, r25
    1d0c:	40 93 ae 15 	sts	0x15AE, r20
    1d10:	50 93 af 15 	sts	0x15AF, r21
    1d14:	60 93 b0 15 	sts	0x15B0, r22
    1d18:	70 93 b1 15 	sts	0x15B1, r23
    1d1c:	ef 81       	ldd	r30, Y+7	; 0x07
    1d1e:	f8 85       	ldd	r31, Y+8	; 0x08
    1d20:	e8 5a       	subi	r30, 0xA8	; 168
    1d22:	ff 4f       	sbci	r31, 0xFF	; 255
    1d24:	20 81       	ld	r18, Z
    1d26:	31 81       	ldd	r19, Z+1	; 0x01
    1d28:	27 30       	cpi	r18, 0x07	; 7
    1d2a:	31 05       	cpc	r19, r1
    1d2c:	e1 f0       	breq	.+56     	; 0x1d66 <_Z9leg_climbP7LegData+0x3aa>
    1d2e:	3c f4       	brge	.+14     	; 0x1d3e <_Z9leg_climbP7LegData+0x382>
    1d30:	21 30       	cpi	r18, 0x01	; 1
    1d32:	31 05       	cpc	r19, r1
    1d34:	71 f0       	breq	.+28     	; 0x1d52 <_Z9leg_climbP7LegData+0x396>
    1d36:	22 30       	cpi	r18, 0x02	; 2
    1d38:	31 05       	cpc	r19, r1
    1d3a:	41 f5       	brne	.+80     	; 0x1d8c <_Z9leg_climbP7LegData+0x3d0>
    1d3c:	0f c0       	rjmp	.+30     	; 0x1d5c <_Z9leg_climbP7LegData+0x3a0>
    1d3e:	2d 30       	cpi	r18, 0x0D	; 13
    1d40:	31 05       	cpc	r19, r1
    1d42:	d9 f0       	breq	.+54     	; 0x1d7a <_Z9leg_climbP7LegData+0x3be>
    1d44:	2e 30       	cpi	r18, 0x0E	; 14
    1d46:	31 05       	cpc	r19, r1
    1d48:	e9 f0       	breq	.+58     	; 0x1d84 <_Z9leg_climbP7LegData+0x3c8>
    1d4a:	28 30       	cpi	r18, 0x08	; 8
    1d4c:	31 05       	cpc	r19, r1
    1d4e:	f1 f4       	brne	.+60     	; 0x1d8c <_Z9leg_climbP7LegData+0x3d0>
    1d50:	0f c0       	rjmp	.+30     	; 0x1d70 <_Z9leg_climbP7LegData+0x3b4>
    1d52:	6a 2f       	mov	r22, r26
    1d54:	7b 2f       	mov	r23, r27
    1d56:	0e 94 82 1e 	call	0x3d04	; 0x3d04 <_Z18height_change_leg1f>
    1d5a:	18 c0       	rjmp	.+48     	; 0x1d8c <_Z9leg_climbP7LegData+0x3d0>
    1d5c:	6a 2f       	mov	r22, r26
    1d5e:	7b 2f       	mov	r23, r27
    1d60:	0e 94 30 1f 	call	0x3e60	; 0x3e60 <_Z18height_change_leg4f>
    1d64:	13 c0       	rjmp	.+38     	; 0x1d8c <_Z9leg_climbP7LegData+0x3d0>
    1d66:	6a 2f       	mov	r22, r26
    1d68:	7b 2f       	mov	r23, r27
    1d6a:	0e 94 7e 1f 	call	0x3efc	; 0x3efc <_Z18height_change_leg5f>
    1d6e:	0e c0       	rjmp	.+28     	; 0x1d8c <_Z9leg_climbP7LegData+0x3d0>
    1d70:	6a 2f       	mov	r22, r26
    1d72:	7b 2f       	mov	r23, r27
    1d74:	0e 94 9d 1f 	call	0x3f3a	; 0x3f3a <_Z18height_change_leg6f>
    1d78:	09 c0       	rjmp	.+18     	; 0x1d8c <_Z9leg_climbP7LegData+0x3d0>
    1d7a:	6a 2f       	mov	r22, r26
    1d7c:	7b 2f       	mov	r23, r27
    1d7e:	0e 94 cc 1e 	call	0x3d98	; 0x3d98 <_Z18height_change_leg2f>
    1d82:	04 c0       	rjmp	.+8      	; 0x1d8c <_Z9leg_climbP7LegData+0x3d0>
    1d84:	6a 2f       	mov	r22, r26
    1d86:	7b 2f       	mov	r23, r27
    1d88:	0e 94 ec 1e 	call	0x3dd8	; 0x3dd8 <_Z18height_change_leg3f>
    1d8c:	af 81       	ldd	r26, Y+7	; 0x07
    1d8e:	b8 85       	ldd	r27, Y+8	; 0x08
    1d90:	54 96       	adiw	r26, 0x14	; 20
    1d92:	6d 91       	ld	r22, X+
    1d94:	7d 91       	ld	r23, X+
    1d96:	8d 91       	ld	r24, X+
    1d98:	9c 91       	ld	r25, X
    1d9a:	57 97       	sbiw	r26, 0x17	; 23
    1d9c:	60 93 b6 15 	sts	0x15B6, r22
    1da0:	70 93 b7 15 	sts	0x15B7, r23
    1da4:	80 93 b8 15 	sts	0x15B8, r24
    1da8:	90 93 b9 15 	sts	0x15B9, r25
    1dac:	58 96       	adiw	r26, 0x18	; 24
    1dae:	2d 91       	ld	r18, X+
    1db0:	3d 91       	ld	r19, X+
    1db2:	4d 91       	ld	r20, X+
    1db4:	5c 91       	ld	r21, X
    1db6:	5b 97       	sbiw	r26, 0x1b	; 27
    1db8:	20 93 b2 15 	sts	0x15B2, r18
    1dbc:	30 93 b3 15 	sts	0x15B3, r19
    1dc0:	40 93 b4 15 	sts	0x15B4, r20
    1dc4:	50 93 b5 15 	sts	0x15B5, r21
    1dc8:	e0 90 ae 15 	lds	r14, 0x15AE
    1dcc:	f0 90 af 15 	lds	r15, 0x15AF
    1dd0:	00 91 b0 15 	lds	r16, 0x15B0
    1dd4:	10 91 b1 15 	lds	r17, 0x15B1
    1dd8:	0e 94 21 20 	call	0x4042	; 0x4042 <_Z6calc_dfff>
    1ddc:	0e 94 a5 20 	call	0x414a	; 0x414a <_Z8get_betav>
    1de0:	af 80       	ldd	r10, Y+7	; 0x07
    1de2:	b8 84       	ldd	r11, Y+8	; 0x08
    1de4:	b0 e5       	ldi	r27, 0x50	; 80
    1de6:	ab 0e       	add	r10, r27
    1de8:	b1 1c       	adc	r11, r1
    1dea:	f5 01       	movw	r30, r10
    1dec:	60 83       	st	Z, r22
    1dee:	71 83       	std	Z+1, r23	; 0x01
    1df0:	82 83       	std	Z+2, r24	; 0x02
    1df2:	93 83       	std	Z+3, r25	; 0x03
    1df4:	60 91 ae 15 	lds	r22, 0x15AE
    1df8:	70 91 af 15 	lds	r23, 0x15AF
    1dfc:	80 91 b0 15 	lds	r24, 0x15B0
    1e00:	90 91 b1 15 	lds	r25, 0x15B1
    1e04:	0e 94 da 20 	call	0x41b4	; 0x41b4 <_Z9get_alphaf>
    1e08:	ef 81       	ldd	r30, Y+7	; 0x07
    1e0a:	f8 85       	ldd	r31, Y+8	; 0x08
    1e0c:	ec 5a       	subi	r30, 0xAC	; 172
    1e0e:	ff 4f       	sbci	r31, 0xFF	; 255
    1e10:	60 83       	st	Z, r22
    1e12:	71 83       	std	Z+1, r23	; 0x01
    1e14:	82 83       	std	Z+2, r24	; 0x02
    1e16:	93 83       	std	Z+3, r25	; 0x03
    1e18:	af 81       	ldd	r26, Y+7	; 0x07
    1e1a:	b8 85       	ldd	r27, Y+8	; 0x08
    1e1c:	cd 90       	ld	r12, X+
    1e1e:	dd 90       	ld	r13, X+
    1e20:	ed 90       	ld	r14, X+
    1e22:	fc 90       	ld	r15, X
    1e24:	2e ed       	ldi	r18, 0xDE	; 222
    1e26:	34 e2       	ldi	r19, 0x24	; 36
    1e28:	46 e0       	ldi	r20, 0x06	; 6
    1e2a:	5e e3       	ldi	r21, 0x3E	; 62
    1e2c:	0e 94 e5 31 	call	0x63ca	; 0x63ca <__addsf3>
    1e30:	9b 01       	movw	r18, r22
    1e32:	ac 01       	movw	r20, r24
    1e34:	c7 01       	movw	r24, r14
    1e36:	b6 01       	movw	r22, r12
    1e38:	0e 94 24 35 	call	0x6a48	; 0x6a48 <__mulsf3>
    1e3c:	66 2e       	mov	r6, r22
    1e3e:	77 2e       	mov	r7, r23
    1e40:	88 2e       	mov	r8, r24
    1e42:	99 2e       	mov	r9, r25
    1e44:	ef 81       	ldd	r30, Y+7	; 0x07
    1e46:	f8 85       	ldd	r31, Y+8	; 0x08
    1e48:	e2 58       	subi	r30, 0x82	; 130
    1e4a:	ff 4f       	sbci	r31, 0xFF	; 255
    1e4c:	86 2f       	mov	r24, r22
    1e4e:	97 2d       	mov	r25, r7
    1e50:	a8 2d       	mov	r26, r8
    1e52:	b9 2d       	mov	r27, r9
    1e54:	80 83       	st	Z, r24
    1e56:	91 83       	std	Z+1, r25	; 0x01
    1e58:	a2 83       	std	Z+2, r26	; 0x02
    1e5a:	b3 83       	std	Z+3, r27	; 0x03
    1e5c:	0f 81       	ldd	r16, Y+7	; 0x07
    1e5e:	18 85       	ldd	r17, Y+8	; 0x08
    1e60:	0e 57       	subi	r16, 0x7E	; 126
    1e62:	1f 4f       	sbci	r17, 0xFF	; 255
    1e64:	f5 01       	movw	r30, r10
    1e66:	20 81       	ld	r18, Z
    1e68:	31 81       	ldd	r19, Z+1	; 0x01
    1e6a:	42 81       	ldd	r20, Z+2	; 0x02
    1e6c:	53 81       	ldd	r21, Z+3	; 0x03
    1e6e:	6b e3       	ldi	r22, 0x3B	; 59
    1e70:	7f ed       	ldi	r23, 0xDF	; 223
    1e72:	8f e0       	ldi	r24, 0x0F	; 15
    1e74:	9f e3       	ldi	r25, 0x3F	; 63
    1e76:	0e 94 e4 31 	call	0x63c8	; 0x63c8 <__subsf3>
    1e7a:	9b 01       	movw	r18, r22
    1e7c:	ac 01       	movw	r20, r24
    1e7e:	c7 01       	movw	r24, r14
    1e80:	b6 01       	movw	r22, r12
    1e82:	0e 94 24 35 	call	0x6a48	; 0x6a48 <__mulsf3>
    1e86:	d8 01       	movw	r26, r16
    1e88:	6d 93       	st	X+, r22
    1e8a:	7d 93       	st	X+, r23
    1e8c:	8d 93       	st	X+, r24
    1e8e:	9c 93       	st	X, r25
    1e90:	13 97       	sbiw	r26, 0x03	; 3
    1e92:	ef 81       	ldd	r30, Y+7	; 0x07
    1e94:	f8 85       	ldd	r31, Y+8	; 0x08
    1e96:	e4 5a       	subi	r30, 0xA4	; 164
    1e98:	ff 4f       	sbci	r31, 0xFF	; 255
    1e9a:	24 e6       	ldi	r18, 0x64	; 100
    1e9c:	30 e0       	ldi	r19, 0x00	; 0
    1e9e:	46 2d       	mov	r20, r6
    1ea0:	57 2d       	mov	r21, r7
    1ea2:	68 2d       	mov	r22, r8
    1ea4:	79 2d       	mov	r23, r9
    1ea6:	80 81       	ld	r24, Z
    1ea8:	0e 94 c3 2d 	call	0x5b86	; 0x5b86 <_Z10SERVO_gotohdj>
    1eac:	f8 01       	movw	r30, r16
    1eae:	40 81       	ld	r20, Z
    1eb0:	51 81       	ldd	r21, Z+1	; 0x01
    1eb2:	62 81       	ldd	r22, Z+2	; 0x02
    1eb4:	73 81       	ldd	r23, Z+3	; 0x03
    1eb6:	ef 81       	ldd	r30, Y+7	; 0x07
    1eb8:	f8 85       	ldd	r31, Y+8	; 0x08
    1eba:	e6 5a       	subi	r30, 0xA6	; 166
    1ebc:	ff 4f       	sbci	r31, 0xFF	; 255
    1ebe:	24 e6       	ldi	r18, 0x64	; 100
    1ec0:	30 e0       	ldi	r19, 0x00	; 0
    1ec2:	80 81       	ld	r24, Z
    1ec4:	0e 94 c3 2d 	call	0x5b86	; 0x5b86 <_Z10SERVO_gotohdj>
    1ec8:	ff ef       	ldi	r31, 0xFF	; 255
    1eca:	27 e8       	ldi	r18, 0x87	; 135
    1ecc:	83 e1       	ldi	r24, 0x13	; 19
    1ece:	f1 50       	subi	r31, 0x01	; 1
    1ed0:	20 40       	sbci	r18, 0x00	; 0
    1ed2:	80 40       	sbci	r24, 0x00	; 0
    1ed4:	e1 f7       	brne	.-8      	; 0x1ece <_Z9leg_climbP7LegData+0x512>
    1ed6:	00 c0       	rjmp	.+0      	; 0x1ed8 <_Z9leg_climbP7LegData+0x51c>
    1ed8:	00 00       	nop
    1eda:	af 80       	ldd	r10, Y+7	; 0x07
    1edc:	b8 84       	ldd	r11, Y+8	; 0x08
    1ede:	90 e5       	ldi	r25, 0x50	; 80
    1ee0:	a9 0e       	add	r10, r25
    1ee2:	b1 1c       	adc	r11, r1
    1ee4:	8f 80       	ldd	r8, Y+7	; 0x07
    1ee6:	98 84       	ldd	r9, Y+8	; 0x08
    1ee8:	a4 e5       	ldi	r26, 0x54	; 84
    1eea:	8a 0e       	add	r8, r26
    1eec:	91 1c       	adc	r9, r1
    1eee:	2f 80       	ldd	r2, Y+7	; 0x07
    1ef0:	38 84       	ldd	r3, Y+8	; 0x08
    1ef2:	be e7       	ldi	r27, 0x7E	; 126
    1ef4:	2b 0e       	add	r2, r27
    1ef6:	31 1c       	adc	r3, r1
    1ef8:	cf 80       	ldd	r12, Y+7	; 0x07
    1efa:	d8 84       	ldd	r13, Y+8	; 0x08
    1efc:	e2 e8       	ldi	r30, 0x82	; 130
    1efe:	ce 0e       	add	r12, r30
    1f00:	d1 1c       	adc	r13, r1
    1f02:	8f 81       	ldd	r24, Y+7	; 0x07
    1f04:	98 85       	ldd	r25, Y+8	; 0x08
    1f06:	84 5a       	subi	r24, 0xA4	; 164
    1f08:	9f 4f       	sbci	r25, 0xFF	; 255
    1f0a:	9a 83       	std	Y+2, r25	; 0x02
    1f0c:	89 83       	std	Y+1, r24	; 0x01
    1f0e:	af 81       	ldd	r26, Y+7	; 0x07
    1f10:	b8 85       	ldd	r27, Y+8	; 0x08
    1f12:	a6 5a       	subi	r26, 0xA6	; 166
    1f14:	bf 4f       	sbci	r27, 0xFF	; 255
    1f16:	bc 83       	std	Y+4, r27	; 0x04
    1f18:	ab 83       	std	Y+3, r26	; 0x03
    1f1a:	ef 81       	ldd	r30, Y+7	; 0x07
    1f1c:	f8 85       	ldd	r31, Y+8	; 0x08
    1f1e:	e4 59       	subi	r30, 0x94	; 148
    1f20:	ff 4f       	sbci	r31, 0xFF	; 255
    1f22:	fe 83       	std	Y+6, r31	; 0x06
    1f24:	ed 83       	std	Y+5, r30	; 0x05
    1f26:	20 e0       	ldi	r18, 0x00	; 0
    1f28:	30 e0       	ldi	r19, 0x00	; 0
    1f2a:	40 e2       	ldi	r20, 0x20	; 32
    1f2c:	51 e4       	ldi	r21, 0x41	; 65
    1f2e:	60 91 ae 15 	lds	r22, 0x15AE
    1f32:	70 91 af 15 	lds	r23, 0x15AF
    1f36:	80 91 b0 15 	lds	r24, 0x15B0
    1f3a:	90 91 b1 15 	lds	r25, 0x15B1
    1f3e:	0e 94 e4 31 	call	0x63c8	; 0x63c8 <__subsf3>
    1f42:	16 2f       	mov	r17, r22
    1f44:	07 2f       	mov	r16, r23
    1f46:	f8 2e       	mov	r15, r24
    1f48:	e9 2e       	mov	r14, r25
    1f4a:	86 2f       	mov	r24, r22
    1f4c:	90 2f       	mov	r25, r16
    1f4e:	af 2d       	mov	r26, r15
    1f50:	be 2d       	mov	r27, r14
    1f52:	80 93 ae 15 	sts	0x15AE, r24
    1f56:	90 93 af 15 	sts	0x15AF, r25
    1f5a:	a0 93 b0 15 	sts	0x15B0, r26
    1f5e:	b0 93 b1 15 	sts	0x15B1, r27
    1f62:	20 91 b2 15 	lds	r18, 0x15B2
    1f66:	30 91 b3 15 	lds	r19, 0x15B3
    1f6a:	40 91 b4 15 	lds	r20, 0x15B4
    1f6e:	50 91 b5 15 	lds	r21, 0x15B5
    1f72:	60 91 b6 15 	lds	r22, 0x15B6
    1f76:	70 91 b7 15 	lds	r23, 0x15B7
    1f7a:	80 91 b8 15 	lds	r24, 0x15B8
    1f7e:	90 91 b9 15 	lds	r25, 0x15B9
    1f82:	ff 2d       	mov	r31, r15
    1f84:	ee 2d       	mov	r30, r14
    1f86:	e1 2e       	mov	r14, r17
    1f88:	f0 2e       	mov	r15, r16
    1f8a:	0f 2f       	mov	r16, r31
    1f8c:	1e 2f       	mov	r17, r30
    1f8e:	0e 94 21 20 	call	0x4042	; 0x4042 <_Z6calc_dfff>
    1f92:	0e 94 a5 20 	call	0x414a	; 0x414a <_Z8get_betav>
    1f96:	d5 01       	movw	r26, r10
    1f98:	6d 93       	st	X+, r22
    1f9a:	7d 93       	st	X+, r23
    1f9c:	8d 93       	st	X+, r24
    1f9e:	9c 93       	st	X, r25
    1fa0:	13 97       	sbiw	r26, 0x03	; 3
    1fa2:	60 91 ae 15 	lds	r22, 0x15AE
    1fa6:	70 91 af 15 	lds	r23, 0x15AF
    1faa:	80 91 b0 15 	lds	r24, 0x15B0
    1fae:	90 91 b1 15 	lds	r25, 0x15B1
    1fb2:	0e 94 da 20 	call	0x41b4	; 0x41b4 <_Z9get_alphaf>
    1fb6:	f4 01       	movw	r30, r8
    1fb8:	60 83       	st	Z, r22
    1fba:	71 83       	std	Z+1, r23	; 0x01
    1fbc:	82 83       	std	Z+2, r24	; 0x02
    1fbe:	93 83       	std	Z+3, r25	; 0x03
    1fc0:	af 81       	ldd	r26, Y+7	; 0x07
    1fc2:	b8 85       	ldd	r27, Y+8	; 0x08
    1fc4:	4d 90       	ld	r4, X+
    1fc6:	5d 90       	ld	r5, X+
    1fc8:	6d 90       	ld	r6, X+
    1fca:	7c 90       	ld	r7, X
    1fcc:	2e ed       	ldi	r18, 0xDE	; 222
    1fce:	34 e2       	ldi	r19, 0x24	; 36
    1fd0:	46 e0       	ldi	r20, 0x06	; 6
    1fd2:	5e e3       	ldi	r21, 0x3E	; 62
    1fd4:	0e 94 e5 31 	call	0x63ca	; 0x63ca <__addsf3>
    1fd8:	9b 01       	movw	r18, r22
    1fda:	ac 01       	movw	r20, r24
    1fdc:	c3 01       	movw	r24, r6
    1fde:	b2 01       	movw	r22, r4
    1fe0:	0e 94 24 35 	call	0x6a48	; 0x6a48 <__mulsf3>
    1fe4:	e6 2e       	mov	r14, r22
    1fe6:	f7 2e       	mov	r15, r23
    1fe8:	08 2f       	mov	r16, r24
    1fea:	19 2f       	mov	r17, r25
    1fec:	86 2f       	mov	r24, r22
    1fee:	9f 2d       	mov	r25, r15
    1ff0:	a0 2f       	mov	r26, r16
    1ff2:	b1 2f       	mov	r27, r17
    1ff4:	f1 01       	movw	r30, r2
    1ff6:	80 83       	st	Z, r24
    1ff8:	91 83       	std	Z+1, r25	; 0x01
    1ffa:	a2 83       	std	Z+2, r26	; 0x02
    1ffc:	b3 83       	std	Z+3, r27	; 0x03
    1ffe:	d5 01       	movw	r26, r10
    2000:	2d 91       	ld	r18, X+
    2002:	3d 91       	ld	r19, X+
    2004:	4d 91       	ld	r20, X+
    2006:	5c 91       	ld	r21, X
    2008:	6b e3       	ldi	r22, 0x3B	; 59
    200a:	7f ed       	ldi	r23, 0xDF	; 223
    200c:	8f e0       	ldi	r24, 0x0F	; 15
    200e:	9f e3       	ldi	r25, 0x3F	; 63
    2010:	0e 94 e4 31 	call	0x63c8	; 0x63c8 <__subsf3>
    2014:	9b 01       	movw	r18, r22
    2016:	ac 01       	movw	r20, r24
    2018:	c3 01       	movw	r24, r6
    201a:	b2 01       	movw	r22, r4
    201c:	0e 94 24 35 	call	0x6a48	; 0x6a48 <__mulsf3>
    2020:	f6 01       	movw	r30, r12
    2022:	60 83       	st	Z, r22
    2024:	71 83       	std	Z+1, r23	; 0x01
    2026:	82 83       	std	Z+2, r24	; 0x02
    2028:	93 83       	std	Z+3, r25	; 0x03
    202a:	24 e6       	ldi	r18, 0x64	; 100
    202c:	30 e0       	ldi	r19, 0x00	; 0
    202e:	4e 2d       	mov	r20, r14
    2030:	5f 2d       	mov	r21, r15
    2032:	60 2f       	mov	r22, r16
    2034:	71 2f       	mov	r23, r17
    2036:	a9 81       	ldd	r26, Y+1	; 0x01
    2038:	ba 81       	ldd	r27, Y+2	; 0x02
    203a:	8c 91       	ld	r24, X
    203c:	0e 94 c3 2d 	call	0x5b86	; 0x5b86 <_Z10SERVO_gotohdj>
    2040:	f6 01       	movw	r30, r12
    2042:	40 81       	ld	r20, Z
    2044:	51 81       	ldd	r21, Z+1	; 0x01
    2046:	62 81       	ldd	r22, Z+2	; 0x02
    2048:	73 81       	ldd	r23, Z+3	; 0x03
    204a:	24 e6       	ldi	r18, 0x64	; 100
    204c:	30 e0       	ldi	r19, 0x00	; 0
    204e:	ab 81       	ldd	r26, Y+3	; 0x03
    2050:	bc 81       	ldd	r27, Y+4	; 0x04
    2052:	8c 91       	ld	r24, X
    2054:	0e 94 c3 2d 	call	0x5b86	; 0x5b86 <_Z10SERVO_gotohdj>
    2058:	bf ef       	ldi	r27, 0xFF	; 255
    205a:	e1 ee       	ldi	r30, 0xE1	; 225
    205c:	f4 e0       	ldi	r31, 0x04	; 4
    205e:	b1 50       	subi	r27, 0x01	; 1
    2060:	e0 40       	sbci	r30, 0x00	; 0
    2062:	f0 40       	sbci	r31, 0x00	; 0
    2064:	e1 f7       	brne	.-8      	; 0x205e <_Z9leg_climbP7LegData+0x6a2>
    2066:	00 c0       	rjmp	.+0      	; 0x2068 <_Z9leg_climbP7LegData+0x6ac>
    2068:	00 00       	nop
    206a:	8f 81       	ldd	r24, Y+7	; 0x07
    206c:	98 85       	ldd	r25, Y+8	; 0x08
    206e:	0e 94 98 07 	call	0xf30	; 0xf30 <_Z15update_leg_infoP7LegData>
    2072:	ad 81       	ldd	r26, Y+5	; 0x05
    2074:	be 81       	ldd	r27, Y+6	; 0x06
    2076:	8d 91       	ld	r24, X+
    2078:	9c 91       	ld	r25, X
    207a:	8c 3e       	cpi	r24, 0xEC	; 236
    207c:	91 05       	cpc	r25, r1
    207e:	08 f4       	brcc	.+2      	; 0x2082 <_Z9leg_climbP7LegData+0x6c6>
    2080:	52 cf       	rjmp	.-348    	; 0x1f26 <_Z9leg_climbP7LegData+0x56a>
    2082:	20 e0       	ldi	r18, 0x00	; 0
    2084:	30 e0       	ldi	r19, 0x00	; 0
    2086:	40 ea       	ldi	r20, 0xA0	; 160
    2088:	51 e4       	ldi	r21, 0x41	; 65
    208a:	60 91 ae 15 	lds	r22, 0x15AE
    208e:	70 91 af 15 	lds	r23, 0x15AF
    2092:	80 91 b0 15 	lds	r24, 0x15B0
    2096:	90 91 b1 15 	lds	r25, 0x15B1
    209a:	0e 94 e5 31 	call	0x63ca	; 0x63ca <__addsf3>
    209e:	e6 2f       	mov	r30, r22
    20a0:	f7 2f       	mov	r31, r23
    20a2:	a8 2f       	mov	r26, r24
    20a4:	19 2f       	mov	r17, r25
    20a6:	98 2f       	mov	r25, r24
    20a8:	4e 2f       	mov	r20, r30
    20aa:	5f 2f       	mov	r21, r31
    20ac:	69 2f       	mov	r22, r25
    20ae:	71 2f       	mov	r23, r17
    20b0:	40 93 ae 15 	sts	0x15AE, r20
    20b4:	50 93 af 15 	sts	0x15AF, r21
    20b8:	60 93 b0 15 	sts	0x15B0, r22
    20bc:	70 93 b1 15 	sts	0x15B1, r23
    20c0:	20 91 b2 15 	lds	r18, 0x15B2
    20c4:	30 91 b3 15 	lds	r19, 0x15B3
    20c8:	40 91 b4 15 	lds	r20, 0x15B4
    20cc:	50 91 b5 15 	lds	r21, 0x15B5
    20d0:	60 91 b6 15 	lds	r22, 0x15B6
    20d4:	70 91 b7 15 	lds	r23, 0x15B7
    20d8:	80 91 b8 15 	lds	r24, 0x15B8
    20dc:	90 91 b9 15 	lds	r25, 0x15B9
    20e0:	ee 2e       	mov	r14, r30
    20e2:	ff 2e       	mov	r15, r31
    20e4:	0a 2f       	mov	r16, r26
    20e6:	0e 94 21 20 	call	0x4042	; 0x4042 <_Z6calc_dfff>
    20ea:	0e 94 a5 20 	call	0x414a	; 0x414a <_Z8get_betav>
    20ee:	af 80       	ldd	r10, Y+7	; 0x07
    20f0:	b8 84       	ldd	r11, Y+8	; 0x08
    20f2:	f0 e5       	ldi	r31, 0x50	; 80
    20f4:	af 0e       	add	r10, r31
    20f6:	b1 1c       	adc	r11, r1
    20f8:	d5 01       	movw	r26, r10
    20fa:	6d 93       	st	X+, r22
    20fc:	7d 93       	st	X+, r23
    20fe:	8d 93       	st	X+, r24
    2100:	9c 93       	st	X, r25
    2102:	13 97       	sbiw	r26, 0x03	; 3
    2104:	60 91 ae 15 	lds	r22, 0x15AE
    2108:	70 91 af 15 	lds	r23, 0x15AF
    210c:	80 91 b0 15 	lds	r24, 0x15B0
    2110:	90 91 b1 15 	lds	r25, 0x15B1
    2114:	0e 94 da 20 	call	0x41b4	; 0x41b4 <_Z9get_alphaf>
    2118:	ef 81       	ldd	r30, Y+7	; 0x07
    211a:	f8 85       	ldd	r31, Y+8	; 0x08
    211c:	ec 5a       	subi	r30, 0xAC	; 172
    211e:	ff 4f       	sbci	r31, 0xFF	; 255
    2120:	60 83       	st	Z, r22
    2122:	71 83       	std	Z+1, r23	; 0x01
    2124:	82 83       	std	Z+2, r24	; 0x02
    2126:	93 83       	std	Z+3, r25	; 0x03
    2128:	ef 81       	ldd	r30, Y+7	; 0x07
    212a:	f8 85       	ldd	r31, Y+8	; 0x08
    212c:	c0 80       	ld	r12, Z
    212e:	d1 80       	ldd	r13, Z+1	; 0x01
    2130:	e2 80       	ldd	r14, Z+2	; 0x02
    2132:	f3 80       	ldd	r15, Z+3	; 0x03
    2134:	2e ed       	ldi	r18, 0xDE	; 222
    2136:	34 e2       	ldi	r19, 0x24	; 36
    2138:	46 e0       	ldi	r20, 0x06	; 6
    213a:	5e e3       	ldi	r21, 0x3E	; 62
    213c:	0e 94 e5 31 	call	0x63ca	; 0x63ca <__addsf3>
    2140:	9b 01       	movw	r18, r22
    2142:	ac 01       	movw	r20, r24
    2144:	c7 01       	movw	r24, r14
    2146:	b6 01       	movw	r22, r12
    2148:	0e 94 24 35 	call	0x6a48	; 0x6a48 <__mulsf3>
    214c:	66 2e       	mov	r6, r22
    214e:	77 2e       	mov	r7, r23
    2150:	88 2e       	mov	r8, r24
    2152:	99 2e       	mov	r9, r25
    2154:	ef 81       	ldd	r30, Y+7	; 0x07
    2156:	f8 85       	ldd	r31, Y+8	; 0x08
    2158:	e2 58       	subi	r30, 0x82	; 130
    215a:	ff 4f       	sbci	r31, 0xFF	; 255
    215c:	86 2f       	mov	r24, r22
    215e:	97 2d       	mov	r25, r7
    2160:	a8 2d       	mov	r26, r8
    2162:	b9 2d       	mov	r27, r9
    2164:	80 83       	st	Z, r24
    2166:	91 83       	std	Z+1, r25	; 0x01
    2168:	a2 83       	std	Z+2, r26	; 0x02
    216a:	b3 83       	std	Z+3, r27	; 0x03
    216c:	0f 81       	ldd	r16, Y+7	; 0x07
    216e:	18 85       	ldd	r17, Y+8	; 0x08
    2170:	0e 57       	subi	r16, 0x7E	; 126
    2172:	1f 4f       	sbci	r17, 0xFF	; 255
    2174:	d5 01       	movw	r26, r10
    2176:	2d 91       	ld	r18, X+
    2178:	3d 91       	ld	r19, X+
    217a:	4d 91       	ld	r20, X+
    217c:	5c 91       	ld	r21, X
    217e:	6b e3       	ldi	r22, 0x3B	; 59
    2180:	7f ed       	ldi	r23, 0xDF	; 223
    2182:	8f e0       	ldi	r24, 0x0F	; 15
    2184:	9f e3       	ldi	r25, 0x3F	; 63
    2186:	0e 94 e4 31 	call	0x63c8	; 0x63c8 <__subsf3>
    218a:	9b 01       	movw	r18, r22
    218c:	ac 01       	movw	r20, r24
    218e:	c7 01       	movw	r24, r14
    2190:	b6 01       	movw	r22, r12
    2192:	0e 94 24 35 	call	0x6a48	; 0x6a48 <__mulsf3>
    2196:	f8 01       	movw	r30, r16
    2198:	60 83       	st	Z, r22
    219a:	71 83       	std	Z+1, r23	; 0x01
    219c:	82 83       	std	Z+2, r24	; 0x02
    219e:	93 83       	std	Z+3, r25	; 0x03
    21a0:	ef 81       	ldd	r30, Y+7	; 0x07
    21a2:	f8 85       	ldd	r31, Y+8	; 0x08
    21a4:	e4 5a       	subi	r30, 0xA4	; 164
    21a6:	ff 4f       	sbci	r31, 0xFF	; 255
    21a8:	24 e6       	ldi	r18, 0x64	; 100
    21aa:	30 e0       	ldi	r19, 0x00	; 0
    21ac:	46 2d       	mov	r20, r6
    21ae:	57 2d       	mov	r21, r7
    21b0:	68 2d       	mov	r22, r8
    21b2:	79 2d       	mov	r23, r9
    21b4:	80 81       	ld	r24, Z
    21b6:	0e 94 c3 2d 	call	0x5b86	; 0x5b86 <_Z10SERVO_gotohdj>
    21ba:	d8 01       	movw	r26, r16
    21bc:	4d 91       	ld	r20, X+
    21be:	5d 91       	ld	r21, X+
    21c0:	6d 91       	ld	r22, X+
    21c2:	7c 91       	ld	r23, X
    21c4:	ef 81       	ldd	r30, Y+7	; 0x07
    21c6:	f8 85       	ldd	r31, Y+8	; 0x08
    21c8:	e6 5a       	subi	r30, 0xA6	; 166
    21ca:	ff 4f       	sbci	r31, 0xFF	; 255
    21cc:	24 e6       	ldi	r18, 0x64	; 100
    21ce:	30 e0       	ldi	r19, 0x00	; 0
    21d0:	80 81       	ld	r24, Z
    21d2:	0e 94 c3 2d 	call	0x5b86	; 0x5b86 <_Z10SERVO_gotohdj>
    21d6:	bf ef       	ldi	r27, 0xFF	; 255
    21d8:	e7 e8       	ldi	r30, 0x87	; 135
    21da:	f3 e1       	ldi	r31, 0x13	; 19
    21dc:	b1 50       	subi	r27, 0x01	; 1
    21de:	e0 40       	sbci	r30, 0x00	; 0
    21e0:	f0 40       	sbci	r31, 0x00	; 0
    21e2:	e1 f7       	brne	.-8      	; 0x21dc <_Z9leg_climbP7LegData+0x820>
    21e4:	00 c0       	rjmp	.+0      	; 0x21e6 <_Z9leg_climbP7LegData+0x82a>
    21e6:	00 00       	nop
    21e8:	81 e0       	ldi	r24, 0x01	; 1
    21ea:	90 e0       	ldi	r25, 0x00	; 0
    21ec:	90 93 0f 19 	sts	0x190F, r25
    21f0:	80 93 0e 19 	sts	0x190E, r24
    21f4:	20 91 aa 15 	lds	r18, 0x15AA
    21f8:	30 91 ab 15 	lds	r19, 0x15AB
    21fc:	40 91 ac 15 	lds	r20, 0x15AC
    2200:	50 91 ad 15 	lds	r21, 0x15AD
    2204:	60 91 ae 15 	lds	r22, 0x15AE
    2208:	70 91 af 15 	lds	r23, 0x15AF
    220c:	80 91 b0 15 	lds	r24, 0x15B0
    2210:	90 91 b1 15 	lds	r25, 0x15B1
    2214:	0e 94 e4 31 	call	0x63c8	; 0x63c8 <__subsf3>
    2218:	60 93 10 19 	sts	0x1910, r22
    221c:	70 93 11 19 	sts	0x1911, r23
    2220:	80 93 12 19 	sts	0x1912, r24
    2224:	90 93 13 19 	sts	0x1913, r25
    2228:	ef 81       	ldd	r30, Y+7	; 0x07
    222a:	f8 85       	ldd	r31, Y+8	; 0x08
    222c:	e2 5a       	subi	r30, 0xA2	; 162
    222e:	ff 4f       	sbci	r31, 0xFF	; 255
    2230:	82 e0       	ldi	r24, 0x02	; 2
    2232:	90 e0       	ldi	r25, 0x00	; 0
    2234:	91 83       	std	Z+1, r25	; 0x01
    2236:	80 83       	st	Z, r24
    2238:	8f 81       	ldd	r24, Y+7	; 0x07
    223a:	98 85       	ldd	r25, Y+8	; 0x08
    223c:	0e 94 18 08 	call	0x1030	; 0x1030 <_Z10step_startP7LegData>
    2240:	80 91 ae 15 	lds	r24, 0x15AE
    2244:	90 91 af 15 	lds	r25, 0x15AF
    2248:	a0 91 b0 15 	lds	r26, 0x15B0
    224c:	b0 91 b1 15 	lds	r27, 0x15B1
    2250:	ef 81       	ldd	r30, Y+7	; 0x07
    2252:	f8 85       	ldd	r31, Y+8	; 0x08
    2254:	80 8b       	std	Z+16, r24	; 0x10
    2256:	91 8b       	std	Z+17, r25	; 0x11
    2258:	a2 8b       	std	Z+18, r26	; 0x12
    225a:	b3 8b       	std	Z+19, r27	; 0x13
    225c:	28 96       	adiw	r28, 0x08	; 8
    225e:	0f b6       	in	r0, 0x3f	; 63
    2260:	f8 94       	cli
    2262:	de bf       	out	0x3e, r29	; 62
    2264:	0f be       	out	0x3f, r0	; 63
    2266:	cd bf       	out	0x3d, r28	; 61
    2268:	df 91       	pop	r29
    226a:	cf 91       	pop	r28
    226c:	1f 91       	pop	r17
    226e:	0f 91       	pop	r16
    2270:	ff 90       	pop	r15
    2272:	ef 90       	pop	r14
    2274:	df 90       	pop	r13
    2276:	cf 90       	pop	r12
    2278:	bf 90       	pop	r11
    227a:	af 90       	pop	r10
    227c:	9f 90       	pop	r9
    227e:	8f 90       	pop	r8
    2280:	7f 90       	pop	r7
    2282:	6f 90       	pop	r6
    2284:	5f 90       	pop	r5
    2286:	4f 90       	pop	r4
    2288:	3f 90       	pop	r3
    228a:	2f 90       	pop	r2
    228c:	08 95       	ret

0000228e <_Z10leg_motionv>:
    228e:	2f 92       	push	r2
    2290:	3f 92       	push	r3
    2292:	4f 92       	push	r4
    2294:	5f 92       	push	r5
    2296:	6f 92       	push	r6
    2298:	7f 92       	push	r7
    229a:	8f 92       	push	r8
    229c:	9f 92       	push	r9
    229e:	af 92       	push	r10
    22a0:	bf 92       	push	r11
    22a2:	cf 92       	push	r12
    22a4:	df 92       	push	r13
    22a6:	ef 92       	push	r14
    22a8:	ff 92       	push	r15
    22aa:	0f 93       	push	r16
    22ac:	1f 93       	push	r17
    22ae:	cf 93       	push	r28
    22b0:	df 93       	push	r29
    22b2:	0e 94 fc 08 	call	0x11f8	; 0x11f8 <_Z15leg_motion_initv>
    22b6:	60 91 14 19 	lds	r22, 0x1914
    22ba:	70 91 15 19 	lds	r23, 0x1915
    22be:	80 91 16 19 	lds	r24, 0x1916
    22c2:	90 91 17 19 	lds	r25, 0x1917
    22c6:	0e 94 31 33 	call	0x6662	; 0x6662 <__fixsfsi>
    22ca:	6f 5f       	subi	r22, 0xFF	; 255
    22cc:	7f 4f       	sbci	r23, 0xFF	; 255
    22ce:	0a f4       	brpl	.+2      	; 0x22d2 <_Z10leg_motionv+0x44>
    22d0:	90 c0       	rjmp	.+288    	; 0x23f2 <_Z10leg_motionv+0x164>
    22d2:	c0 e0       	ldi	r28, 0x00	; 0
    22d4:	d0 e0       	ldi	r29, 0x00	; 0
    22d6:	0f 2e       	mov	r0, r31
    22d8:	fa ed       	ldi	r31, 0xDA	; 218
    22da:	af 2e       	mov	r10, r31
    22dc:	f8 e1       	ldi	r31, 0x18	; 24
    22de:	bf 2e       	mov	r11, r31
    22e0:	f0 2d       	mov	r31, r0
    22e2:	0f 2e       	mov	r0, r31
    22e4:	f0 e5       	ldi	r31, 0x50	; 80
    22e6:	cf 2e       	mov	r12, r31
    22e8:	f8 e1       	ldi	r31, 0x18	; 24
    22ea:	df 2e       	mov	r13, r31
    22ec:	f0 2d       	mov	r31, r0
    22ee:	0f 2e       	mov	r0, r31
    22f0:	f6 ec       	ldi	r31, 0xC6	; 198
    22f2:	ef 2e       	mov	r14, r31
    22f4:	f7 e1       	ldi	r31, 0x17	; 23
    22f6:	ff 2e       	mov	r15, r31
    22f8:	f0 2d       	mov	r31, r0
    22fa:	0c e3       	ldi	r16, 0x3C	; 60
    22fc:	17 e1       	ldi	r17, 0x17	; 23
    22fe:	0f 2e       	mov	r0, r31
    2300:	f2 eb       	ldi	r31, 0xB2	; 178
    2302:	8f 2e       	mov	r8, r31
    2304:	f6 e1       	ldi	r31, 0x16	; 22
    2306:	9f 2e       	mov	r9, r31
    2308:	f0 2d       	mov	r31, r0
    230a:	0f 2e       	mov	r0, r31
    230c:	f8 e2       	ldi	r31, 0x28	; 40
    230e:	2f 2e       	mov	r2, r31
    2310:	f6 e1       	ldi	r31, 0x16	; 22
    2312:	3f 2e       	mov	r3, r31
    2314:	f0 2d       	mov	r31, r0
    2316:	f5 01       	movw	r30, r10
    2318:	80 81       	ld	r24, Z
    231a:	91 81       	ldd	r25, Z+1	; 0x01
    231c:	01 97       	sbiw	r24, 0x01	; 1
    231e:	19 f4       	brne	.+6      	; 0x2326 <_Z10leg_motionv+0x98>
    2320:	8c e7       	ldi	r24, 0x7C	; 124
    2322:	98 e1       	ldi	r25, 0x18	; 24
    2324:	4b db       	rcall	.-2410   	; 0x19bc <_Z9leg_climbP7LegData>
    2326:	be 01       	movw	r22, r28
    2328:	88 27       	eor	r24, r24
    232a:	77 fd       	sbrc	r23, 7
    232c:	80 95       	com	r24
    232e:	98 2f       	mov	r25, r24
    2330:	0e 94 64 33 	call	0x66c8	; 0x66c8 <__floatsisf>
    2334:	2b 01       	movw	r4, r22
    2336:	3c 01       	movw	r6, r24
    2338:	ab 01       	movw	r20, r22
    233a:	bc 01       	movw	r22, r24
    233c:	8c e7       	ldi	r24, 0x7C	; 124
    233e:	98 e1       	ldi	r25, 0x18	; 24
    2340:	7c d8       	rcall	.-3848   	; 0x143a <_Z8move_legP7LegDataf>
    2342:	f6 01       	movw	r30, r12
    2344:	80 81       	ld	r24, Z
    2346:	91 81       	ldd	r25, Z+1	; 0x01
    2348:	01 97       	sbiw	r24, 0x01	; 1
    234a:	19 f4       	brne	.+6      	; 0x2352 <_Z10leg_motionv+0xc4>
    234c:	82 ef       	ldi	r24, 0xF2	; 242
    234e:	97 e1       	ldi	r25, 0x17	; 23
    2350:	35 db       	rcall	.-2454   	; 0x19bc <_Z9leg_climbP7LegData>
    2352:	b3 01       	movw	r22, r6
    2354:	a2 01       	movw	r20, r4
    2356:	82 ef       	ldi	r24, 0xF2	; 242
    2358:	97 e1       	ldi	r25, 0x17	; 23
    235a:	6f d8       	rcall	.-3874   	; 0x143a <_Z8move_legP7LegDataf>
    235c:	f7 01       	movw	r30, r14
    235e:	80 81       	ld	r24, Z
    2360:	91 81       	ldd	r25, Z+1	; 0x01
    2362:	01 97       	sbiw	r24, 0x01	; 1
    2364:	19 f4       	brne	.+6      	; 0x236c <_Z10leg_motionv+0xde>
    2366:	88 e6       	ldi	r24, 0x68	; 104
    2368:	97 e1       	ldi	r25, 0x17	; 23
    236a:	28 db       	rcall	.-2480   	; 0x19bc <_Z9leg_climbP7LegData>
    236c:	b3 01       	movw	r22, r6
    236e:	a2 01       	movw	r20, r4
    2370:	88 e6       	ldi	r24, 0x68	; 104
    2372:	97 e1       	ldi	r25, 0x17	; 23
    2374:	62 d8       	rcall	.-3900   	; 0x143a <_Z8move_legP7LegDataf>
    2376:	f8 01       	movw	r30, r16
    2378:	80 81       	ld	r24, Z
    237a:	91 81       	ldd	r25, Z+1	; 0x01
    237c:	01 97       	sbiw	r24, 0x01	; 1
    237e:	19 f4       	brne	.+6      	; 0x2386 <_Z10leg_motionv+0xf8>
    2380:	8e ed       	ldi	r24, 0xDE	; 222
    2382:	96 e1       	ldi	r25, 0x16	; 22
    2384:	1b db       	rcall	.-2506   	; 0x19bc <_Z9leg_climbP7LegData>
    2386:	b3 01       	movw	r22, r6
    2388:	a2 01       	movw	r20, r4
    238a:	8e ed       	ldi	r24, 0xDE	; 222
    238c:	96 e1       	ldi	r25, 0x16	; 22
    238e:	55 d8       	rcall	.-3926   	; 0x143a <_Z8move_legP7LegDataf>
    2390:	f4 01       	movw	r30, r8
    2392:	80 81       	ld	r24, Z
    2394:	91 81       	ldd	r25, Z+1	; 0x01
    2396:	01 97       	sbiw	r24, 0x01	; 1
    2398:	19 f4       	brne	.+6      	; 0x23a0 <_Z10leg_motionv+0x112>
    239a:	84 e5       	ldi	r24, 0x54	; 84
    239c:	96 e1       	ldi	r25, 0x16	; 22
    239e:	0e db       	rcall	.-2532   	; 0x19bc <_Z9leg_climbP7LegData>
    23a0:	b3 01       	movw	r22, r6
    23a2:	a2 01       	movw	r20, r4
    23a4:	84 e5       	ldi	r24, 0x54	; 84
    23a6:	96 e1       	ldi	r25, 0x16	; 22
    23a8:	48 d8       	rcall	.-3952   	; 0x143a <_Z8move_legP7LegDataf>
    23aa:	f1 01       	movw	r30, r2
    23ac:	80 81       	ld	r24, Z
    23ae:	91 81       	ldd	r25, Z+1	; 0x01
    23b0:	01 97       	sbiw	r24, 0x01	; 1
    23b2:	19 f4       	brne	.+6      	; 0x23ba <_Z10leg_motionv+0x12c>
    23b4:	8a ec       	ldi	r24, 0xCA	; 202
    23b6:	95 e1       	ldi	r25, 0x15	; 21
    23b8:	01 db       	rcall	.-2558   	; 0x19bc <_Z9leg_climbP7LegData>
    23ba:	b3 01       	movw	r22, r6
    23bc:	a2 01       	movw	r20, r4
    23be:	8a ec       	ldi	r24, 0xCA	; 202
    23c0:	95 e1       	ldi	r25, 0x15	; 21
    23c2:	3b d8       	rcall	.-3978   	; 0x143a <_Z8move_legP7LegDataf>
    23c4:	0e 94 b7 2e 	call	0x5d6e	; 0x5d6e <_Z12SERVO_actionv>
    23c8:	8e e1       	ldi	r24, 0x1E	; 30
    23ca:	90 e0       	ldi	r25, 0x00	; 0
    23cc:	0e 94 47 05 	call	0xa8e	; 0xa8e <_Z4waitj>
    23d0:	21 96       	adiw	r28, 0x01	; 1
    23d2:	60 91 14 19 	lds	r22, 0x1914
    23d6:	70 91 15 19 	lds	r23, 0x1915
    23da:	80 91 16 19 	lds	r24, 0x1916
    23de:	90 91 17 19 	lds	r25, 0x1917
    23e2:	0e 94 31 33 	call	0x6662	; 0x6662 <__fixsfsi>
    23e6:	6f 5f       	subi	r22, 0xFF	; 255
    23e8:	7f 4f       	sbci	r23, 0xFF	; 255
    23ea:	6c 17       	cp	r22, r28
    23ec:	7d 07       	cpc	r23, r29
    23ee:	0c f0       	brlt	.+2      	; 0x23f2 <_Z10leg_motionv+0x164>
    23f0:	92 cf       	rjmp	.-220    	; 0x2316 <_Z10leg_motionv+0x88>
    23f2:	df 91       	pop	r29
    23f4:	cf 91       	pop	r28
    23f6:	1f 91       	pop	r17
    23f8:	0f 91       	pop	r16
    23fa:	ff 90       	pop	r15
    23fc:	ef 90       	pop	r14
    23fe:	df 90       	pop	r13
    2400:	cf 90       	pop	r12
    2402:	bf 90       	pop	r11
    2404:	af 90       	pop	r10
    2406:	9f 90       	pop	r9
    2408:	8f 90       	pop	r8
    240a:	7f 90       	pop	r7
    240c:	6f 90       	pop	r6
    240e:	5f 90       	pop	r5
    2410:	4f 90       	pop	r4
    2412:	3f 90       	pop	r3
    2414:	2f 90       	pop	r2
    2416:	08 95       	ret

00002418 <_Z11move_to_stdv>:
    2418:	2f 92       	push	r2
    241a:	3f 92       	push	r3
    241c:	4f 92       	push	r4
    241e:	5f 92       	push	r5
    2420:	6f 92       	push	r6
    2422:	7f 92       	push	r7
    2424:	8f 92       	push	r8
    2426:	9f 92       	push	r9
    2428:	af 92       	push	r10
    242a:	bf 92       	push	r11
    242c:	cf 92       	push	r12
    242e:	df 92       	push	r13
    2430:	ef 92       	push	r14
    2432:	ff 92       	push	r15
    2434:	0f 93       	push	r16
    2436:	1f 93       	push	r17
    2438:	cf 93       	push	r28
    243a:	df 93       	push	r29
    243c:	0f 2e       	mov	r0, r31
    243e:	f0 e8       	ldi	r31, 0x80	; 128
    2440:	cf 2e       	mov	r12, r31
    2442:	f8 e1       	ldi	r31, 0x18	; 24
    2444:	df 2e       	mov	r13, r31
    2446:	f0 2d       	mov	r31, r0
    2448:	0f 2e       	mov	r0, r31
    244a:	81 2c       	mov	r8, r1
    244c:	91 2c       	mov	r9, r1
    244e:	f0 e8       	ldi	r31, 0x80	; 128
    2450:	af 2e       	mov	r10, r31
    2452:	ff eb       	ldi	r31, 0xBF	; 191
    2454:	bf 2e       	mov	r11, r31
    2456:	f0 2d       	mov	r31, r0
    2458:	f6 01       	movw	r30, r12
    245a:	80 82       	st	Z, r8
    245c:	91 82       	std	Z+1, r9	; 0x01
    245e:	a2 82       	std	Z+2, r10	; 0x02
    2460:	b3 82       	std	Z+3, r11	; 0x03
    2462:	0f 2e       	mov	r0, r31
    2464:	f6 ef       	ldi	r31, 0xF6	; 246
    2466:	ef 2e       	mov	r14, r31
    2468:	f7 e1       	ldi	r31, 0x17	; 23
    246a:	ff 2e       	mov	r15, r31
    246c:	f0 2d       	mov	r31, r0
    246e:	0f 2e       	mov	r0, r31
    2470:	41 2c       	mov	r4, r1
    2472:	51 2c       	mov	r5, r1
    2474:	f0 e8       	ldi	r31, 0x80	; 128
    2476:	6f 2e       	mov	r6, r31
    2478:	ff e3       	ldi	r31, 0x3F	; 63
    247a:	7f 2e       	mov	r7, r31
    247c:	f0 2d       	mov	r31, r0
    247e:	f7 01       	movw	r30, r14
    2480:	40 82       	st	Z, r4
    2482:	51 82       	std	Z+1, r5	; 0x01
    2484:	62 82       	std	Z+2, r6	; 0x02
    2486:	73 82       	std	Z+3, r7	; 0x03
    2488:	0c e6       	ldi	r16, 0x6C	; 108
    248a:	17 e1       	ldi	r17, 0x17	; 23
    248c:	f8 01       	movw	r30, r16
    248e:	80 82       	st	Z, r8
    2490:	91 82       	std	Z+1, r9	; 0x01
    2492:	a2 82       	std	Z+2, r10	; 0x02
    2494:	b3 82       	std	Z+3, r11	; 0x03
    2496:	c2 ee       	ldi	r28, 0xE2	; 226
    2498:	d6 e1       	ldi	r29, 0x16	; 22
    249a:	48 82       	st	Y, r4
    249c:	59 82       	std	Y+1, r5	; 0x01
    249e:	6a 82       	std	Y+2, r6	; 0x02
    24a0:	7b 82       	std	Y+3, r7	; 0x03
    24a2:	0f 2e       	mov	r0, r31
    24a4:	f8 e5       	ldi	r31, 0x58	; 88
    24a6:	2f 2e       	mov	r2, r31
    24a8:	f6 e1       	ldi	r31, 0x16	; 22
    24aa:	3f 2e       	mov	r3, r31
    24ac:	f0 2d       	mov	r31, r0
    24ae:	f1 01       	movw	r30, r2
    24b0:	80 82       	st	Z, r8
    24b2:	91 82       	std	Z+1, r9	; 0x01
    24b4:	a2 82       	std	Z+2, r10	; 0x02
    24b6:	b3 82       	std	Z+3, r11	; 0x03
    24b8:	ee ec       	ldi	r30, 0xCE	; 206
    24ba:	f5 e1       	ldi	r31, 0x15	; 21
    24bc:	40 82       	st	Z, r4
    24be:	51 82       	std	Z+1, r5	; 0x01
    24c0:	62 82       	std	Z+2, r6	; 0x02
    24c2:	73 82       	std	Z+3, r7	; 0x03
    24c4:	8c e7       	ldi	r24, 0x7C	; 124
    24c6:	98 e1       	ldi	r25, 0x18	; 24
    24c8:	0e 94 18 08 	call	0x1030	; 0x1030 <_Z10step_startP7LegData>
    24cc:	82 ef       	ldi	r24, 0xF2	; 242
    24ce:	97 e1       	ldi	r25, 0x17	; 23
    24d0:	0e 94 18 08 	call	0x1030	; 0x1030 <_Z10step_startP7LegData>
    24d4:	88 e6       	ldi	r24, 0x68	; 104
    24d6:	97 e1       	ldi	r25, 0x17	; 23
    24d8:	0e 94 18 08 	call	0x1030	; 0x1030 <_Z10step_startP7LegData>
    24dc:	8e ed       	ldi	r24, 0xDE	; 222
    24de:	96 e1       	ldi	r25, 0x16	; 22
    24e0:	0e 94 18 08 	call	0x1030	; 0x1030 <_Z10step_startP7LegData>
    24e4:	84 e5       	ldi	r24, 0x54	; 84
    24e6:	96 e1       	ldi	r25, 0x16	; 22
    24e8:	0e 94 18 08 	call	0x1030	; 0x1030 <_Z10step_startP7LegData>
    24ec:	8a ec       	ldi	r24, 0xCA	; 202
    24ee:	95 e1       	ldi	r25, 0x15	; 21
    24f0:	0e 94 18 08 	call	0x1030	; 0x1030 <_Z10step_startP7LegData>
    24f4:	0e 94 fa 1f 	call	0x3ff4	; 0x3ff4 <_Z6get_x0v>
    24f8:	60 93 06 18 	sts	0x1806, r22
    24fc:	70 93 07 18 	sts	0x1807, r23
    2500:	80 93 08 18 	sts	0x1808, r24
    2504:	90 93 09 18 	sts	0x1809, r25
    2508:	0e 94 07 20 	call	0x400e	; 0x400e <_Z6get_y0v>
    250c:	60 93 0a 18 	sts	0x180A, r22
    2510:	70 93 0b 18 	sts	0x180B, r23
    2514:	80 93 0c 18 	sts	0x180C, r24
    2518:	90 93 0d 18 	sts	0x180D, r25
    251c:	82 ef       	ldi	r24, 0xF2	; 242
    251e:	97 e1       	ldi	r25, 0x17	; 23
    2520:	0e 94 c2 08 	call	0x1184	; 0x1184 <_Z21step_part2_calculatorP7LegData>
    2524:	0e 94 fa 1f 	call	0x3ff4	; 0x3ff4 <_Z6get_x0v>
    2528:	60 93 f2 16 	sts	0x16F2, r22
    252c:	70 93 f3 16 	sts	0x16F3, r23
    2530:	80 93 f4 16 	sts	0x16F4, r24
    2534:	90 93 f5 16 	sts	0x16F5, r25
    2538:	0e 94 07 20 	call	0x400e	; 0x400e <_Z6get_y0v>
    253c:	60 93 f6 16 	sts	0x16F6, r22
    2540:	70 93 f7 16 	sts	0x16F7, r23
    2544:	80 93 f8 16 	sts	0x16F8, r24
    2548:	90 93 f9 16 	sts	0x16F9, r25
    254c:	8e ed       	ldi	r24, 0xDE	; 222
    254e:	96 e1       	ldi	r25, 0x16	; 22
    2550:	0e 94 c2 08 	call	0x1184	; 0x1184 <_Z21step_part2_calculatorP7LegData>
    2554:	0e 94 fa 1f 	call	0x3ff4	; 0x3ff4 <_Z6get_x0v>
    2558:	60 93 de 15 	sts	0x15DE, r22
    255c:	70 93 df 15 	sts	0x15DF, r23
    2560:	80 93 e0 15 	sts	0x15E0, r24
    2564:	90 93 e1 15 	sts	0x15E1, r25
    2568:	0e 94 07 20 	call	0x400e	; 0x400e <_Z6get_y0v>
    256c:	60 93 e2 15 	sts	0x15E2, r22
    2570:	70 93 e3 15 	sts	0x15E3, r23
    2574:	80 93 e4 15 	sts	0x15E4, r24
    2578:	90 93 e5 15 	sts	0x15E5, r25
    257c:	8a ec       	ldi	r24, 0xCA	; 202
    257e:	95 e1       	ldi	r25, 0x15	; 21
    2580:	0e 94 c2 08 	call	0x1184	; 0x1184 <_Z21step_part2_calculatorP7LegData>
    2584:	84 de       	rcall	.-760    	; 0x228e <_Z10leg_motionv>
    2586:	f6 01       	movw	r30, r12
    2588:	40 82       	st	Z, r4
    258a:	51 82       	std	Z+1, r5	; 0x01
    258c:	62 82       	std	Z+2, r6	; 0x02
    258e:	73 82       	std	Z+3, r7	; 0x03
    2590:	f7 01       	movw	r30, r14
    2592:	80 82       	st	Z, r8
    2594:	91 82       	std	Z+1, r9	; 0x01
    2596:	a2 82       	std	Z+2, r10	; 0x02
    2598:	b3 82       	std	Z+3, r11	; 0x03
    259a:	f8 01       	movw	r30, r16
    259c:	40 82       	st	Z, r4
    259e:	51 82       	std	Z+1, r5	; 0x01
    25a0:	62 82       	std	Z+2, r6	; 0x02
    25a2:	73 82       	std	Z+3, r7	; 0x03
    25a4:	88 82       	st	Y, r8
    25a6:	99 82       	std	Y+1, r9	; 0x01
    25a8:	aa 82       	std	Y+2, r10	; 0x02
    25aa:	bb 82       	std	Y+3, r11	; 0x03
    25ac:	f1 01       	movw	r30, r2
    25ae:	40 82       	st	Z, r4
    25b0:	51 82       	std	Z+1, r5	; 0x01
    25b2:	62 82       	std	Z+2, r6	; 0x02
    25b4:	73 82       	std	Z+3, r7	; 0x03
    25b6:	ee ec       	ldi	r30, 0xCE	; 206
    25b8:	f5 e1       	ldi	r31, 0x15	; 21
    25ba:	80 82       	st	Z, r8
    25bc:	91 82       	std	Z+1, r9	; 0x01
    25be:	a2 82       	std	Z+2, r10	; 0x02
    25c0:	b3 82       	std	Z+3, r11	; 0x03
    25c2:	8c e7       	ldi	r24, 0x7C	; 124
    25c4:	98 e1       	ldi	r25, 0x18	; 24
    25c6:	0e 94 18 08 	call	0x1030	; 0x1030 <_Z10step_startP7LegData>
    25ca:	82 ef       	ldi	r24, 0xF2	; 242
    25cc:	97 e1       	ldi	r25, 0x17	; 23
    25ce:	0e 94 18 08 	call	0x1030	; 0x1030 <_Z10step_startP7LegData>
    25d2:	88 e6       	ldi	r24, 0x68	; 104
    25d4:	97 e1       	ldi	r25, 0x17	; 23
    25d6:	0e 94 18 08 	call	0x1030	; 0x1030 <_Z10step_startP7LegData>
    25da:	8e ed       	ldi	r24, 0xDE	; 222
    25dc:	96 e1       	ldi	r25, 0x16	; 22
    25de:	0e 94 18 08 	call	0x1030	; 0x1030 <_Z10step_startP7LegData>
    25e2:	84 e5       	ldi	r24, 0x54	; 84
    25e4:	96 e1       	ldi	r25, 0x16	; 22
    25e6:	0e 94 18 08 	call	0x1030	; 0x1030 <_Z10step_startP7LegData>
    25ea:	8a ec       	ldi	r24, 0xCA	; 202
    25ec:	95 e1       	ldi	r25, 0x15	; 21
    25ee:	0e 94 18 08 	call	0x1030	; 0x1030 <_Z10step_startP7LegData>
    25f2:	0e 94 fa 1f 	call	0x3ff4	; 0x3ff4 <_Z6get_x0v>
    25f6:	60 93 90 18 	sts	0x1890, r22
    25fa:	70 93 91 18 	sts	0x1891, r23
    25fe:	80 93 92 18 	sts	0x1892, r24
    2602:	90 93 93 18 	sts	0x1893, r25
    2606:	0e 94 07 20 	call	0x400e	; 0x400e <_Z6get_y0v>
    260a:	60 93 94 18 	sts	0x1894, r22
    260e:	70 93 95 18 	sts	0x1895, r23
    2612:	80 93 96 18 	sts	0x1896, r24
    2616:	90 93 97 18 	sts	0x1897, r25
    261a:	8c e7       	ldi	r24, 0x7C	; 124
    261c:	98 e1       	ldi	r25, 0x18	; 24
    261e:	0e 94 c2 08 	call	0x1184	; 0x1184 <_Z21step_part2_calculatorP7LegData>
    2622:	0e 94 fa 1f 	call	0x3ff4	; 0x3ff4 <_Z6get_x0v>
    2626:	60 93 7c 17 	sts	0x177C, r22
    262a:	70 93 7d 17 	sts	0x177D, r23
    262e:	80 93 7e 17 	sts	0x177E, r24
    2632:	90 93 7f 17 	sts	0x177F, r25
    2636:	0e 94 07 20 	call	0x400e	; 0x400e <_Z6get_y0v>
    263a:	60 93 80 17 	sts	0x1780, r22
    263e:	70 93 81 17 	sts	0x1781, r23
    2642:	80 93 82 17 	sts	0x1782, r24
    2646:	90 93 83 17 	sts	0x1783, r25
    264a:	88 e6       	ldi	r24, 0x68	; 104
    264c:	97 e1       	ldi	r25, 0x17	; 23
    264e:	0e 94 c2 08 	call	0x1184	; 0x1184 <_Z21step_part2_calculatorP7LegData>
    2652:	0e 94 fa 1f 	call	0x3ff4	; 0x3ff4 <_Z6get_x0v>
    2656:	60 93 68 16 	sts	0x1668, r22
    265a:	70 93 69 16 	sts	0x1669, r23
    265e:	80 93 6a 16 	sts	0x166A, r24
    2662:	90 93 6b 16 	sts	0x166B, r25
    2666:	0e 94 07 20 	call	0x400e	; 0x400e <_Z6get_y0v>
    266a:	60 93 6c 16 	sts	0x166C, r22
    266e:	70 93 6d 16 	sts	0x166D, r23
    2672:	80 93 6e 16 	sts	0x166E, r24
    2676:	90 93 6f 16 	sts	0x166F, r25
    267a:	84 e5       	ldi	r24, 0x54	; 84
    267c:	96 e1       	ldi	r25, 0x16	; 22
    267e:	0e 94 c2 08 	call	0x1184	; 0x1184 <_Z21step_part2_calculatorP7LegData>
    2682:	05 de       	rcall	.-1014   	; 0x228e <_Z10leg_motionv>
    2684:	df 91       	pop	r29
    2686:	cf 91       	pop	r28
    2688:	1f 91       	pop	r17
    268a:	0f 91       	pop	r16
    268c:	ff 90       	pop	r15
    268e:	ef 90       	pop	r14
    2690:	df 90       	pop	r13
    2692:	cf 90       	pop	r12
    2694:	bf 90       	pop	r11
    2696:	af 90       	pop	r10
    2698:	9f 90       	pop	r9
    269a:	8f 90       	pop	r8
    269c:	7f 90       	pop	r7
    269e:	6f 90       	pop	r6
    26a0:	5f 90       	pop	r5
    26a2:	4f 90       	pop	r4
    26a4:	3f 90       	pop	r3
    26a6:	2f 90       	pop	r2
    26a8:	08 95       	ret

000026aa <_Z10move_robotiii>:
    26aa:	2f 92       	push	r2
    26ac:	3f 92       	push	r3
    26ae:	4f 92       	push	r4
    26b0:	5f 92       	push	r5
    26b2:	6f 92       	push	r6
    26b4:	7f 92       	push	r7
    26b6:	8f 92       	push	r8
    26b8:	9f 92       	push	r9
    26ba:	af 92       	push	r10
    26bc:	bf 92       	push	r11
    26be:	cf 92       	push	r12
    26c0:	df 92       	push	r13
    26c2:	ef 92       	push	r14
    26c4:	ff 92       	push	r15
    26c6:	0f 93       	push	r16
    26c8:	1f 93       	push	r17
    26ca:	cf 93       	push	r28
    26cc:	df 93       	push	r29
    26ce:	cd b7       	in	r28, 0x3d	; 61
    26d0:	de b7       	in	r29, 0x3e	; 62
    26d2:	66 97       	sbiw	r28, 0x16	; 22
    26d4:	0f b6       	in	r0, 0x3f	; 63
    26d6:	f8 94       	cli
    26d8:	de bf       	out	0x3e, r29	; 62
    26da:	0f be       	out	0x3f, r0	; 63
    26dc:	cd bf       	out	0x3d, r28	; 61
    26de:	8b 01       	movw	r16, r22
    26e0:	5a 01       	movw	r10, r20
    26e2:	bc 01       	movw	r22, r24
    26e4:	88 27       	eor	r24, r24
    26e6:	77 fd       	sbrc	r23, 7
    26e8:	80 95       	com	r24
    26ea:	98 2f       	mov	r25, r24
    26ec:	0e 94 64 33 	call	0x66c8	; 0x66c8 <__floatsisf>
    26f0:	6b 01       	movw	r12, r22
    26f2:	7c 01       	movw	r14, r24
    26f4:	20 e0       	ldi	r18, 0x00	; 0
    26f6:	30 e0       	ldi	r19, 0x00	; 0
    26f8:	a9 01       	movw	r20, r18
    26fa:	0e 94 c2 32 	call	0x6584	; 0x6584 <__cmpsf2>
    26fe:	88 23       	and	r24, r24
    2700:	9c f0       	brlt	.+38     	; 0x2728 <_Z10move_robotiii+0x7e>
    2702:	20 e0       	ldi	r18, 0x00	; 0
    2704:	30 e0       	ldi	r19, 0x00	; 0
    2706:	44 eb       	ldi	r20, 0xB4	; 180
    2708:	52 e4       	ldi	r21, 0x42	; 66
    270a:	c7 01       	movw	r24, r14
    270c:	b6 01       	movw	r22, r12
    270e:	0e 94 19 35 	call	0x6a32	; 0x6a32 <__gesf2>
    2712:	18 16       	cp	r1, r24
    2714:	4c f0       	brlt	.+18     	; 0x2728 <_Z10move_robotiii+0x7e>
    2716:	c0 92 a6 15 	sts	0x15A6, r12
    271a:	d0 92 a7 15 	sts	0x15A7, r13
    271e:	e0 92 a8 15 	sts	0x15A8, r14
    2722:	f0 92 a9 15 	sts	0x15A9, r15
    2726:	08 c0       	rjmp	.+16     	; 0x2738 <_Z10move_robotiii+0x8e>
    2728:	10 92 a6 15 	sts	0x15A6, r1
    272c:	10 92 a7 15 	sts	0x15A7, r1
    2730:	10 92 a8 15 	sts	0x15A8, r1
    2734:	10 92 a9 15 	sts	0x15A9, r1
    2738:	b8 01       	movw	r22, r16
    273a:	88 27       	eor	r24, r24
    273c:	77 fd       	sbrc	r23, 7
    273e:	80 95       	com	r24
    2740:	98 2f       	mov	r25, r24
    2742:	0e 94 64 33 	call	0x66c8	; 0x66c8 <__floatsisf>
    2746:	20 e0       	ldi	r18, 0x00	; 0
    2748:	30 e0       	ldi	r19, 0x00	; 0
    274a:	48 e4       	ldi	r20, 0x48	; 72
    274c:	52 e4       	ldi	r21, 0x42	; 66
    274e:	0e 94 c9 32 	call	0x6592	; 0x6592 <__divsf3>
    2752:	20 e0       	ldi	r18, 0x00	; 0
    2754:	30 e0       	ldi	r19, 0x00	; 0
    2756:	40 e8       	ldi	r20, 0x80	; 128
    2758:	5f e3       	ldi	r21, 0x3F	; 63
    275a:	0e 94 e4 31 	call	0x63c8	; 0x63c8 <__subsf3>
    275e:	e6 2e       	mov	r14, r22
    2760:	f7 2e       	mov	r15, r23
    2762:	08 2f       	mov	r16, r24
    2764:	19 2f       	mov	r17, r25
    2766:	20 e0       	ldi	r18, 0x00	; 0
    2768:	30 e0       	ldi	r19, 0x00	; 0
    276a:	40 e8       	ldi	r20, 0x80	; 128
    276c:	5f eb       	ldi	r21, 0xBF	; 191
    276e:	0e 94 c2 32 	call	0x6584	; 0x6584 <__cmpsf2>
    2772:	88 23       	and	r24, r24
    2774:	6c f4       	brge	.+26     	; 0x2790 <_Z10move_robotiii+0xe6>
    2776:	80 e0       	ldi	r24, 0x00	; 0
    2778:	90 e0       	ldi	r25, 0x00	; 0
    277a:	a0 e8       	ldi	r26, 0x80	; 128
    277c:	bf eb       	ldi	r27, 0xBF	; 191
    277e:	80 93 a2 15 	sts	0x15A2, r24
    2782:	90 93 a3 15 	sts	0x15A3, r25
    2786:	a0 93 a4 15 	sts	0x15A4, r26
    278a:	b0 93 a5 15 	sts	0x15A5, r27
    278e:	25 c0       	rjmp	.+74     	; 0x27da <_Z10move_robotiii+0x130>
    2790:	20 e0       	ldi	r18, 0x00	; 0
    2792:	30 e0       	ldi	r19, 0x00	; 0
    2794:	40 e8       	ldi	r20, 0x80	; 128
    2796:	5f e3       	ldi	r21, 0x3F	; 63
    2798:	6e 2d       	mov	r22, r14
    279a:	7f 2d       	mov	r23, r15
    279c:	80 2f       	mov	r24, r16
    279e:	91 2f       	mov	r25, r17
    27a0:	0e 94 19 35 	call	0x6a32	; 0x6a32 <__gesf2>
    27a4:	18 16       	cp	r1, r24
    27a6:	6c f0       	brlt	.+26     	; 0x27c2 <_Z10move_robotiii+0x118>
    27a8:	8e 2d       	mov	r24, r14
    27aa:	9f 2d       	mov	r25, r15
    27ac:	a0 2f       	mov	r26, r16
    27ae:	b1 2f       	mov	r27, r17
    27b0:	80 93 a2 15 	sts	0x15A2, r24
    27b4:	90 93 a3 15 	sts	0x15A3, r25
    27b8:	a0 93 a4 15 	sts	0x15A4, r26
    27bc:	b0 93 a5 15 	sts	0x15A5, r27
    27c0:	0c c0       	rjmp	.+24     	; 0x27da <_Z10move_robotiii+0x130>
    27c2:	80 e0       	ldi	r24, 0x00	; 0
    27c4:	90 e0       	ldi	r25, 0x00	; 0
    27c6:	a0 e8       	ldi	r26, 0x80	; 128
    27c8:	bf e3       	ldi	r27, 0x3F	; 63
    27ca:	80 93 a2 15 	sts	0x15A2, r24
    27ce:	90 93 a3 15 	sts	0x15A3, r25
    27d2:	a0 93 a4 15 	sts	0x15A4, r26
    27d6:	b0 93 a5 15 	sts	0x15A5, r27
    27da:	b5 01       	movw	r22, r10
    27dc:	88 27       	eor	r24, r24
    27de:	77 fd       	sbrc	r23, 7
    27e0:	80 95       	com	r24
    27e2:	98 2f       	mov	r25, r24
    27e4:	0e 94 64 33 	call	0x66c8	; 0x66c8 <__floatsisf>
    27e8:	6b 01       	movw	r12, r22
    27ea:	7c 01       	movw	r14, r24
    27ec:	60 93 9e 15 	sts	0x159E, r22
    27f0:	70 93 9f 15 	sts	0x159F, r23
    27f4:	80 93 a0 15 	sts	0x15A0, r24
    27f8:	90 93 a1 15 	sts	0x15A1, r25
    27fc:	20 e0       	ldi	r18, 0x00	; 0
    27fe:	30 e0       	ldi	r19, 0x00	; 0
    2800:	a9 01       	movw	r20, r18
    2802:	0e 94 c2 32 	call	0x6584	; 0x6584 <__cmpsf2>
    2806:	88 23       	and	r24, r24
    2808:	4c f4       	brge	.+18     	; 0x281c <_Z10move_robotiii+0x172>
    280a:	10 92 9e 15 	sts	0x159E, r1
    280e:	10 92 9f 15 	sts	0x159F, r1
    2812:	10 92 a0 15 	sts	0x15A0, r1
    2816:	10 92 a1 15 	sts	0x15A1, r1
    281a:	20 c0       	rjmp	.+64     	; 0x285c <_Z10move_robotiii+0x1b2>
    281c:	20 e0       	ldi	r18, 0x00	; 0
    281e:	30 e0       	ldi	r19, 0x00	; 0
    2820:	48 ec       	ldi	r20, 0xC8	; 200
    2822:	52 e4       	ldi	r21, 0x42	; 66
    2824:	c7 01       	movw	r24, r14
    2826:	b6 01       	movw	r22, r12
    2828:	0e 94 19 35 	call	0x6a32	; 0x6a32 <__gesf2>
    282c:	18 16       	cp	r1, r24
    282e:	6c f4       	brge	.+26     	; 0x284a <_Z10move_robotiii+0x1a0>
    2830:	80 e0       	ldi	r24, 0x00	; 0
    2832:	90 e0       	ldi	r25, 0x00	; 0
    2834:	a8 ec       	ldi	r26, 0xC8	; 200
    2836:	b2 e4       	ldi	r27, 0x42	; 66
    2838:	80 93 9e 15 	sts	0x159E, r24
    283c:	90 93 9f 15 	sts	0x159F, r25
    2840:	a0 93 a0 15 	sts	0x15A0, r26
    2844:	b0 93 a1 15 	sts	0x15A1, r27
    2848:	19 c0       	rjmp	.+50     	; 0x287c <_Z10move_robotiii+0x1d2>
    284a:	20 e0       	ldi	r18, 0x00	; 0
    284c:	30 e0       	ldi	r19, 0x00	; 0
    284e:	a9 01       	movw	r20, r18
    2850:	c7 01       	movw	r24, r14
    2852:	b6 01       	movw	r22, r12
    2854:	0e 94 c2 32 	call	0x6584	; 0x6584 <__cmpsf2>
    2858:	81 11       	cpse	r24, r1
    285a:	10 c0       	rjmp	.+32     	; 0x287c <_Z10move_robotiii+0x1d2>
    285c:	20 e0       	ldi	r18, 0x00	; 0
    285e:	30 e0       	ldi	r19, 0x00	; 0
    2860:	a9 01       	movw	r20, r18
    2862:	60 91 a2 15 	lds	r22, 0x15A2
    2866:	70 91 a3 15 	lds	r23, 0x15A3
    286a:	80 91 a4 15 	lds	r24, 0x15A4
    286e:	90 91 a5 15 	lds	r25, 0x15A5
    2872:	0e 94 c2 32 	call	0x6584	; 0x6584 <__cmpsf2>
    2876:	88 23       	and	r24, r24
    2878:	09 f4       	brne	.+2      	; 0x287c <_Z10move_robotiii+0x1d2>
    287a:	f7 c4       	rjmp	.+2542   	; 0x326a <_Z10move_robotiii+0xbc0>
    287c:	8c e7       	ldi	r24, 0x7C	; 124
    287e:	98 e1       	ldi	r25, 0x18	; 24
    2880:	0e 94 18 08 	call	0x1030	; 0x1030 <_Z10step_startP7LegData>
    2884:	82 ef       	ldi	r24, 0xF2	; 242
    2886:	97 e1       	ldi	r25, 0x17	; 23
    2888:	0e 94 18 08 	call	0x1030	; 0x1030 <_Z10step_startP7LegData>
    288c:	88 e6       	ldi	r24, 0x68	; 104
    288e:	97 e1       	ldi	r25, 0x17	; 23
    2890:	0e 94 18 08 	call	0x1030	; 0x1030 <_Z10step_startP7LegData>
    2894:	8e ed       	ldi	r24, 0xDE	; 222
    2896:	96 e1       	ldi	r25, 0x16	; 22
    2898:	0e 94 18 08 	call	0x1030	; 0x1030 <_Z10step_startP7LegData>
    289c:	84 e5       	ldi	r24, 0x54	; 84
    289e:	96 e1       	ldi	r25, 0x16	; 22
    28a0:	0e 94 18 08 	call	0x1030	; 0x1030 <_Z10step_startP7LegData>
    28a4:	8a ec       	ldi	r24, 0xCA	; 202
    28a6:	95 e1       	ldi	r25, 0x15	; 21
    28a8:	0e 94 18 08 	call	0x1030	; 0x1030 <_Z10step_startP7LegData>
    28ac:	e0 e8       	ldi	r30, 0x80	; 128
    28ae:	f8 e1       	ldi	r31, 0x18	; 24
    28b0:	80 81       	ld	r24, Z
    28b2:	91 81       	ldd	r25, Z+1	; 0x01
    28b4:	a2 81       	ldd	r26, Z+2	; 0x02
    28b6:	b3 81       	ldd	r27, Z+3	; 0x03
    28b8:	b0 58       	subi	r27, 0x80	; 128
    28ba:	80 83       	st	Z, r24
    28bc:	91 83       	std	Z+1, r25	; 0x01
    28be:	a2 83       	std	Z+2, r26	; 0x02
    28c0:	b3 83       	std	Z+3, r27	; 0x03
    28c2:	e6 ef       	ldi	r30, 0xF6	; 246
    28c4:	f7 e1       	ldi	r31, 0x17	; 23
    28c6:	80 81       	ld	r24, Z
    28c8:	91 81       	ldd	r25, Z+1	; 0x01
    28ca:	a2 81       	ldd	r26, Z+2	; 0x02
    28cc:	b3 81       	ldd	r27, Z+3	; 0x03
    28ce:	b0 58       	subi	r27, 0x80	; 128
    28d0:	80 83       	st	Z, r24
    28d2:	91 83       	std	Z+1, r25	; 0x01
    28d4:	a2 83       	std	Z+2, r26	; 0x02
    28d6:	b3 83       	std	Z+3, r27	; 0x03
    28d8:	ec e6       	ldi	r30, 0x6C	; 108
    28da:	f7 e1       	ldi	r31, 0x17	; 23
    28dc:	80 81       	ld	r24, Z
    28de:	91 81       	ldd	r25, Z+1	; 0x01
    28e0:	a2 81       	ldd	r26, Z+2	; 0x02
    28e2:	b3 81       	ldd	r27, Z+3	; 0x03
    28e4:	b0 58       	subi	r27, 0x80	; 128
    28e6:	80 83       	st	Z, r24
    28e8:	91 83       	std	Z+1, r25	; 0x01
    28ea:	a2 83       	std	Z+2, r26	; 0x02
    28ec:	b3 83       	std	Z+3, r27	; 0x03
    28ee:	e2 ee       	ldi	r30, 0xE2	; 226
    28f0:	f6 e1       	ldi	r31, 0x16	; 22
    28f2:	80 81       	ld	r24, Z
    28f4:	91 81       	ldd	r25, Z+1	; 0x01
    28f6:	a2 81       	ldd	r26, Z+2	; 0x02
    28f8:	b3 81       	ldd	r27, Z+3	; 0x03
    28fa:	b0 58       	subi	r27, 0x80	; 128
    28fc:	80 83       	st	Z, r24
    28fe:	91 83       	std	Z+1, r25	; 0x01
    2900:	a2 83       	std	Z+2, r26	; 0x02
    2902:	b3 83       	std	Z+3, r27	; 0x03
    2904:	e8 e5       	ldi	r30, 0x58	; 88
    2906:	f6 e1       	ldi	r31, 0x16	; 22
    2908:	80 81       	ld	r24, Z
    290a:	91 81       	ldd	r25, Z+1	; 0x01
    290c:	a2 81       	ldd	r26, Z+2	; 0x02
    290e:	b3 81       	ldd	r27, Z+3	; 0x03
    2910:	b0 58       	subi	r27, 0x80	; 128
    2912:	80 83       	st	Z, r24
    2914:	91 83       	std	Z+1, r25	; 0x01
    2916:	a2 83       	std	Z+2, r26	; 0x02
    2918:	b3 83       	std	Z+3, r27	; 0x03
    291a:	ee ec       	ldi	r30, 0xCE	; 206
    291c:	f5 e1       	ldi	r31, 0x15	; 21
    291e:	80 81       	ld	r24, Z
    2920:	91 81       	ldd	r25, Z+1	; 0x01
    2922:	a2 81       	ldd	r26, Z+2	; 0x02
    2924:	b3 81       	ldd	r27, Z+3	; 0x03
    2926:	b0 58       	subi	r27, 0x80	; 128
    2928:	80 83       	st	Z, r24
    292a:	91 83       	std	Z+1, r25	; 0x01
    292c:	a2 83       	std	Z+2, r26	; 0x02
    292e:	b3 83       	std	Z+3, r27	; 0x03
    2930:	2b ed       	ldi	r18, 0xDB	; 219
    2932:	3f e0       	ldi	r19, 0x0F	; 15
    2934:	49 e4       	ldi	r20, 0x49	; 73
    2936:	50 e4       	ldi	r21, 0x40	; 64
    2938:	60 91 a6 15 	lds	r22, 0x15A6
    293c:	70 91 a7 15 	lds	r23, 0x15A7
    2940:	80 91 a8 15 	lds	r24, 0x15A8
    2944:	90 91 a9 15 	lds	r25, 0x15A9
    2948:	0e 94 24 35 	call	0x6a48	; 0x6a48 <__mulsf3>
    294c:	20 e0       	ldi	r18, 0x00	; 0
    294e:	30 e0       	ldi	r19, 0x00	; 0
    2950:	44 e3       	ldi	r20, 0x34	; 52
    2952:	52 e4       	ldi	r21, 0x42	; 66
    2954:	0e 94 c9 32 	call	0x6592	; 0x6592 <__divsf3>
    2958:	06 2f       	mov	r16, r22
    295a:	17 2f       	mov	r17, r23
    295c:	a8 2e       	mov	r10, r24
    295e:	b9 2e       	mov	r11, r25
    2960:	0e 94 87 35 	call	0x6b0e	; 0x6b0e <sin>
    2964:	c0 90 9e 15 	lds	r12, 0x159E
    2968:	d0 90 9f 15 	lds	r13, 0x159F
    296c:	e0 90 a0 15 	lds	r14, 0x15A0
    2970:	f0 90 a1 15 	lds	r15, 0x15A1
    2974:	90 58       	subi	r25, 0x80	; 128
    2976:	a7 01       	movw	r20, r14
    2978:	96 01       	movw	r18, r12
    297a:	0e 94 24 35 	call	0x6a48	; 0x6a48 <__mulsf3>
    297e:	20 e0       	ldi	r18, 0x00	; 0
    2980:	30 e0       	ldi	r19, 0x00	; 0
    2982:	48 ec       	ldi	r20, 0xC8	; 200
    2984:	52 e4       	ldi	r21, 0x42	; 66
    2986:	0e 94 c9 32 	call	0x6592	; 0x6592 <__divsf3>
    298a:	60 93 9a 15 	sts	0x159A, r22
    298e:	70 93 9b 15 	sts	0x159B, r23
    2992:	80 93 9c 15 	sts	0x159C, r24
    2996:	90 93 9d 15 	sts	0x159D, r25
    299a:	60 2f       	mov	r22, r16
    299c:	71 2f       	mov	r23, r17
    299e:	8a 2d       	mov	r24, r10
    29a0:	9b 2d       	mov	r25, r11
    29a2:	0e 94 c6 32 	call	0x658c	; 0x658c <cos>
    29a6:	9b 01       	movw	r18, r22
    29a8:	ac 01       	movw	r20, r24
    29aa:	c7 01       	movw	r24, r14
    29ac:	b6 01       	movw	r22, r12
    29ae:	0e 94 24 35 	call	0x6a48	; 0x6a48 <__mulsf3>
    29b2:	20 e0       	ldi	r18, 0x00	; 0
    29b4:	30 e0       	ldi	r19, 0x00	; 0
    29b6:	48 ec       	ldi	r20, 0xC8	; 200
    29b8:	52 e4       	ldi	r21, 0x42	; 66
    29ba:	0e 94 c9 32 	call	0x6592	; 0x6592 <__divsf3>
    29be:	60 93 96 15 	sts	0x1596, r22
    29c2:	70 93 97 15 	sts	0x1597, r23
    29c6:	80 93 98 15 	sts	0x1598, r24
    29ca:	90 93 99 15 	sts	0x1599, r25
    29ce:	0e 94 ed 1f 	call	0x3fda	; 0x3fda <_Z8get_y0_1v>
    29d2:	0f 2e       	mov	r0, r31
    29d4:	f4 e8       	ldi	r31, 0x84	; 132
    29d6:	ef 2e       	mov	r14, r31
    29d8:	f8 e1       	ldi	r31, 0x18	; 24
    29da:	ff 2e       	mov	r15, r31
    29dc:	f0 2d       	mov	r31, r0
    29de:	20 91 a2 15 	lds	r18, 0x15A2
    29e2:	30 91 a3 15 	lds	r19, 0x15A3
    29e6:	40 91 a4 15 	lds	r20, 0x15A4
    29ea:	50 91 a5 15 	lds	r21, 0x15A5
    29ee:	0e 94 24 35 	call	0x6a48	; 0x6a48 <__mulsf3>
    29f2:	20 91 86 15 	lds	r18, 0x1586
    29f6:	30 91 87 15 	lds	r19, 0x1587
    29fa:	40 91 88 15 	lds	r20, 0x1588
    29fe:	50 91 89 15 	lds	r21, 0x1589
    2a02:	0e 94 c9 32 	call	0x6592	; 0x6592 <__divsf3>
    2a06:	f7 01       	movw	r30, r14
    2a08:	60 83       	st	Z, r22
    2a0a:	71 83       	std	Z+1, r23	; 0x01
    2a0c:	82 83       	std	Z+2, r24	; 0x02
    2a0e:	93 83       	std	Z+3, r25	; 0x03
    2a10:	0e 94 e0 1f 	call	0x3fc0	; 0x3fc0 <_Z8get_x0_1v>
    2a14:	80 90 a2 15 	lds	r8, 0x15A2
    2a18:	90 90 a3 15 	lds	r9, 0x15A3
    2a1c:	a0 90 a4 15 	lds	r10, 0x15A4
    2a20:	b0 90 a5 15 	lds	r11, 0x15A5
    2a24:	0f 2e       	mov	r0, r31
    2a26:	f8 e8       	ldi	r31, 0x88	; 136
    2a28:	6f 2e       	mov	r6, r31
    2a2a:	f8 e1       	ldi	r31, 0x18	; 24
    2a2c:	7f 2e       	mov	r7, r31
    2a2e:	f0 2d       	mov	r31, r0
    2a30:	a5 01       	movw	r20, r10
    2a32:	94 01       	movw	r18, r8
    2a34:	0e 94 24 35 	call	0x6a48	; 0x6a48 <__mulsf3>
    2a38:	20 91 86 15 	lds	r18, 0x1586
    2a3c:	30 91 87 15 	lds	r19, 0x1587
    2a40:	40 91 88 15 	lds	r20, 0x1588
    2a44:	50 91 89 15 	lds	r21, 0x1589
    2a48:	0e 94 c9 32 	call	0x6592	; 0x6592 <__divsf3>
    2a4c:	f3 01       	movw	r30, r6
    2a4e:	60 83       	st	Z, r22
    2a50:	71 83       	std	Z+1, r23	; 0x01
    2a52:	82 83       	std	Z+2, r24	; 0x02
    2a54:	93 83       	std	Z+3, r25	; 0x03
    2a56:	0a ef       	ldi	r16, 0xFA	; 250
    2a58:	17 e1       	ldi	r17, 0x17	; 23
    2a5a:	f8 01       	movw	r30, r16
    2a5c:	10 82       	st	Z, r1
    2a5e:	11 82       	std	Z+1, r1	; 0x01
    2a60:	12 82       	std	Z+2, r1	; 0x02
    2a62:	13 82       	std	Z+3, r1	; 0x03
    2a64:	ee ef       	ldi	r30, 0xFE	; 254
    2a66:	f7 e1       	ldi	r31, 0x17	; 23
    2a68:	80 82       	st	Z, r8
    2a6a:	91 82       	std	Z+1, r9	; 0x01
    2a6c:	a2 82       	std	Z+2, r10	; 0x02
    2a6e:	b3 82       	std	Z+3, r11	; 0x03
    2a70:	0e 94 ed 1f 	call	0x3fda	; 0x3fda <_Z8get_y0_1v>
    2a74:	90 58       	subi	r25, 0x80	; 128
    2a76:	20 91 86 15 	lds	r18, 0x1586
    2a7a:	30 91 87 15 	lds	r19, 0x1587
    2a7e:	40 91 88 15 	lds	r20, 0x1588
    2a82:	50 91 89 15 	lds	r21, 0x1589
    2a86:	0e 94 c9 32 	call	0x6592	; 0x6592 <__divsf3>
    2a8a:	20 91 a2 15 	lds	r18, 0x15A2
    2a8e:	30 91 a3 15 	lds	r19, 0x15A3
    2a92:	40 91 a4 15 	lds	r20, 0x15A4
    2a96:	50 91 a5 15 	lds	r21, 0x15A5
    2a9a:	0e 94 24 35 	call	0x6a48	; 0x6a48 <__mulsf3>
    2a9e:	e0 e7       	ldi	r30, 0x70	; 112
    2aa0:	f7 e1       	ldi	r31, 0x17	; 23
    2aa2:	60 83       	st	Z, r22
    2aa4:	71 83       	std	Z+1, r23	; 0x01
    2aa6:	82 83       	std	Z+2, r24	; 0x02
    2aa8:	93 83       	std	Z+3, r25	; 0x03
    2aaa:	0e 94 e0 1f 	call	0x3fc0	; 0x3fc0 <_Z8get_x0_1v>
    2aae:	20 91 a2 15 	lds	r18, 0x15A2
    2ab2:	30 91 a3 15 	lds	r19, 0x15A3
    2ab6:	40 91 a4 15 	lds	r20, 0x15A4
    2aba:	50 91 a5 15 	lds	r21, 0x15A5
    2abe:	0e 94 24 35 	call	0x6a48	; 0x6a48 <__mulsf3>
    2ac2:	20 91 86 15 	lds	r18, 0x1586
    2ac6:	30 91 87 15 	lds	r19, 0x1587
    2aca:	40 91 88 15 	lds	r20, 0x1588
    2ace:	50 91 89 15 	lds	r21, 0x1589
    2ad2:	0e 94 c9 32 	call	0x6592	; 0x6592 <__divsf3>
    2ad6:	e4 e7       	ldi	r30, 0x74	; 116
    2ad8:	f7 e1       	ldi	r31, 0x17	; 23
    2ada:	60 83       	st	Z, r22
    2adc:	71 83       	std	Z+1, r23	; 0x01
    2ade:	82 83       	std	Z+2, r24	; 0x02
    2ae0:	93 83       	std	Z+3, r25	; 0x03
    2ae2:	0e 94 ed 1f 	call	0x3fda	; 0x3fda <_Z8get_y0_1v>
    2ae6:	90 58       	subi	r25, 0x80	; 128
    2ae8:	20 91 86 15 	lds	r18, 0x1586
    2aec:	30 91 87 15 	lds	r19, 0x1587
    2af0:	40 91 88 15 	lds	r20, 0x1588
    2af4:	50 91 89 15 	lds	r21, 0x1589
    2af8:	0e 94 c9 32 	call	0x6592	; 0x6592 <__divsf3>
    2afc:	20 91 a2 15 	lds	r18, 0x15A2
    2b00:	30 91 a3 15 	lds	r19, 0x15A3
    2b04:	40 91 a4 15 	lds	r20, 0x15A4
    2b08:	50 91 a5 15 	lds	r21, 0x15A5
    2b0c:	0e 94 24 35 	call	0x6a48	; 0x6a48 <__mulsf3>
    2b10:	e6 ee       	ldi	r30, 0xE6	; 230
    2b12:	f6 e1       	ldi	r31, 0x16	; 22
    2b14:	60 83       	st	Z, r22
    2b16:	71 83       	std	Z+1, r23	; 0x01
    2b18:	82 83       	std	Z+2, r24	; 0x02
    2b1a:	93 83       	std	Z+3, r25	; 0x03
    2b1c:	0e 94 e0 1f 	call	0x3fc0	; 0x3fc0 <_Z8get_x0_1v>
    2b20:	80 90 a2 15 	lds	r8, 0x15A2
    2b24:	90 90 a3 15 	lds	r9, 0x15A3
    2b28:	a0 90 a4 15 	lds	r10, 0x15A4
    2b2c:	b0 90 a5 15 	lds	r11, 0x15A5
    2b30:	90 58       	subi	r25, 0x80	; 128
    2b32:	20 91 86 15 	lds	r18, 0x1586
    2b36:	30 91 87 15 	lds	r19, 0x1587
    2b3a:	40 91 88 15 	lds	r20, 0x1588
    2b3e:	50 91 89 15 	lds	r21, 0x1589
    2b42:	0e 94 c9 32 	call	0x6592	; 0x6592 <__divsf3>
    2b46:	a5 01       	movw	r20, r10
    2b48:	94 01       	movw	r18, r8
    2b4a:	0e 94 24 35 	call	0x6a48	; 0x6a48 <__mulsf3>
    2b4e:	ea ee       	ldi	r30, 0xEA	; 234
    2b50:	f6 e1       	ldi	r31, 0x16	; 22
    2b52:	60 83       	st	Z, r22
    2b54:	71 83       	std	Z+1, r23	; 0x01
    2b56:	82 83       	std	Z+2, r24	; 0x02
    2b58:	93 83       	std	Z+3, r25	; 0x03
    2b5a:	ec e5       	ldi	r30, 0x5C	; 92
    2b5c:	f6 e1       	ldi	r31, 0x16	; 22
    2b5e:	10 82       	st	Z, r1
    2b60:	11 82       	std	Z+1, r1	; 0x01
    2b62:	12 82       	std	Z+2, r1	; 0x02
    2b64:	13 82       	std	Z+3, r1	; 0x03
    2b66:	b7 fa       	bst	r11, 7
    2b68:	b0 94       	com	r11
    2b6a:	b7 f8       	bld	r11, 7
    2b6c:	b0 94       	com	r11
    2b6e:	e0 e6       	ldi	r30, 0x60	; 96
    2b70:	f6 e1       	ldi	r31, 0x16	; 22
    2b72:	80 82       	st	Z, r8
    2b74:	91 82       	std	Z+1, r9	; 0x01
    2b76:	a2 82       	std	Z+2, r10	; 0x02
    2b78:	b3 82       	std	Z+3, r11	; 0x03
    2b7a:	0e 94 ed 1f 	call	0x3fda	; 0x3fda <_Z8get_y0_1v>
    2b7e:	20 91 a2 15 	lds	r18, 0x15A2
    2b82:	30 91 a3 15 	lds	r19, 0x15A3
    2b86:	40 91 a4 15 	lds	r20, 0x15A4
    2b8a:	50 91 a5 15 	lds	r21, 0x15A5
    2b8e:	0e 94 24 35 	call	0x6a48	; 0x6a48 <__mulsf3>
    2b92:	20 91 86 15 	lds	r18, 0x1586
    2b96:	30 91 87 15 	lds	r19, 0x1587
    2b9a:	40 91 88 15 	lds	r20, 0x1588
    2b9e:	50 91 89 15 	lds	r21, 0x1589
    2ba2:	0e 94 c9 32 	call	0x6592	; 0x6592 <__divsf3>
    2ba6:	e2 ed       	ldi	r30, 0xD2	; 210
    2ba8:	f5 e1       	ldi	r31, 0x15	; 21
    2baa:	60 83       	st	Z, r22
    2bac:	71 83       	std	Z+1, r23	; 0x01
    2bae:	82 83       	std	Z+2, r24	; 0x02
    2bb0:	93 83       	std	Z+3, r25	; 0x03
    2bb2:	0e 94 e0 1f 	call	0x3fc0	; 0x3fc0 <_Z8get_x0_1v>
    2bb6:	20 91 a2 15 	lds	r18, 0x15A2
    2bba:	30 91 a3 15 	lds	r19, 0x15A3
    2bbe:	40 91 a4 15 	lds	r20, 0x15A4
    2bc2:	50 91 a5 15 	lds	r21, 0x15A5
    2bc6:	2a 87       	std	Y+10, r18	; 0x0a
    2bc8:	3b 87       	std	Y+11, r19	; 0x0b
    2bca:	4c 87       	std	Y+12, r20	; 0x0c
    2bcc:	5d 87       	std	Y+13, r21	; 0x0d
    2bce:	90 58       	subi	r25, 0x80	; 128
    2bd0:	20 91 86 15 	lds	r18, 0x1586
    2bd4:	30 91 87 15 	lds	r19, 0x1587
    2bd8:	40 91 88 15 	lds	r20, 0x1588
    2bdc:	50 91 89 15 	lds	r21, 0x1589
    2be0:	0e 94 c9 32 	call	0x6592	; 0x6592 <__divsf3>
    2be4:	2a 85       	ldd	r18, Y+10	; 0x0a
    2be6:	3b 85       	ldd	r19, Y+11	; 0x0b
    2be8:	4c 85       	ldd	r20, Y+12	; 0x0c
    2bea:	5d 85       	ldd	r21, Y+13	; 0x0d
    2bec:	0e 94 24 35 	call	0x6a48	; 0x6a48 <__mulsf3>
    2bf0:	6e 87       	std	Y+14, r22	; 0x0e
    2bf2:	7f 87       	std	Y+15, r23	; 0x0f
    2bf4:	88 8b       	std	Y+16, r24	; 0x10
    2bf6:	99 8b       	std	Y+17, r25	; 0x11
    2bf8:	47 2f       	mov	r20, r23
    2bfa:	38 2f       	mov	r19, r24
    2bfc:	29 2f       	mov	r18, r25
    2bfe:	86 2f       	mov	r24, r22
    2c00:	94 2f       	mov	r25, r20
    2c02:	a3 2f       	mov	r26, r19
    2c04:	b2 2f       	mov	r27, r18
    2c06:	80 93 d6 15 	sts	0x15D6, r24
    2c0a:	90 93 d7 15 	sts	0x15D7, r25
    2c0e:	a0 93 d8 15 	sts	0x15D8, r26
    2c12:	b0 93 d9 15 	sts	0x15D9, r27
    2c16:	80 90 9a 15 	lds	r8, 0x159A
    2c1a:	90 90 9b 15 	lds	r9, 0x159B
    2c1e:	a0 90 9c 15 	lds	r10, 0x159C
    2c22:	b0 90 9d 15 	lds	r11, 0x159D
    2c26:	f7 01       	movw	r30, r14
    2c28:	20 81       	ld	r18, Z
    2c2a:	31 81       	ldd	r19, Z+1	; 0x01
    2c2c:	42 81       	ldd	r20, Z+2	; 0x02
    2c2e:	53 81       	ldd	r21, Z+3	; 0x03
    2c30:	c5 01       	movw	r24, r10
    2c32:	b4 01       	movw	r22, r8
    2c34:	0e 94 e5 31 	call	0x63ca	; 0x63ca <__addsf3>
    2c38:	26 2e       	mov	r2, r22
    2c3a:	37 2e       	mov	r3, r23
    2c3c:	89 83       	std	Y+1, r24	; 0x01
    2c3e:	9d 83       	std	Y+5, r25	; 0x05
    2c40:	c0 90 96 15 	lds	r12, 0x1596
    2c44:	d0 90 97 15 	lds	r13, 0x1597
    2c48:	e0 90 98 15 	lds	r14, 0x1598
    2c4c:	f0 90 99 15 	lds	r15, 0x1599
    2c50:	f3 01       	movw	r30, r6
    2c52:	20 81       	ld	r18, Z
    2c54:	31 81       	ldd	r19, Z+1	; 0x01
    2c56:	42 81       	ldd	r20, Z+2	; 0x02
    2c58:	53 81       	ldd	r21, Z+3	; 0x03
    2c5a:	c7 01       	movw	r24, r14
    2c5c:	b6 01       	movw	r22, r12
    2c5e:	0e 94 e5 31 	call	0x63ca	; 0x63ca <__addsf3>
    2c62:	6e 83       	std	Y+6, r22	; 0x06
    2c64:	7a 8b       	std	Y+18, r23	; 0x12
    2c66:	8b 8b       	std	Y+19, r24	; 0x13
    2c68:	9c 8b       	std	Y+20, r25	; 0x14
    2c6a:	f8 01       	movw	r30, r16
    2c6c:	20 81       	ld	r18, Z
    2c6e:	31 81       	ldd	r19, Z+1	; 0x01
    2c70:	42 81       	ldd	r20, Z+2	; 0x02
    2c72:	53 81       	ldd	r21, Z+3	; 0x03
    2c74:	c5 01       	movw	r24, r10
    2c76:	b4 01       	movw	r22, r8
    2c78:	0e 94 e5 31 	call	0x63ca	; 0x63ca <__addsf3>
    2c7c:	46 2e       	mov	r4, r22
    2c7e:	57 2e       	mov	r5, r23
    2c80:	68 2e       	mov	r6, r24
    2c82:	79 2e       	mov	r7, r25
    2c84:	ee ef       	ldi	r30, 0xFE	; 254
    2c86:	f7 e1       	ldi	r31, 0x17	; 23
    2c88:	20 81       	ld	r18, Z
    2c8a:	31 81       	ldd	r19, Z+1	; 0x01
    2c8c:	42 81       	ldd	r20, Z+2	; 0x02
    2c8e:	53 81       	ldd	r21, Z+3	; 0x03
    2c90:	c7 01       	movw	r24, r14
    2c92:	b6 01       	movw	r22, r12
    2c94:	0e 94 e5 31 	call	0x63ca	; 0x63ca <__addsf3>
    2c98:	06 2f       	mov	r16, r22
    2c9a:	17 2f       	mov	r17, r23
    2c9c:	8e 8b       	std	Y+22, r24	; 0x16
    2c9e:	9d 8b       	std	Y+21, r25	; 0x15
    2ca0:	24 2d       	mov	r18, r4
    2ca2:	35 2d       	mov	r19, r5
    2ca4:	46 2d       	mov	r20, r6
    2ca6:	57 2d       	mov	r21, r7
    2ca8:	64 2d       	mov	r22, r4
    2caa:	75 2d       	mov	r23, r5
    2cac:	86 2d       	mov	r24, r6
    2cae:	97 2d       	mov	r25, r7
    2cb0:	0e 94 24 35 	call	0x6a48	; 0x6a48 <__mulsf3>
    2cb4:	2b 01       	movw	r4, r22
    2cb6:	3c 01       	movw	r6, r24
    2cb8:	9e 89       	ldd	r25, Y+22	; 0x16
    2cba:	8d 89       	ldd	r24, Y+21	; 0x15
    2cbc:	20 2f       	mov	r18, r16
    2cbe:	31 2f       	mov	r19, r17
    2cc0:	49 2f       	mov	r20, r25
    2cc2:	58 2f       	mov	r21, r24
    2cc4:	60 2f       	mov	r22, r16
    2cc6:	71 2f       	mov	r23, r17
    2cc8:	89 2f       	mov	r24, r25
    2cca:	95 2f       	mov	r25, r21
    2ccc:	0e 94 24 35 	call	0x6a48	; 0x6a48 <__mulsf3>
    2cd0:	9b 01       	movw	r18, r22
    2cd2:	ac 01       	movw	r20, r24
    2cd4:	c3 01       	movw	r24, r6
    2cd6:	b2 01       	movw	r22, r4
    2cd8:	0e 94 e5 31 	call	0x63ca	; 0x63ca <__addsf3>
    2cdc:	2b 01       	movw	r4, r22
    2cde:	3c 01       	movw	r6, r24
    2ce0:	99 81       	ldd	r25, Y+1	; 0x01
    2ce2:	8d 81       	ldd	r24, Y+5	; 0x05
    2ce4:	22 2d       	mov	r18, r2
    2ce6:	33 2d       	mov	r19, r3
    2ce8:	49 2f       	mov	r20, r25
    2cea:	58 2f       	mov	r21, r24
    2cec:	62 2d       	mov	r22, r2
    2cee:	73 2d       	mov	r23, r3
    2cf0:	89 2f       	mov	r24, r25
    2cf2:	95 2f       	mov	r25, r21
    2cf4:	0e 94 24 35 	call	0x6a48	; 0x6a48 <__mulsf3>
    2cf8:	69 83       	std	Y+1, r22	; 0x01
    2cfa:	7a 83       	std	Y+2, r23	; 0x02
    2cfc:	8b 83       	std	Y+3, r24	; 0x03
    2cfe:	9c 83       	std	Y+4, r25	; 0x04
    2d00:	7e 81       	ldd	r23, Y+6	; 0x06
    2d02:	6a 89       	ldd	r22, Y+18	; 0x12
    2d04:	9b 89       	ldd	r25, Y+19	; 0x13
    2d06:	8c 89       	ldd	r24, Y+20	; 0x14
    2d08:	27 2f       	mov	r18, r23
    2d0a:	36 2f       	mov	r19, r22
    2d0c:	49 2f       	mov	r20, r25
    2d0e:	58 2f       	mov	r21, r24
    2d10:	67 2f       	mov	r22, r23
    2d12:	73 2f       	mov	r23, r19
    2d14:	89 2f       	mov	r24, r25
    2d16:	95 2f       	mov	r25, r21
    2d18:	0e 94 24 35 	call	0x6a48	; 0x6a48 <__mulsf3>
    2d1c:	9b 01       	movw	r18, r22
    2d1e:	ac 01       	movw	r20, r24
    2d20:	69 81       	ldd	r22, Y+1	; 0x01
    2d22:	7a 81       	ldd	r23, Y+2	; 0x02
    2d24:	8b 81       	ldd	r24, Y+3	; 0x03
    2d26:	9c 81       	ldd	r25, Y+4	; 0x04
    2d28:	0e 94 e5 31 	call	0x63ca	; 0x63ca <__addsf3>
    2d2c:	a3 01       	movw	r20, r6
    2d2e:	92 01       	movw	r18, r4
    2d30:	0e 94 9f 33 	call	0x673e	; 0x673e <fmax>
    2d34:	2b 01       	movw	r4, r22
    2d36:	3c 01       	movw	r6, r24
    2d38:	e0 e7       	ldi	r30, 0x70	; 112
    2d3a:	f7 e1       	ldi	r31, 0x17	; 23
    2d3c:	20 81       	ld	r18, Z
    2d3e:	31 81       	ldd	r19, Z+1	; 0x01
    2d40:	42 81       	ldd	r20, Z+2	; 0x02
    2d42:	53 81       	ldd	r21, Z+3	; 0x03
    2d44:	c5 01       	movw	r24, r10
    2d46:	b4 01       	movw	r22, r8
    2d48:	0e 94 e5 31 	call	0x63ca	; 0x63ca <__addsf3>
    2d4c:	26 2e       	mov	r2, r22
    2d4e:	37 2e       	mov	r3, r23
    2d50:	08 2f       	mov	r16, r24
    2d52:	19 2f       	mov	r17, r25
    2d54:	e4 e7       	ldi	r30, 0x74	; 116
    2d56:	f7 e1       	ldi	r31, 0x17	; 23
    2d58:	20 81       	ld	r18, Z
    2d5a:	31 81       	ldd	r19, Z+1	; 0x01
    2d5c:	42 81       	ldd	r20, Z+2	; 0x02
    2d5e:	53 81       	ldd	r21, Z+3	; 0x03
    2d60:	c7 01       	movw	r24, r14
    2d62:	b6 01       	movw	r22, r12
    2d64:	0e 94 e5 31 	call	0x63ca	; 0x63ca <__addsf3>
    2d68:	6b 8b       	std	Y+19, r22	; 0x13
    2d6a:	7a 8b       	std	Y+18, r23	; 0x12
    2d6c:	89 83       	std	Y+1, r24	; 0x01
    2d6e:	9d 83       	std	Y+5, r25	; 0x05
    2d70:	22 2d       	mov	r18, r2
    2d72:	33 2d       	mov	r19, r3
    2d74:	40 2f       	mov	r20, r16
    2d76:	51 2f       	mov	r21, r17
    2d78:	62 2d       	mov	r22, r2
    2d7a:	73 2d       	mov	r23, r3
    2d7c:	80 2f       	mov	r24, r16
    2d7e:	91 2f       	mov	r25, r17
    2d80:	0e 94 24 35 	call	0x6a48	; 0x6a48 <__mulsf3>
    2d84:	6e 83       	std	Y+6, r22	; 0x06
    2d86:	7f 83       	std	Y+7, r23	; 0x07
    2d88:	88 87       	std	Y+8, r24	; 0x08
    2d8a:	99 87       	std	Y+9, r25	; 0x09
    2d8c:	7b 89       	ldd	r23, Y+19	; 0x13
    2d8e:	6a 89       	ldd	r22, Y+18	; 0x12
    2d90:	99 81       	ldd	r25, Y+1	; 0x01
    2d92:	8d 81       	ldd	r24, Y+5	; 0x05
    2d94:	27 2f       	mov	r18, r23
    2d96:	36 2f       	mov	r19, r22
    2d98:	49 2f       	mov	r20, r25
    2d9a:	58 2f       	mov	r21, r24
    2d9c:	67 2f       	mov	r22, r23
    2d9e:	73 2f       	mov	r23, r19
    2da0:	84 2f       	mov	r24, r20
    2da2:	95 2f       	mov	r25, r21
    2da4:	0e 94 24 35 	call	0x6a48	; 0x6a48 <__mulsf3>
    2da8:	9b 01       	movw	r18, r22
    2daa:	ac 01       	movw	r20, r24
    2dac:	6e 81       	ldd	r22, Y+6	; 0x06
    2dae:	7f 81       	ldd	r23, Y+7	; 0x07
    2db0:	88 85       	ldd	r24, Y+8	; 0x08
    2db2:	99 85       	ldd	r25, Y+9	; 0x09
    2db4:	0e 94 e5 31 	call	0x63ca	; 0x63ca <__addsf3>
    2db8:	9b 01       	movw	r18, r22
    2dba:	ac 01       	movw	r20, r24
    2dbc:	c3 01       	movw	r24, r6
    2dbe:	b2 01       	movw	r22, r4
    2dc0:	0e 94 9f 33 	call	0x673e	; 0x673e <fmax>
    2dc4:	2b 01       	movw	r4, r22
    2dc6:	3c 01       	movw	r6, r24
    2dc8:	e6 ee       	ldi	r30, 0xE6	; 230
    2dca:	f6 e1       	ldi	r31, 0x16	; 22
    2dcc:	20 81       	ld	r18, Z
    2dce:	31 81       	ldd	r19, Z+1	; 0x01
    2dd0:	42 81       	ldd	r20, Z+2	; 0x02
    2dd2:	53 81       	ldd	r21, Z+3	; 0x03
    2dd4:	c5 01       	movw	r24, r10
    2dd6:	b4 01       	movw	r22, r8
    2dd8:	0e 94 e5 31 	call	0x63ca	; 0x63ca <__addsf3>
    2ddc:	26 2e       	mov	r2, r22
    2dde:	37 2e       	mov	r3, r23
    2de0:	08 2f       	mov	r16, r24
    2de2:	19 2f       	mov	r17, r25
    2de4:	ea ee       	ldi	r30, 0xEA	; 234
    2de6:	f6 e1       	ldi	r31, 0x16	; 22
    2de8:	20 81       	ld	r18, Z
    2dea:	31 81       	ldd	r19, Z+1	; 0x01
    2dec:	42 81       	ldd	r20, Z+2	; 0x02
    2dee:	53 81       	ldd	r21, Z+3	; 0x03
    2df0:	c7 01       	movw	r24, r14
    2df2:	b6 01       	movw	r22, r12
    2df4:	0e 94 e5 31 	call	0x63ca	; 0x63ca <__addsf3>
    2df8:	6b 8b       	std	Y+19, r22	; 0x13
    2dfa:	7a 8b       	std	Y+18, r23	; 0x12
    2dfc:	89 83       	std	Y+1, r24	; 0x01
    2dfe:	9d 83       	std	Y+5, r25	; 0x05
    2e00:	22 2d       	mov	r18, r2
    2e02:	33 2d       	mov	r19, r3
    2e04:	40 2f       	mov	r20, r16
    2e06:	51 2f       	mov	r21, r17
    2e08:	62 2d       	mov	r22, r2
    2e0a:	73 2d       	mov	r23, r3
    2e0c:	80 2f       	mov	r24, r16
    2e0e:	91 2f       	mov	r25, r17
    2e10:	0e 94 24 35 	call	0x6a48	; 0x6a48 <__mulsf3>
    2e14:	6e 83       	std	Y+6, r22	; 0x06
    2e16:	7f 83       	std	Y+7, r23	; 0x07
    2e18:	88 87       	std	Y+8, r24	; 0x08
    2e1a:	99 87       	std	Y+9, r25	; 0x09
    2e1c:	7b 89       	ldd	r23, Y+19	; 0x13
    2e1e:	6a 89       	ldd	r22, Y+18	; 0x12
    2e20:	99 81       	ldd	r25, Y+1	; 0x01
    2e22:	8d 81       	ldd	r24, Y+5	; 0x05
    2e24:	27 2f       	mov	r18, r23
    2e26:	36 2f       	mov	r19, r22
    2e28:	49 2f       	mov	r20, r25
    2e2a:	58 2f       	mov	r21, r24
    2e2c:	67 2f       	mov	r22, r23
    2e2e:	73 2f       	mov	r23, r19
    2e30:	84 2f       	mov	r24, r20
    2e32:	95 2f       	mov	r25, r21
    2e34:	0e 94 24 35 	call	0x6a48	; 0x6a48 <__mulsf3>
    2e38:	9b 01       	movw	r18, r22
    2e3a:	ac 01       	movw	r20, r24
    2e3c:	6e 81       	ldd	r22, Y+6	; 0x06
    2e3e:	7f 81       	ldd	r23, Y+7	; 0x07
    2e40:	88 85       	ldd	r24, Y+8	; 0x08
    2e42:	99 85       	ldd	r25, Y+9	; 0x09
    2e44:	0e 94 e5 31 	call	0x63ca	; 0x63ca <__addsf3>
    2e48:	9b 01       	movw	r18, r22
    2e4a:	ac 01       	movw	r20, r24
    2e4c:	c3 01       	movw	r24, r6
    2e4e:	b2 01       	movw	r22, r4
    2e50:	0e 94 9f 33 	call	0x673e	; 0x673e <fmax>
    2e54:	2b 01       	movw	r4, r22
    2e56:	3c 01       	movw	r6, r24
    2e58:	ec e5       	ldi	r30, 0x5C	; 92
    2e5a:	f6 e1       	ldi	r31, 0x16	; 22
    2e5c:	20 81       	ld	r18, Z
    2e5e:	31 81       	ldd	r19, Z+1	; 0x01
    2e60:	42 81       	ldd	r20, Z+2	; 0x02
    2e62:	53 81       	ldd	r21, Z+3	; 0x03
    2e64:	c5 01       	movw	r24, r10
    2e66:	b4 01       	movw	r22, r8
    2e68:	0e 94 e5 31 	call	0x63ca	; 0x63ca <__addsf3>
    2e6c:	26 2e       	mov	r2, r22
    2e6e:	37 2e       	mov	r3, r23
    2e70:	08 2f       	mov	r16, r24
    2e72:	19 2f       	mov	r17, r25
    2e74:	e0 e6       	ldi	r30, 0x60	; 96
    2e76:	f6 e1       	ldi	r31, 0x16	; 22
    2e78:	20 81       	ld	r18, Z
    2e7a:	31 81       	ldd	r19, Z+1	; 0x01
    2e7c:	42 81       	ldd	r20, Z+2	; 0x02
    2e7e:	53 81       	ldd	r21, Z+3	; 0x03
    2e80:	c7 01       	movw	r24, r14
    2e82:	b6 01       	movw	r22, r12
    2e84:	0e 94 e5 31 	call	0x63ca	; 0x63ca <__addsf3>
    2e88:	6b 8b       	std	Y+19, r22	; 0x13
    2e8a:	7a 8b       	std	Y+18, r23	; 0x12
    2e8c:	89 83       	std	Y+1, r24	; 0x01
    2e8e:	9d 83       	std	Y+5, r25	; 0x05
    2e90:	22 2d       	mov	r18, r2
    2e92:	33 2d       	mov	r19, r3
    2e94:	40 2f       	mov	r20, r16
    2e96:	51 2f       	mov	r21, r17
    2e98:	62 2d       	mov	r22, r2
    2e9a:	73 2d       	mov	r23, r3
    2e9c:	80 2f       	mov	r24, r16
    2e9e:	91 2f       	mov	r25, r17
    2ea0:	0e 94 24 35 	call	0x6a48	; 0x6a48 <__mulsf3>
    2ea4:	6e 83       	std	Y+6, r22	; 0x06
    2ea6:	7f 83       	std	Y+7, r23	; 0x07
    2ea8:	88 87       	std	Y+8, r24	; 0x08
    2eaa:	99 87       	std	Y+9, r25	; 0x09
    2eac:	7b 89       	ldd	r23, Y+19	; 0x13
    2eae:	6a 89       	ldd	r22, Y+18	; 0x12
    2eb0:	99 81       	ldd	r25, Y+1	; 0x01
    2eb2:	8d 81       	ldd	r24, Y+5	; 0x05
    2eb4:	27 2f       	mov	r18, r23
    2eb6:	36 2f       	mov	r19, r22
    2eb8:	49 2f       	mov	r20, r25
    2eba:	58 2f       	mov	r21, r24
    2ebc:	67 2f       	mov	r22, r23
    2ebe:	73 2f       	mov	r23, r19
    2ec0:	84 2f       	mov	r24, r20
    2ec2:	95 2f       	mov	r25, r21
    2ec4:	0e 94 24 35 	call	0x6a48	; 0x6a48 <__mulsf3>
    2ec8:	9b 01       	movw	r18, r22
    2eca:	ac 01       	movw	r20, r24
    2ecc:	6e 81       	ldd	r22, Y+6	; 0x06
    2ece:	7f 81       	ldd	r23, Y+7	; 0x07
    2ed0:	88 85       	ldd	r24, Y+8	; 0x08
    2ed2:	99 85       	ldd	r25, Y+9	; 0x09
    2ed4:	0e 94 e5 31 	call	0x63ca	; 0x63ca <__addsf3>
    2ed8:	9b 01       	movw	r18, r22
    2eda:	ac 01       	movw	r20, r24
    2edc:	c3 01       	movw	r24, r6
    2ede:	b2 01       	movw	r22, r4
    2ee0:	0e 94 9f 33 	call	0x673e	; 0x673e <fmax>
    2ee4:	2b 01       	movw	r4, r22
    2ee6:	3c 01       	movw	r6, r24
    2ee8:	e2 ed       	ldi	r30, 0xD2	; 210
    2eea:	f5 e1       	ldi	r31, 0x15	; 21
    2eec:	20 81       	ld	r18, Z
    2eee:	31 81       	ldd	r19, Z+1	; 0x01
    2ef0:	42 81       	ldd	r20, Z+2	; 0x02
    2ef2:	53 81       	ldd	r21, Z+3	; 0x03
    2ef4:	c5 01       	movw	r24, r10
    2ef6:	b4 01       	movw	r22, r8
    2ef8:	0e 94 e5 31 	call	0x63ca	; 0x63ca <__addsf3>
    2efc:	06 2f       	mov	r16, r22
    2efe:	17 2f       	mov	r17, r23
    2f00:	a8 2e       	mov	r10, r24
    2f02:	b9 2e       	mov	r11, r25
    2f04:	a7 01       	movw	r20, r14
    2f06:	96 01       	movw	r18, r12
    2f08:	be 85       	ldd	r27, Y+14	; 0x0e
    2f0a:	af 85       	ldd	r26, Y+15	; 0x0f
    2f0c:	f8 88       	ldd	r15, Y+16	; 0x10
    2f0e:	e9 88       	ldd	r14, Y+17	; 0x11
    2f10:	6b 2f       	mov	r22, r27
    2f12:	7a 2f       	mov	r23, r26
    2f14:	8f 2d       	mov	r24, r15
    2f16:	9e 2d       	mov	r25, r14
    2f18:	0e 94 e5 31 	call	0x63ca	; 0x63ca <__addsf3>
    2f1c:	c6 2e       	mov	r12, r22
    2f1e:	d7 2e       	mov	r13, r23
    2f20:	e8 2e       	mov	r14, r24
    2f22:	f9 2e       	mov	r15, r25
    2f24:	20 2f       	mov	r18, r16
    2f26:	31 2f       	mov	r19, r17
    2f28:	4a 2d       	mov	r20, r10
    2f2a:	5b 2d       	mov	r21, r11
    2f2c:	60 2f       	mov	r22, r16
    2f2e:	71 2f       	mov	r23, r17
    2f30:	8a 2d       	mov	r24, r10
    2f32:	9b 2d       	mov	r25, r11
    2f34:	0e 94 24 35 	call	0x6a48	; 0x6a48 <__mulsf3>
    2f38:	4b 01       	movw	r8, r22
    2f3a:	5c 01       	movw	r10, r24
    2f3c:	2c 2d       	mov	r18, r12
    2f3e:	3d 2d       	mov	r19, r13
    2f40:	4e 2d       	mov	r20, r14
    2f42:	5f 2d       	mov	r21, r15
    2f44:	6c 2d       	mov	r22, r12
    2f46:	7d 2d       	mov	r23, r13
    2f48:	8e 2d       	mov	r24, r14
    2f4a:	9f 2d       	mov	r25, r15
    2f4c:	0e 94 24 35 	call	0x6a48	; 0x6a48 <__mulsf3>
    2f50:	9b 01       	movw	r18, r22
    2f52:	ac 01       	movw	r20, r24
    2f54:	c5 01       	movw	r24, r10
    2f56:	b4 01       	movw	r22, r8
    2f58:	0e 94 e5 31 	call	0x63ca	; 0x63ca <__addsf3>
    2f5c:	26 2f       	mov	r18, r22
    2f5e:	37 2f       	mov	r19, r23
    2f60:	46 2f       	mov	r20, r22
    2f62:	57 2f       	mov	r21, r23
    2f64:	68 2f       	mov	r22, r24
    2f66:	79 2f       	mov	r23, r25
    2f68:	40 93 8e 15 	sts	0x158E, r20
    2f6c:	50 93 8f 15 	sts	0x158F, r21
    2f70:	60 93 90 15 	sts	0x1590, r22
    2f74:	70 93 91 15 	sts	0x1591, r23
    2f78:	48 2f       	mov	r20, r24
    2f7a:	59 2f       	mov	r21, r25
    2f7c:	c3 01       	movw	r24, r6
    2f7e:	b2 01       	movw	r22, r4
    2f80:	0e 94 9f 33 	call	0x673e	; 0x673e <fmax>
    2f84:	0e 94 91 35 	call	0x6b22	; 0x6b22 <sqrt>
    2f88:	60 93 92 15 	sts	0x1592, r22
    2f8c:	70 93 93 15 	sts	0x1593, r23
    2f90:	80 93 94 15 	sts	0x1594, r24
    2f94:	90 93 95 15 	sts	0x1595, r25
    2f98:	ca 84       	ldd	r12, Y+10	; 0x0a
    2f9a:	db 84       	ldd	r13, Y+11	; 0x0b
    2f9c:	ec 84       	ldd	r14, Y+12	; 0x0c
    2f9e:	fd 84       	ldd	r15, Y+13	; 0x0d
    2fa0:	e8 94       	clt
    2fa2:	f7 f8       	bld	r15, 7
    2fa4:	20 e0       	ldi	r18, 0x00	; 0
    2fa6:	30 e0       	ldi	r19, 0x00	; 0
    2fa8:	48 ec       	ldi	r20, 0xC8	; 200
    2faa:	52 e4       	ldi	r21, 0x42	; 66
    2fac:	60 91 9e 15 	lds	r22, 0x159E
    2fb0:	70 91 9f 15 	lds	r23, 0x159F
    2fb4:	80 91 a0 15 	lds	r24, 0x15A0
    2fb8:	90 91 a1 15 	lds	r25, 0x15A1
    2fbc:	0e 94 c9 32 	call	0x6592	; 0x6592 <__divsf3>
    2fc0:	a7 01       	movw	r20, r14
    2fc2:	96 01       	movw	r18, r12
    2fc4:	0e 94 9f 33 	call	0x673e	; 0x673e <fmax>
    2fc8:	60 93 8a 15 	sts	0x158A, r22
    2fcc:	70 93 8b 15 	sts	0x158B, r23
    2fd0:	80 93 8c 15 	sts	0x158C, r24
    2fd4:	90 93 8d 15 	sts	0x158D, r25
    2fd8:	8c e7       	ldi	r24, 0x7C	; 124
    2fda:	98 e1       	ldi	r25, 0x18	; 24
    2fdc:	0e 94 42 08 	call	0x1084	; 0x1084 <_Z21step_part1_calculatorP7LegData>
    2fe0:	20 91 06 19 	lds	r18, 0x1906
    2fe4:	30 91 07 19 	lds	r19, 0x1907
    2fe8:	40 91 08 19 	lds	r20, 0x1908
    2fec:	50 91 09 19 	lds	r21, 0x1909
    2ff0:	60 91 0a 19 	lds	r22, 0x190A
    2ff4:	70 91 0b 19 	lds	r23, 0x190B
    2ff8:	80 91 0c 19 	lds	r24, 0x190C
    2ffc:	90 91 0d 19 	lds	r25, 0x190D
    3000:	0e 94 3b 21 	call	0x4276	; 0x4276 <_Z18basis_change_leg1xff>
    3004:	60 93 90 18 	sts	0x1890, r22
    3008:	70 93 91 18 	sts	0x1891, r23
    300c:	80 93 92 18 	sts	0x1892, r24
    3010:	90 93 93 18 	sts	0x1893, r25
    3014:	20 91 06 19 	lds	r18, 0x1906
    3018:	30 91 07 19 	lds	r19, 0x1907
    301c:	40 91 08 19 	lds	r20, 0x1908
    3020:	50 91 09 19 	lds	r21, 0x1909
    3024:	60 91 0a 19 	lds	r22, 0x190A
    3028:	70 91 0b 19 	lds	r23, 0x190B
    302c:	80 91 0c 19 	lds	r24, 0x190C
    3030:	90 91 0d 19 	lds	r25, 0x190D
    3034:	0e 94 84 21 	call	0x4308	; 0x4308 <_Z18basis_change_leg1yff>
    3038:	60 93 94 18 	sts	0x1894, r22
    303c:	70 93 95 18 	sts	0x1895, r23
    3040:	80 93 96 18 	sts	0x1896, r24
    3044:	90 93 97 18 	sts	0x1897, r25
    3048:	8c e7       	ldi	r24, 0x7C	; 124
    304a:	98 e1       	ldi	r25, 0x18	; 24
    304c:	0e 94 c2 08 	call	0x1184	; 0x1184 <_Z21step_part2_calculatorP7LegData>
    3050:	82 ef       	ldi	r24, 0xF2	; 242
    3052:	97 e1       	ldi	r25, 0x17	; 23
    3054:	0e 94 42 08 	call	0x1084	; 0x1084 <_Z21step_part1_calculatorP7LegData>
    3058:	60 91 0a 19 	lds	r22, 0x190A
    305c:	70 91 0b 19 	lds	r23, 0x190B
    3060:	80 91 0c 19 	lds	r24, 0x190C
    3064:	90 91 0d 19 	lds	r25, 0x190D
    3068:	0e 94 cd 21 	call	0x439a	; 0x439a <_Z18basis_change_leg2xf>
    306c:	60 93 06 18 	sts	0x1806, r22
    3070:	70 93 07 18 	sts	0x1807, r23
    3074:	80 93 08 18 	sts	0x1808, r24
    3078:	90 93 09 18 	sts	0x1809, r25
    307c:	60 91 06 19 	lds	r22, 0x1906
    3080:	70 91 07 19 	lds	r23, 0x1907
    3084:	80 91 08 19 	lds	r24, 0x1908
    3088:	90 91 09 19 	lds	r25, 0x1909
    308c:	0e 94 e5 21 	call	0x43ca	; 0x43ca <_Z18basis_change_leg2yf>
    3090:	60 93 0a 18 	sts	0x180A, r22
    3094:	70 93 0b 18 	sts	0x180B, r23
    3098:	80 93 0c 18 	sts	0x180C, r24
    309c:	90 93 0d 18 	sts	0x180D, r25
    30a0:	82 ef       	ldi	r24, 0xF2	; 242
    30a2:	97 e1       	ldi	r25, 0x17	; 23
    30a4:	0e 94 c2 08 	call	0x1184	; 0x1184 <_Z21step_part2_calculatorP7LegData>
    30a8:	88 e6       	ldi	r24, 0x68	; 104
    30aa:	97 e1       	ldi	r25, 0x17	; 23
    30ac:	0e 94 42 08 	call	0x1084	; 0x1084 <_Z21step_part1_calculatorP7LegData>
    30b0:	20 91 06 19 	lds	r18, 0x1906
    30b4:	30 91 07 19 	lds	r19, 0x1907
    30b8:	40 91 08 19 	lds	r20, 0x1908
    30bc:	50 91 09 19 	lds	r21, 0x1909
    30c0:	60 91 0a 19 	lds	r22, 0x190A
    30c4:	70 91 0b 19 	lds	r23, 0x190B
    30c8:	80 91 0c 19 	lds	r24, 0x190C
    30cc:	90 91 0d 19 	lds	r25, 0x190D
    30d0:	0e 94 f7 21 	call	0x43ee	; 0x43ee <_Z18basis_change_leg3xff>
    30d4:	60 93 7c 17 	sts	0x177C, r22
    30d8:	70 93 7d 17 	sts	0x177D, r23
    30dc:	80 93 7e 17 	sts	0x177E, r24
    30e0:	90 93 7f 17 	sts	0x177F, r25
    30e4:	20 91 06 19 	lds	r18, 0x1906
    30e8:	30 91 07 19 	lds	r19, 0x1907
    30ec:	40 91 08 19 	lds	r20, 0x1908
    30f0:	50 91 09 19 	lds	r21, 0x1909
    30f4:	60 91 0a 19 	lds	r22, 0x190A
    30f8:	70 91 0b 19 	lds	r23, 0x190B
    30fc:	80 91 0c 19 	lds	r24, 0x190C
    3100:	90 91 0d 19 	lds	r25, 0x190D
    3104:	0e 94 40 22 	call	0x4480	; 0x4480 <_Z18basis_change_leg3yff>
    3108:	60 93 80 17 	sts	0x1780, r22
    310c:	70 93 81 17 	sts	0x1781, r23
    3110:	80 93 82 17 	sts	0x1782, r24
    3114:	90 93 83 17 	sts	0x1783, r25
    3118:	88 e6       	ldi	r24, 0x68	; 104
    311a:	97 e1       	ldi	r25, 0x17	; 23
    311c:	0e 94 c2 08 	call	0x1184	; 0x1184 <_Z21step_part2_calculatorP7LegData>
    3120:	8e ed       	ldi	r24, 0xDE	; 222
    3122:	96 e1       	ldi	r25, 0x16	; 22
    3124:	0e 94 42 08 	call	0x1084	; 0x1084 <_Z21step_part1_calculatorP7LegData>
    3128:	20 91 06 19 	lds	r18, 0x1906
    312c:	30 91 07 19 	lds	r19, 0x1907
    3130:	40 91 08 19 	lds	r20, 0x1908
    3134:	50 91 09 19 	lds	r21, 0x1909
    3138:	60 91 0a 19 	lds	r22, 0x190A
    313c:	70 91 0b 19 	lds	r23, 0x190B
    3140:	80 91 0c 19 	lds	r24, 0x190C
    3144:	90 91 0d 19 	lds	r25, 0x190D
    3148:	0e 94 89 22 	call	0x4512	; 0x4512 <_Z18basis_change_leg4xff>
    314c:	60 93 f2 16 	sts	0x16F2, r22
    3150:	70 93 f3 16 	sts	0x16F3, r23
    3154:	80 93 f4 16 	sts	0x16F4, r24
    3158:	90 93 f5 16 	sts	0x16F5, r25
    315c:	20 91 06 19 	lds	r18, 0x1906
    3160:	30 91 07 19 	lds	r19, 0x1907
    3164:	40 91 08 19 	lds	r20, 0x1908
    3168:	50 91 09 19 	lds	r21, 0x1909
    316c:	60 91 0a 19 	lds	r22, 0x190A
    3170:	70 91 0b 19 	lds	r23, 0x190B
    3174:	80 91 0c 19 	lds	r24, 0x190C
    3178:	90 91 0d 19 	lds	r25, 0x190D
    317c:	0e 94 d2 22 	call	0x45a4	; 0x45a4 <_Z18basis_change_leg4yff>
    3180:	60 93 f6 16 	sts	0x16F6, r22
    3184:	70 93 f7 16 	sts	0x16F7, r23
    3188:	80 93 f8 16 	sts	0x16F8, r24
    318c:	90 93 f9 16 	sts	0x16F9, r25
    3190:	8e ed       	ldi	r24, 0xDE	; 222
    3192:	96 e1       	ldi	r25, 0x16	; 22
    3194:	0e 94 c2 08 	call	0x1184	; 0x1184 <_Z21step_part2_calculatorP7LegData>
    3198:	84 e5       	ldi	r24, 0x54	; 84
    319a:	96 e1       	ldi	r25, 0x16	; 22
    319c:	0e 94 42 08 	call	0x1084	; 0x1084 <_Z21step_part1_calculatorP7LegData>
    31a0:	60 91 0a 19 	lds	r22, 0x190A
    31a4:	70 91 0b 19 	lds	r23, 0x190B
    31a8:	80 91 0c 19 	lds	r24, 0x190C
    31ac:	90 91 0d 19 	lds	r25, 0x190D
    31b0:	0e 94 1b 23 	call	0x4636	; 0x4636 <_Z18basis_change_leg5xf>
    31b4:	60 93 68 16 	sts	0x1668, r22
    31b8:	70 93 69 16 	sts	0x1669, r23
    31bc:	80 93 6a 16 	sts	0x166A, r24
    31c0:	90 93 6b 16 	sts	0x166B, r25
    31c4:	60 91 06 19 	lds	r22, 0x1906
    31c8:	70 91 07 19 	lds	r23, 0x1907
    31cc:	80 91 08 19 	lds	r24, 0x1908
    31d0:	90 91 09 19 	lds	r25, 0x1909
    31d4:	0e 94 2b 23 	call	0x4656	; 0x4656 <_Z18basis_change_leg5yf>
    31d8:	60 93 6c 16 	sts	0x166C, r22
    31dc:	70 93 6d 16 	sts	0x166D, r23
    31e0:	80 93 6e 16 	sts	0x166E, r24
    31e4:	90 93 6f 16 	sts	0x166F, r25
    31e8:	84 e5       	ldi	r24, 0x54	; 84
    31ea:	96 e1       	ldi	r25, 0x16	; 22
    31ec:	0e 94 c2 08 	call	0x1184	; 0x1184 <_Z21step_part2_calculatorP7LegData>
    31f0:	8a ec       	ldi	r24, 0xCA	; 202
    31f2:	95 e1       	ldi	r25, 0x15	; 21
    31f4:	0e 94 42 08 	call	0x1084	; 0x1084 <_Z21step_part1_calculatorP7LegData>
    31f8:	20 91 06 19 	lds	r18, 0x1906
    31fc:	30 91 07 19 	lds	r19, 0x1907
    3200:	40 91 08 19 	lds	r20, 0x1908
    3204:	50 91 09 19 	lds	r21, 0x1909
    3208:	60 91 0a 19 	lds	r22, 0x190A
    320c:	70 91 0b 19 	lds	r23, 0x190B
    3210:	80 91 0c 19 	lds	r24, 0x190C
    3214:	90 91 0d 19 	lds	r25, 0x190D
    3218:	0e 94 35 23 	call	0x466a	; 0x466a <_Z18basis_change_leg6xff>
    321c:	60 93 de 15 	sts	0x15DE, r22
    3220:	70 93 df 15 	sts	0x15DF, r23
    3224:	80 93 e0 15 	sts	0x15E0, r24
    3228:	90 93 e1 15 	sts	0x15E1, r25
    322c:	20 91 06 19 	lds	r18, 0x1906
    3230:	30 91 07 19 	lds	r19, 0x1907
    3234:	40 91 08 19 	lds	r20, 0x1908
    3238:	50 91 09 19 	lds	r21, 0x1909
    323c:	60 91 0a 19 	lds	r22, 0x190A
    3240:	70 91 0b 19 	lds	r23, 0x190B
    3244:	80 91 0c 19 	lds	r24, 0x190C
    3248:	90 91 0d 19 	lds	r25, 0x190D
    324c:	0e 94 7e 23 	call	0x46fc	; 0x46fc <_Z18basis_change_leg6yff>
    3250:	60 93 e2 15 	sts	0x15E2, r22
    3254:	70 93 e3 15 	sts	0x15E3, r23
    3258:	80 93 e4 15 	sts	0x15E4, r24
    325c:	90 93 e5 15 	sts	0x15E5, r25
    3260:	8a ec       	ldi	r24, 0xCA	; 202
    3262:	95 e1       	ldi	r25, 0x15	; 21
    3264:	0e 94 c2 08 	call	0x1184	; 0x1184 <_Z21step_part2_calculatorP7LegData>
    3268:	12 d8       	rcall	.-4060   	; 0x228e <_Z10leg_motionv>
    326a:	66 96       	adiw	r28, 0x16	; 22
    326c:	0f b6       	in	r0, 0x3f	; 63
    326e:	f8 94       	cli
    3270:	de bf       	out	0x3e, r29	; 62
    3272:	0f be       	out	0x3f, r0	; 63
    3274:	cd bf       	out	0x3d, r28	; 61
    3276:	df 91       	pop	r29
    3278:	cf 91       	pop	r28
    327a:	1f 91       	pop	r17
    327c:	0f 91       	pop	r16
    327e:	ff 90       	pop	r15
    3280:	ef 90       	pop	r14
    3282:	df 90       	pop	r13
    3284:	cf 90       	pop	r12
    3286:	bf 90       	pop	r11
    3288:	af 90       	pop	r10
    328a:	9f 90       	pop	r9
    328c:	8f 90       	pop	r8
    328e:	7f 90       	pop	r7
    3290:	6f 90       	pop	r6
    3292:	5f 90       	pop	r5
    3294:	4f 90       	pop	r4
    3296:	3f 90       	pop	r3
    3298:	2f 90       	pop	r2
    329a:	08 95       	ret

0000329c <_Z12turn_degreesja>:
	*/
/*
}*/

void turn_degrees(uint16_t degrees, int8_t dir)
{
    329c:	2f 92       	push	r2
    329e:	3f 92       	push	r3
    32a0:	4f 92       	push	r4
    32a2:	5f 92       	push	r5
    32a4:	6f 92       	push	r6
    32a6:	7f 92       	push	r7
    32a8:	8f 92       	push	r8
    32aa:	9f 92       	push	r9
    32ac:	af 92       	push	r10
    32ae:	bf 92       	push	r11
    32b0:	cf 92       	push	r12
    32b2:	df 92       	push	r13
    32b4:	ef 92       	push	r14
    32b6:	ff 92       	push	r15
    32b8:	0f 93       	push	r16
    32ba:	1f 93       	push	r17
    32bc:	cf 93       	push	r28
    32be:	df 93       	push	r29
    32c0:	cd b7       	in	r28, 0x3d	; 61
    32c2:	de b7       	in	r29, 0x3e	; 62
    32c4:	27 97       	sbiw	r28, 0x07	; 7
    32c6:	0f b6       	in	r0, 0x3f	; 63
    32c8:	f8 94       	cli
    32ca:	de bf       	out	0x3e, r29	; 62
    32cc:	0f be       	out	0x3f, r0	; 63
    32ce:	cd bf       	out	0x3d, r28	; 61
    32d0:	26 2e       	mov	r2, r22
	float radians = degrees * M_PI/180;
    32d2:	bc 01       	movw	r22, r24
    32d4:	80 e0       	ldi	r24, 0x00	; 0
    32d6:	90 e0       	ldi	r25, 0x00	; 0
    32d8:	0e 94 62 33 	call	0x66c4	; 0x66c4 <__floatunsisf>
    32dc:	2b ed       	ldi	r18, 0xDB	; 219
    32de:	3f e0       	ldi	r19, 0x0F	; 15
    32e0:	49 e4       	ldi	r20, 0x49	; 73
    32e2:	50 e4       	ldi	r21, 0x40	; 64
    32e4:	0e 94 24 35 	call	0x6a48	; 0x6a48 <__mulsf3>
    32e8:	20 e0       	ldi	r18, 0x00	; 0
    32ea:	30 e0       	ldi	r19, 0x00	; 0
    32ec:	44 e3       	ldi	r20, 0x34	; 52
    32ee:	53 e4       	ldi	r21, 0x43	; 67
    32f0:	0e 94 c9 32 	call	0x6592	; 0x6592 <__divsf3>
    32f4:	46 2f       	mov	r20, r22
    32f6:	57 2f       	mov	r21, r23
    32f8:	68 2f       	mov	r22, r24
    32fa:	79 2f       	mov	r23, r25
    32fc:	4a 83       	std	Y+2, r20	; 0x02
    32fe:	5b 83       	std	Y+3, r21	; 0x03
    3300:	6c 83       	std	Y+4, r22	; 0x04
    3302:	7d 83       	std	Y+5, r23	; 0x05
	float tolerance = 2 * M_PI/180;
	wait(10);
    3304:	8a e0       	ldi	r24, 0x0A	; 10
    3306:	90 e0       	ldi	r25, 0x00	; 0
    3308:	0e 94 47 05 	call	0xa8e	; 0xa8e <_Z4waitj>
	float startAngle = MPU_get_y();
    330c:	0e 94 40 2c 	call	0x5880	; 0x5880 <_Z9MPU_get_yv>
    3310:	36 2e       	mov	r3, r22
    3312:	47 2e       	mov	r4, r23
    3314:	58 2e       	mov	r5, r24
    3316:	99 83       	std	Y+1, r25	; 0x01
	float newAngle;
	float angleLeft, move;
	USART_SendValue(startAngle*180/M_PI);
    3318:	20 e0       	ldi	r18, 0x00	; 0
    331a:	30 e0       	ldi	r19, 0x00	; 0
    331c:	44 e3       	ldi	r20, 0x34	; 52
    331e:	53 e4       	ldi	r21, 0x43	; 67
    3320:	0e 94 24 35 	call	0x6a48	; 0x6a48 <__mulsf3>
    3324:	2b ed       	ldi	r18, 0xDB	; 219
    3326:	3f e0       	ldi	r19, 0x0F	; 15
    3328:	49 e4       	ldi	r20, 0x49	; 73
    332a:	50 e4       	ldi	r21, 0x40	; 64
    332c:	0e 94 c9 32 	call	0x6592	; 0x6592 <__divsf3>
    3330:	0e 94 46 31 	call	0x628c	; 0x628c <_Z15USART_SendValuef>
	float diff, realDiff;
	
	do
	{
		wait(10);
    3334:	8a e0       	ldi	r24, 0x0A	; 10
    3336:	90 e0       	ldi	r25, 0x00	; 0
    3338:	0e 94 47 05 	call	0xa8e	; 0xa8e <_Z4waitj>
		newAngle = MPU_get_y();
    333c:	0e 94 40 2c 	call	0x5880	; 0x5880 <_Z9MPU_get_yv>
    3340:	06 2f       	mov	r16, r22
    3342:	17 2f       	mov	r17, r23
    3344:	68 2e       	mov	r6, r24
    3346:	79 2e       	mov	r7, r25
		
		diff = newAngle - startAngle;
    3348:	89 81       	ldd	r24, Y+1	; 0x01
    334a:	23 2d       	mov	r18, r3
    334c:	34 2d       	mov	r19, r4
    334e:	45 2d       	mov	r20, r5
    3350:	58 2f       	mov	r21, r24
    3352:	60 2f       	mov	r22, r16
    3354:	71 2f       	mov	r23, r17
    3356:	86 2d       	mov	r24, r6
    3358:	97 2d       	mov	r25, r7
    335a:	0e 94 e4 31 	call	0x63c8	; 0x63c8 <__subsf3>
    335e:	c6 2e       	mov	r12, r22
    3360:	d7 2e       	mov	r13, r23
    3362:	e8 2e       	mov	r14, r24
    3364:	f9 2e       	mov	r15, r25
		
		if(fabs(diff) <= M_PI)
    3366:	46 01       	movw	r8, r12
    3368:	57 01       	movw	r10, r14
    336a:	e8 94       	clt
    336c:	b7 f8       	bld	r11, 7
    336e:	2b ed       	ldi	r18, 0xDB	; 219
    3370:	3f e0       	ldi	r19, 0x0F	; 15
    3372:	49 e4       	ldi	r20, 0x49	; 73
    3374:	50 e4       	ldi	r21, 0x40	; 64
    3376:	c5 01       	movw	r24, r10
    3378:	b4 01       	movw	r22, r8
    337a:	0e 94 c2 32 	call	0x6584	; 0x6584 <__cmpsf2>
    337e:	18 16       	cp	r1, r24
    3380:	cc f5       	brge	.+114    	; 0x33f4 <_Z12turn_degreesja+0x158>
		{
			realDiff = fabs(diff);
		} else if(diff < 0) {
    3382:	20 e0       	ldi	r18, 0x00	; 0
    3384:	30 e0       	ldi	r19, 0x00	; 0
    3386:	a9 01       	movw	r20, r18
    3388:	c7 01       	movw	r24, r14
    338a:	b6 01       	movw	r22, r12
    338c:	0e 94 c2 32 	call	0x6584	; 0x6584 <__cmpsf2>
    3390:	88 23       	and	r24, r24
    3392:	bc f4       	brge	.+46     	; 0x33c2 <_Z12turn_degreesja+0x126>
			PORTC ^= (1<<PORTC6);
    3394:	88 b1       	in	r24, 0x08	; 8
    3396:	90 e4       	ldi	r25, 0x40	; 64
    3398:	89 27       	eor	r24, r25
    339a:	88 b9       	out	0x08, r24	; 8
			realDiff = M_PI + fmod(diff, M_PI);
    339c:	2b ed       	ldi	r18, 0xDB	; 219
    339e:	3f e0       	ldi	r19, 0x0F	; 15
    33a0:	49 e4       	ldi	r20, 0x49	; 73
    33a2:	50 e4       	ldi	r21, 0x40	; 64
    33a4:	c7 01       	movw	r24, r14
    33a6:	b6 01       	movw	r22, r12
    33a8:	0e 94 c5 33 	call	0x678a	; 0x678a <fmod>
    33ac:	2b ed       	ldi	r18, 0xDB	; 219
    33ae:	3f e0       	ldi	r19, 0x0F	; 15
    33b0:	49 e4       	ldi	r20, 0x49	; 73
    33b2:	50 e4       	ldi	r21, 0x40	; 64
    33b4:	0e 94 e5 31 	call	0x63ca	; 0x63ca <__addsf3>
    33b8:	86 2e       	mov	r8, r22
    33ba:	97 2e       	mov	r9, r23
    33bc:	a8 2e       	mov	r10, r24
    33be:	b9 2e       	mov	r11, r25
    33c0:	19 c0       	rjmp	.+50     	; 0x33f4 <_Z12turn_degreesja+0x158>
		} else {
			PORTC ^= (1<<PORTC7);
    33c2:	88 b1       	in	r24, 0x08	; 8
    33c4:	80 58       	subi	r24, 0x80	; 128
    33c6:	88 b9       	out	0x08, r24	; 8
			realDiff = M_PI - fmod(diff, M_PI);
    33c8:	2b ed       	ldi	r18, 0xDB	; 219
    33ca:	3f e0       	ldi	r19, 0x0F	; 15
    33cc:	49 e4       	ldi	r20, 0x49	; 73
    33ce:	50 e4       	ldi	r21, 0x40	; 64
    33d0:	c7 01       	movw	r24, r14
    33d2:	b6 01       	movw	r22, r12
    33d4:	0e 94 c5 33 	call	0x678a	; 0x678a <fmod>
    33d8:	26 2f       	mov	r18, r22
    33da:	37 2f       	mov	r19, r23
    33dc:	48 2f       	mov	r20, r24
    33de:	59 2f       	mov	r21, r25
    33e0:	6b ed       	ldi	r22, 0xDB	; 219
    33e2:	7f e0       	ldi	r23, 0x0F	; 15
    33e4:	89 e4       	ldi	r24, 0x49	; 73
    33e6:	90 e4       	ldi	r25, 0x40	; 64
    33e8:	0e 94 e4 31 	call	0x63c8	; 0x63c8 <__subsf3>
    33ec:	86 2e       	mov	r8, r22
    33ee:	97 2e       	mov	r9, r23
    33f0:	a8 2e       	mov	r10, r24
    33f2:	b9 2e       	mov	r11, r25
		}
		angleLeft = radians - realDiff;
    33f4:	a5 01       	movw	r20, r10
    33f6:	94 01       	movw	r18, r8
    33f8:	6a 81       	ldd	r22, Y+2	; 0x02
    33fa:	7b 81       	ldd	r23, Y+3	; 0x03
    33fc:	8c 81       	ldd	r24, Y+4	; 0x04
    33fe:	9d 81       	ldd	r25, Y+5	; 0x05
    3400:	0e 94 e4 31 	call	0x63c8	; 0x63c8 <__subsf3>
    3404:	c6 2e       	mov	r12, r22
    3406:	d7 2e       	mov	r13, r23
    3408:	e8 2e       	mov	r14, r24
    340a:	f9 2e       	mov	r15, r25
		
		
		if(fabs(realDiff) >= M_PI_2)
    340c:	c5 01       	movw	r24, r10
    340e:	b4 01       	movw	r22, r8
    3410:	9f 77       	andi	r25, 0x7F	; 127
    3412:	2b ed       	ldi	r18, 0xDB	; 219
    3414:	3f e0       	ldi	r19, 0x0F	; 15
    3416:	49 ec       	ldi	r20, 0xC9	; 201
    3418:	5f e3       	ldi	r21, 0x3F	; 63
    341a:	0e 94 19 35 	call	0x6a32	; 0x6a32 <__gesf2>
    341e:	88 23       	and	r24, r24
    3420:	04 f1       	brlt	.+64     	; 0x3462 <_Z12turn_degreesja+0x1c6>
		{
			radians -= realDiff;
			startAngle = newAngle;
			
			if(radians < 0)
    3422:	20 e0       	ldi	r18, 0x00	; 0
    3424:	30 e0       	ldi	r19, 0x00	; 0
    3426:	a9 01       	movw	r20, r18
    3428:	c7 01       	movw	r24, r14
    342a:	b6 01       	movw	r22, r12
    342c:	0e 94 c2 32 	call	0x6584	; 0x6584 <__cmpsf2>
    3430:	88 23       	and	r24, r24
    3432:	7c f4       	brge	.+30     	; 0x3452 <_Z12turn_degreesja+0x1b6>
			{
				radians *= -1;
    3434:	d7 01       	movw	r26, r14
    3436:	c6 01       	movw	r24, r12
    3438:	b0 58       	subi	r27, 0x80	; 128
    343a:	8a 83       	std	Y+2, r24	; 0x02
    343c:	9b 83       	std	Y+3, r25	; 0x03
    343e:	ac 83       	std	Y+4, r26	; 0x04
    3440:	bd 83       	std	Y+5, r27	; 0x05
				dir *= -1;
    3442:	21 94       	neg	r2
				angleLeft *= -1;
    3444:	6c 01       	movw	r12, r24
    3446:	7d 01       	movw	r14, r26
		
		
		if(fabs(realDiff) >= M_PI_2)
		{
			radians -= realDiff;
			startAngle = newAngle;
    3448:	30 2e       	mov	r3, r16
    344a:	41 2e       	mov	r4, r17
    344c:	56 2c       	mov	r5, r6
    344e:	79 82       	std	Y+1, r7	; 0x01
    3450:	08 c0       	rjmp	.+16     	; 0x3462 <_Z12turn_degreesja+0x1c6>
    3452:	30 2e       	mov	r3, r16
    3454:	41 2e       	mov	r4, r17
    3456:	56 2c       	mov	r5, r6
    3458:	79 82       	std	Y+1, r7	; 0x01
		angleLeft = radians - realDiff;
		
		
		if(fabs(realDiff) >= M_PI_2)
		{
			radians -= realDiff;
    345a:	ca 82       	std	Y+2, r12	; 0x02
    345c:	db 82       	std	Y+3, r13	; 0x03
    345e:	ec 82       	std	Y+4, r14	; 0x04
    3460:	fd 82       	std	Y+5, r15	; 0x05
				radians *= -1;
				dir *= -1;
				angleLeft *= -1;
			}
		}
		move = 50 + dir * 40 * angleLeft * 6 / M_PI;
    3462:	62 2c       	mov	r6, r2
    3464:	77 24       	eor	r7, r7
    3466:	67 fc       	sbrc	r6, 7
    3468:	70 94       	com	r7
    346a:	98 e2       	ldi	r25, 0x28	; 40
    346c:	96 9d       	mul	r25, r6
    346e:	b0 01       	movw	r22, r0
    3470:	97 9d       	mul	r25, r7
    3472:	70 0d       	add	r23, r0
    3474:	11 24       	eor	r1, r1
    3476:	88 27       	eor	r24, r24
    3478:	77 fd       	sbrc	r23, 7
    347a:	80 95       	com	r24
    347c:	98 2f       	mov	r25, r24
    347e:	0e 94 64 33 	call	0x66c8	; 0x66c8 <__floatsisf>
    3482:	a7 01       	movw	r20, r14
    3484:	96 01       	movw	r18, r12
    3486:	0e 94 24 35 	call	0x6a48	; 0x6a48 <__mulsf3>
    348a:	20 e0       	ldi	r18, 0x00	; 0
    348c:	30 e0       	ldi	r19, 0x00	; 0
    348e:	40 ec       	ldi	r20, 0xC0	; 192
    3490:	50 e4       	ldi	r21, 0x40	; 64
    3492:	0e 94 24 35 	call	0x6a48	; 0x6a48 <__mulsf3>
    3496:	2b ed       	ldi	r18, 0xDB	; 219
    3498:	3f e0       	ldi	r19, 0x0F	; 15
    349a:	49 e4       	ldi	r20, 0x49	; 73
    349c:	50 e4       	ldi	r21, 0x40	; 64
    349e:	0e 94 c9 32 	call	0x6592	; 0x6592 <__divsf3>
    34a2:	20 e0       	ldi	r18, 0x00	; 0
    34a4:	30 e0       	ldi	r19, 0x00	; 0
    34a6:	48 e4       	ldi	r20, 0x48	; 72
    34a8:	52 e4       	ldi	r21, 0x42	; 66
    34aa:	0e 94 e5 31 	call	0x63ca	; 0x63ca <__addsf3>
    34ae:	06 2f       	mov	r16, r22
    34b0:	17 2f       	mov	r17, r23
    34b2:	8f 83       	std	Y+7, r24	; 0x07
    34b4:	9e 83       	std	Y+6, r25	; 0x06
    34b6:	86 2e       	mov	r8, r22
    34b8:	97 2e       	mov	r9, r23
    34ba:	a8 2e       	mov	r10, r24
    34bc:	b9 2e       	mov	r11, r25
		if(move > 45 && move < 55)
    34be:	20 e0       	ldi	r18, 0x00	; 0
    34c0:	30 e0       	ldi	r19, 0x00	; 0
    34c2:	44 e3       	ldi	r20, 0x34	; 52
    34c4:	52 e4       	ldi	r21, 0x42	; 66
    34c6:	0e 94 19 35 	call	0x6a32	; 0x6a32 <__gesf2>
    34ca:	18 16       	cp	r1, r24
    34cc:	64 f5       	brge	.+88     	; 0x3526 <_Z12turn_degreesja+0x28a>
    34ce:	20 e0       	ldi	r18, 0x00	; 0
    34d0:	30 e0       	ldi	r19, 0x00	; 0
    34d2:	4c e5       	ldi	r20, 0x5C	; 92
    34d4:	52 e4       	ldi	r21, 0x42	; 66
    34d6:	60 2f       	mov	r22, r16
    34d8:	71 2f       	mov	r23, r17
    34da:	8a 2d       	mov	r24, r10
    34dc:	9b 2d       	mov	r25, r11
    34de:	0e 94 c2 32 	call	0x6584	; 0x6584 <__cmpsf2>
    34e2:	88 23       	and	r24, r24
    34e4:	04 f5       	brge	.+64     	; 0x3526 <_Z12turn_degreesja+0x28a>
		{
			move = 50 + 5 * dir * angleLeft / fabs(angleLeft);
    34e6:	b3 01       	movw	r22, r6
    34e8:	66 0f       	add	r22, r22
    34ea:	77 1f       	adc	r23, r23
    34ec:	66 0f       	add	r22, r22
    34ee:	77 1f       	adc	r23, r23
    34f0:	66 0d       	add	r22, r6
    34f2:	77 1d       	adc	r23, r7
    34f4:	88 27       	eor	r24, r24
    34f6:	77 fd       	sbrc	r23, 7
    34f8:	80 95       	com	r24
    34fa:	98 2f       	mov	r25, r24
    34fc:	0e 94 64 33 	call	0x66c8	; 0x66c8 <__floatsisf>
    3500:	a7 01       	movw	r20, r14
    3502:	96 01       	movw	r18, r12
    3504:	0e 94 24 35 	call	0x6a48	; 0x6a48 <__mulsf3>
    3508:	a7 01       	movw	r20, r14
    350a:	96 01       	movw	r18, r12
    350c:	5f 77       	andi	r21, 0x7F	; 127
    350e:	0e 94 c9 32 	call	0x6592	; 0x6592 <__divsf3>
    3512:	20 e0       	ldi	r18, 0x00	; 0
    3514:	30 e0       	ldi	r19, 0x00	; 0
    3516:	48 e4       	ldi	r20, 0x48	; 72
    3518:	52 e4       	ldi	r21, 0x42	; 66
    351a:	0e 94 e5 31 	call	0x63ca	; 0x63ca <__addsf3>
    351e:	86 2e       	mov	r8, r22
    3520:	97 2e       	mov	r9, r23
    3522:	a8 2e       	mov	r10, r24
    3524:	b9 2e       	mov	r11, r25
		}
		USART_SendValue(move);
    3526:	68 2d       	mov	r22, r8
    3528:	79 2d       	mov	r23, r9
    352a:	8a 2d       	mov	r24, r10
    352c:	9b 2d       	mov	r25, r11
    352e:	0e 94 46 31 	call	0x628c	; 0x628c <_Z15USART_SendValuef>
		move_robot(0, move, 0);
    3532:	68 2d       	mov	r22, r8
    3534:	79 2d       	mov	r23, r9
    3536:	8a 2d       	mov	r24, r10
    3538:	9b 2d       	mov	r25, r11
    353a:	0e 94 31 33 	call	0x6662	; 0x6662 <__fixsfsi>
    353e:	40 e0       	ldi	r20, 0x00	; 0
    3540:	50 e0       	ldi	r21, 0x00	; 0
    3542:	80 e0       	ldi	r24, 0x00	; 0
    3544:	90 e0       	ldi	r25, 0x00	; 0
    3546:	b1 d8       	rcall	.-3742   	; 0x26aa <_Z10move_robotiii>
	} while(fabs(angleLeft) > tolerance);
    3548:	c7 01       	movw	r24, r14
    354a:	b6 01       	movw	r22, r12
    354c:	9f 77       	andi	r25, 0x7F	; 127
	float newAngle;
	float angleLeft, move;
	USART_SendValue(startAngle*180/M_PI);
	float diff, realDiff;
	
	do
    354e:	25 e3       	ldi	r18, 0x35	; 53
    3550:	3a ef       	ldi	r19, 0xFA	; 250
    3552:	4e e0       	ldi	r20, 0x0E	; 14
    3554:	5d e3       	ldi	r21, 0x3D	; 61
    3556:	0e 94 19 35 	call	0x6a32	; 0x6a32 <__gesf2>
    355a:	18 16       	cp	r1, r24
    355c:	0c f4       	brge	.+2      	; 0x3560 <_Z12turn_degreesja+0x2c4>
    355e:	ea ce       	rjmp	.-556    	; 0x3334 <_Z12turn_degreesja+0x98>
			move_robot(0,50+dir*50*fabs(degreesLeft/change),0);
		}
		
		
	} */
}
    3560:	27 96       	adiw	r28, 0x07	; 7
    3562:	0f b6       	in	r0, 0x3f	; 63
    3564:	f8 94       	cli
    3566:	de bf       	out	0x3e, r29	; 62
    3568:	0f be       	out	0x3f, r0	; 63
    356a:	cd bf       	out	0x3d, r28	; 61
    356c:	df 91       	pop	r29
    356e:	cf 91       	pop	r28
    3570:	1f 91       	pop	r17
    3572:	0f 91       	pop	r16
    3574:	ff 90       	pop	r15
    3576:	ef 90       	pop	r14
    3578:	df 90       	pop	r13
    357a:	cf 90       	pop	r12
    357c:	bf 90       	pop	r11
    357e:	af 90       	pop	r10
    3580:	9f 90       	pop	r9
    3582:	8f 90       	pop	r8
    3584:	7f 90       	pop	r7
    3586:	6f 90       	pop	r6
    3588:	5f 90       	pop	r5
    358a:	4f 90       	pop	r4
    358c:	3f 90       	pop	r3
    358e:	2f 90       	pop	r2
    3590:	08 95       	ret

00003592 <__vector_18>:
    3592:	1f 92       	push	r1
    3594:	0f 92       	push	r0
    3596:	0f b6       	in	r0, 0x3f	; 63
    3598:	0f 92       	push	r0
    359a:	11 24       	eor	r1, r1
    359c:	2f 93       	push	r18
    359e:	3f 93       	push	r19
    35a0:	8f 93       	push	r24
    35a2:	9f 93       	push	r25
    35a4:	af 93       	push	r26
    35a6:	bf 93       	push	r27
    35a8:	80 91 1a 19 	lds	r24, 0x191A
    35ac:	90 91 1b 19 	lds	r25, 0x191B
    35b0:	a0 91 1c 19 	lds	r26, 0x191C
    35b4:	b0 91 1d 19 	lds	r27, 0x191D
    35b8:	30 91 22 19 	lds	r19, 0x1922
    35bc:	23 2f       	mov	r18, r19
    35be:	2d 5f       	subi	r18, 0xFD	; 253
    35c0:	2d 37       	cpi	r18, 0x7D	; 125
    35c2:	20 f4       	brcc	.+8      	; 0x35cc <__vector_18+0x3a>
    35c4:	01 96       	adiw	r24, 0x01	; 1
    35c6:	a1 1d       	adc	r26, r1
    35c8:	b1 1d       	adc	r27, r1
    35ca:	05 c0       	rjmp	.+10     	; 0x35d6 <__vector_18+0x44>
    35cc:	23 2f       	mov	r18, r19
    35ce:	2a 57       	subi	r18, 0x7A	; 122
    35d0:	02 96       	adiw	r24, 0x02	; 2
    35d2:	a1 1d       	adc	r26, r1
    35d4:	b1 1d       	adc	r27, r1
    35d6:	20 93 22 19 	sts	0x1922, r18
    35da:	80 93 1a 19 	sts	0x191A, r24
    35de:	90 93 1b 19 	sts	0x191B, r25
    35e2:	a0 93 1c 19 	sts	0x191C, r26
    35e6:	b0 93 1d 19 	sts	0x191D, r27
    35ea:	80 91 1e 19 	lds	r24, 0x191E
    35ee:	90 91 1f 19 	lds	r25, 0x191F
    35f2:	a0 91 20 19 	lds	r26, 0x1920
    35f6:	b0 91 21 19 	lds	r27, 0x1921
    35fa:	01 96       	adiw	r24, 0x01	; 1
    35fc:	a1 1d       	adc	r26, r1
    35fe:	b1 1d       	adc	r27, r1
    3600:	80 93 1e 19 	sts	0x191E, r24
    3604:	90 93 1f 19 	sts	0x191F, r25
    3608:	a0 93 20 19 	sts	0x1920, r26
    360c:	b0 93 21 19 	sts	0x1921, r27
    3610:	bf 91       	pop	r27
    3612:	af 91       	pop	r26
    3614:	9f 91       	pop	r25
    3616:	8f 91       	pop	r24
    3618:	3f 91       	pop	r19
    361a:	2f 91       	pop	r18
    361c:	0f 90       	pop	r0
    361e:	0f be       	out	0x3f, r0	; 63
    3620:	0f 90       	pop	r0
    3622:	1f 90       	pop	r1
    3624:	18 95       	reti

00003626 <_Z6millisv>:
    3626:	0f 93       	push	r16
    3628:	1f 93       	push	r17
    362a:	8f b7       	in	r24, 0x3f	; 63
    362c:	f8 94       	cli
    362e:	00 91 1a 19 	lds	r16, 0x191A
    3632:	10 91 1b 19 	lds	r17, 0x191B
    3636:	20 91 1c 19 	lds	r18, 0x191C
    363a:	30 91 1d 19 	lds	r19, 0x191D
    363e:	8f bf       	out	0x3f, r24	; 63
    3640:	78 94       	sei
    3642:	60 2f       	mov	r22, r16
    3644:	71 2f       	mov	r23, r17
    3646:	82 2f       	mov	r24, r18
    3648:	93 2f       	mov	r25, r19
    364a:	1f 91       	pop	r17
    364c:	0f 91       	pop	r16
    364e:	08 95       	ret

00003650 <_ZN8Fastwire7waitIntEv>:
    3650:	2a ef       	ldi	r18, 0xFA	; 250
    3652:	30 e0       	ldi	r19, 0x00	; 0
    3654:	ec eb       	ldi	r30, 0xBC	; 188
    3656:	f0 e0       	ldi	r31, 0x00	; 0
    3658:	80 81       	ld	r24, Z
    365a:	88 23       	and	r24, r24
    365c:	1c f0       	brlt	.+6      	; 0x3664 <_ZN8Fastwire7waitIntEv+0x14>
    365e:	21 50       	subi	r18, 0x01	; 1
    3660:	31 09       	sbc	r19, r1
    3662:	d0 f7       	brcc	.-12     	; 0x3658 <_ZN8Fastwire7waitIntEv+0x8>
    3664:	81 e0       	ldi	r24, 0x01	; 1
    3666:	12 16       	cp	r1, r18
    3668:	13 06       	cpc	r1, r19
    366a:	0c f0       	brlt	.+2      	; 0x366e <_ZN8Fastwire7waitIntEv+0x1e>
    366c:	80 e0       	ldi	r24, 0x00	; 0
    366e:	08 95       	ret

00003670 <_ZN8Fastwire5setupEih>:
    3670:	9c 01       	movw	r18, r24
    3672:	10 92 bc 00 	sts	0x00BC, r1
    3676:	66 23       	and	r22, r22
    3678:	21 f0       	breq	.+8      	; 0x3682 <_ZN8Fastwire5setupEih+0x12>
    367a:	8b b1       	in	r24, 0x0b	; 11
    367c:	83 60       	ori	r24, 0x03	; 3
    367e:	8b b9       	out	0x0b, r24	; 11
    3680:	03 c0       	rjmp	.+6      	; 0x3688 <_ZN8Fastwire5setupEih+0x18>
    3682:	8b b1       	in	r24, 0x0b	; 11
    3684:	8c 7f       	andi	r24, 0xFC	; 252
    3686:	8b b9       	out	0x0b, r24	; 11
    3688:	10 92 b9 00 	sts	0x00B9, r1
    368c:	44 27       	eor	r20, r20
    368e:	37 fd       	sbrc	r19, 7
    3690:	40 95       	com	r20
    3692:	54 2f       	mov	r21, r20
    3694:	60 e8       	ldi	r22, 0x80	; 128
    3696:	7e e3       	ldi	r23, 0x3E	; 62
    3698:	80 e0       	ldi	r24, 0x00	; 0
    369a:	90 e0       	ldi	r25, 0x00	; 0
    369c:	0e 94 d9 35 	call	0x6bb2	; 0x6bb2 <__divmodsi4>
    36a0:	da 01       	movw	r26, r20
    36a2:	c9 01       	movw	r24, r18
    36a4:	40 97       	sbiw	r24, 0x10	; 16
    36a6:	a1 09       	sbc	r26, r1
    36a8:	b1 09       	sbc	r27, r1
    36aa:	ac 01       	movw	r20, r24
    36ac:	bd 01       	movw	r22, r26
    36ae:	22 f4       	brpl	.+8      	; 0x36b8 <_ZN8Fastwire5setupEih+0x48>
    36b0:	4f 5f       	subi	r20, 0xFF	; 255
    36b2:	5f 4f       	sbci	r21, 0xFF	; 255
    36b4:	6f 4f       	sbci	r22, 0xFF	; 255
    36b6:	7f 4f       	sbci	r23, 0xFF	; 255
    36b8:	db 01       	movw	r26, r22
    36ba:	ca 01       	movw	r24, r20
    36bc:	b5 95       	asr	r27
    36be:	a7 95       	ror	r26
    36c0:	97 95       	ror	r25
    36c2:	87 95       	ror	r24
    36c4:	80 93 b8 00 	sts	0x00B8, r24
    36c8:	84 e0       	ldi	r24, 0x04	; 4
    36ca:	80 93 bc 00 	sts	0x00BC, r24
    36ce:	08 95       	ret

000036d0 <_ZN8Fastwire17beginTransmissionEh>:
    36d0:	af 92       	push	r10
    36d2:	bf 92       	push	r11
    36d4:	cf 92       	push	r12
    36d6:	df 92       	push	r13
    36d8:	ef 92       	push	r14
    36da:	ff 92       	push	r15
    36dc:	0f 93       	push	r16
    36de:	1f 93       	push	r17
    36e0:	cf 93       	push	r28
    36e2:	df 93       	push	r29
    36e4:	b8 2e       	mov	r11, r24
    36e6:	bb 0c       	add	r11, r11
    36e8:	0f 2e       	mov	r0, r31
    36ea:	f3 e0       	ldi	r31, 0x03	; 3
    36ec:	af 2e       	mov	r10, r31
    36ee:	f0 2d       	mov	r31, r0
    36f0:	cc eb       	ldi	r28, 0xBC	; 188
    36f2:	d0 e0       	ldi	r29, 0x00	; 0
    36f4:	0f 2e       	mov	r0, r31
    36f6:	f4 eb       	ldi	r31, 0xB4	; 180
    36f8:	df 2e       	mov	r13, r31
    36fa:	f0 2d       	mov	r31, r0
    36fc:	09 eb       	ldi	r16, 0xB9	; 185
    36fe:	10 e0       	ldi	r17, 0x00	; 0
    3700:	0f 2e       	mov	r0, r31
    3702:	fb eb       	ldi	r31, 0xBB	; 187
    3704:	ef 2e       	mov	r14, r31
    3706:	f1 2c       	mov	r15, r1
    3708:	f0 2d       	mov	r31, r0
    370a:	0f 2e       	mov	r0, r31
    370c:	f4 e8       	ldi	r31, 0x84	; 132
    370e:	cf 2e       	mov	r12, r31
    3710:	f0 2d       	mov	r31, r0
    3712:	d8 82       	st	Y, r13
    3714:	9d df       	rcall	.-198    	; 0x3650 <_ZN8Fastwire7waitIntEv>
    3716:	88 23       	and	r24, r24
    3718:	b1 f0       	breq	.+44     	; 0x3746 <_ZN8Fastwire17beginTransmissionEh+0x76>
    371a:	f8 01       	movw	r30, r16
    371c:	90 81       	ld	r25, Z
    371e:	98 7f       	andi	r25, 0xF8	; 248
    3720:	98 30       	cpi	r25, 0x08	; 8
    3722:	11 f0       	breq	.+4      	; 0x3728 <_ZN8Fastwire17beginTransmissionEh+0x58>
    3724:	90 31       	cpi	r25, 0x10	; 16
    3726:	89 f4       	brne	.+34     	; 0x374a <_ZN8Fastwire17beginTransmissionEh+0x7a>
    3728:	f7 01       	movw	r30, r14
    372a:	b0 82       	st	Z, r11
    372c:	c8 82       	st	Y, r12
    372e:	90 df       	rcall	.-224    	; 0x3650 <_ZN8Fastwire7waitIntEv>
    3730:	88 23       	and	r24, r24
    3732:	69 f0       	breq	.+26     	; 0x374e <_ZN8Fastwire17beginTransmissionEh+0x7e>
    3734:	f8 01       	movw	r30, r16
    3736:	90 81       	ld	r25, Z
    3738:	98 7f       	andi	r25, 0xF8	; 248
    373a:	90 32       	cpi	r25, 0x20	; 32
    373c:	61 f4       	brne	.+24     	; 0x3756 <_ZN8Fastwire17beginTransmissionEh+0x86>
    373e:	aa 94       	dec	r10
    3740:	41 f7       	brne	.-48     	; 0x3712 <_ZN8Fastwire17beginTransmissionEh+0x42>
    3742:	84 e0       	ldi	r24, 0x04	; 4
    3744:	0b c0       	rjmp	.+22     	; 0x375c <_ZN8Fastwire17beginTransmissionEh+0x8c>
    3746:	81 e0       	ldi	r24, 0x01	; 1
    3748:	09 c0       	rjmp	.+18     	; 0x375c <_ZN8Fastwire17beginTransmissionEh+0x8c>
    374a:	82 e0       	ldi	r24, 0x02	; 2
    374c:	07 c0       	rjmp	.+14     	; 0x375c <_ZN8Fastwire17beginTransmissionEh+0x8c>
    374e:	83 e0       	ldi	r24, 0x03	; 3
    3750:	05 c0       	rjmp	.+10     	; 0x375c <_ZN8Fastwire17beginTransmissionEh+0x8c>
    3752:	80 e0       	ldi	r24, 0x00	; 0
    3754:	03 c0       	rjmp	.+6      	; 0x375c <_ZN8Fastwire17beginTransmissionEh+0x8c>
    3756:	98 31       	cpi	r25, 0x18	; 24
    3758:	e1 f3       	breq	.-8      	; 0x3752 <_ZN8Fastwire17beginTransmissionEh+0x82>
    375a:	84 e0       	ldi	r24, 0x04	; 4
    375c:	df 91       	pop	r29
    375e:	cf 91       	pop	r28
    3760:	1f 91       	pop	r17
    3762:	0f 91       	pop	r16
    3764:	ff 90       	pop	r15
    3766:	ef 90       	pop	r14
    3768:	df 90       	pop	r13
    376a:	cf 90       	pop	r12
    376c:	bf 90       	pop	r11
    376e:	af 90       	pop	r10
    3770:	08 95       	ret

00003772 <_ZN8Fastwire5writeEh>:
    3772:	80 93 bb 00 	sts	0x00BB, r24
    3776:	84 e8       	ldi	r24, 0x84	; 132
    3778:	80 93 bc 00 	sts	0x00BC, r24
    377c:	69 df       	rcall	.-302    	; 0x3650 <_ZN8Fastwire7waitIntEv>
    377e:	88 23       	and	r24, r24
    3780:	39 f0       	breq	.+14     	; 0x3790 <_ZN8Fastwire5writeEh+0x1e>
    3782:	80 91 b9 00 	lds	r24, 0x00B9
    3786:	88 7f       	andi	r24, 0xF8	; 248
    3788:	88 32       	cpi	r24, 0x28	; 40
    378a:	21 f0       	breq	.+8      	; 0x3794 <_ZN8Fastwire5writeEh+0x22>
    378c:	82 e0       	ldi	r24, 0x02	; 2
    378e:	08 95       	ret
    3790:	81 e0       	ldi	r24, 0x01	; 1
    3792:	08 95       	ret
    3794:	80 e0       	ldi	r24, 0x00	; 0
    3796:	08 95       	ret

00003798 <_ZN8Fastwire4stopEv>:
    3798:	84 e9       	ldi	r24, 0x94	; 148
    379a:	80 93 bc 00 	sts	0x00BC, r24
    379e:	58 df       	rcall	.-336    	; 0x3650 <_ZN8Fastwire7waitIntEv>
    37a0:	91 e0       	ldi	r25, 0x01	; 1
    37a2:	81 11       	cpse	r24, r1
    37a4:	90 e0       	ldi	r25, 0x00	; 0
    37a6:	89 2f       	mov	r24, r25
    37a8:	08 95       	ret

000037aa <_ZN8Fastwire7readBufEhhPhh>:
    37aa:	2f 92       	push	r2
    37ac:	3f 92       	push	r3
    37ae:	4f 92       	push	r4
    37b0:	5f 92       	push	r5
    37b2:	6f 92       	push	r6
    37b4:	7f 92       	push	r7
    37b6:	8f 92       	push	r8
    37b8:	9f 92       	push	r9
    37ba:	af 92       	push	r10
    37bc:	bf 92       	push	r11
    37be:	cf 92       	push	r12
    37c0:	ef 92       	push	r14
    37c2:	ff 92       	push	r15
    37c4:	0f 93       	push	r16
    37c6:	1f 93       	push	r17
    37c8:	cf 93       	push	r28
    37ca:	df 93       	push	r29
    37cc:	08 2f       	mov	r16, r24
    37ce:	46 2e       	mov	r4, r22
    37d0:	b4 2e       	mov	r11, r20
    37d2:	a5 2e       	mov	r10, r21
    37d4:	c2 2e       	mov	r12, r18
    37d6:	0f 2e       	mov	r0, r31
    37d8:	f3 e0       	ldi	r31, 0x03	; 3
    37da:	5f 2e       	mov	r5, r31
    37dc:	f0 2d       	mov	r31, r0
    37de:	cc eb       	ldi	r28, 0xBC	; 188
    37e0:	d0 e0       	ldi	r29, 0x00	; 0
    37e2:	0f 2e       	mov	r0, r31
    37e4:	f4 eb       	ldi	r31, 0xB4	; 180
    37e6:	9f 2e       	mov	r9, r31
    37e8:	f0 2d       	mov	r31, r0
    37ea:	0f 2e       	mov	r0, r31
    37ec:	f9 eb       	ldi	r31, 0xB9	; 185
    37ee:	2f 2e       	mov	r2, r31
    37f0:	31 2c       	mov	r3, r1
    37f2:	f0 2d       	mov	r31, r0
    37f4:	0f 2e       	mov	r0, r31
    37f6:	fe ef       	ldi	r31, 0xFE	; 254
    37f8:	6f 2e       	mov	r6, r31
    37fa:	f0 2d       	mov	r31, r0
    37fc:	68 22       	and	r6, r24
    37fe:	0f 2e       	mov	r0, r31
    3800:	fb eb       	ldi	r31, 0xBB	; 187
    3802:	ef 2e       	mov	r14, r31
    3804:	f1 2c       	mov	r15, r1
    3806:	f0 2d       	mov	r31, r0
    3808:	0f 2e       	mov	r0, r31
    380a:	f4 e8       	ldi	r31, 0x84	; 132
    380c:	7f 2e       	mov	r7, r31
    380e:	f0 2d       	mov	r31, r0
    3810:	98 82       	st	Y, r9
    3812:	1e df       	rcall	.-452    	; 0x3650 <_ZN8Fastwire7waitIntEv>
    3814:	88 23       	and	r24, r24
    3816:	09 f4       	brne	.+2      	; 0x381a <_ZN8Fastwire7readBufEhhPhh+0x70>
    3818:	9c c0       	rjmp	.+312    	; 0x3952 <_ZN8Fastwire7readBufEhhPhh+0x1a8>
    381a:	f1 01       	movw	r30, r2
    381c:	90 81       	ld	r25, Z
    381e:	98 7f       	andi	r25, 0xF8	; 248
    3820:	98 30       	cpi	r25, 0x08	; 8
    3822:	19 f0       	breq	.+6      	; 0x382a <_ZN8Fastwire7readBufEhhPhh+0x80>
    3824:	90 31       	cpi	r25, 0x10	; 16
    3826:	09 f0       	breq	.+2      	; 0x382a <_ZN8Fastwire7readBufEhhPhh+0x80>
    3828:	96 c0       	rjmp	.+300    	; 0x3956 <_ZN8Fastwire7readBufEhhPhh+0x1ac>
    382a:	f7 01       	movw	r30, r14
    382c:	60 82       	st	Z, r6
    382e:	78 82       	st	Y, r7
    3830:	0f df       	rcall	.-482    	; 0x3650 <_ZN8Fastwire7waitIntEv>
    3832:	88 23       	and	r24, r24
    3834:	09 f4       	brne	.+2      	; 0x3838 <_ZN8Fastwire7readBufEhhPhh+0x8e>
    3836:	91 c0       	rjmp	.+290    	; 0x395a <_ZN8Fastwire7readBufEhhPhh+0x1b0>
    3838:	f1 01       	movw	r30, r2
    383a:	80 81       	ld	r24, Z
    383c:	18 2f       	mov	r17, r24
    383e:	18 7f       	andi	r17, 0xF8	; 248
    3840:	10 32       	cpi	r17, 0x20	; 32
    3842:	09 f0       	breq	.+2      	; 0x3846 <_ZN8Fastwire7readBufEhhPhh+0x9c>
    3844:	9a c0       	rjmp	.+308    	; 0x397a <_ZN8Fastwire7readBufEhhPhh+0x1d0>
    3846:	5a 94       	dec	r5
    3848:	19 f7       	brne	.-58     	; 0x3810 <_ZN8Fastwire7readBufEhhPhh+0x66>
    384a:	13 e1       	ldi	r17, 0x13	; 19
    384c:	9c c0       	rjmp	.+312    	; 0x3986 <_ZN8Fastwire7readBufEhhPhh+0x1dc>
    384e:	40 92 bb 00 	sts	0x00BB, r4
    3852:	84 e8       	ldi	r24, 0x84	; 132
    3854:	80 93 bc 00 	sts	0x00BC, r24
    3858:	fb de       	rcall	.-522    	; 0x3650 <_ZN8Fastwire7waitIntEv>
    385a:	88 23       	and	r24, r24
    385c:	09 f4       	brne	.+2      	; 0x3860 <_ZN8Fastwire7readBufEhhPhh+0xb6>
    385e:	7f c0       	rjmp	.+254    	; 0x395e <_ZN8Fastwire7readBufEhhPhh+0x1b4>
    3860:	80 91 b9 00 	lds	r24, 0x00B9
    3864:	88 7f       	andi	r24, 0xF8	; 248
    3866:	88 32       	cpi	r24, 0x28	; 40
    3868:	09 f0       	breq	.+2      	; 0x386c <_ZN8Fastwire7readBufEhhPhh+0xc2>
    386a:	7b c0       	rjmp	.+246    	; 0x3962 <_ZN8Fastwire7readBufEhhPhh+0x1b8>
    386c:	0f 2e       	mov	r0, r31
    386e:	f3 e0       	ldi	r31, 0x03	; 3
    3870:	9f 2e       	mov	r9, r31
    3872:	f0 2d       	mov	r31, r0
    3874:	0f 2e       	mov	r0, r31
    3876:	fc eb       	ldi	r31, 0xBC	; 188
    3878:	4f 2e       	mov	r4, r31
    387a:	51 2c       	mov	r5, r1
    387c:	f0 2d       	mov	r31, r0
    387e:	0f 2e       	mov	r0, r31
    3880:	f4 eb       	ldi	r31, 0xB4	; 180
    3882:	6f 2e       	mov	r6, r31
    3884:	f0 2d       	mov	r31, r0
    3886:	c9 eb       	ldi	r28, 0xB9	; 185
    3888:	d0 e0       	ldi	r29, 0x00	; 0
    388a:	88 24       	eor	r8, r8
    388c:	83 94       	inc	r8
    388e:	80 2a       	or	r8, r16
    3890:	0f 2e       	mov	r0, r31
    3892:	fb eb       	ldi	r31, 0xBB	; 187
    3894:	ef 2e       	mov	r14, r31
    3896:	f1 2c       	mov	r15, r1
    3898:	f0 2d       	mov	r31, r0
    389a:	04 e8       	ldi	r16, 0x84	; 132
    389c:	f2 01       	movw	r30, r4
    389e:	60 82       	st	Z, r6
    38a0:	d7 de       	rcall	.-594    	; 0x3650 <_ZN8Fastwire7waitIntEv>
    38a2:	88 23       	and	r24, r24
    38a4:	09 f4       	brne	.+2      	; 0x38a8 <_ZN8Fastwire7readBufEhhPhh+0xfe>
    38a6:	5f c0       	rjmp	.+190    	; 0x3966 <_ZN8Fastwire7readBufEhhPhh+0x1bc>
    38a8:	88 81       	ld	r24, Y
    38aa:	88 7f       	andi	r24, 0xF8	; 248
    38ac:	88 30       	cpi	r24, 0x08	; 8
    38ae:	19 f0       	breq	.+6      	; 0x38b6 <_ZN8Fastwire7readBufEhhPhh+0x10c>
    38b0:	80 31       	cpi	r24, 0x10	; 16
    38b2:	09 f0       	breq	.+2      	; 0x38b6 <_ZN8Fastwire7readBufEhhPhh+0x10c>
    38b4:	5a c0       	rjmp	.+180    	; 0x396a <_ZN8Fastwire7readBufEhhPhh+0x1c0>
    38b6:	f7 01       	movw	r30, r14
    38b8:	80 82       	st	Z, r8
    38ba:	f2 01       	movw	r30, r4
    38bc:	00 83       	st	Z, r16
    38be:	c8 de       	rcall	.-624    	; 0x3650 <_ZN8Fastwire7waitIntEv>
    38c0:	88 23       	and	r24, r24
    38c2:	09 f4       	brne	.+2      	; 0x38c6 <_ZN8Fastwire7readBufEhhPhh+0x11c>
    38c4:	60 c0       	rjmp	.+192    	; 0x3986 <_ZN8Fastwire7readBufEhhPhh+0x1dc>
    38c6:	88 81       	ld	r24, Y
    38c8:	88 7f       	andi	r24, 0xF8	; 248
    38ca:	88 34       	cpi	r24, 0x48	; 72
    38cc:	09 f0       	breq	.+2      	; 0x38d0 <_ZN8Fastwire7readBufEhhPhh+0x126>
    38ce:	58 c0       	rjmp	.+176    	; 0x3980 <_ZN8Fastwire7readBufEhhPhh+0x1d6>
    38d0:	9a 94       	dec	r9
    38d2:	21 f7       	brne	.-56     	; 0x389c <_ZN8Fastwire7readBufEhhPhh+0xf2>
    38d4:	19 e1       	ldi	r17, 0x19	; 25
    38d6:	57 c0       	rjmp	.+174    	; 0x3986 <_ZN8Fastwire7readBufEhhPhh+0x1dc>
    38d8:	cc 20       	and	r12, r12
    38da:	c1 f1       	breq	.+112    	; 0x394c <_ZN8Fastwire7readBufEhhPhh+0x1a2>
    38dc:	cb 2d       	mov	r28, r11
    38de:	da 2d       	mov	r29, r10
    38e0:	21 2c       	mov	r2, r1
    38e2:	31 2c       	mov	r3, r1
    38e4:	ec 2c       	mov	r14, r12
    38e6:	f1 2c       	mov	r15, r1
    38e8:	f1 e0       	ldi	r31, 0x01	; 1
    38ea:	ef 1a       	sub	r14, r31
    38ec:	f1 08       	sbc	r15, r1
    38ee:	0f 2e       	mov	r0, r31
    38f0:	fc eb       	ldi	r31, 0xBC	; 188
    38f2:	4f 2e       	mov	r4, r31
    38f4:	51 2c       	mov	r5, r1
    38f6:	f0 2d       	mov	r31, r0
    38f8:	0f 2e       	mov	r0, r31
    38fa:	f4 ec       	ldi	r31, 0xC4	; 196
    38fc:	af 2e       	mov	r10, r31
    38fe:	f0 2d       	mov	r31, r0
    3900:	04 e8       	ldi	r16, 0x84	; 132
    3902:	0f 2e       	mov	r0, r31
    3904:	f9 eb       	ldi	r31, 0xB9	; 185
    3906:	6f 2e       	mov	r6, r31
    3908:	71 2c       	mov	r7, r1
    390a:	f0 2d       	mov	r31, r0
    390c:	0f 2e       	mov	r0, r31
    390e:	fb eb       	ldi	r31, 0xBB	; 187
    3910:	8f 2e       	mov	r8, r31
    3912:	91 2c       	mov	r9, r1
    3914:	f0 2d       	mov	r31, r0
    3916:	2e 14       	cp	r2, r14
    3918:	3f 04       	cpc	r3, r15
    391a:	19 f4       	brne	.+6      	; 0x3922 <_ZN8Fastwire7readBufEhhPhh+0x178>
    391c:	f2 01       	movw	r30, r4
    391e:	00 83       	st	Z, r16
    3920:	02 c0       	rjmp	.+4      	; 0x3926 <_ZN8Fastwire7readBufEhhPhh+0x17c>
    3922:	f2 01       	movw	r30, r4
    3924:	a0 82       	st	Z, r10
    3926:	94 de       	rcall	.-728    	; 0x3650 <_ZN8Fastwire7waitIntEv>
    3928:	88 23       	and	r24, r24
    392a:	09 f1       	breq	.+66     	; 0x396e <_ZN8Fastwire7readBufEhhPhh+0x1c4>
    392c:	f3 01       	movw	r30, r6
    392e:	80 81       	ld	r24, Z
    3930:	18 2f       	mov	r17, r24
    3932:	18 7f       	andi	r17, 0xF8	; 248
    3934:	10 35       	cpi	r17, 0x50	; 80
    3936:	11 f0       	breq	.+4      	; 0x393c <_ZN8Fastwire7readBufEhhPhh+0x192>
    3938:	18 35       	cpi	r17, 0x58	; 88
    393a:	29 f5       	brne	.+74     	; 0x3986 <_ZN8Fastwire7readBufEhhPhh+0x1dc>
    393c:	f4 01       	movw	r30, r8
    393e:	80 81       	ld	r24, Z
    3940:	89 93       	st	Y+, r24
    3942:	ff ef       	ldi	r31, 0xFF	; 255
    3944:	2f 1a       	sub	r2, r31
    3946:	3f 0a       	sbc	r3, r31
    3948:	2c 14       	cp	r2, r12
    394a:	28 f3       	brcs	.-54     	; 0x3916 <_ZN8Fastwire7readBufEhhPhh+0x16c>
    394c:	25 df       	rcall	.-438    	; 0x3798 <_ZN8Fastwire4stopEv>
    394e:	10 e0       	ldi	r17, 0x00	; 0
    3950:	1a c0       	rjmp	.+52     	; 0x3986 <_ZN8Fastwire7readBufEhhPhh+0x1dc>
    3952:	10 e1       	ldi	r17, 0x10	; 16
    3954:	18 c0       	rjmp	.+48     	; 0x3986 <_ZN8Fastwire7readBufEhhPhh+0x1dc>
    3956:	11 e1       	ldi	r17, 0x11	; 17
    3958:	16 c0       	rjmp	.+44     	; 0x3986 <_ZN8Fastwire7readBufEhhPhh+0x1dc>
    395a:	12 e1       	ldi	r17, 0x12	; 18
    395c:	14 c0       	rjmp	.+40     	; 0x3986 <_ZN8Fastwire7readBufEhhPhh+0x1dc>
    395e:	14 e1       	ldi	r17, 0x14	; 20
    3960:	12 c0       	rjmp	.+36     	; 0x3986 <_ZN8Fastwire7readBufEhhPhh+0x1dc>
    3962:	15 e1       	ldi	r17, 0x15	; 21
    3964:	10 c0       	rjmp	.+32     	; 0x3986 <_ZN8Fastwire7readBufEhhPhh+0x1dc>
    3966:	16 e1       	ldi	r17, 0x16	; 22
    3968:	0e c0       	rjmp	.+28     	; 0x3986 <_ZN8Fastwire7readBufEhhPhh+0x1dc>
    396a:	17 e1       	ldi	r17, 0x17	; 23
    396c:	0c c0       	rjmp	.+24     	; 0x3986 <_ZN8Fastwire7readBufEhhPhh+0x1dc>
    396e:	1a e1       	ldi	r17, 0x1A	; 26
    3970:	0a c0       	rjmp	.+20     	; 0x3986 <_ZN8Fastwire7readBufEhhPhh+0x1dc>
    3972:	13 e1       	ldi	r17, 0x13	; 19
    3974:	08 c0       	rjmp	.+16     	; 0x3986 <_ZN8Fastwire7readBufEhhPhh+0x1dc>
    3976:	19 e1       	ldi	r17, 0x19	; 25
    3978:	06 c0       	rjmp	.+12     	; 0x3986 <_ZN8Fastwire7readBufEhhPhh+0x1dc>
    397a:	18 31       	cpi	r17, 0x18	; 24
    397c:	d1 f7       	brne	.-12     	; 0x3972 <_ZN8Fastwire7readBufEhhPhh+0x1c8>
    397e:	67 cf       	rjmp	.-306    	; 0x384e <_ZN8Fastwire7readBufEhhPhh+0xa4>
    3980:	80 34       	cpi	r24, 0x40	; 64
    3982:	c9 f7       	brne	.-14     	; 0x3976 <_ZN8Fastwire7readBufEhhPhh+0x1cc>
    3984:	a9 cf       	rjmp	.-174    	; 0x38d8 <_ZN8Fastwire7readBufEhhPhh+0x12e>
    3986:	81 2f       	mov	r24, r17
    3988:	df 91       	pop	r29
    398a:	cf 91       	pop	r28
    398c:	1f 91       	pop	r17
    398e:	0f 91       	pop	r16
    3990:	ff 90       	pop	r15
    3992:	ef 90       	pop	r14
    3994:	cf 90       	pop	r12
    3996:	bf 90       	pop	r11
    3998:	af 90       	pop	r10
    399a:	9f 90       	pop	r9
    399c:	8f 90       	pop	r8
    399e:	7f 90       	pop	r7
    39a0:	6f 90       	pop	r6
    39a2:	5f 90       	pop	r5
    39a4:	4f 90       	pop	r4
    39a6:	3f 90       	pop	r3
    39a8:	2f 90       	pop	r2
    39aa:	08 95       	ret

000039ac <_ZN6I2Cdev9readBytesEhhhPhj>:
    39ac:	9f 92       	push	r9
    39ae:	af 92       	push	r10
    39b0:	bf 92       	push	r11
    39b2:	cf 92       	push	r12
    39b4:	df 92       	push	r13
    39b6:	ef 92       	push	r14
    39b8:	ff 92       	push	r15
    39ba:	0f 93       	push	r16
    39bc:	1f 93       	push	r17
    39be:	cf 93       	push	r28
    39c0:	df 93       	push	r29
    39c2:	d8 2f       	mov	r29, r24
    39c4:	96 2e       	mov	r9, r22
    39c6:	c4 2f       	mov	r28, r20
    39c8:	59 01       	movw	r10, r18
    39ca:	2d de       	rcall	.-934    	; 0x3626 <_Z6millisv>
    39cc:	6b 01       	movw	r12, r22
    39ce:	7c 01       	movw	r14, r24
    39d0:	2c 2f       	mov	r18, r28
    39d2:	a5 01       	movw	r20, r10
    39d4:	69 2d       	mov	r22, r9
    39d6:	8d 2f       	mov	r24, r29
    39d8:	88 0f       	add	r24, r24
    39da:	e7 de       	rcall	.-562    	; 0x37aa <_ZN8Fastwire7readBufEhhPhh>
    39dc:	81 11       	cpse	r24, r1
    39de:	02 c0       	rjmp	.+4      	; 0x39e4 <_ZN6I2Cdev9readBytesEhhhPhj+0x38>
    39e0:	dc 2f       	mov	r29, r28
    39e2:	01 c0       	rjmp	.+2      	; 0x39e6 <_ZN6I2Cdev9readBytesEhhhPhj+0x3a>
    39e4:	df ef       	ldi	r29, 0xFF	; 255
    39e6:	01 15       	cp	r16, r1
    39e8:	11 05       	cpc	r17, r1
    39ea:	c9 f0       	breq	.+50     	; 0x3a1e <_ZN6I2Cdev9readBytesEhhhPhj+0x72>
    39ec:	1c de       	rcall	.-968    	; 0x3626 <_Z6millisv>
    39ee:	9b 01       	movw	r18, r22
    39f0:	ac 01       	movw	r20, r24
    39f2:	2c 19       	sub	r18, r12
    39f4:	3d 09       	sbc	r19, r13
    39f6:	4e 09       	sbc	r20, r14
    39f8:	5f 09       	sbc	r21, r15
    39fa:	c8 01       	movw	r24, r16
    39fc:	a0 e0       	ldi	r26, 0x00	; 0
    39fe:	b0 e0       	ldi	r27, 0x00	; 0
    3a00:	28 17       	cp	r18, r24
    3a02:	39 07       	cpc	r19, r25
    3a04:	4a 07       	cpc	r20, r26
    3a06:	5b 07       	cpc	r21, r27
    3a08:	50 f0       	brcs	.+20     	; 0x3a1e <_ZN6I2Cdev9readBytesEhhhPhj+0x72>
    3a0a:	2d 2f       	mov	r18, r29
    3a0c:	33 27       	eor	r19, r19
    3a0e:	27 fd       	sbrc	r18, 7
    3a10:	30 95       	com	r19
    3a12:	8c 2f       	mov	r24, r28
    3a14:	90 e0       	ldi	r25, 0x00	; 0
    3a16:	28 17       	cp	r18, r24
    3a18:	39 07       	cpc	r19, r25
    3a1a:	0c f4       	brge	.+2      	; 0x3a1e <_ZN6I2Cdev9readBytesEhhhPhj+0x72>
    3a1c:	df ef       	ldi	r29, 0xFF	; 255
    3a1e:	8d 2f       	mov	r24, r29
    3a20:	df 91       	pop	r29
    3a22:	cf 91       	pop	r28
    3a24:	1f 91       	pop	r17
    3a26:	0f 91       	pop	r16
    3a28:	ff 90       	pop	r15
    3a2a:	ef 90       	pop	r14
    3a2c:	df 90       	pop	r13
    3a2e:	cf 90       	pop	r12
    3a30:	bf 90       	pop	r11
    3a32:	af 90       	pop	r10
    3a34:	9f 90       	pop	r9
    3a36:	08 95       	ret

00003a38 <_ZN6I2Cdev8readByteEhhPhj>:
    3a38:	0f 93       	push	r16
    3a3a:	1f 93       	push	r17
    3a3c:	89 01       	movw	r16, r18
    3a3e:	9a 01       	movw	r18, r20
    3a40:	41 e0       	ldi	r20, 0x01	; 1
    3a42:	b4 df       	rcall	.-152    	; 0x39ac <_ZN6I2Cdev9readBytesEhhhPhj>
    3a44:	1f 91       	pop	r17
    3a46:	0f 91       	pop	r16
    3a48:	08 95       	ret

00003a4a <_ZN6I2Cdev8readBitsEhhhhPhj>:
    3a4a:	cf 92       	push	r12
    3a4c:	df 92       	push	r13
    3a4e:	ef 92       	push	r14
    3a50:	ff 92       	push	r15
    3a52:	0f 93       	push	r16
    3a54:	1f 93       	push	r17
    3a56:	cf 93       	push	r28
    3a58:	df 93       	push	r29
    3a5a:	1f 92       	push	r1
    3a5c:	cd b7       	in	r28, 0x3d	; 61
    3a5e:	de b7       	in	r29, 0x3e	; 62
    3a60:	c4 2e       	mov	r12, r20
    3a62:	d2 2e       	mov	r13, r18
    3a64:	97 01       	movw	r18, r14
    3a66:	ae 01       	movw	r20, r28
    3a68:	4f 5f       	subi	r20, 0xFF	; 255
    3a6a:	5f 4f       	sbci	r21, 0xFF	; 255
    3a6c:	e5 df       	rcall	.-54     	; 0x3a38 <_ZN6I2Cdev8readByteEhhPhj>
    3a6e:	88 23       	and	r24, r24
    3a70:	09 f1       	breq	.+66     	; 0x3ab4 <_ZN6I2Cdev8readBitsEhhhhPhj+0x6a>
    3a72:	4c 2d       	mov	r20, r12
    3a74:	50 e0       	ldi	r21, 0x00	; 0
    3a76:	4d 19       	sub	r20, r13
    3a78:	51 09       	sbc	r21, r1
    3a7a:	4f 5f       	subi	r20, 0xFF	; 255
    3a7c:	5f 4f       	sbci	r21, 0xFF	; 255
    3a7e:	61 e0       	ldi	r22, 0x01	; 1
    3a80:	70 e0       	ldi	r23, 0x00	; 0
    3a82:	9b 01       	movw	r18, r22
    3a84:	02 c0       	rjmp	.+4      	; 0x3a8a <_ZN6I2Cdev8readBitsEhhhhPhj+0x40>
    3a86:	22 0f       	add	r18, r18
    3a88:	33 1f       	adc	r19, r19
    3a8a:	da 94       	dec	r13
    3a8c:	e2 f7       	brpl	.-8      	; 0x3a86 <_ZN6I2Cdev8readBitsEhhhhPhj+0x3c>
    3a8e:	21 50       	subi	r18, 0x01	; 1
    3a90:	31 09       	sbc	r19, r1
    3a92:	04 2e       	mov	r0, r20
    3a94:	02 c0       	rjmp	.+4      	; 0x3a9a <_ZN6I2Cdev8readBitsEhhhhPhj+0x50>
    3a96:	22 0f       	add	r18, r18
    3a98:	33 1f       	adc	r19, r19
    3a9a:	0a 94       	dec	r0
    3a9c:	e2 f7       	brpl	.-8      	; 0x3a96 <_ZN6I2Cdev8readBitsEhhhhPhj+0x4c>
    3a9e:	99 81       	ldd	r25, Y+1	; 0x01
    3aa0:	29 23       	and	r18, r25
    3aa2:	30 e0       	ldi	r19, 0x00	; 0
    3aa4:	b9 01       	movw	r22, r18
    3aa6:	02 c0       	rjmp	.+4      	; 0x3aac <_ZN6I2Cdev8readBitsEhhhhPhj+0x62>
    3aa8:	75 95       	asr	r23
    3aaa:	67 95       	ror	r22
    3aac:	4a 95       	dec	r20
    3aae:	e2 f7       	brpl	.-8      	; 0x3aa8 <_ZN6I2Cdev8readBitsEhhhhPhj+0x5e>
    3ab0:	f8 01       	movw	r30, r16
    3ab2:	60 83       	st	Z, r22
    3ab4:	0f 90       	pop	r0
    3ab6:	df 91       	pop	r29
    3ab8:	cf 91       	pop	r28
    3aba:	1f 91       	pop	r17
    3abc:	0f 91       	pop	r16
    3abe:	ff 90       	pop	r15
    3ac0:	ef 90       	pop	r14
    3ac2:	df 90       	pop	r13
    3ac4:	cf 90       	pop	r12
    3ac6:	08 95       	ret

00003ac8 <_ZN6I2Cdev7readBitEhhhPhj>:
    3ac8:	df 92       	push	r13
    3aca:	ef 92       	push	r14
    3acc:	ff 92       	push	r15
    3ace:	0f 93       	push	r16
    3ad0:	1f 93       	push	r17
    3ad2:	cf 93       	push	r28
    3ad4:	df 93       	push	r29
    3ad6:	1f 92       	push	r1
    3ad8:	cd b7       	in	r28, 0x3d	; 61
    3ada:	de b7       	in	r29, 0x3e	; 62
    3adc:	d4 2e       	mov	r13, r20
    3ade:	79 01       	movw	r14, r18
    3ae0:	98 01       	movw	r18, r16
    3ae2:	ae 01       	movw	r20, r28
    3ae4:	4f 5f       	subi	r20, 0xFF	; 255
    3ae6:	5f 4f       	sbci	r21, 0xFF	; 255
    3ae8:	a7 df       	rcall	.-178    	; 0x3a38 <_ZN6I2Cdev8readByteEhhPhj>
    3aea:	21 e0       	ldi	r18, 0x01	; 1
    3aec:	30 e0       	ldi	r19, 0x00	; 0
    3aee:	a9 01       	movw	r20, r18
    3af0:	02 c0       	rjmp	.+4      	; 0x3af6 <_ZN6I2Cdev7readBitEhhhPhj+0x2e>
    3af2:	44 0f       	add	r20, r20
    3af4:	55 1f       	adc	r21, r21
    3af6:	da 94       	dec	r13
    3af8:	e2 f7       	brpl	.-8      	; 0x3af2 <_ZN6I2Cdev7readBitEhhhPhj+0x2a>
    3afa:	99 81       	ldd	r25, Y+1	; 0x01
    3afc:	49 23       	and	r20, r25
    3afe:	f7 01       	movw	r30, r14
    3b00:	40 83       	st	Z, r20
    3b02:	0f 90       	pop	r0
    3b04:	df 91       	pop	r29
    3b06:	cf 91       	pop	r28
    3b08:	1f 91       	pop	r17
    3b0a:	0f 91       	pop	r16
    3b0c:	ff 90       	pop	r15
    3b0e:	ef 90       	pop	r14
    3b10:	df 90       	pop	r13
    3b12:	08 95       	ret

00003b14 <_ZN6I2Cdev10writeWordsEhhhPj>:
    3b14:	df 92       	push	r13
    3b16:	ef 92       	push	r14
    3b18:	ff 92       	push	r15
    3b1a:	0f 93       	push	r16
    3b1c:	1f 93       	push	r17
    3b1e:	cf 93       	push	r28
    3b20:	df 93       	push	r29
    3b22:	c6 2f       	mov	r28, r22
    3b24:	04 2f       	mov	r16, r20
    3b26:	79 01       	movw	r14, r18
    3b28:	d3 dd       	rcall	.-1114   	; 0x36d0 <_ZN8Fastwire17beginTransmissionEh>
    3b2a:	8c 2f       	mov	r24, r28
    3b2c:	22 de       	rcall	.-956    	; 0x3772 <_ZN8Fastwire5writeEh>
    3b2e:	10 e0       	ldi	r17, 0x00	; 0
    3b30:	00 0f       	add	r16, r16
    3b32:	11 1f       	adc	r17, r17
    3b34:	10 16       	cp	r1, r16
    3b36:	11 06       	cpc	r1, r17
    3b38:	b4 f4       	brge	.+44     	; 0x3b66 <_ZN6I2Cdev10writeWordsEhhhPj+0x52>
    3b3a:	d1 2c       	mov	r13, r1
    3b3c:	cd 2d       	mov	r28, r13
    3b3e:	d0 e0       	ldi	r29, 0x00	; 0
    3b40:	cc 0f       	add	r28, r28
    3b42:	dd 1f       	adc	r29, r29
    3b44:	ce 0d       	add	r28, r14
    3b46:	df 1d       	adc	r29, r15
    3b48:	89 81       	ldd	r24, Y+1	; 0x01
    3b4a:	13 de       	rcall	.-986    	; 0x3772 <_ZN8Fastwire5writeEh>
    3b4c:	88 81       	ld	r24, Y
    3b4e:	11 de       	rcall	.-990    	; 0x3772 <_ZN8Fastwire5writeEh>
    3b50:	c8 2f       	mov	r28, r24
    3b52:	81 11       	cpse	r24, r1
    3b54:	09 c0       	rjmp	.+18     	; 0x3b68 <_ZN6I2Cdev10writeWordsEhhhPj+0x54>
    3b56:	d3 94       	inc	r13
    3b58:	d3 94       	inc	r13
    3b5a:	2d 2d       	mov	r18, r13
    3b5c:	30 e0       	ldi	r19, 0x00	; 0
    3b5e:	20 17       	cp	r18, r16
    3b60:	31 07       	cpc	r19, r17
    3b62:	64 f3       	brlt	.-40     	; 0x3b3c <_ZN6I2Cdev10writeWordsEhhhPj+0x28>
    3b64:	01 c0       	rjmp	.+2      	; 0x3b68 <_ZN6I2Cdev10writeWordsEhhhPj+0x54>
    3b66:	c0 e0       	ldi	r28, 0x00	; 0
    3b68:	17 de       	rcall	.-978    	; 0x3798 <_ZN8Fastwire4stopEv>
    3b6a:	81 e0       	ldi	r24, 0x01	; 1
    3b6c:	c1 11       	cpse	r28, r1
    3b6e:	80 e0       	ldi	r24, 0x00	; 0
    3b70:	df 91       	pop	r29
    3b72:	cf 91       	pop	r28
    3b74:	1f 91       	pop	r17
    3b76:	0f 91       	pop	r16
    3b78:	ff 90       	pop	r15
    3b7a:	ef 90       	pop	r14
    3b7c:	df 90       	pop	r13
    3b7e:	08 95       	ret

00003b80 <_ZN6I2Cdev9writeWordEhhj>:
    3b80:	cf 93       	push	r28
    3b82:	df 93       	push	r29
    3b84:	00 d0       	rcall	.+0      	; 0x3b86 <_ZN6I2Cdev9writeWordEhhj+0x6>
    3b86:	cd b7       	in	r28, 0x3d	; 61
    3b88:	de b7       	in	r29, 0x3e	; 62
    3b8a:	5a 83       	std	Y+2, r21	; 0x02
    3b8c:	49 83       	std	Y+1, r20	; 0x01
    3b8e:	9e 01       	movw	r18, r28
    3b90:	2f 5f       	subi	r18, 0xFF	; 255
    3b92:	3f 4f       	sbci	r19, 0xFF	; 255
    3b94:	41 e0       	ldi	r20, 0x01	; 1
    3b96:	be df       	rcall	.-132    	; 0x3b14 <_ZN6I2Cdev10writeWordsEhhhPj>
    3b98:	0f 90       	pop	r0
    3b9a:	0f 90       	pop	r0
    3b9c:	df 91       	pop	r29
    3b9e:	cf 91       	pop	r28
    3ba0:	08 95       	ret

00003ba2 <_ZN6I2Cdev10writeBytesEhhhPh>:
    3ba2:	ff 92       	push	r15
    3ba4:	0f 93       	push	r16
    3ba6:	1f 93       	push	r17
    3ba8:	cf 93       	push	r28
    3baa:	df 93       	push	r29
    3bac:	c6 2f       	mov	r28, r22
    3bae:	14 2f       	mov	r17, r20
    3bb0:	f2 2e       	mov	r15, r18
    3bb2:	03 2f       	mov	r16, r19
    3bb4:	8d dd       	rcall	.-1254   	; 0x36d0 <_ZN8Fastwire17beginTransmissionEh>
    3bb6:	8c 2f       	mov	r24, r28
    3bb8:	dc dd       	rcall	.-1096   	; 0x3772 <_ZN8Fastwire5writeEh>
    3bba:	11 23       	and	r17, r17
    3bbc:	71 f0       	breq	.+28     	; 0x3bda <_ZN6I2Cdev10writeBytesEhhhPh+0x38>
    3bbe:	cf 2d       	mov	r28, r15
    3bc0:	d0 2f       	mov	r29, r16
    3bc2:	11 50       	subi	r17, 0x01	; 1
    3bc4:	ce 01       	movw	r24, r28
    3bc6:	81 0f       	add	r24, r17
    3bc8:	91 1d       	adc	r25, r1
    3bca:	8c 01       	movw	r16, r24
    3bcc:	0f 5f       	subi	r16, 0xFF	; 255
    3bce:	1f 4f       	sbci	r17, 0xFF	; 255
    3bd0:	89 91       	ld	r24, Y+
    3bd2:	cf dd       	rcall	.-1122   	; 0x3772 <_ZN8Fastwire5writeEh>
    3bd4:	c0 17       	cp	r28, r16
    3bd6:	d1 07       	cpc	r29, r17
    3bd8:	d9 f7       	brne	.-10     	; 0x3bd0 <_ZN6I2Cdev10writeBytesEhhhPh+0x2e>
    3bda:	de dd       	rcall	.-1092   	; 0x3798 <_ZN8Fastwire4stopEv>
    3bdc:	81 e0       	ldi	r24, 0x01	; 1
    3bde:	df 91       	pop	r29
    3be0:	cf 91       	pop	r28
    3be2:	1f 91       	pop	r17
    3be4:	0f 91       	pop	r16
    3be6:	ff 90       	pop	r15
    3be8:	08 95       	ret

00003bea <_ZN6I2Cdev9writeByteEhhh>:
    3bea:	cf 93       	push	r28
    3bec:	df 93       	push	r29
    3bee:	1f 92       	push	r1
    3bf0:	cd b7       	in	r28, 0x3d	; 61
    3bf2:	de b7       	in	r29, 0x3e	; 62
    3bf4:	49 83       	std	Y+1, r20	; 0x01
    3bf6:	9e 01       	movw	r18, r28
    3bf8:	2f 5f       	subi	r18, 0xFF	; 255
    3bfa:	3f 4f       	sbci	r19, 0xFF	; 255
    3bfc:	41 e0       	ldi	r20, 0x01	; 1
    3bfe:	d1 df       	rcall	.-94     	; 0x3ba2 <_ZN6I2Cdev10writeBytesEhhhPh>
    3c00:	0f 90       	pop	r0
    3c02:	df 91       	pop	r29
    3c04:	cf 91       	pop	r28
    3c06:	08 95       	ret

00003c08 <_ZN6I2Cdev9writeBitsEhhhhh>:
    3c08:	df 92       	push	r13
    3c0a:	ef 92       	push	r14
    3c0c:	ff 92       	push	r15
    3c0e:	0f 93       	push	r16
    3c10:	1f 93       	push	r17
    3c12:	cf 93       	push	r28
    3c14:	df 93       	push	r29
    3c16:	1f 92       	push	r1
    3c18:	cd b7       	in	r28, 0x3d	; 61
    3c1a:	de b7       	in	r29, 0x3e	; 62
    3c1c:	18 2f       	mov	r17, r24
    3c1e:	f6 2e       	mov	r15, r22
    3c20:	d4 2e       	mov	r13, r20
    3c22:	e2 2e       	mov	r14, r18
    3c24:	20 91 07 01 	lds	r18, 0x0107
    3c28:	30 91 08 01 	lds	r19, 0x0108
    3c2c:	ae 01       	movw	r20, r28
    3c2e:	4f 5f       	subi	r20, 0xFF	; 255
    3c30:	5f 4f       	sbci	r21, 0xFF	; 255
    3c32:	02 df       	rcall	.-508    	; 0x3a38 <_ZN6I2Cdev8readByteEhhPhj>
    3c34:	88 23       	and	r24, r24
    3c36:	19 f1       	breq	.+70     	; 0x3c7e <_ZN6I2Cdev9writeBitsEhhhhh+0x76>
    3c38:	ed 2d       	mov	r30, r13
    3c3a:	f0 e0       	ldi	r31, 0x00	; 0
    3c3c:	ee 19       	sub	r30, r14
    3c3e:	f1 09       	sbc	r31, r1
    3c40:	31 96       	adiw	r30, 0x01	; 1
    3c42:	a1 e0       	ldi	r26, 0x01	; 1
    3c44:	b0 e0       	ldi	r27, 0x00	; 0
    3c46:	9d 01       	movw	r18, r26
    3c48:	02 c0       	rjmp	.+4      	; 0x3c4e <_ZN6I2Cdev9writeBitsEhhhhh+0x46>
    3c4a:	22 0f       	add	r18, r18
    3c4c:	33 1f       	adc	r19, r19
    3c4e:	ea 94       	dec	r14
    3c50:	e2 f7       	brpl	.-8      	; 0x3c4a <_ZN6I2Cdev9writeBitsEhhhhh+0x42>
    3c52:	21 50       	subi	r18, 0x01	; 1
    3c54:	31 09       	sbc	r19, r1
    3c56:	0e 2e       	mov	r0, r30
    3c58:	01 c0       	rjmp	.+2      	; 0x3c5c <_ZN6I2Cdev9writeBitsEhhhhh+0x54>
    3c5a:	22 0f       	add	r18, r18
    3c5c:	0a 94       	dec	r0
    3c5e:	ea f7       	brpl	.-6      	; 0x3c5a <_ZN6I2Cdev9writeBitsEhhhhh+0x52>
    3c60:	01 c0       	rjmp	.+2      	; 0x3c64 <_ZN6I2Cdev9writeBitsEhhhhh+0x5c>
    3c62:	00 0f       	add	r16, r16
    3c64:	ea 95       	dec	r30
    3c66:	ea f7       	brpl	.-6      	; 0x3c62 <_ZN6I2Cdev9writeBitsEhhhhh+0x5a>
    3c68:	42 2f       	mov	r20, r18
    3c6a:	40 95       	com	r20
    3c6c:	89 81       	ldd	r24, Y+1	; 0x01
    3c6e:	48 23       	and	r20, r24
    3c70:	20 23       	and	r18, r16
    3c72:	42 2b       	or	r20, r18
    3c74:	49 83       	std	Y+1, r20	; 0x01
    3c76:	6f 2d       	mov	r22, r15
    3c78:	81 2f       	mov	r24, r17
    3c7a:	b7 df       	rcall	.-146    	; 0x3bea <_ZN6I2Cdev9writeByteEhhh>
    3c7c:	01 c0       	rjmp	.+2      	; 0x3c80 <_ZN6I2Cdev9writeBitsEhhhhh+0x78>
    3c7e:	80 e0       	ldi	r24, 0x00	; 0
    3c80:	0f 90       	pop	r0
    3c82:	df 91       	pop	r29
    3c84:	cf 91       	pop	r28
    3c86:	1f 91       	pop	r17
    3c88:	0f 91       	pop	r16
    3c8a:	ff 90       	pop	r15
    3c8c:	ef 90       	pop	r14
    3c8e:	df 90       	pop	r13
    3c90:	08 95       	ret

00003c92 <_ZN6I2Cdev8writeBitEhhhh>:
    3c92:	ef 92       	push	r14
    3c94:	ff 92       	push	r15
    3c96:	0f 93       	push	r16
    3c98:	1f 93       	push	r17
    3c9a:	cf 93       	push	r28
    3c9c:	df 93       	push	r29
    3c9e:	1f 92       	push	r1
    3ca0:	cd b7       	in	r28, 0x3d	; 61
    3ca2:	de b7       	in	r29, 0x3e	; 62
    3ca4:	18 2f       	mov	r17, r24
    3ca6:	06 2f       	mov	r16, r22
    3ca8:	f4 2e       	mov	r15, r20
    3caa:	e2 2e       	mov	r14, r18
    3cac:	20 91 07 01 	lds	r18, 0x0107
    3cb0:	30 91 08 01 	lds	r19, 0x0108
    3cb4:	ae 01       	movw	r20, r28
    3cb6:	4f 5f       	subi	r20, 0xFF	; 255
    3cb8:	5f 4f       	sbci	r21, 0xFF	; 255
    3cba:	be de       	rcall	.-644    	; 0x3a38 <_ZN6I2Cdev8readByteEhhPhj>
    3cbc:	ee 20       	and	r14, r14
    3cbe:	59 f0       	breq	.+22     	; 0x3cd6 <_ZN6I2Cdev8writeBitEhhhh+0x44>
    3cc0:	21 e0       	ldi	r18, 0x01	; 1
    3cc2:	30 e0       	ldi	r19, 0x00	; 0
    3cc4:	a9 01       	movw	r20, r18
    3cc6:	02 c0       	rjmp	.+4      	; 0x3ccc <_ZN6I2Cdev8writeBitEhhhh+0x3a>
    3cc8:	44 0f       	add	r20, r20
    3cca:	55 1f       	adc	r21, r21
    3ccc:	fa 94       	dec	r15
    3cce:	e2 f7       	brpl	.-8      	; 0x3cc8 <_ZN6I2Cdev8writeBitEhhhh+0x36>
    3cd0:	89 81       	ldd	r24, Y+1	; 0x01
    3cd2:	48 2b       	or	r20, r24
    3cd4:	0b c0       	rjmp	.+22     	; 0x3cec <_ZN6I2Cdev8writeBitEhhhh+0x5a>
    3cd6:	21 e0       	ldi	r18, 0x01	; 1
    3cd8:	30 e0       	ldi	r19, 0x00	; 0
    3cda:	a9 01       	movw	r20, r18
    3cdc:	02 c0       	rjmp	.+4      	; 0x3ce2 <_ZN6I2Cdev8writeBitEhhhh+0x50>
    3cde:	44 0f       	add	r20, r20
    3ce0:	55 1f       	adc	r21, r21
    3ce2:	fa 94       	dec	r15
    3ce4:	e2 f7       	brpl	.-8      	; 0x3cde <_ZN6I2Cdev8writeBitEhhhh+0x4c>
    3ce6:	40 95       	com	r20
    3ce8:	89 81       	ldd	r24, Y+1	; 0x01
    3cea:	48 23       	and	r20, r24
    3cec:	49 83       	std	Y+1, r20	; 0x01
    3cee:	60 2f       	mov	r22, r16
    3cf0:	81 2f       	mov	r24, r17
    3cf2:	7b df       	rcall	.-266    	; 0x3bea <_ZN6I2Cdev9writeByteEhhh>
    3cf4:	0f 90       	pop	r0
    3cf6:	df 91       	pop	r29
    3cf8:	cf 91       	pop	r28
    3cfa:	1f 91       	pop	r17
    3cfc:	0f 91       	pop	r16
    3cfe:	ff 90       	pop	r15
    3d00:	ef 90       	pop	r14
    3d02:	08 95       	ret

00003d04 <_Z18height_change_leg1f>:
    3d04:	cf 92       	push	r12
    3d06:	df 92       	push	r13
    3d08:	ef 92       	push	r14
    3d0a:	ff 92       	push	r15
    3d0c:	20 91 09 01 	lds	r18, 0x0109
    3d10:	30 91 0a 01 	lds	r19, 0x010A
    3d14:	40 91 0b 01 	lds	r20, 0x010B
    3d18:	50 91 0c 01 	lds	r21, 0x010C
    3d1c:	0e 94 e4 31 	call	0x63c8	; 0x63c8 <__subsf3>
    3d20:	20 e0       	ldi	r18, 0x00	; 0
    3d22:	30 e0       	ldi	r19, 0x00	; 0
    3d24:	40 ef       	ldi	r20, 0xF0	; 240
    3d26:	52 e4       	ldi	r21, 0x42	; 66
    3d28:	0e 94 e5 31 	call	0x63ca	; 0x63ca <__addsf3>
    3d2c:	c6 2e       	mov	r12, r22
    3d2e:	d7 2e       	mov	r13, r23
    3d30:	e8 2e       	mov	r14, r24
    3d32:	f9 2e       	mov	r15, r25
    3d34:	c7 01       	movw	r24, r14
    3d36:	b6 01       	movw	r22, r12
    3d38:	90 58       	subi	r25, 0x80	; 128
    3d3a:	23 ef       	ldi	r18, 0xF3	; 243
    3d3c:	34 e0       	ldi	r19, 0x04	; 4
    3d3e:	45 eb       	ldi	r20, 0xB5	; 181
    3d40:	5f e3       	ldi	r21, 0x3F	; 63
    3d42:	0e 94 c9 32 	call	0x6592	; 0x6592 <__divsf3>
    3d46:	26 e6       	ldi	r18, 0x66	; 102
    3d48:	36 e6       	ldi	r19, 0x66	; 102
    3d4a:	47 e7       	ldi	r20, 0x77	; 119
    3d4c:	52 e4       	ldi	r21, 0x42	; 66
    3d4e:	0e 94 e4 31 	call	0x63c8	; 0x63c8 <__subsf3>
    3d52:	60 93 35 01 	sts	0x0135, r22
    3d56:	70 93 36 01 	sts	0x0136, r23
    3d5a:	80 93 37 01 	sts	0x0137, r24
    3d5e:	90 93 38 01 	sts	0x0138, r25
    3d62:	23 ef       	ldi	r18, 0xF3	; 243
    3d64:	34 e0       	ldi	r19, 0x04	; 4
    3d66:	45 eb       	ldi	r20, 0xB5	; 181
    3d68:	5f e3       	ldi	r21, 0x3F	; 63
    3d6a:	c7 01       	movw	r24, r14
    3d6c:	b6 01       	movw	r22, r12
    3d6e:	0e 94 c9 32 	call	0x6592	; 0x6592 <__divsf3>
    3d72:	20 e0       	ldi	r18, 0x00	; 0
    3d74:	30 e0       	ldi	r19, 0x00	; 0
    3d76:	40 ef       	ldi	r20, 0xF0	; 240
    3d78:	52 e4       	ldi	r21, 0x42	; 66
    3d7a:	0e 94 e5 31 	call	0x63ca	; 0x63ca <__addsf3>
    3d7e:	60 93 31 01 	sts	0x0131, r22
    3d82:	70 93 32 01 	sts	0x0132, r23
    3d86:	80 93 33 01 	sts	0x0133, r24
    3d8a:	90 93 34 01 	sts	0x0134, r25
    3d8e:	ff 90       	pop	r15
    3d90:	ef 90       	pop	r14
    3d92:	df 90       	pop	r13
    3d94:	cf 90       	pop	r12
    3d96:	08 95       	ret

00003d98 <_Z18height_change_leg2f>:
    3d98:	20 91 09 01 	lds	r18, 0x0109
    3d9c:	30 91 0a 01 	lds	r19, 0x010A
    3da0:	40 91 0b 01 	lds	r20, 0x010B
    3da4:	50 91 0c 01 	lds	r21, 0x010C
    3da8:	0e 94 e4 31 	call	0x63c8	; 0x63c8 <__subsf3>
    3dac:	20 e0       	ldi	r18, 0x00	; 0
    3dae:	30 e0       	ldi	r19, 0x00	; 0
    3db0:	40 ef       	ldi	r20, 0xF0	; 240
    3db2:	52 e4       	ldi	r21, 0x42	; 66
    3db4:	0e 94 e5 31 	call	0x63ca	; 0x63ca <__addsf3>
    3db8:	90 58       	subi	r25, 0x80	; 128
    3dba:	20 e0       	ldi	r18, 0x00	; 0
    3dbc:	30 e0       	ldi	r19, 0x00	; 0
    3dbe:	48 ec       	ldi	r20, 0xC8	; 200
    3dc0:	52 e4       	ldi	r21, 0x42	; 66
    3dc2:	0e 94 e4 31 	call	0x63c8	; 0x63c8 <__subsf3>
    3dc6:	60 93 2d 01 	sts	0x012D, r22
    3dca:	70 93 2e 01 	sts	0x012E, r23
    3dce:	80 93 2f 01 	sts	0x012F, r24
    3dd2:	90 93 30 01 	sts	0x0130, r25
    3dd6:	08 95       	ret

00003dd8 <_Z18height_change_leg3f>:
    3dd8:	0f 93       	push	r16
    3dda:	1f 93       	push	r17
    3ddc:	cf 93       	push	r28
    3dde:	df 93       	push	r29
    3de0:	20 91 09 01 	lds	r18, 0x0109
    3de4:	30 91 0a 01 	lds	r19, 0x010A
    3de8:	40 91 0b 01 	lds	r20, 0x010B
    3dec:	50 91 0c 01 	lds	r21, 0x010C
    3df0:	0e 94 e4 31 	call	0x63c8	; 0x63c8 <__subsf3>
    3df4:	20 e0       	ldi	r18, 0x00	; 0
    3df6:	30 e0       	ldi	r19, 0x00	; 0
    3df8:	40 ef       	ldi	r20, 0xF0	; 240
    3dfa:	52 e4       	ldi	r21, 0x42	; 66
    3dfc:	0e 94 e5 31 	call	0x63ca	; 0x63ca <__addsf3>
    3e00:	90 58       	subi	r25, 0x80	; 128
    3e02:	23 ef       	ldi	r18, 0xF3	; 243
    3e04:	34 e0       	ldi	r19, 0x04	; 4
    3e06:	45 eb       	ldi	r20, 0xB5	; 181
    3e08:	5f e3       	ldi	r21, 0x3F	; 63
    3e0a:	0e 94 c9 32 	call	0x6592	; 0x6592 <__divsf3>
    3e0e:	06 2f       	mov	r16, r22
    3e10:	17 2f       	mov	r17, r23
    3e12:	d8 2f       	mov	r29, r24
    3e14:	c9 2f       	mov	r28, r25
    3e16:	26 e6       	ldi	r18, 0x66	; 102
    3e18:	36 e6       	ldi	r19, 0x66	; 102
    3e1a:	47 e7       	ldi	r20, 0x77	; 119
    3e1c:	52 e4       	ldi	r21, 0x42	; 66
    3e1e:	0e 94 e4 31 	call	0x63c8	; 0x63c8 <__subsf3>
    3e22:	60 93 29 01 	sts	0x0129, r22
    3e26:	70 93 2a 01 	sts	0x012A, r23
    3e2a:	80 93 2b 01 	sts	0x012B, r24
    3e2e:	90 93 2c 01 	sts	0x012C, r25
    3e32:	20 e0       	ldi	r18, 0x00	; 0
    3e34:	30 e0       	ldi	r19, 0x00	; 0
    3e36:	40 ef       	ldi	r20, 0xF0	; 240
    3e38:	52 e4       	ldi	r21, 0x42	; 66
    3e3a:	60 2f       	mov	r22, r16
    3e3c:	71 2f       	mov	r23, r17
    3e3e:	8d 2f       	mov	r24, r29
    3e40:	9c 2f       	mov	r25, r28
    3e42:	0e 94 e4 31 	call	0x63c8	; 0x63c8 <__subsf3>
    3e46:	60 93 25 01 	sts	0x0125, r22
    3e4a:	70 93 26 01 	sts	0x0126, r23
    3e4e:	80 93 27 01 	sts	0x0127, r24
    3e52:	90 93 28 01 	sts	0x0128, r25
    3e56:	df 91       	pop	r29
    3e58:	cf 91       	pop	r28
    3e5a:	1f 91       	pop	r17
    3e5c:	0f 91       	pop	r16
    3e5e:	08 95       	ret

00003e60 <_Z18height_change_leg4f>:
    3e60:	cf 92       	push	r12
    3e62:	df 92       	push	r13
    3e64:	ef 92       	push	r14
    3e66:	ff 92       	push	r15
    3e68:	20 91 09 01 	lds	r18, 0x0109
    3e6c:	30 91 0a 01 	lds	r19, 0x010A
    3e70:	40 91 0b 01 	lds	r20, 0x010B
    3e74:	50 91 0c 01 	lds	r21, 0x010C
    3e78:	0e 94 e4 31 	call	0x63c8	; 0x63c8 <__subsf3>
    3e7c:	20 e0       	ldi	r18, 0x00	; 0
    3e7e:	30 e0       	ldi	r19, 0x00	; 0
    3e80:	40 ef       	ldi	r20, 0xF0	; 240
    3e82:	52 e4       	ldi	r21, 0x42	; 66
    3e84:	0e 94 e5 31 	call	0x63ca	; 0x63ca <__addsf3>
    3e88:	b6 2f       	mov	r27, r22
    3e8a:	a7 2f       	mov	r26, r23
    3e8c:	46 2f       	mov	r20, r22
    3e8e:	57 2f       	mov	r21, r23
    3e90:	68 2f       	mov	r22, r24
    3e92:	79 2f       	mov	r23, r25
    3e94:	6a 01       	movw	r12, r20
    3e96:	7b 01       	movw	r14, r22
    3e98:	23 ef       	ldi	r18, 0xF3	; 243
    3e9a:	34 e0       	ldi	r19, 0x04	; 4
    3e9c:	45 eb       	ldi	r20, 0xB5	; 181
    3e9e:	5f e3       	ldi	r21, 0x3F	; 63
    3ea0:	6b 2f       	mov	r22, r27
    3ea2:	7a 2f       	mov	r23, r26
    3ea4:	0e 94 c9 32 	call	0x6592	; 0x6592 <__divsf3>
    3ea8:	26 e6       	ldi	r18, 0x66	; 102
    3eaa:	36 e6       	ldi	r19, 0x66	; 102
    3eac:	47 e7       	ldi	r20, 0x77	; 119
    3eae:	52 e4       	ldi	r21, 0x42	; 66
    3eb0:	0e 94 e5 31 	call	0x63ca	; 0x63ca <__addsf3>
    3eb4:	60 93 21 01 	sts	0x0121, r22
    3eb8:	70 93 22 01 	sts	0x0122, r23
    3ebc:	80 93 23 01 	sts	0x0123, r24
    3ec0:	90 93 24 01 	sts	0x0124, r25
    3ec4:	c7 01       	movw	r24, r14
    3ec6:	b6 01       	movw	r22, r12
    3ec8:	90 58       	subi	r25, 0x80	; 128
    3eca:	23 ef       	ldi	r18, 0xF3	; 243
    3ecc:	34 e0       	ldi	r19, 0x04	; 4
    3ece:	45 eb       	ldi	r20, 0xB5	; 181
    3ed0:	5f e3       	ldi	r21, 0x3F	; 63
    3ed2:	0e 94 c9 32 	call	0x6592	; 0x6592 <__divsf3>
    3ed6:	20 e0       	ldi	r18, 0x00	; 0
    3ed8:	30 e0       	ldi	r19, 0x00	; 0
    3eda:	40 ef       	ldi	r20, 0xF0	; 240
    3edc:	52 e4       	ldi	r21, 0x42	; 66
    3ede:	0e 94 e4 31 	call	0x63c8	; 0x63c8 <__subsf3>
    3ee2:	60 93 1d 01 	sts	0x011D, r22
    3ee6:	70 93 1e 01 	sts	0x011E, r23
    3eea:	80 93 1f 01 	sts	0x011F, r24
    3eee:	90 93 20 01 	sts	0x0120, r25
    3ef2:	ff 90       	pop	r15
    3ef4:	ef 90       	pop	r14
    3ef6:	df 90       	pop	r13
    3ef8:	cf 90       	pop	r12
    3efa:	08 95       	ret

00003efc <_Z18height_change_leg5f>:
    3efc:	20 91 09 01 	lds	r18, 0x0109
    3f00:	30 91 0a 01 	lds	r19, 0x010A
    3f04:	40 91 0b 01 	lds	r20, 0x010B
    3f08:	50 91 0c 01 	lds	r21, 0x010C
    3f0c:	0e 94 e4 31 	call	0x63c8	; 0x63c8 <__subsf3>
    3f10:	20 e0       	ldi	r18, 0x00	; 0
    3f12:	30 e0       	ldi	r19, 0x00	; 0
    3f14:	40 ef       	ldi	r20, 0xF0	; 240
    3f16:	52 e4       	ldi	r21, 0x42	; 66
    3f18:	0e 94 e5 31 	call	0x63ca	; 0x63ca <__addsf3>
    3f1c:	20 e0       	ldi	r18, 0x00	; 0
    3f1e:	30 e0       	ldi	r19, 0x00	; 0
    3f20:	48 ec       	ldi	r20, 0xC8	; 200
    3f22:	52 e4       	ldi	r21, 0x42	; 66
    3f24:	0e 94 e5 31 	call	0x63ca	; 0x63ca <__addsf3>
    3f28:	60 93 19 01 	sts	0x0119, r22
    3f2c:	70 93 1a 01 	sts	0x011A, r23
    3f30:	80 93 1b 01 	sts	0x011B, r24
    3f34:	90 93 1c 01 	sts	0x011C, r25
    3f38:	08 95       	ret

00003f3a <_Z18height_change_leg6f>:
    3f3a:	0f 93       	push	r16
    3f3c:	1f 93       	push	r17
    3f3e:	cf 93       	push	r28
    3f40:	df 93       	push	r29
    3f42:	20 91 09 01 	lds	r18, 0x0109
    3f46:	30 91 0a 01 	lds	r19, 0x010A
    3f4a:	40 91 0b 01 	lds	r20, 0x010B
    3f4e:	50 91 0c 01 	lds	r21, 0x010C
    3f52:	0e 94 e4 31 	call	0x63c8	; 0x63c8 <__subsf3>
    3f56:	20 e0       	ldi	r18, 0x00	; 0
    3f58:	30 e0       	ldi	r19, 0x00	; 0
    3f5a:	40 ef       	ldi	r20, 0xF0	; 240
    3f5c:	52 e4       	ldi	r21, 0x42	; 66
    3f5e:	0e 94 e5 31 	call	0x63ca	; 0x63ca <__addsf3>
    3f62:	23 ef       	ldi	r18, 0xF3	; 243
    3f64:	34 e0       	ldi	r19, 0x04	; 4
    3f66:	45 eb       	ldi	r20, 0xB5	; 181
    3f68:	5f e3       	ldi	r21, 0x3F	; 63
    3f6a:	0e 94 c9 32 	call	0x6592	; 0x6592 <__divsf3>
    3f6e:	06 2f       	mov	r16, r22
    3f70:	17 2f       	mov	r17, r23
    3f72:	d8 2f       	mov	r29, r24
    3f74:	c9 2f       	mov	r28, r25
    3f76:	26 e6       	ldi	r18, 0x66	; 102
    3f78:	36 e6       	ldi	r19, 0x66	; 102
    3f7a:	47 e7       	ldi	r20, 0x77	; 119
    3f7c:	52 e4       	ldi	r21, 0x42	; 66
    3f7e:	0e 94 e5 31 	call	0x63ca	; 0x63ca <__addsf3>
    3f82:	60 93 15 01 	sts	0x0115, r22
    3f86:	70 93 16 01 	sts	0x0116, r23
    3f8a:	80 93 17 01 	sts	0x0117, r24
    3f8e:	90 93 18 01 	sts	0x0118, r25
    3f92:	20 e0       	ldi	r18, 0x00	; 0
    3f94:	30 e0       	ldi	r19, 0x00	; 0
    3f96:	40 ef       	ldi	r20, 0xF0	; 240
    3f98:	52 e4       	ldi	r21, 0x42	; 66
    3f9a:	60 2f       	mov	r22, r16
    3f9c:	71 2f       	mov	r23, r17
    3f9e:	8d 2f       	mov	r24, r29
    3fa0:	9c 2f       	mov	r25, r28
    3fa2:	0e 94 e5 31 	call	0x63ca	; 0x63ca <__addsf3>
    3fa6:	60 93 11 01 	sts	0x0111, r22
    3faa:	70 93 12 01 	sts	0x0112, r23
    3fae:	80 93 13 01 	sts	0x0113, r24
    3fb2:	90 93 14 01 	sts	0x0114, r25
    3fb6:	df 91       	pop	r29
    3fb8:	cf 91       	pop	r28
    3fba:	1f 91       	pop	r17
    3fbc:	0f 91       	pop	r16
    3fbe:	08 95       	ret

00003fc0 <_Z8get_x0_1v>:
    3fc0:	50 91 35 01 	lds	r21, 0x0135
    3fc4:	40 91 36 01 	lds	r20, 0x0136
    3fc8:	30 91 37 01 	lds	r19, 0x0137
    3fcc:	20 91 38 01 	lds	r18, 0x0138
    3fd0:	65 2f       	mov	r22, r21
    3fd2:	74 2f       	mov	r23, r20
    3fd4:	83 2f       	mov	r24, r19
    3fd6:	92 2f       	mov	r25, r18
    3fd8:	08 95       	ret

00003fda <_Z8get_y0_1v>:
    3fda:	50 91 31 01 	lds	r21, 0x0131
    3fde:	40 91 32 01 	lds	r20, 0x0132
    3fe2:	30 91 33 01 	lds	r19, 0x0133
    3fe6:	20 91 34 01 	lds	r18, 0x0134
    3fea:	65 2f       	mov	r22, r21
    3fec:	74 2f       	mov	r23, r20
    3fee:	83 2f       	mov	r24, r19
    3ff0:	92 2f       	mov	r25, r18
    3ff2:	08 95       	ret

00003ff4 <_Z6get_x0v>:
    3ff4:	50 91 0d 01 	lds	r21, 0x010D
    3ff8:	40 91 0e 01 	lds	r20, 0x010E
    3ffc:	30 91 0f 01 	lds	r19, 0x010F
    4000:	20 91 10 01 	lds	r18, 0x0110
    4004:	65 2f       	mov	r22, r21
    4006:	74 2f       	mov	r23, r20
    4008:	83 2f       	mov	r24, r19
    400a:	92 2f       	mov	r25, r18
    400c:	08 95       	ret

0000400e <_Z6get_y0v>:
    400e:	50 91 23 19 	lds	r21, 0x1923
    4012:	40 91 24 19 	lds	r20, 0x1924
    4016:	30 91 25 19 	lds	r19, 0x1925
    401a:	20 91 26 19 	lds	r18, 0x1926
    401e:	65 2f       	mov	r22, r21
    4020:	74 2f       	mov	r23, r20
    4022:	83 2f       	mov	r24, r19
    4024:	92 2f       	mov	r25, r18
    4026:	08 95       	ret

00004028 <_Z6get_z0v>:
    4028:	50 91 09 01 	lds	r21, 0x0109
    402c:	40 91 0a 01 	lds	r20, 0x010A
    4030:	30 91 0b 01 	lds	r19, 0x010B
    4034:	20 91 0c 01 	lds	r18, 0x010C
    4038:	65 2f       	mov	r22, r21
    403a:	74 2f       	mov	r23, r20
    403c:	83 2f       	mov	r24, r19
    403e:	92 2f       	mov	r25, r18
    4040:	08 95       	ret

00004042 <_Z6calc_dfff>:
    4042:	4f 92       	push	r4
    4044:	5f 92       	push	r5
    4046:	6f 92       	push	r6
    4048:	7f 92       	push	r7
    404a:	8f 92       	push	r8
    404c:	9f 92       	push	r9
    404e:	af 92       	push	r10
    4050:	bf 92       	push	r11
    4052:	cf 92       	push	r12
    4054:	df 92       	push	r13
    4056:	ef 92       	push	r14
    4058:	ff 92       	push	r15
    405a:	0f 93       	push	r16
    405c:	1f 93       	push	r17
    405e:	49 01       	movw	r8, r18
    4060:	5a 01       	movw	r10, r20
    4062:	67 01       	movw	r12, r14
    4064:	78 01       	movw	r14, r16
    4066:	9b 01       	movw	r18, r22
    4068:	ac 01       	movw	r20, r24
    406a:	0e 94 24 35 	call	0x6a48	; 0x6a48 <__mulsf3>
    406e:	2b 01       	movw	r4, r22
    4070:	3c 01       	movw	r6, r24
    4072:	a5 01       	movw	r20, r10
    4074:	94 01       	movw	r18, r8
    4076:	c5 01       	movw	r24, r10
    4078:	b4 01       	movw	r22, r8
    407a:	0e 94 24 35 	call	0x6a48	; 0x6a48 <__mulsf3>
    407e:	9b 01       	movw	r18, r22
    4080:	ac 01       	movw	r20, r24
    4082:	c3 01       	movw	r24, r6
    4084:	b2 01       	movw	r22, r4
    4086:	0e 94 e5 31 	call	0x63ca	; 0x63ca <__addsf3>
    408a:	0e 94 91 35 	call	0x6b22	; 0x6b22 <sqrt>
    408e:	20 e0       	ldi	r18, 0x00	; 0
    4090:	30 e0       	ldi	r19, 0x00	; 0
    4092:	48 e5       	ldi	r20, 0x58	; 88
    4094:	52 e4       	ldi	r21, 0x42	; 66
    4096:	0e 94 e4 31 	call	0x63c8	; 0x63c8 <__subsf3>
    409a:	86 2e       	mov	r8, r22
    409c:	97 2e       	mov	r9, r23
    409e:	a8 2e       	mov	r10, r24
    40a0:	b9 2e       	mov	r11, r25
    40a2:	a7 01       	movw	r20, r14
    40a4:	96 01       	movw	r18, r12
    40a6:	c7 01       	movw	r24, r14
    40a8:	b6 01       	movw	r22, r12
    40aa:	0e 94 24 35 	call	0x6a48	; 0x6a48 <__mulsf3>
    40ae:	6b 01       	movw	r12, r22
    40b0:	7c 01       	movw	r14, r24
    40b2:	28 2d       	mov	r18, r8
    40b4:	39 2d       	mov	r19, r9
    40b6:	4a 2d       	mov	r20, r10
    40b8:	5b 2d       	mov	r21, r11
    40ba:	68 2d       	mov	r22, r8
    40bc:	79 2d       	mov	r23, r9
    40be:	8a 2d       	mov	r24, r10
    40c0:	9b 2d       	mov	r25, r11
    40c2:	0e 94 24 35 	call	0x6a48	; 0x6a48 <__mulsf3>
    40c6:	9b 01       	movw	r18, r22
    40c8:	ac 01       	movw	r20, r24
    40ca:	c7 01       	movw	r24, r14
    40cc:	b6 01       	movw	r22, r12
    40ce:	0e 94 e5 31 	call	0x63ca	; 0x63ca <__addsf3>
    40d2:	0e 94 91 35 	call	0x6b22	; 0x6b22 <sqrt>
    40d6:	60 93 2f 19 	sts	0x192F, r22
    40da:	70 93 30 19 	sts	0x1930, r23
    40de:	80 93 31 19 	sts	0x1931, r24
    40e2:	90 93 32 19 	sts	0x1932, r25
    40e6:	1f 91       	pop	r17
    40e8:	0f 91       	pop	r16
    40ea:	ff 90       	pop	r15
    40ec:	ef 90       	pop	r14
    40ee:	df 90       	pop	r13
    40f0:	cf 90       	pop	r12
    40f2:	bf 90       	pop	r11
    40f4:	af 90       	pop	r10
    40f6:	9f 90       	pop	r9
    40f8:	8f 90       	pop	r8
    40fa:	7f 90       	pop	r7
    40fc:	6f 90       	pop	r6
    40fe:	5f 90       	pop	r5
    4100:	4f 90       	pop	r4
    4102:	08 95       	ret

00004104 <_Z9get_gammaff>:
    4104:	cf 92       	push	r12
    4106:	df 92       	push	r13
    4108:	ef 92       	push	r14
    410a:	ff 92       	push	r15
    410c:	6b 01       	movw	r12, r22
    410e:	7c 01       	movw	r14, r24
    4110:	ca 01       	movw	r24, r20
    4112:	b9 01       	movw	r22, r18
    4114:	a7 01       	movw	r20, r14
    4116:	96 01       	movw	r18, r12
    4118:	0e 94 c9 32 	call	0x6592	; 0x6592 <__divsf3>
    411c:	0e 94 9a 32 	call	0x6534	; 0x6534 <atan>
    4120:	26 2f       	mov	r18, r22
    4122:	37 2f       	mov	r19, r23
    4124:	46 2f       	mov	r20, r22
    4126:	57 2f       	mov	r21, r23
    4128:	68 2f       	mov	r22, r24
    412a:	79 2f       	mov	r23, r25
    412c:	40 93 33 19 	sts	0x1933, r20
    4130:	50 93 34 19 	sts	0x1934, r21
    4134:	60 93 35 19 	sts	0x1935, r22
    4138:	70 93 36 19 	sts	0x1936, r23
    413c:	62 2f       	mov	r22, r18
    413e:	73 2f       	mov	r23, r19
    4140:	ff 90       	pop	r15
    4142:	ef 90       	pop	r14
    4144:	df 90       	pop	r13
    4146:	cf 90       	pop	r12
    4148:	08 95       	ret

0000414a <_Z8get_betav>:
    414a:	60 91 2f 19 	lds	r22, 0x192F
    414e:	70 91 30 19 	lds	r23, 0x1930
    4152:	80 91 31 19 	lds	r24, 0x1931
    4156:	90 91 32 19 	lds	r25, 0x1932
    415a:	9b 01       	movw	r18, r22
    415c:	ac 01       	movw	r20, r24
    415e:	0e 94 24 35 	call	0x6a48	; 0x6a48 <__mulsf3>
    4162:	9b 01       	movw	r18, r22
    4164:	ac 01       	movw	r20, r24
    4166:	60 e0       	ldi	r22, 0x00	; 0
    4168:	72 e3       	ldi	r23, 0x32	; 50
    416a:	8b ea       	ldi	r24, 0xAB	; 171
    416c:	96 e4       	ldi	r25, 0x46	; 70
    416e:	0e 94 e4 31 	call	0x63c8	; 0x63c8 <__subsf3>
    4172:	20 e0       	ldi	r18, 0x00	; 0
    4174:	30 e3       	ldi	r19, 0x30	; 48
    4176:	4a e8       	ldi	r20, 0x8A	; 138
    4178:	56 e4       	ldi	r21, 0x46	; 70
    417a:	0e 94 c9 32 	call	0x6592	; 0x6592 <__divsf3>
    417e:	0e 94 d6 31 	call	0x63ac	; 0x63ac <acos>
    4182:	9b 01       	movw	r18, r22
    4184:	ac 01       	movw	r20, r24
    4186:	6b ed       	ldi	r22, 0xDB	; 219
    4188:	7f e0       	ldi	r23, 0x0F	; 15
    418a:	89 e4       	ldi	r24, 0x49	; 73
    418c:	90 e4       	ldi	r25, 0x40	; 64
    418e:	0e 94 e4 31 	call	0x63c8	; 0x63c8 <__subsf3>
    4192:	26 2f       	mov	r18, r22
    4194:	37 2f       	mov	r19, r23
    4196:	46 2f       	mov	r20, r22
    4198:	57 2f       	mov	r21, r23
    419a:	68 2f       	mov	r22, r24
    419c:	79 2f       	mov	r23, r25
    419e:	40 93 37 19 	sts	0x1937, r20
    41a2:	50 93 38 19 	sts	0x1938, r21
    41a6:	60 93 39 19 	sts	0x1939, r22
    41aa:	70 93 3a 19 	sts	0x193A, r23
    41ae:	62 2f       	mov	r22, r18
    41b0:	73 2f       	mov	r23, r19
    41b2:	08 95       	ret

000041b4 <_Z9get_alphaf>:
    41b4:	4f 92       	push	r4
    41b6:	5f 92       	push	r5
    41b8:	6f 92       	push	r6
    41ba:	7f 92       	push	r7
    41bc:	8f 92       	push	r8
    41be:	9f 92       	push	r9
    41c0:	af 92       	push	r10
    41c2:	bf 92       	push	r11
    41c4:	cf 92       	push	r12
    41c6:	df 92       	push	r13
    41c8:	ef 92       	push	r14
    41ca:	ff 92       	push	r15
    41cc:	2b 01       	movw	r4, r22
    41ce:	3c 01       	movw	r6, r24
    41d0:	c0 90 2f 19 	lds	r12, 0x192F
    41d4:	d0 90 30 19 	lds	r13, 0x1930
    41d8:	e0 90 31 19 	lds	r14, 0x1931
    41dc:	f0 90 32 19 	lds	r15, 0x1932
    41e0:	a7 01       	movw	r20, r14
    41e2:	96 01       	movw	r18, r12
    41e4:	c7 01       	movw	r24, r14
    41e6:	b6 01       	movw	r22, r12
    41e8:	0e 94 24 35 	call	0x6a48	; 0x6a48 <__mulsf3>
    41ec:	20 e0       	ldi	r18, 0x00	; 0
    41ee:	3c e1       	ldi	r19, 0x1C	; 28
    41f0:	4a e4       	ldi	r20, 0x4A	; 74
    41f2:	56 e4       	ldi	r21, 0x46	; 70
    41f4:	0e 94 e4 31 	call	0x63c8	; 0x63c8 <__subsf3>
    41f8:	4b 01       	movw	r8, r22
    41fa:	5c 01       	movw	r10, r24
    41fc:	20 e0       	ldi	r18, 0x00	; 0
    41fe:	30 e0       	ldi	r19, 0x00	; 0
    4200:	46 e0       	ldi	r20, 0x06	; 6
    4202:	53 e4       	ldi	r21, 0x43	; 67
    4204:	c7 01       	movw	r24, r14
    4206:	b6 01       	movw	r22, r12
    4208:	0e 94 24 35 	call	0x6a48	; 0x6a48 <__mulsf3>
    420c:	9b 01       	movw	r18, r22
    420e:	ac 01       	movw	r20, r24
    4210:	c5 01       	movw	r24, r10
    4212:	b4 01       	movw	r22, r8
    4214:	0e 94 c9 32 	call	0x6592	; 0x6592 <__divsf3>
    4218:	0e 94 d6 31 	call	0x63ac	; 0x63ac <acos>
    421c:	4b 01       	movw	r8, r22
    421e:	5c 01       	movw	r10, r24
    4220:	a7 01       	movw	r20, r14
    4222:	96 01       	movw	r18, r12
    4224:	c3 01       	movw	r24, r6
    4226:	b2 01       	movw	r22, r4
    4228:	0e 94 c9 32 	call	0x6592	; 0x6592 <__divsf3>
    422c:	0e 94 49 32 	call	0x6492	; 0x6492 <asin>
    4230:	9b 01       	movw	r18, r22
    4232:	ac 01       	movw	r20, r24
    4234:	c5 01       	movw	r24, r10
    4236:	b4 01       	movw	r22, r8
    4238:	0e 94 e5 31 	call	0x63ca	; 0x63ca <__addsf3>
    423c:	26 2f       	mov	r18, r22
    423e:	37 2f       	mov	r19, r23
    4240:	46 2f       	mov	r20, r22
    4242:	57 2f       	mov	r21, r23
    4244:	68 2f       	mov	r22, r24
    4246:	79 2f       	mov	r23, r25
    4248:	40 93 3b 19 	sts	0x193B, r20
    424c:	50 93 3c 19 	sts	0x193C, r21
    4250:	60 93 3d 19 	sts	0x193D, r22
    4254:	70 93 3e 19 	sts	0x193E, r23
    4258:	62 2f       	mov	r22, r18
    425a:	73 2f       	mov	r23, r19
    425c:	ff 90       	pop	r15
    425e:	ef 90       	pop	r14
    4260:	df 90       	pop	r13
    4262:	cf 90       	pop	r12
    4264:	bf 90       	pop	r11
    4266:	af 90       	pop	r10
    4268:	9f 90       	pop	r9
    426a:	8f 90       	pop	r8
    426c:	7f 90       	pop	r7
    426e:	6f 90       	pop	r6
    4270:	5f 90       	pop	r5
    4272:	4f 90       	pop	r4
    4274:	08 95       	ret

00004276 <_Z18basis_change_leg1xff>:
    4276:	8f 92       	push	r8
    4278:	9f 92       	push	r9
    427a:	af 92       	push	r10
    427c:	bf 92       	push	r11
    427e:	cf 92       	push	r12
    4280:	df 92       	push	r13
    4282:	ef 92       	push	r14
    4284:	ff 92       	push	r15
    4286:	49 01       	movw	r8, r18
    4288:	5a 01       	movw	r10, r20
    428a:	20 91 35 01 	lds	r18, 0x0135
    428e:	30 91 36 01 	lds	r19, 0x0136
    4292:	40 91 37 01 	lds	r20, 0x0137
    4296:	50 91 38 01 	lds	r21, 0x0138
    429a:	0e 94 e5 31 	call	0x63ca	; 0x63ca <__addsf3>
    429e:	26 e6       	ldi	r18, 0x66	; 102
    42a0:	36 e6       	ldi	r19, 0x66	; 102
    42a2:	47 e7       	ldi	r20, 0x77	; 119
    42a4:	52 e4       	ldi	r21, 0x42	; 66
    42a6:	0e 94 e5 31 	call	0x63ca	; 0x63ca <__addsf3>
    42aa:	23 ef       	ldi	r18, 0xF3	; 243
    42ac:	34 e0       	ldi	r19, 0x04	; 4
    42ae:	45 eb       	ldi	r20, 0xB5	; 181
    42b0:	5f eb       	ldi	r21, 0xBF	; 191
    42b2:	0e 94 c9 32 	call	0x6592	; 0x6592 <__divsf3>
    42b6:	6b 01       	movw	r12, r22
    42b8:	7c 01       	movw	r14, r24
    42ba:	20 91 31 01 	lds	r18, 0x0131
    42be:	30 91 32 01 	lds	r19, 0x0132
    42c2:	40 91 33 01 	lds	r20, 0x0133
    42c6:	50 91 34 01 	lds	r21, 0x0134
    42ca:	c5 01       	movw	r24, r10
    42cc:	b4 01       	movw	r22, r8
    42ce:	0e 94 e5 31 	call	0x63ca	; 0x63ca <__addsf3>
    42d2:	20 e0       	ldi	r18, 0x00	; 0
    42d4:	30 e0       	ldi	r19, 0x00	; 0
    42d6:	40 ef       	ldi	r20, 0xF0	; 240
    42d8:	52 e4       	ldi	r21, 0x42	; 66
    42da:	0e 94 e4 31 	call	0x63c8	; 0x63c8 <__subsf3>
    42de:	23 ef       	ldi	r18, 0xF3	; 243
    42e0:	34 e0       	ldi	r19, 0x04	; 4
    42e2:	45 eb       	ldi	r20, 0xB5	; 181
    42e4:	5f e3       	ldi	r21, 0x3F	; 63
    42e6:	0e 94 c9 32 	call	0x6592	; 0x6592 <__divsf3>
    42ea:	9b 01       	movw	r18, r22
    42ec:	ac 01       	movw	r20, r24
    42ee:	c7 01       	movw	r24, r14
    42f0:	b6 01       	movw	r22, r12
    42f2:	0e 94 e5 31 	call	0x63ca	; 0x63ca <__addsf3>
    42f6:	ff 90       	pop	r15
    42f8:	ef 90       	pop	r14
    42fa:	df 90       	pop	r13
    42fc:	cf 90       	pop	r12
    42fe:	bf 90       	pop	r11
    4300:	af 90       	pop	r10
    4302:	9f 90       	pop	r9
    4304:	8f 90       	pop	r8
    4306:	08 95       	ret

00004308 <_Z18basis_change_leg1yff>:
    4308:	8f 92       	push	r8
    430a:	9f 92       	push	r9
    430c:	af 92       	push	r10
    430e:	bf 92       	push	r11
    4310:	cf 92       	push	r12
    4312:	df 92       	push	r13
    4314:	ef 92       	push	r14
    4316:	ff 92       	push	r15
    4318:	49 01       	movw	r8, r18
    431a:	5a 01       	movw	r10, r20
    431c:	20 91 35 01 	lds	r18, 0x0135
    4320:	30 91 36 01 	lds	r19, 0x0136
    4324:	40 91 37 01 	lds	r20, 0x0137
    4328:	50 91 38 01 	lds	r21, 0x0138
    432c:	0e 94 e5 31 	call	0x63ca	; 0x63ca <__addsf3>
    4330:	26 e6       	ldi	r18, 0x66	; 102
    4332:	36 e6       	ldi	r19, 0x66	; 102
    4334:	47 e7       	ldi	r20, 0x77	; 119
    4336:	52 e4       	ldi	r21, 0x42	; 66
    4338:	0e 94 e5 31 	call	0x63ca	; 0x63ca <__addsf3>
    433c:	23 ef       	ldi	r18, 0xF3	; 243
    433e:	34 e0       	ldi	r19, 0x04	; 4
    4340:	45 eb       	ldi	r20, 0xB5	; 181
    4342:	5f eb       	ldi	r21, 0xBF	; 191
    4344:	0e 94 c9 32 	call	0x6592	; 0x6592 <__divsf3>
    4348:	6b 01       	movw	r12, r22
    434a:	7c 01       	movw	r14, r24
    434c:	20 91 31 01 	lds	r18, 0x0131
    4350:	30 91 32 01 	lds	r19, 0x0132
    4354:	40 91 33 01 	lds	r20, 0x0133
    4358:	50 91 34 01 	lds	r21, 0x0134
    435c:	c5 01       	movw	r24, r10
    435e:	b4 01       	movw	r22, r8
    4360:	0e 94 e5 31 	call	0x63ca	; 0x63ca <__addsf3>
    4364:	20 e0       	ldi	r18, 0x00	; 0
    4366:	30 e0       	ldi	r19, 0x00	; 0
    4368:	40 ef       	ldi	r20, 0xF0	; 240
    436a:	52 e4       	ldi	r21, 0x42	; 66
    436c:	0e 94 e4 31 	call	0x63c8	; 0x63c8 <__subsf3>
    4370:	23 ef       	ldi	r18, 0xF3	; 243
    4372:	34 e0       	ldi	r19, 0x04	; 4
    4374:	45 eb       	ldi	r20, 0xB5	; 181
    4376:	5f eb       	ldi	r21, 0xBF	; 191
    4378:	0e 94 c9 32 	call	0x6592	; 0x6592 <__divsf3>
    437c:	9b 01       	movw	r18, r22
    437e:	ac 01       	movw	r20, r24
    4380:	c7 01       	movw	r24, r14
    4382:	b6 01       	movw	r22, r12
    4384:	0e 94 e5 31 	call	0x63ca	; 0x63ca <__addsf3>
    4388:	ff 90       	pop	r15
    438a:	ef 90       	pop	r14
    438c:	df 90       	pop	r13
    438e:	cf 90       	pop	r12
    4390:	bf 90       	pop	r11
    4392:	af 90       	pop	r10
    4394:	9f 90       	pop	r9
    4396:	8f 90       	pop	r8
    4398:	08 95       	ret

0000439a <_Z18basis_change_leg2xf>:
    439a:	20 91 2d 01 	lds	r18, 0x012D
    439e:	30 91 2e 01 	lds	r19, 0x012E
    43a2:	40 91 2f 01 	lds	r20, 0x012F
    43a6:	50 91 30 01 	lds	r21, 0x0130
    43aa:	0e 94 e5 31 	call	0x63ca	; 0x63ca <__addsf3>
    43ae:	20 e0       	ldi	r18, 0x00	; 0
    43b0:	30 e0       	ldi	r19, 0x00	; 0
    43b2:	48 ec       	ldi	r20, 0xC8	; 200
    43b4:	52 e4       	ldi	r21, 0x42	; 66
    43b6:	0e 94 e5 31 	call	0x63ca	; 0x63ca <__addsf3>
    43ba:	dc 01       	movw	r26, r24
    43bc:	cb 01       	movw	r24, r22
    43be:	b0 58       	subi	r27, 0x80	; 128
    43c0:	68 2f       	mov	r22, r24
    43c2:	79 2f       	mov	r23, r25
    43c4:	8a 2f       	mov	r24, r26
    43c6:	9b 2f       	mov	r25, r27
    43c8:	08 95       	ret

000043ca <_Z18basis_change_leg2yf>:
    43ca:	20 91 2b 19 	lds	r18, 0x192B
    43ce:	30 91 2c 19 	lds	r19, 0x192C
    43d2:	40 91 2d 19 	lds	r20, 0x192D
    43d6:	50 91 2e 19 	lds	r21, 0x192E
    43da:	0e 94 e5 31 	call	0x63ca	; 0x63ca <__addsf3>
    43de:	dc 01       	movw	r26, r24
    43e0:	cb 01       	movw	r24, r22
    43e2:	b0 58       	subi	r27, 0x80	; 128
    43e4:	68 2f       	mov	r22, r24
    43e6:	79 2f       	mov	r23, r25
    43e8:	8a 2f       	mov	r24, r26
    43ea:	9b 2f       	mov	r25, r27
    43ec:	08 95       	ret

000043ee <_Z18basis_change_leg3xff>:
    43ee:	8f 92       	push	r8
    43f0:	9f 92       	push	r9
    43f2:	af 92       	push	r10
    43f4:	bf 92       	push	r11
    43f6:	cf 92       	push	r12
    43f8:	df 92       	push	r13
    43fa:	ef 92       	push	r14
    43fc:	ff 92       	push	r15
    43fe:	49 01       	movw	r8, r18
    4400:	5a 01       	movw	r10, r20
    4402:	20 91 29 01 	lds	r18, 0x0129
    4406:	30 91 2a 01 	lds	r19, 0x012A
    440a:	40 91 2b 01 	lds	r20, 0x012B
    440e:	50 91 2c 01 	lds	r21, 0x012C
    4412:	0e 94 e5 31 	call	0x63ca	; 0x63ca <__addsf3>
    4416:	26 e6       	ldi	r18, 0x66	; 102
    4418:	36 e6       	ldi	r19, 0x66	; 102
    441a:	47 e7       	ldi	r20, 0x77	; 119
    441c:	52 e4       	ldi	r21, 0x42	; 66
    441e:	0e 94 e5 31 	call	0x63ca	; 0x63ca <__addsf3>
    4422:	23 ef       	ldi	r18, 0xF3	; 243
    4424:	34 e0       	ldi	r19, 0x04	; 4
    4426:	45 eb       	ldi	r20, 0xB5	; 181
    4428:	5f eb       	ldi	r21, 0xBF	; 191
    442a:	0e 94 c9 32 	call	0x6592	; 0x6592 <__divsf3>
    442e:	6b 01       	movw	r12, r22
    4430:	7c 01       	movw	r14, r24
    4432:	20 91 25 01 	lds	r18, 0x0125
    4436:	30 91 26 01 	lds	r19, 0x0126
    443a:	40 91 27 01 	lds	r20, 0x0127
    443e:	50 91 28 01 	lds	r21, 0x0128
    4442:	c5 01       	movw	r24, r10
    4444:	b4 01       	movw	r22, r8
    4446:	0e 94 e5 31 	call	0x63ca	; 0x63ca <__addsf3>
    444a:	20 e0       	ldi	r18, 0x00	; 0
    444c:	30 e0       	ldi	r19, 0x00	; 0
    444e:	40 ef       	ldi	r20, 0xF0	; 240
    4450:	52 e4       	ldi	r21, 0x42	; 66
    4452:	0e 94 e5 31 	call	0x63ca	; 0x63ca <__addsf3>
    4456:	23 ef       	ldi	r18, 0xF3	; 243
    4458:	34 e0       	ldi	r19, 0x04	; 4
    445a:	45 eb       	ldi	r20, 0xB5	; 181
    445c:	5f e3       	ldi	r21, 0x3F	; 63
    445e:	0e 94 c9 32 	call	0x6592	; 0x6592 <__divsf3>
    4462:	9b 01       	movw	r18, r22
    4464:	ac 01       	movw	r20, r24
    4466:	c7 01       	movw	r24, r14
    4468:	b6 01       	movw	r22, r12
    446a:	0e 94 e4 31 	call	0x63c8	; 0x63c8 <__subsf3>
    446e:	ff 90       	pop	r15
    4470:	ef 90       	pop	r14
    4472:	df 90       	pop	r13
    4474:	cf 90       	pop	r12
    4476:	bf 90       	pop	r11
    4478:	af 90       	pop	r10
    447a:	9f 90       	pop	r9
    447c:	8f 90       	pop	r8
    447e:	08 95       	ret

00004480 <_Z18basis_change_leg3yff>:
    4480:	8f 92       	push	r8
    4482:	9f 92       	push	r9
    4484:	af 92       	push	r10
    4486:	bf 92       	push	r11
    4488:	cf 92       	push	r12
    448a:	df 92       	push	r13
    448c:	ef 92       	push	r14
    448e:	ff 92       	push	r15
    4490:	49 01       	movw	r8, r18
    4492:	5a 01       	movw	r10, r20
    4494:	20 91 29 01 	lds	r18, 0x0129
    4498:	30 91 2a 01 	lds	r19, 0x012A
    449c:	40 91 2b 01 	lds	r20, 0x012B
    44a0:	50 91 2c 01 	lds	r21, 0x012C
    44a4:	0e 94 e5 31 	call	0x63ca	; 0x63ca <__addsf3>
    44a8:	26 e6       	ldi	r18, 0x66	; 102
    44aa:	36 e6       	ldi	r19, 0x66	; 102
    44ac:	47 e7       	ldi	r20, 0x77	; 119
    44ae:	52 e4       	ldi	r21, 0x42	; 66
    44b0:	0e 94 e5 31 	call	0x63ca	; 0x63ca <__addsf3>
    44b4:	23 ef       	ldi	r18, 0xF3	; 243
    44b6:	34 e0       	ldi	r19, 0x04	; 4
    44b8:	45 eb       	ldi	r20, 0xB5	; 181
    44ba:	5f e3       	ldi	r21, 0x3F	; 63
    44bc:	0e 94 c9 32 	call	0x6592	; 0x6592 <__divsf3>
    44c0:	6b 01       	movw	r12, r22
    44c2:	7c 01       	movw	r14, r24
    44c4:	20 91 25 01 	lds	r18, 0x0125
    44c8:	30 91 26 01 	lds	r19, 0x0126
    44cc:	40 91 27 01 	lds	r20, 0x0127
    44d0:	50 91 28 01 	lds	r21, 0x0128
    44d4:	c5 01       	movw	r24, r10
    44d6:	b4 01       	movw	r22, r8
    44d8:	0e 94 e5 31 	call	0x63ca	; 0x63ca <__addsf3>
    44dc:	20 e0       	ldi	r18, 0x00	; 0
    44de:	30 e0       	ldi	r19, 0x00	; 0
    44e0:	40 ef       	ldi	r20, 0xF0	; 240
    44e2:	52 e4       	ldi	r21, 0x42	; 66
    44e4:	0e 94 e5 31 	call	0x63ca	; 0x63ca <__addsf3>
    44e8:	23 ef       	ldi	r18, 0xF3	; 243
    44ea:	34 e0       	ldi	r19, 0x04	; 4
    44ec:	45 eb       	ldi	r20, 0xB5	; 181
    44ee:	5f eb       	ldi	r21, 0xBF	; 191
    44f0:	0e 94 c9 32 	call	0x6592	; 0x6592 <__divsf3>
    44f4:	9b 01       	movw	r18, r22
    44f6:	ac 01       	movw	r20, r24
    44f8:	c7 01       	movw	r24, r14
    44fa:	b6 01       	movw	r22, r12
    44fc:	0e 94 e5 31 	call	0x63ca	; 0x63ca <__addsf3>
    4500:	ff 90       	pop	r15
    4502:	ef 90       	pop	r14
    4504:	df 90       	pop	r13
    4506:	cf 90       	pop	r12
    4508:	bf 90       	pop	r11
    450a:	af 90       	pop	r10
    450c:	9f 90       	pop	r9
    450e:	8f 90       	pop	r8
    4510:	08 95       	ret

00004512 <_Z18basis_change_leg4xff>:
    4512:	8f 92       	push	r8
    4514:	9f 92       	push	r9
    4516:	af 92       	push	r10
    4518:	bf 92       	push	r11
    451a:	cf 92       	push	r12
    451c:	df 92       	push	r13
    451e:	ef 92       	push	r14
    4520:	ff 92       	push	r15
    4522:	49 01       	movw	r8, r18
    4524:	5a 01       	movw	r10, r20
    4526:	20 91 21 01 	lds	r18, 0x0121
    452a:	30 91 22 01 	lds	r19, 0x0122
    452e:	40 91 23 01 	lds	r20, 0x0123
    4532:	50 91 24 01 	lds	r21, 0x0124
    4536:	0e 94 e5 31 	call	0x63ca	; 0x63ca <__addsf3>
    453a:	26 e6       	ldi	r18, 0x66	; 102
    453c:	36 e6       	ldi	r19, 0x66	; 102
    453e:	47 e7       	ldi	r20, 0x77	; 119
    4540:	52 e4       	ldi	r21, 0x42	; 66
    4542:	0e 94 e4 31 	call	0x63c8	; 0x63c8 <__subsf3>
    4546:	23 ef       	ldi	r18, 0xF3	; 243
    4548:	34 e0       	ldi	r19, 0x04	; 4
    454a:	45 eb       	ldi	r20, 0xB5	; 181
    454c:	5f e3       	ldi	r21, 0x3F	; 63
    454e:	0e 94 c9 32 	call	0x6592	; 0x6592 <__divsf3>
    4552:	6b 01       	movw	r12, r22
    4554:	7c 01       	movw	r14, r24
    4556:	20 91 1d 01 	lds	r18, 0x011D
    455a:	30 91 1e 01 	lds	r19, 0x011E
    455e:	40 91 1f 01 	lds	r20, 0x011F
    4562:	50 91 20 01 	lds	r21, 0x0120
    4566:	c5 01       	movw	r24, r10
    4568:	b4 01       	movw	r22, r8
    456a:	0e 94 e5 31 	call	0x63ca	; 0x63ca <__addsf3>
    456e:	20 e0       	ldi	r18, 0x00	; 0
    4570:	30 e0       	ldi	r19, 0x00	; 0
    4572:	40 ef       	ldi	r20, 0xF0	; 240
    4574:	52 e4       	ldi	r21, 0x42	; 66
    4576:	0e 94 e5 31 	call	0x63ca	; 0x63ca <__addsf3>
    457a:	23 ef       	ldi	r18, 0xF3	; 243
    457c:	34 e0       	ldi	r19, 0x04	; 4
    457e:	45 eb       	ldi	r20, 0xB5	; 181
    4580:	5f e3       	ldi	r21, 0x3F	; 63
    4582:	0e 94 c9 32 	call	0x6592	; 0x6592 <__divsf3>
    4586:	9b 01       	movw	r18, r22
    4588:	ac 01       	movw	r20, r24
    458a:	c7 01       	movw	r24, r14
    458c:	b6 01       	movw	r22, r12
    458e:	0e 94 e4 31 	call	0x63c8	; 0x63c8 <__subsf3>
    4592:	ff 90       	pop	r15
    4594:	ef 90       	pop	r14
    4596:	df 90       	pop	r13
    4598:	cf 90       	pop	r12
    459a:	bf 90       	pop	r11
    459c:	af 90       	pop	r10
    459e:	9f 90       	pop	r9
    45a0:	8f 90       	pop	r8
    45a2:	08 95       	ret

000045a4 <_Z18basis_change_leg4yff>:
    45a4:	8f 92       	push	r8
    45a6:	9f 92       	push	r9
    45a8:	af 92       	push	r10
    45aa:	bf 92       	push	r11
    45ac:	cf 92       	push	r12
    45ae:	df 92       	push	r13
    45b0:	ef 92       	push	r14
    45b2:	ff 92       	push	r15
    45b4:	49 01       	movw	r8, r18
    45b6:	5a 01       	movw	r10, r20
    45b8:	20 91 21 01 	lds	r18, 0x0121
    45bc:	30 91 22 01 	lds	r19, 0x0122
    45c0:	40 91 23 01 	lds	r20, 0x0123
    45c4:	50 91 24 01 	lds	r21, 0x0124
    45c8:	0e 94 e5 31 	call	0x63ca	; 0x63ca <__addsf3>
    45cc:	26 e6       	ldi	r18, 0x66	; 102
    45ce:	36 e6       	ldi	r19, 0x66	; 102
    45d0:	47 e7       	ldi	r20, 0x77	; 119
    45d2:	52 e4       	ldi	r21, 0x42	; 66
    45d4:	0e 94 e4 31 	call	0x63c8	; 0x63c8 <__subsf3>
    45d8:	23 ef       	ldi	r18, 0xF3	; 243
    45da:	34 e0       	ldi	r19, 0x04	; 4
    45dc:	45 eb       	ldi	r20, 0xB5	; 181
    45de:	5f e3       	ldi	r21, 0x3F	; 63
    45e0:	0e 94 c9 32 	call	0x6592	; 0x6592 <__divsf3>
    45e4:	6b 01       	movw	r12, r22
    45e6:	7c 01       	movw	r14, r24
    45e8:	20 91 1d 01 	lds	r18, 0x011D
    45ec:	30 91 1e 01 	lds	r19, 0x011E
    45f0:	40 91 1f 01 	lds	r20, 0x011F
    45f4:	50 91 20 01 	lds	r21, 0x0120
    45f8:	c5 01       	movw	r24, r10
    45fa:	b4 01       	movw	r22, r8
    45fc:	0e 94 e5 31 	call	0x63ca	; 0x63ca <__addsf3>
    4600:	20 e0       	ldi	r18, 0x00	; 0
    4602:	30 e0       	ldi	r19, 0x00	; 0
    4604:	40 ef       	ldi	r20, 0xF0	; 240
    4606:	52 e4       	ldi	r21, 0x42	; 66
    4608:	0e 94 e5 31 	call	0x63ca	; 0x63ca <__addsf3>
    460c:	23 ef       	ldi	r18, 0xF3	; 243
    460e:	34 e0       	ldi	r19, 0x04	; 4
    4610:	45 eb       	ldi	r20, 0xB5	; 181
    4612:	5f e3       	ldi	r21, 0x3F	; 63
    4614:	0e 94 c9 32 	call	0x6592	; 0x6592 <__divsf3>
    4618:	9b 01       	movw	r18, r22
    461a:	ac 01       	movw	r20, r24
    461c:	c7 01       	movw	r24, r14
    461e:	b6 01       	movw	r22, r12
    4620:	0e 94 e5 31 	call	0x63ca	; 0x63ca <__addsf3>
    4624:	ff 90       	pop	r15
    4626:	ef 90       	pop	r14
    4628:	df 90       	pop	r13
    462a:	cf 90       	pop	r12
    462c:	bf 90       	pop	r11
    462e:	af 90       	pop	r10
    4630:	9f 90       	pop	r9
    4632:	8f 90       	pop	r8
    4634:	08 95       	ret

00004636 <_Z18basis_change_leg5xf>:
    4636:	20 91 19 01 	lds	r18, 0x0119
    463a:	30 91 1a 01 	lds	r19, 0x011A
    463e:	40 91 1b 01 	lds	r20, 0x011B
    4642:	50 91 1c 01 	lds	r21, 0x011C
    4646:	0e 94 e5 31 	call	0x63ca	; 0x63ca <__addsf3>
    464a:	20 e0       	ldi	r18, 0x00	; 0
    464c:	30 e0       	ldi	r19, 0x00	; 0
    464e:	48 ec       	ldi	r20, 0xC8	; 200
    4650:	52 e4       	ldi	r21, 0x42	; 66
    4652:	0c 94 e4 31 	jmp	0x63c8	; 0x63c8 <__subsf3>

00004656 <_Z18basis_change_leg5yf>:
    4656:	20 91 27 19 	lds	r18, 0x1927
    465a:	30 91 28 19 	lds	r19, 0x1928
    465e:	40 91 29 19 	lds	r20, 0x1929
    4662:	50 91 2a 19 	lds	r21, 0x192A
    4666:	0c 94 e5 31 	jmp	0x63ca	; 0x63ca <__addsf3>

0000466a <_Z18basis_change_leg6xff>:
    466a:	8f 92       	push	r8
    466c:	9f 92       	push	r9
    466e:	af 92       	push	r10
    4670:	bf 92       	push	r11
    4672:	cf 92       	push	r12
    4674:	df 92       	push	r13
    4676:	ef 92       	push	r14
    4678:	ff 92       	push	r15
    467a:	49 01       	movw	r8, r18
    467c:	5a 01       	movw	r10, r20
    467e:	20 91 15 01 	lds	r18, 0x0115
    4682:	30 91 16 01 	lds	r19, 0x0116
    4686:	40 91 17 01 	lds	r20, 0x0117
    468a:	50 91 18 01 	lds	r21, 0x0118
    468e:	0e 94 e5 31 	call	0x63ca	; 0x63ca <__addsf3>
    4692:	26 e6       	ldi	r18, 0x66	; 102
    4694:	36 e6       	ldi	r19, 0x66	; 102
    4696:	47 e7       	ldi	r20, 0x77	; 119
    4698:	52 e4       	ldi	r21, 0x42	; 66
    469a:	0e 94 e4 31 	call	0x63c8	; 0x63c8 <__subsf3>
    469e:	23 ef       	ldi	r18, 0xF3	; 243
    46a0:	34 e0       	ldi	r19, 0x04	; 4
    46a2:	45 eb       	ldi	r20, 0xB5	; 181
    46a4:	5f e3       	ldi	r21, 0x3F	; 63
    46a6:	0e 94 c9 32 	call	0x6592	; 0x6592 <__divsf3>
    46aa:	6b 01       	movw	r12, r22
    46ac:	7c 01       	movw	r14, r24
    46ae:	20 91 11 01 	lds	r18, 0x0111
    46b2:	30 91 12 01 	lds	r19, 0x0112
    46b6:	40 91 13 01 	lds	r20, 0x0113
    46ba:	50 91 14 01 	lds	r21, 0x0114
    46be:	c5 01       	movw	r24, r10
    46c0:	b4 01       	movw	r22, r8
    46c2:	0e 94 e5 31 	call	0x63ca	; 0x63ca <__addsf3>
    46c6:	20 e0       	ldi	r18, 0x00	; 0
    46c8:	30 e0       	ldi	r19, 0x00	; 0
    46ca:	40 ef       	ldi	r20, 0xF0	; 240
    46cc:	52 e4       	ldi	r21, 0x42	; 66
    46ce:	0e 94 e4 31 	call	0x63c8	; 0x63c8 <__subsf3>
    46d2:	23 ef       	ldi	r18, 0xF3	; 243
    46d4:	34 e0       	ldi	r19, 0x04	; 4
    46d6:	45 eb       	ldi	r20, 0xB5	; 181
    46d8:	5f e3       	ldi	r21, 0x3F	; 63
    46da:	0e 94 c9 32 	call	0x6592	; 0x6592 <__divsf3>
    46de:	9b 01       	movw	r18, r22
    46e0:	ac 01       	movw	r20, r24
    46e2:	c7 01       	movw	r24, r14
    46e4:	b6 01       	movw	r22, r12
    46e6:	0e 94 e5 31 	call	0x63ca	; 0x63ca <__addsf3>
    46ea:	ff 90       	pop	r15
    46ec:	ef 90       	pop	r14
    46ee:	df 90       	pop	r13
    46f0:	cf 90       	pop	r12
    46f2:	bf 90       	pop	r11
    46f4:	af 90       	pop	r10
    46f6:	9f 90       	pop	r9
    46f8:	8f 90       	pop	r8
    46fa:	08 95       	ret

000046fc <_Z18basis_change_leg6yff>:
    46fc:	8f 92       	push	r8
    46fe:	9f 92       	push	r9
    4700:	af 92       	push	r10
    4702:	bf 92       	push	r11
    4704:	cf 92       	push	r12
    4706:	df 92       	push	r13
    4708:	ef 92       	push	r14
    470a:	ff 92       	push	r15
    470c:	49 01       	movw	r8, r18
    470e:	5a 01       	movw	r10, r20
    4710:	20 91 15 01 	lds	r18, 0x0115
    4714:	30 91 16 01 	lds	r19, 0x0116
    4718:	40 91 17 01 	lds	r20, 0x0117
    471c:	50 91 18 01 	lds	r21, 0x0118
    4720:	0e 94 e5 31 	call	0x63ca	; 0x63ca <__addsf3>
    4724:	26 e6       	ldi	r18, 0x66	; 102
    4726:	36 e6       	ldi	r19, 0x66	; 102
    4728:	47 e7       	ldi	r20, 0x77	; 119
    472a:	52 e4       	ldi	r21, 0x42	; 66
    472c:	0e 94 e4 31 	call	0x63c8	; 0x63c8 <__subsf3>
    4730:	23 ef       	ldi	r18, 0xF3	; 243
    4732:	34 e0       	ldi	r19, 0x04	; 4
    4734:	45 eb       	ldi	r20, 0xB5	; 181
    4736:	5f eb       	ldi	r21, 0xBF	; 191
    4738:	0e 94 c9 32 	call	0x6592	; 0x6592 <__divsf3>
    473c:	6b 01       	movw	r12, r22
    473e:	7c 01       	movw	r14, r24
    4740:	20 91 11 01 	lds	r18, 0x0111
    4744:	30 91 12 01 	lds	r19, 0x0112
    4748:	40 91 13 01 	lds	r20, 0x0113
    474c:	50 91 14 01 	lds	r21, 0x0114
    4750:	c5 01       	movw	r24, r10
    4752:	b4 01       	movw	r22, r8
    4754:	0e 94 e5 31 	call	0x63ca	; 0x63ca <__addsf3>
    4758:	20 e0       	ldi	r18, 0x00	; 0
    475a:	30 e0       	ldi	r19, 0x00	; 0
    475c:	40 ef       	ldi	r20, 0xF0	; 240
    475e:	52 e4       	ldi	r21, 0x42	; 66
    4760:	0e 94 e4 31 	call	0x63c8	; 0x63c8 <__subsf3>
    4764:	23 ef       	ldi	r18, 0xF3	; 243
    4766:	34 e0       	ldi	r19, 0x04	; 4
    4768:	45 eb       	ldi	r20, 0xB5	; 181
    476a:	5f e3       	ldi	r21, 0x3F	; 63
    476c:	0e 94 c9 32 	call	0x6592	; 0x6592 <__divsf3>
    4770:	9b 01       	movw	r18, r22
    4772:	ac 01       	movw	r20, r24
    4774:	c7 01       	movw	r24, r14
    4776:	b6 01       	movw	r22, r12
    4778:	0e 94 e5 31 	call	0x63ca	; 0x63ca <__addsf3>
    477c:	ff 90       	pop	r15
    477e:	ef 90       	pop	r14
    4780:	df 90       	pop	r13
    4782:	cf 90       	pop	r12
    4784:	bf 90       	pop	r11
    4786:	af 90       	pop	r10
    4788:	9f 90       	pop	r9
    478a:	8f 90       	pop	r8
    478c:	08 95       	ret

0000478e <_ZN7MPU6050C1Ev>:
    478e:	28 e6       	ldi	r18, 0x68	; 104
    4790:	fc 01       	movw	r30, r24
    4792:	20 83       	st	Z, r18
    4794:	08 95       	ret

00004796 <_ZN7MPU60507setRateEh>:
    4796:	46 2f       	mov	r20, r22
    4798:	69 e1       	ldi	r22, 0x19	; 25
    479a:	fc 01       	movw	r30, r24
    479c:	80 81       	ld	r24, Z
    479e:	25 ca       	rjmp	.-2998   	; 0x3bea <_ZN6I2Cdev9writeByteEhhh>

000047a0 <_ZN7MPU605020setExternalFrameSyncEh>:
    47a0:	0f 93       	push	r16
    47a2:	06 2f       	mov	r16, r22
    47a4:	23 e0       	ldi	r18, 0x03	; 3
    47a6:	45 e0       	ldi	r20, 0x05	; 5
    47a8:	6a e1       	ldi	r22, 0x1A	; 26
    47aa:	fc 01       	movw	r30, r24
    47ac:	80 81       	ld	r24, Z
    47ae:	2c da       	rcall	.-2984   	; 0x3c08 <_ZN6I2Cdev9writeBitsEhhhhh>
    47b0:	0f 91       	pop	r16
    47b2:	08 95       	ret

000047b4 <_ZN7MPU605011setDLPFModeEh>:
    47b4:	0f 93       	push	r16
    47b6:	06 2f       	mov	r16, r22
    47b8:	23 e0       	ldi	r18, 0x03	; 3
    47ba:	42 e0       	ldi	r20, 0x02	; 2
    47bc:	6a e1       	ldi	r22, 0x1A	; 26
    47be:	fc 01       	movw	r30, r24
    47c0:	80 81       	ld	r24, Z
    47c2:	22 da       	rcall	.-3004   	; 0x3c08 <_ZN6I2Cdev9writeBitsEhhhhh>
    47c4:	0f 91       	pop	r16
    47c6:	08 95       	ret

000047c8 <_ZN7MPU605021setFullScaleGyroRangeEh>:
    47c8:	0f 93       	push	r16
    47ca:	06 2f       	mov	r16, r22
    47cc:	22 e0       	ldi	r18, 0x02	; 2
    47ce:	44 e0       	ldi	r20, 0x04	; 4
    47d0:	6b e1       	ldi	r22, 0x1B	; 27
    47d2:	fc 01       	movw	r30, r24
    47d4:	80 81       	ld	r24, Z
    47d6:	18 da       	rcall	.-3024   	; 0x3c08 <_ZN6I2Cdev9writeBitsEhhhhh>
    47d8:	0f 91       	pop	r16
    47da:	08 95       	ret

000047dc <_ZN7MPU605027setMotionDetectionThresholdEh>:
    47dc:	46 2f       	mov	r20, r22
    47de:	6f e1       	ldi	r22, 0x1F	; 31
    47e0:	fc 01       	movw	r30, r24
    47e2:	80 81       	ld	r24, Z
    47e4:	02 ca       	rjmp	.-3068   	; 0x3bea <_ZN6I2Cdev9writeByteEhhh>

000047e6 <_ZN7MPU605026setMotionDetectionDurationEh>:
    47e6:	46 2f       	mov	r20, r22
    47e8:	60 e2       	ldi	r22, 0x20	; 32
    47ea:	fc 01       	movw	r30, r24
    47ec:	80 81       	ld	r24, Z
    47ee:	fd c9       	rjmp	.-3078   	; 0x3bea <_ZN6I2Cdev9writeByteEhhh>

000047f0 <_ZN7MPU605031setZeroMotionDetectionThresholdEh>:
    47f0:	46 2f       	mov	r20, r22
    47f2:	61 e2       	ldi	r22, 0x21	; 33
    47f4:	fc 01       	movw	r30, r24
    47f6:	80 81       	ld	r24, Z
    47f8:	f8 c9       	rjmp	.-3088   	; 0x3bea <_ZN6I2Cdev9writeByteEhhh>

000047fa <_ZN7MPU605030setZeroMotionDetectionDurationEh>:
    47fa:	46 2f       	mov	r20, r22
    47fc:	62 e2       	ldi	r22, 0x22	; 34
    47fe:	fc 01       	movw	r30, r24
    4800:	80 81       	ld	r24, Z
    4802:	f3 c9       	rjmp	.-3098   	; 0x3bea <_ZN6I2Cdev9writeByteEhhh>

00004804 <_ZN7MPU605015setSlaveAddressEhh>:
    4804:	64 30       	cpi	r22, 0x04	; 4
    4806:	38 f4       	brcc	.+14     	; 0x4816 <_ZN7MPU605015setSlaveAddressEhh+0x12>
    4808:	26 2f       	mov	r18, r22
    480a:	22 0f       	add	r18, r18
    480c:	62 0f       	add	r22, r18
    480e:	6b 5d       	subi	r22, 0xDB	; 219
    4810:	fc 01       	movw	r30, r24
    4812:	80 81       	ld	r24, Z
    4814:	ea c9       	rjmp	.-3116   	; 0x3bea <_ZN6I2Cdev9writeByteEhhh>
    4816:	08 95       	ret

00004818 <_ZN7MPU605013setIntEnabledEh>:
    4818:	46 2f       	mov	r20, r22
    481a:	68 e3       	ldi	r22, 0x38	; 56
    481c:	fc 01       	movw	r30, r24
    481e:	80 81       	ld	r24, Z
    4820:	e4 c9       	rjmp	.-3128   	; 0x3bea <_ZN6I2Cdev9writeByteEhhh>

00004822 <_ZN7MPU605012getIntStatusEv>:
    4822:	cf 93       	push	r28
    4824:	df 93       	push	r29
    4826:	ec 01       	movw	r28, r24
    4828:	20 91 07 01 	lds	r18, 0x0107
    482c:	30 91 08 01 	lds	r19, 0x0108
    4830:	ac 01       	movw	r20, r24
    4832:	4f 5f       	subi	r20, 0xFF	; 255
    4834:	5f 4f       	sbci	r21, 0xFF	; 255
    4836:	6a e3       	ldi	r22, 0x3A	; 58
    4838:	88 81       	ld	r24, Y
    483a:	fe d8       	rcall	.-3588   	; 0x3a38 <_ZN6I2Cdev8readByteEhhPhj>
    483c:	89 81       	ldd	r24, Y+1	; 0x01
    483e:	df 91       	pop	r29
    4840:	cf 91       	pop	r28
    4842:	08 95       	ret

00004844 <_ZN7MPU605014setFIFOEnabledEb>:
    4844:	26 2f       	mov	r18, r22
    4846:	46 e0       	ldi	r20, 0x06	; 6
    4848:	6a e6       	ldi	r22, 0x6A	; 106
    484a:	fc 01       	movw	r30, r24
    484c:	80 81       	ld	r24, Z
    484e:	21 ca       	rjmp	.-3006   	; 0x3c92 <_ZN6I2Cdev8writeBitEhhhh>

00004850 <_ZN7MPU605023setI2CMasterModeEnabledEb>:
    4850:	26 2f       	mov	r18, r22
    4852:	45 e0       	ldi	r20, 0x05	; 5
    4854:	6a e6       	ldi	r22, 0x6A	; 106
    4856:	fc 01       	movw	r30, r24
    4858:	80 81       	ld	r24, Z
    485a:	1b ca       	rjmp	.-3018   	; 0x3c92 <_ZN6I2Cdev8writeBitEhhhh>

0000485c <_ZN7MPU60509resetFIFOEv>:
    485c:	21 e0       	ldi	r18, 0x01	; 1
    485e:	42 e0       	ldi	r20, 0x02	; 2
    4860:	6a e6       	ldi	r22, 0x6A	; 106
    4862:	fc 01       	movw	r30, r24
    4864:	80 81       	ld	r24, Z
    4866:	15 ca       	rjmp	.-3030   	; 0x3c92 <_ZN6I2Cdev8writeBitEhhhh>

00004868 <_ZN7MPU605014resetI2CMasterEv>:
    4868:	21 e0       	ldi	r18, 0x01	; 1
    486a:	41 e0       	ldi	r20, 0x01	; 1
    486c:	6a e6       	ldi	r22, 0x6A	; 106
    486e:	fc 01       	movw	r30, r24
    4870:	80 81       	ld	r24, Z
    4872:	0f ca       	rjmp	.-3042   	; 0x3c92 <_ZN6I2Cdev8writeBitEhhhh>

00004874 <_ZN7MPU60505resetEv>:
    4874:	21 e0       	ldi	r18, 0x01	; 1
    4876:	47 e0       	ldi	r20, 0x07	; 7
    4878:	6b e6       	ldi	r22, 0x6B	; 107
    487a:	fc 01       	movw	r30, r24
    487c:	80 81       	ld	r24, Z
    487e:	09 ca       	rjmp	.-3054   	; 0x3c92 <_ZN6I2Cdev8writeBitEhhhh>

00004880 <_ZN7MPU605015setSleepEnabledEb>:
    4880:	26 2f       	mov	r18, r22
    4882:	46 e0       	ldi	r20, 0x06	; 6
    4884:	6b e6       	ldi	r22, 0x6B	; 107
    4886:	fc 01       	movw	r30, r24
    4888:	80 81       	ld	r24, Z
    488a:	03 ca       	rjmp	.-3066   	; 0x3c92 <_ZN6I2Cdev8writeBitEhhhh>

0000488c <_ZN7MPU605014setClockSourceEh>:
    488c:	0f 93       	push	r16
    488e:	06 2f       	mov	r16, r22
    4890:	23 e0       	ldi	r18, 0x03	; 3
    4892:	42 e0       	ldi	r20, 0x02	; 2
    4894:	6b e6       	ldi	r22, 0x6B	; 107
    4896:	fc 01       	movw	r30, r24
    4898:	80 81       	ld	r24, Z
    489a:	b6 d9       	rcall	.-3220   	; 0x3c08 <_ZN6I2Cdev9writeBitsEhhhhh>
    489c:	0f 91       	pop	r16
    489e:	08 95       	ret

000048a0 <_ZN7MPU605012getFIFOCountEv>:
    48a0:	0f 93       	push	r16
    48a2:	1f 93       	push	r17
    48a4:	cf 93       	push	r28
    48a6:	df 93       	push	r29
    48a8:	ec 01       	movw	r28, r24
    48aa:	00 91 07 01 	lds	r16, 0x0107
    48ae:	10 91 08 01 	lds	r17, 0x0108
    48b2:	9c 01       	movw	r18, r24
    48b4:	2f 5f       	subi	r18, 0xFF	; 255
    48b6:	3f 4f       	sbci	r19, 0xFF	; 255
    48b8:	42 e0       	ldi	r20, 0x02	; 2
    48ba:	62 e7       	ldi	r22, 0x72	; 114
    48bc:	88 81       	ld	r24, Y
    48be:	76 d8       	rcall	.-3860   	; 0x39ac <_ZN6I2Cdev9readBytesEhhhPhj>
    48c0:	99 81       	ldd	r25, Y+1	; 0x01
    48c2:	80 e0       	ldi	r24, 0x00	; 0
    48c4:	2a 81       	ldd	r18, Y+2	; 0x02
    48c6:	ac 01       	movw	r20, r24
    48c8:	42 2b       	or	r20, r18
    48ca:	9a 01       	movw	r18, r20
    48cc:	82 2f       	mov	r24, r18
    48ce:	93 2f       	mov	r25, r19
    48d0:	df 91       	pop	r29
    48d2:	cf 91       	pop	r28
    48d4:	1f 91       	pop	r17
    48d6:	0f 91       	pop	r16
    48d8:	08 95       	ret

000048da <_ZN7MPU605012getFIFOBytesEPhj>:
    48da:	0f 93       	push	r16
    48dc:	1f 93       	push	r17
    48de:	41 15       	cp	r20, r1
    48e0:	51 05       	cpc	r21, r1
    48e2:	71 f0       	breq	.+28     	; 0x4900 <_ZN7MPU605012getFIFOBytesEPhj+0x26>
    48e4:	00 91 07 01 	lds	r16, 0x0107
    48e8:	10 91 08 01 	lds	r17, 0x0108
    48ec:	40 38       	cpi	r20, 0x80	; 128
    48ee:	51 05       	cpc	r21, r1
    48f0:	10 f0       	brcs	.+4      	; 0x48f6 <_ZN7MPU605012getFIFOBytesEPhj+0x1c>
    48f2:	4f e7       	ldi	r20, 0x7F	; 127
    48f4:	50 e0       	ldi	r21, 0x00	; 0
    48f6:	9b 01       	movw	r18, r22
    48f8:	64 e7       	ldi	r22, 0x74	; 116
    48fa:	fc 01       	movw	r30, r24
    48fc:	80 81       	ld	r24, Z
    48fe:	56 d8       	rcall	.-3924   	; 0x39ac <_ZN6I2Cdev9readBytesEhhhPhj>
    4900:	1f 91       	pop	r17
    4902:	0f 91       	pop	r16
    4904:	08 95       	ret

00004906 <_ZN7MPU605015getOTPBankValidEv>:
    4906:	0f 93       	push	r16
    4908:	1f 93       	push	r17
    490a:	cf 93       	push	r28
    490c:	df 93       	push	r29
    490e:	ec 01       	movw	r28, r24
    4910:	00 91 07 01 	lds	r16, 0x0107
    4914:	10 91 08 01 	lds	r17, 0x0108
    4918:	9c 01       	movw	r18, r24
    491a:	2f 5f       	subi	r18, 0xFF	; 255
    491c:	3f 4f       	sbci	r19, 0xFF	; 255
    491e:	40 e0       	ldi	r20, 0x00	; 0
    4920:	60 e0       	ldi	r22, 0x00	; 0
    4922:	88 81       	ld	r24, Y
    4924:	d1 d8       	rcall	.-3678   	; 0x3ac8 <_ZN6I2Cdev7readBitEhhhPhj>
    4926:	89 81       	ldd	r24, Y+1	; 0x01
    4928:	df 91       	pop	r29
    492a:	cf 91       	pop	r28
    492c:	1f 91       	pop	r17
    492e:	0f 91       	pop	r16
    4930:	08 95       	ret

00004932 <_ZN7MPU605015setOTPBankValidEb>:
    4932:	26 2f       	mov	r18, r22
    4934:	40 e0       	ldi	r20, 0x00	; 0
    4936:	60 e0       	ldi	r22, 0x00	; 0
    4938:	fc 01       	movw	r30, r24
    493a:	80 81       	ld	r24, Z
    493c:	aa c9       	rjmp	.-3244   	; 0x3c92 <_ZN6I2Cdev8writeBitEhhhh>

0000493e <_ZN7MPU605016getXGyroOffsetTCEv>:
    493e:	ef 92       	push	r14
    4940:	ff 92       	push	r15
    4942:	0f 93       	push	r16
    4944:	1f 93       	push	r17
    4946:	cf 93       	push	r28
    4948:	df 93       	push	r29
    494a:	ec 01       	movw	r28, r24
    494c:	e0 90 07 01 	lds	r14, 0x0107
    4950:	f0 90 08 01 	lds	r15, 0x0108
    4954:	8c 01       	movw	r16, r24
    4956:	0f 5f       	subi	r16, 0xFF	; 255
    4958:	1f 4f       	sbci	r17, 0xFF	; 255
    495a:	26 e0       	ldi	r18, 0x06	; 6
    495c:	46 e0       	ldi	r20, 0x06	; 6
    495e:	60 e0       	ldi	r22, 0x00	; 0
    4960:	88 81       	ld	r24, Y
    4962:	73 d8       	rcall	.-3866   	; 0x3a4a <_ZN6I2Cdev8readBitsEhhhhPhj>
    4964:	89 81       	ldd	r24, Y+1	; 0x01
    4966:	df 91       	pop	r29
    4968:	cf 91       	pop	r28
    496a:	1f 91       	pop	r17
    496c:	0f 91       	pop	r16
    496e:	ff 90       	pop	r15
    4970:	ef 90       	pop	r14
    4972:	08 95       	ret

00004974 <_ZN7MPU605016setXGyroOffsetTCEa>:
    4974:	0f 93       	push	r16
    4976:	06 2f       	mov	r16, r22
    4978:	26 e0       	ldi	r18, 0x06	; 6
    497a:	46 e0       	ldi	r20, 0x06	; 6
    497c:	60 e0       	ldi	r22, 0x00	; 0
    497e:	fc 01       	movw	r30, r24
    4980:	80 81       	ld	r24, Z
    4982:	42 d9       	rcall	.-3452   	; 0x3c08 <_ZN6I2Cdev9writeBitsEhhhhh>
    4984:	0f 91       	pop	r16
    4986:	08 95       	ret

00004988 <_ZN7MPU605016getYGyroOffsetTCEv>:
    4988:	ef 92       	push	r14
    498a:	ff 92       	push	r15
    498c:	0f 93       	push	r16
    498e:	1f 93       	push	r17
    4990:	cf 93       	push	r28
    4992:	df 93       	push	r29
    4994:	ec 01       	movw	r28, r24
    4996:	e0 90 07 01 	lds	r14, 0x0107
    499a:	f0 90 08 01 	lds	r15, 0x0108
    499e:	8c 01       	movw	r16, r24
    49a0:	0f 5f       	subi	r16, 0xFF	; 255
    49a2:	1f 4f       	sbci	r17, 0xFF	; 255
    49a4:	26 e0       	ldi	r18, 0x06	; 6
    49a6:	46 e0       	ldi	r20, 0x06	; 6
    49a8:	61 e0       	ldi	r22, 0x01	; 1
    49aa:	88 81       	ld	r24, Y
    49ac:	4e d8       	rcall	.-3940   	; 0x3a4a <_ZN6I2Cdev8readBitsEhhhhPhj>
    49ae:	89 81       	ldd	r24, Y+1	; 0x01
    49b0:	df 91       	pop	r29
    49b2:	cf 91       	pop	r28
    49b4:	1f 91       	pop	r17
    49b6:	0f 91       	pop	r16
    49b8:	ff 90       	pop	r15
    49ba:	ef 90       	pop	r14
    49bc:	08 95       	ret

000049be <_ZN7MPU605016setYGyroOffsetTCEa>:
    49be:	0f 93       	push	r16
    49c0:	06 2f       	mov	r16, r22
    49c2:	26 e0       	ldi	r18, 0x06	; 6
    49c4:	46 e0       	ldi	r20, 0x06	; 6
    49c6:	61 e0       	ldi	r22, 0x01	; 1
    49c8:	fc 01       	movw	r30, r24
    49ca:	80 81       	ld	r24, Z
    49cc:	1d d9       	rcall	.-3526   	; 0x3c08 <_ZN6I2Cdev9writeBitsEhhhhh>
    49ce:	0f 91       	pop	r16
    49d0:	08 95       	ret

000049d2 <_ZN7MPU605016getZGyroOffsetTCEv>:
    49d2:	ef 92       	push	r14
    49d4:	ff 92       	push	r15
    49d6:	0f 93       	push	r16
    49d8:	1f 93       	push	r17
    49da:	cf 93       	push	r28
    49dc:	df 93       	push	r29
    49de:	ec 01       	movw	r28, r24
    49e0:	e0 90 07 01 	lds	r14, 0x0107
    49e4:	f0 90 08 01 	lds	r15, 0x0108
    49e8:	8c 01       	movw	r16, r24
    49ea:	0f 5f       	subi	r16, 0xFF	; 255
    49ec:	1f 4f       	sbci	r17, 0xFF	; 255
    49ee:	26 e0       	ldi	r18, 0x06	; 6
    49f0:	46 e0       	ldi	r20, 0x06	; 6
    49f2:	62 e0       	ldi	r22, 0x02	; 2
    49f4:	88 81       	ld	r24, Y
    49f6:	29 d8       	rcall	.-4014   	; 0x3a4a <_ZN6I2Cdev8readBitsEhhhhPhj>
    49f8:	89 81       	ldd	r24, Y+1	; 0x01
    49fa:	df 91       	pop	r29
    49fc:	cf 91       	pop	r28
    49fe:	1f 91       	pop	r17
    4a00:	0f 91       	pop	r16
    4a02:	ff 90       	pop	r15
    4a04:	ef 90       	pop	r14
    4a06:	08 95       	ret

00004a08 <_ZN7MPU605016setZGyroOffsetTCEa>:
    4a08:	0f 93       	push	r16
    4a0a:	06 2f       	mov	r16, r22
    4a0c:	26 e0       	ldi	r18, 0x06	; 6
    4a0e:	46 e0       	ldi	r20, 0x06	; 6
    4a10:	62 e0       	ldi	r22, 0x02	; 2
    4a12:	fc 01       	movw	r30, r24
    4a14:	80 81       	ld	r24, Z
    4a16:	f8 d8       	rcall	.-3600   	; 0x3c08 <_ZN6I2Cdev9writeBitsEhhhhh>
    4a18:	0f 91       	pop	r16
    4a1a:	08 95       	ret

00004a1c <_ZN7MPU605015setZAccelOffsetEi>:
    4a1c:	ab 01       	movw	r20, r22
    4a1e:	6a e0       	ldi	r22, 0x0A	; 10
    4a20:	fc 01       	movw	r30, r24
    4a22:	80 81       	ld	r24, Z
    4a24:	ad c8       	rjmp	.-3750   	; 0x3b80 <_ZN6I2Cdev9writeWordEhhj>

00004a26 <_ZN7MPU605014setXGyroOffsetEi>:
    4a26:	ab 01       	movw	r20, r22
    4a28:	63 e1       	ldi	r22, 0x13	; 19
    4a2a:	fc 01       	movw	r30, r24
    4a2c:	80 81       	ld	r24, Z
    4a2e:	a8 c8       	rjmp	.-3760   	; 0x3b80 <_ZN6I2Cdev9writeWordEhhj>

00004a30 <_ZN7MPU605014setYGyroOffsetEi>:
    4a30:	ab 01       	movw	r20, r22
    4a32:	65 e1       	ldi	r22, 0x15	; 21
    4a34:	fc 01       	movw	r30, r24
    4a36:	80 81       	ld	r24, Z
    4a38:	a3 c8       	rjmp	.-3770   	; 0x3b80 <_ZN6I2Cdev9writeWordEhhj>

00004a3a <_ZN7MPU605014setZGyroOffsetEi>:
    4a3a:	ab 01       	movw	r20, r22
    4a3c:	67 e1       	ldi	r22, 0x17	; 23
    4a3e:	fc 01       	movw	r30, r24
    4a40:	80 81       	ld	r24, Z
    4a42:	9e c8       	rjmp	.-3780   	; 0x3b80 <_ZN6I2Cdev9writeWordEhhj>

00004a44 <_ZN7MPU605013setDMPEnabledEb>:
    4a44:	26 2f       	mov	r18, r22
    4a46:	47 e0       	ldi	r20, 0x07	; 7
    4a48:	6a e6       	ldi	r22, 0x6A	; 106
    4a4a:	fc 01       	movw	r30, r24
    4a4c:	80 81       	ld	r24, Z
    4a4e:	21 c9       	rjmp	.-3518   	; 0x3c92 <_ZN6I2Cdev8writeBitEhhhh>

00004a50 <_ZN7MPU60508resetDMPEv>:
    4a50:	21 e0       	ldi	r18, 0x01	; 1
    4a52:	43 e0       	ldi	r20, 0x03	; 3
    4a54:	6a e6       	ldi	r22, 0x6A	; 106
    4a56:	fc 01       	movw	r30, r24
    4a58:	80 81       	ld	r24, Z
    4a5a:	1b c9       	rjmp	.-3530   	; 0x3c92 <_ZN6I2Cdev8writeBitEhhhh>

00004a5c <_ZN7MPU605013setMemoryBankEhbb>:
    4a5c:	6f 71       	andi	r22, 0x1F	; 31
    4a5e:	21 11       	cpse	r18, r1
    4a60:	60 62       	ori	r22, 0x20	; 32
    4a62:	41 11       	cpse	r20, r1
    4a64:	60 64       	ori	r22, 0x40	; 64
    4a66:	46 2f       	mov	r20, r22
    4a68:	6d e6       	ldi	r22, 0x6D	; 109
    4a6a:	fc 01       	movw	r30, r24
    4a6c:	80 81       	ld	r24, Z
    4a6e:	bd c8       	rjmp	.-3718   	; 0x3bea <_ZN6I2Cdev9writeByteEhhh>

00004a70 <_ZN7MPU605021setMemoryStartAddressEh>:
    4a70:	46 2f       	mov	r20, r22
    4a72:	6e e6       	ldi	r22, 0x6E	; 110
    4a74:	fc 01       	movw	r30, r24
    4a76:	80 81       	ld	r24, Z
    4a78:	b8 c8       	rjmp	.-3728   	; 0x3bea <_ZN6I2Cdev9writeByteEhhh>

00004a7a <_ZN7MPU605014readMemoryByteEv>:
    4a7a:	cf 93       	push	r28
    4a7c:	df 93       	push	r29
    4a7e:	ec 01       	movw	r28, r24
    4a80:	20 91 07 01 	lds	r18, 0x0107
    4a84:	30 91 08 01 	lds	r19, 0x0108
    4a88:	ac 01       	movw	r20, r24
    4a8a:	4f 5f       	subi	r20, 0xFF	; 255
    4a8c:	5f 4f       	sbci	r21, 0xFF	; 255
    4a8e:	6f e6       	ldi	r22, 0x6F	; 111
    4a90:	88 81       	ld	r24, Y
    4a92:	0e 94 1c 1d 	call	0x3a38	; 0x3a38 <_ZN6I2Cdev8readByteEhhPhj>
    4a96:	89 81       	ldd	r24, Y+1	; 0x01
    4a98:	df 91       	pop	r29
    4a9a:	cf 91       	pop	r28
    4a9c:	08 95       	ret

00004a9e <_ZN7MPU605015readMemoryBlockEPhjhh>:
    4a9e:	4f 92       	push	r4
    4aa0:	5f 92       	push	r5
    4aa2:	6f 92       	push	r6
    4aa4:	7f 92       	push	r7
    4aa6:	8f 92       	push	r8
    4aa8:	9f 92       	push	r9
    4aaa:	af 92       	push	r10
    4aac:	bf 92       	push	r11
    4aae:	cf 92       	push	r12
    4ab0:	df 92       	push	r13
    4ab2:	ef 92       	push	r14
    4ab4:	ff 92       	push	r15
    4ab6:	0f 93       	push	r16
    4ab8:	1f 93       	push	r17
    4aba:	cf 93       	push	r28
    4abc:	df 93       	push	r29
    4abe:	6c 01       	movw	r12, r24
    4ac0:	5b 01       	movw	r10, r22
    4ac2:	7a 01       	movw	r14, r20
    4ac4:	52 2e       	mov	r5, r18
    4ac6:	60 2e       	mov	r6, r16
    4ac8:	20 e0       	ldi	r18, 0x00	; 0
    4aca:	40 e0       	ldi	r20, 0x00	; 0
    4acc:	65 2d       	mov	r22, r5
    4ace:	c6 df       	rcall	.-116    	; 0x4a5c <_ZN7MPU605013setMemoryBankEhbb>
    4ad0:	60 2f       	mov	r22, r16
    4ad2:	c6 01       	movw	r24, r12
    4ad4:	cd df       	rcall	.-102    	; 0x4a70 <_ZN7MPU605021setMemoryStartAddressEh>
    4ad6:	e1 14       	cp	r14, r1
    4ad8:	f1 04       	cpc	r15, r1
    4ada:	c9 f1       	breq	.+114    	; 0x4b4e <_ZN7MPU605015readMemoryBlockEPhjhh+0xb0>
    4adc:	c0 e0       	ldi	r28, 0x00	; 0
    4ade:	d0 e0       	ldi	r29, 0x00	; 0
    4ae0:	68 94       	set
    4ae2:	44 24       	eor	r4, r4
    4ae4:	44 f8       	bld	r4, 4
    4ae6:	81 2c       	mov	r8, r1
    4ae8:	99 24       	eor	r9, r9
    4aea:	93 94       	inc	r9
    4aec:	ce 01       	movw	r24, r28
    4aee:	40 96       	adiw	r24, 0x10	; 16
    4af0:	e8 16       	cp	r14, r24
    4af2:	f9 06       	cpc	r15, r25
    4af4:	18 f4       	brcc	.+6      	; 0x4afc <_ZN7MPU605015readMemoryBlockEPhjhh+0x5e>
    4af6:	7e 2c       	mov	r7, r14
    4af8:	7c 1a       	sub	r7, r28
    4afa:	01 c0       	rjmp	.+2      	; 0x4afe <_ZN7MPU605015readMemoryBlockEPhjhh+0x60>
    4afc:	74 2c       	mov	r7, r4
    4afe:	27 2d       	mov	r18, r7
    4b00:	30 e0       	ldi	r19, 0x00	; 0
    4b02:	c4 01       	movw	r24, r8
    4b04:	86 19       	sub	r24, r6
    4b06:	91 09       	sbc	r25, r1
    4b08:	82 17       	cp	r24, r18
    4b0a:	93 07       	cpc	r25, r19
    4b0c:	14 f4       	brge	.+4      	; 0x4b12 <_ZN7MPU605015readMemoryBlockEPhjhh+0x74>
    4b0e:	76 2c       	mov	r7, r6
    4b10:	71 94       	neg	r7
    4b12:	00 91 07 01 	lds	r16, 0x0107
    4b16:	10 91 08 01 	lds	r17, 0x0108
    4b1a:	95 01       	movw	r18, r10
    4b1c:	2c 0f       	add	r18, r28
    4b1e:	3d 1f       	adc	r19, r29
    4b20:	47 2d       	mov	r20, r7
    4b22:	6f e6       	ldi	r22, 0x6F	; 111
    4b24:	f6 01       	movw	r30, r12
    4b26:	80 81       	ld	r24, Z
    4b28:	0e 94 d6 1c 	call	0x39ac	; 0x39ac <_ZN6I2Cdev9readBytesEhhhPhj>
    4b2c:	c7 0d       	add	r28, r7
    4b2e:	d1 1d       	adc	r29, r1
    4b30:	ce 15       	cp	r28, r14
    4b32:	df 05       	cpc	r29, r15
    4b34:	60 f4       	brcc	.+24     	; 0x4b4e <_ZN7MPU605015readMemoryBlockEPhjhh+0xb0>
    4b36:	67 0c       	add	r6, r7
    4b38:	09 f4       	brne	.+2      	; 0x4b3c <_ZN7MPU605015readMemoryBlockEPhjhh+0x9e>
    4b3a:	53 94       	inc	r5
    4b3c:	20 e0       	ldi	r18, 0x00	; 0
    4b3e:	40 e0       	ldi	r20, 0x00	; 0
    4b40:	65 2d       	mov	r22, r5
    4b42:	c6 01       	movw	r24, r12
    4b44:	8b df       	rcall	.-234    	; 0x4a5c <_ZN7MPU605013setMemoryBankEhbb>
    4b46:	66 2d       	mov	r22, r6
    4b48:	c6 01       	movw	r24, r12
    4b4a:	92 df       	rcall	.-220    	; 0x4a70 <_ZN7MPU605021setMemoryStartAddressEh>
    4b4c:	cf cf       	rjmp	.-98     	; 0x4aec <_ZN7MPU605015readMemoryBlockEPhjhh+0x4e>
    4b4e:	df 91       	pop	r29
    4b50:	cf 91       	pop	r28
    4b52:	1f 91       	pop	r17
    4b54:	0f 91       	pop	r16
    4b56:	ff 90       	pop	r15
    4b58:	ef 90       	pop	r14
    4b5a:	df 90       	pop	r13
    4b5c:	cf 90       	pop	r12
    4b5e:	bf 90       	pop	r11
    4b60:	af 90       	pop	r10
    4b62:	9f 90       	pop	r9
    4b64:	8f 90       	pop	r8
    4b66:	7f 90       	pop	r7
    4b68:	6f 90       	pop	r6
    4b6a:	5f 90       	pop	r5
    4b6c:	4f 90       	pop	r4
    4b6e:	08 95       	ret

00004b70 <_ZN7MPU605016writeMemoryBlockEPKhjhhbb>:
    4b70:	2f 92       	push	r2
    4b72:	3f 92       	push	r3
    4b74:	4f 92       	push	r4
    4b76:	5f 92       	push	r5
    4b78:	6f 92       	push	r6
    4b7a:	7f 92       	push	r7
    4b7c:	8f 92       	push	r8
    4b7e:	9f 92       	push	r9
    4b80:	af 92       	push	r10
    4b82:	bf 92       	push	r11
    4b84:	cf 92       	push	r12
    4b86:	df 92       	push	r13
    4b88:	ef 92       	push	r14
    4b8a:	ff 92       	push	r15
    4b8c:	0f 93       	push	r16
    4b8e:	1f 93       	push	r17
    4b90:	cf 93       	push	r28
    4b92:	df 93       	push	r29
    4b94:	00 d0       	rcall	.+0      	; 0x4b96 <_ZN7MPU605016writeMemoryBlockEPKhjhhbb+0x26>
    4b96:	00 d0       	rcall	.+0      	; 0x4b98 <_ZN7MPU605016writeMemoryBlockEPKhjhhbb+0x28>
    4b98:	1f 92       	push	r1
    4b9a:	cd b7       	in	r28, 0x3d	; 61
    4b9c:	de b7       	in	r29, 0x3e	; 62
    4b9e:	4c 01       	movw	r8, r24
    4ba0:	2b 01       	movw	r4, r22
    4ba2:	3a 01       	movw	r6, r20
    4ba4:	29 83       	std	Y+1, r18	; 0x01
    4ba6:	d0 2e       	mov	r13, r16
    4ba8:	eb 82       	std	Y+3, r14	; 0x03
    4baa:	ca 82       	std	Y+2, r12	; 0x02
    4bac:	20 e0       	ldi	r18, 0x00	; 0
    4bae:	40 e0       	ldi	r20, 0x00	; 0
    4bb0:	69 81       	ldd	r22, Y+1	; 0x01
    4bb2:	54 df       	rcall	.-344    	; 0x4a5c <_ZN7MPU605013setMemoryBankEhbb>
    4bb4:	60 2f       	mov	r22, r16
    4bb6:	c4 01       	movw	r24, r8
    4bb8:	5b df       	rcall	.-330    	; 0x4a70 <_ZN7MPU605021setMemoryStartAddressEh>
    4bba:	eb 80       	ldd	r14, Y+3	; 0x03
    4bbc:	ee 20       	and	r14, r14
    4bbe:	31 f0       	breq	.+12     	; 0x4bcc <_ZN7MPU605016writeMemoryBlockEPKhjhhbb+0x5c>
    4bc0:	80 e1       	ldi	r24, 0x10	; 16
    4bc2:	90 e0       	ldi	r25, 0x00	; 0
    4bc4:	0e 94 1a 36 	call	0x6c34	; 0x6c34 <malloc>
    4bc8:	28 2e       	mov	r2, r24
    4bca:	39 2e       	mov	r3, r25
    4bcc:	8a 81       	ldd	r24, Y+2	; 0x02
    4bce:	88 23       	and	r24, r24
    4bd0:	31 f0       	breq	.+12     	; 0x4bde <_ZN7MPU605016writeMemoryBlockEPKhjhhbb+0x6e>
    4bd2:	80 e1       	ldi	r24, 0x10	; 16
    4bd4:	90 e0       	ldi	r25, 0x00	; 0
    4bd6:	0e 94 1a 36 	call	0x6c34	; 0x6c34 <malloc>
    4bda:	a8 2e       	mov	r10, r24
    4bdc:	b9 2e       	mov	r11, r25
    4bde:	61 14       	cp	r6, r1
    4be0:	71 04       	cpc	r7, r1
    4be2:	09 f4       	brne	.+2      	; 0x4be6 <_ZN7MPU605016writeMemoryBlockEPKhjhhbb+0x76>
    4be4:	80 c0       	rjmp	.+256    	; 0x4ce6 <_ZN7MPU605016writeMemoryBlockEPKhjhhbb+0x176>
    4be6:	1d 82       	std	Y+5, r1	; 0x05
    4be8:	1c 82       	std	Y+4, r1	; 0x04
    4bea:	e1 2c       	mov	r14, r1
    4bec:	ff 24       	eor	r15, r15
    4bee:	f3 94       	inc	r15
    4bf0:	8c 81       	ldd	r24, Y+4	; 0x04
    4bf2:	9d 81       	ldd	r25, Y+5	; 0x05
    4bf4:	40 96       	adiw	r24, 0x10	; 16
    4bf6:	68 16       	cp	r6, r24
    4bf8:	79 06       	cpc	r7, r25
    4bfa:	20 f4       	brcc	.+8      	; 0x4c04 <_ZN7MPU605016writeMemoryBlockEPKhjhhbb+0x94>
    4bfc:	c6 2c       	mov	r12, r6
    4bfe:	9c 81       	ldd	r25, Y+4	; 0x04
    4c00:	c9 1a       	sub	r12, r25
    4c02:	03 c0       	rjmp	.+6      	; 0x4c0a <_ZN7MPU605016writeMemoryBlockEPKhjhhbb+0x9a>
    4c04:	68 94       	set
    4c06:	cc 24       	eor	r12, r12
    4c08:	c4 f8       	bld	r12, 4
    4c0a:	2c 2d       	mov	r18, r12
    4c0c:	30 e0       	ldi	r19, 0x00	; 0
    4c0e:	c7 01       	movw	r24, r14
    4c10:	8d 19       	sub	r24, r13
    4c12:	91 09       	sbc	r25, r1
    4c14:	82 17       	cp	r24, r18
    4c16:	93 07       	cpc	r25, r19
    4c18:	14 f4       	brge	.+4      	; 0x4c1e <_ZN7MPU605016writeMemoryBlockEPKhjhhbb+0xae>
    4c1a:	cd 2c       	mov	r12, r13
    4c1c:	c1 94       	neg	r12
    4c1e:	ea 81       	ldd	r30, Y+2	; 0x02
    4c20:	ee 23       	and	r30, r30
    4c22:	89 f0       	breq	.+34     	; 0x4c46 <_ZN7MPU605016writeMemoryBlockEPKhjhhbb+0xd6>
    4c24:	cc 20       	and	r12, r12
    4c26:	99 f0       	breq	.+38     	; 0x4c4e <_ZN7MPU605016writeMemoryBlockEPKhjhhbb+0xde>
    4c28:	ec 81       	ldd	r30, Y+4	; 0x04
    4c2a:	fd 81       	ldd	r31, Y+5	; 0x05
    4c2c:	e4 0d       	add	r30, r4
    4c2e:	f5 1d       	adc	r31, r5
    4c30:	9a 2d       	mov	r25, r10
    4c32:	aa 2d       	mov	r26, r10
    4c34:	bb 2d       	mov	r27, r11
    4c36:	84 91       	lpm	r24, Z
    4c38:	8d 93       	st	X+, r24
    4c3a:	31 96       	adiw	r30, 0x01	; 1
    4c3c:	8a 2f       	mov	r24, r26
    4c3e:	89 1b       	sub	r24, r25
    4c40:	8c 15       	cp	r24, r12
    4c42:	c8 f3       	brcs	.-14     	; 0x4c36 <_ZN7MPU605016writeMemoryBlockEPKhjhhbb+0xc6>
    4c44:	04 c0       	rjmp	.+8      	; 0x4c4e <_ZN7MPU605016writeMemoryBlockEPKhjhhbb+0xde>
    4c46:	ac 80       	ldd	r10, Y+4	; 0x04
    4c48:	bd 80       	ldd	r11, Y+5	; 0x05
    4c4a:	a4 0c       	add	r10, r4
    4c4c:	b5 1c       	adc	r11, r5
    4c4e:	95 01       	movw	r18, r10
    4c50:	4c 2d       	mov	r20, r12
    4c52:	6f e6       	ldi	r22, 0x6F	; 111
    4c54:	f4 01       	movw	r30, r8
    4c56:	80 81       	ld	r24, Z
    4c58:	0e 94 d1 1d 	call	0x3ba2	; 0x3ba2 <_ZN6I2Cdev10writeBytesEhhhPh>
    4c5c:	fb 81       	ldd	r31, Y+3	; 0x03
    4c5e:	ff 23       	and	r31, r31
    4c60:	59 f1       	breq	.+86     	; 0x4cb8 <_ZN7MPU605016writeMemoryBlockEPKhjhhbb+0x148>
    4c62:	21 14       	cp	r2, r1
    4c64:	31 04       	cpc	r3, r1
    4c66:	41 f1       	breq	.+80     	; 0x4cb8 <_ZN7MPU605016writeMemoryBlockEPKhjhhbb+0x148>
    4c68:	20 e0       	ldi	r18, 0x00	; 0
    4c6a:	40 e0       	ldi	r20, 0x00	; 0
    4c6c:	69 81       	ldd	r22, Y+1	; 0x01
    4c6e:	c4 01       	movw	r24, r8
    4c70:	f5 de       	rcall	.-534    	; 0x4a5c <_ZN7MPU605013setMemoryBankEhbb>
    4c72:	6d 2d       	mov	r22, r13
    4c74:	c4 01       	movw	r24, r8
    4c76:	fc de       	rcall	.-520    	; 0x4a70 <_ZN7MPU605021setMemoryStartAddressEh>
    4c78:	00 91 07 01 	lds	r16, 0x0107
    4c7c:	10 91 08 01 	lds	r17, 0x0108
    4c80:	91 01       	movw	r18, r2
    4c82:	4c 2d       	mov	r20, r12
    4c84:	6f e6       	ldi	r22, 0x6F	; 111
    4c86:	f4 01       	movw	r30, r8
    4c88:	80 81       	ld	r24, Z
    4c8a:	0e 94 d6 1c 	call	0x39ac	; 0x39ac <_ZN6I2Cdev9readBytesEhhhPhj>
    4c8e:	4c 2d       	mov	r20, r12
    4c90:	50 e0       	ldi	r21, 0x00	; 0
    4c92:	b1 01       	movw	r22, r2
    4c94:	c5 01       	movw	r24, r10
    4c96:	0e 94 33 38 	call	0x7066	; 0x7066 <memcmp>
    4c9a:	28 2f       	mov	r18, r24
    4c9c:	39 2f       	mov	r19, r25
    4c9e:	23 2b       	or	r18, r19
    4ca0:	59 f0       	breq	.+22     	; 0x4cb8 <_ZN7MPU605016writeMemoryBlockEPKhjhhbb+0x148>
    4ca2:	c1 01       	movw	r24, r2
    4ca4:	0e 94 b5 36 	call	0x6d6a	; 0x6d6a <free>
    4ca8:	fa 81       	ldd	r31, Y+2	; 0x02
    4caa:	ff 23       	and	r31, r31
    4cac:	51 f1       	breq	.+84     	; 0x4d02 <_ZN7MPU605016writeMemoryBlockEPKhjhhbb+0x192>
    4cae:	c5 01       	movw	r24, r10
    4cb0:	0e 94 b5 36 	call	0x6d6a	; 0x6d6a <free>
    4cb4:	80 e0       	ldi	r24, 0x00	; 0
    4cb6:	28 c0       	rjmp	.+80     	; 0x4d08 <_ZN7MPU605016writeMemoryBlockEPKhjhhbb+0x198>
    4cb8:	8c 81       	ldd	r24, Y+4	; 0x04
    4cba:	9d 81       	ldd	r25, Y+5	; 0x05
    4cbc:	8c 0d       	add	r24, r12
    4cbe:	91 1d       	adc	r25, r1
    4cc0:	9d 83       	std	Y+5, r25	; 0x05
    4cc2:	8c 83       	std	Y+4, r24	; 0x04
    4cc4:	86 15       	cp	r24, r6
    4cc6:	97 05       	cpc	r25, r7
    4cc8:	70 f4       	brcc	.+28     	; 0x4ce6 <_ZN7MPU605016writeMemoryBlockEPKhjhhbb+0x176>
    4cca:	dc 0c       	add	r13, r12
    4ccc:	19 f4       	brne	.+6      	; 0x4cd4 <_ZN7MPU605016writeMemoryBlockEPKhjhhbb+0x164>
    4cce:	99 81       	ldd	r25, Y+1	; 0x01
    4cd0:	9f 5f       	subi	r25, 0xFF	; 255
    4cd2:	99 83       	std	Y+1, r25	; 0x01
    4cd4:	20 e0       	ldi	r18, 0x00	; 0
    4cd6:	40 e0       	ldi	r20, 0x00	; 0
    4cd8:	69 81       	ldd	r22, Y+1	; 0x01
    4cda:	c4 01       	movw	r24, r8
    4cdc:	bf de       	rcall	.-642    	; 0x4a5c <_ZN7MPU605013setMemoryBankEhbb>
    4cde:	6d 2d       	mov	r22, r13
    4ce0:	c4 01       	movw	r24, r8
    4ce2:	c6 de       	rcall	.-628    	; 0x4a70 <_ZN7MPU605021setMemoryStartAddressEh>
    4ce4:	85 cf       	rjmp	.-246    	; 0x4bf0 <_ZN7MPU605016writeMemoryBlockEPKhjhhbb+0x80>
    4ce6:	eb 81       	ldd	r30, Y+3	; 0x03
    4ce8:	ee 23       	and	r30, r30
    4cea:	19 f0       	breq	.+6      	; 0x4cf2 <_ZN7MPU605016writeMemoryBlockEPKhjhhbb+0x182>
    4cec:	c1 01       	movw	r24, r2
    4cee:	0e 94 b5 36 	call	0x6d6a	; 0x6d6a <free>
    4cf2:	fa 81       	ldd	r31, Y+2	; 0x02
    4cf4:	ff 23       	and	r31, r31
    4cf6:	39 f0       	breq	.+14     	; 0x4d06 <_ZN7MPU605016writeMemoryBlockEPKhjhhbb+0x196>
    4cf8:	c5 01       	movw	r24, r10
    4cfa:	0e 94 b5 36 	call	0x6d6a	; 0x6d6a <free>
    4cfe:	81 e0       	ldi	r24, 0x01	; 1
    4d00:	03 c0       	rjmp	.+6      	; 0x4d08 <_ZN7MPU605016writeMemoryBlockEPKhjhhbb+0x198>
    4d02:	80 e0       	ldi	r24, 0x00	; 0
    4d04:	01 c0       	rjmp	.+2      	; 0x4d08 <_ZN7MPU605016writeMemoryBlockEPKhjhhbb+0x198>
    4d06:	81 e0       	ldi	r24, 0x01	; 1
    4d08:	0f 90       	pop	r0
    4d0a:	0f 90       	pop	r0
    4d0c:	0f 90       	pop	r0
    4d0e:	0f 90       	pop	r0
    4d10:	0f 90       	pop	r0
    4d12:	df 91       	pop	r29
    4d14:	cf 91       	pop	r28
    4d16:	1f 91       	pop	r17
    4d18:	0f 91       	pop	r16
    4d1a:	ff 90       	pop	r15
    4d1c:	ef 90       	pop	r14
    4d1e:	df 90       	pop	r13
    4d20:	cf 90       	pop	r12
    4d22:	bf 90       	pop	r11
    4d24:	af 90       	pop	r10
    4d26:	9f 90       	pop	r9
    4d28:	8f 90       	pop	r8
    4d2a:	7f 90       	pop	r7
    4d2c:	6f 90       	pop	r6
    4d2e:	5f 90       	pop	r5
    4d30:	4f 90       	pop	r4
    4d32:	3f 90       	pop	r3
    4d34:	2f 90       	pop	r2
    4d36:	08 95       	ret

00004d38 <_ZN7MPU605020writeProgMemoryBlockEPKhjhhb>:
    4d38:	cf 92       	push	r12
    4d3a:	ef 92       	push	r14
    4d3c:	0f 93       	push	r16
    4d3e:	cc 24       	eor	r12, r12
    4d40:	c3 94       	inc	r12
    4d42:	16 df       	rcall	.-468    	; 0x4b70 <_ZN7MPU605016writeMemoryBlockEPKhjhhbb>
    4d44:	0f 91       	pop	r16
    4d46:	ef 90       	pop	r14
    4d48:	cf 90       	pop	r12
    4d4a:	08 95       	ret

00004d4c <_ZN7MPU605024writeDMPConfigurationSetEPKhjb>:
    4d4c:	2f 92       	push	r2
    4d4e:	3f 92       	push	r3
    4d50:	4f 92       	push	r4
    4d52:	5f 92       	push	r5
    4d54:	6f 92       	push	r6
    4d56:	7f 92       	push	r7
    4d58:	8f 92       	push	r8
    4d5a:	9f 92       	push	r9
    4d5c:	af 92       	push	r10
    4d5e:	bf 92       	push	r11
    4d60:	cf 92       	push	r12
    4d62:	ef 92       	push	r14
    4d64:	ff 92       	push	r15
    4d66:	0f 93       	push	r16
    4d68:	1f 93       	push	r17
    4d6a:	cf 93       	push	r28
    4d6c:	df 93       	push	r29
    4d6e:	1c 01       	movw	r2, r24
    4d70:	eb 01       	movw	r28, r22
    4d72:	2a 01       	movw	r4, r20
    4d74:	12 2f       	mov	r17, r18
    4d76:	22 23       	and	r18, r18
    4d78:	09 f4       	brne	.+2      	; 0x4d7c <_ZN7MPU605024writeDMPConfigurationSetEPKhjb+0x30>
    4d7a:	7c c0       	rjmp	.+248    	; 0x4e74 <_ZN7MPU605024writeDMPConfigurationSetEPKhjb+0x128>
    4d7c:	88 e0       	ldi	r24, 0x08	; 8
    4d7e:	90 e0       	ldi	r25, 0x00	; 0
    4d80:	0e 94 1a 36 	call	0x6c34	; 0x6c34 <malloc>
    4d84:	68 2e       	mov	r6, r24
    4d86:	79 2e       	mov	r7, r25
    4d88:	75 c0       	rjmp	.+234    	; 0x4e74 <_ZN7MPU605024writeDMPConfigurationSetEPKhjb+0x128>
    4d8a:	81 2c       	mov	r8, r1
    4d8c:	91 2c       	mov	r9, r1
    4d8e:	11 23       	and	r17, r17
    4d90:	a9 f0       	breq	.+42     	; 0x4dbc <_ZN7MPU605024writeDMPConfigurationSetEPKhjb+0x70>
    4d92:	fe 01       	movw	r30, r28
    4d94:	e8 0d       	add	r30, r8
    4d96:	f9 1d       	adc	r31, r9
    4d98:	e4 90       	lpm	r14, Z
    4d9a:	f4 01       	movw	r30, r8
    4d9c:	31 96       	adiw	r30, 0x01	; 1
    4d9e:	ec 0f       	add	r30, r28
    4da0:	fd 1f       	adc	r31, r29
    4da2:	f4 90       	lpm	r15, Z
    4da4:	54 01       	movw	r10, r8
    4da6:	83 e0       	ldi	r24, 0x03	; 3
    4da8:	a8 0e       	add	r10, r24
    4daa:	b1 1c       	adc	r11, r1
    4dac:	f4 01       	movw	r30, r8
    4dae:	32 96       	adiw	r30, 0x02	; 2
    4db0:	ec 0f       	add	r30, r28
    4db2:	fd 1f       	adc	r31, r29
    4db4:	04 91       	lpm	r16, Z
    4db6:	01 11       	cpse	r16, r1
    4db8:	75 c0       	rjmp	.+234    	; 0x4ea4 <_ZN7MPU605024writeDMPConfigurationSetEPKhjb+0x158>
    4dba:	3d c0       	rjmp	.+122    	; 0x4e36 <_ZN7MPU605024writeDMPConfigurationSetEPKhjb+0xea>
    4dbc:	fe 01       	movw	r30, r28
    4dbe:	e8 0d       	add	r30, r8
    4dc0:	f9 1d       	adc	r31, r9
    4dc2:	20 81       	ld	r18, Z
    4dc4:	01 81       	ldd	r16, Z+1	; 0x01
    4dc6:	82 81       	ldd	r24, Z+2	; 0x02
    4dc8:	54 01       	movw	r10, r8
    4dca:	93 e0       	ldi	r25, 0x03	; 3
    4dcc:	a9 0e       	add	r10, r25
    4dce:	b1 1c       	adc	r11, r1
    4dd0:	81 11       	cpse	r24, r1
    4dd2:	64 c0       	rjmp	.+200    	; 0x4e9c <_ZN7MPU605024writeDMPConfigurationSetEPKhjb+0x150>
    4dd4:	38 c0       	rjmp	.+112    	; 0x4e46 <_ZN7MPU605024writeDMPConfigurationSetEPKhjb+0xfa>
    4dd6:	60 2f       	mov	r22, r16
    4dd8:	70 e0       	ldi	r23, 0x00	; 0
    4dda:	c3 01       	movw	r24, r6
    4ddc:	0e 94 54 37 	call	0x6ea8	; 0x6ea8 <realloc>
    4de0:	68 2e       	mov	r6, r24
    4de2:	79 2e       	mov	r7, r25
    4de4:	20 2f       	mov	r18, r16
    4de6:	30 e0       	ldi	r19, 0x00	; 0
    4de8:	21 15       	cp	r18, r1
    4dea:	31 05       	cpc	r19, r1
    4dec:	99 f0       	breq	.+38     	; 0x4e14 <_ZN7MPU605024writeDMPConfigurationSetEPKhjb+0xc8>
    4dee:	d3 01       	movw	r26, r6
    4df0:	80 e0       	ldi	r24, 0x00	; 0
    4df2:	90 e0       	ldi	r25, 0x00	; 0
    4df4:	ae 01       	movw	r20, r28
    4df6:	4a 0d       	add	r20, r10
    4df8:	5b 1d       	adc	r21, r11
    4dfa:	fa 01       	movw	r30, r20
    4dfc:	e8 0f       	add	r30, r24
    4dfe:	f9 1f       	adc	r31, r25
    4e00:	e4 91       	lpm	r30, Z
    4e02:	ed 93       	st	X+, r30
    4e04:	01 96       	adiw	r24, 0x01	; 1
    4e06:	82 17       	cp	r24, r18
    4e08:	93 07       	cpc	r25, r19
    4e0a:	b8 f3       	brcs	.-18     	; 0x4dfa <_ZN7MPU605024writeDMPConfigurationSetEPKhjb+0xae>
    4e0c:	80 2f       	mov	r24, r16
    4e0e:	0f 2d       	mov	r16, r15
    4e10:	2e 2d       	mov	r18, r14
    4e12:	03 c0       	rjmp	.+6      	; 0x4e1a <_ZN7MPU605024writeDMPConfigurationSetEPKhjb+0xce>
    4e14:	80 2f       	mov	r24, r16
    4e16:	0f 2d       	mov	r16, r15
    4e18:	2e 2d       	mov	r18, r14
    4e1a:	88 2e       	mov	r8, r24
    4e1c:	91 2c       	mov	r9, r1
    4e1e:	c1 2c       	mov	r12, r1
    4e20:	ee 24       	eor	r14, r14
    4e22:	e3 94       	inc	r14
    4e24:	a4 01       	movw	r20, r8
    4e26:	b3 01       	movw	r22, r6
    4e28:	c1 01       	movw	r24, r2
    4e2a:	a2 de       	rcall	.-700    	; 0x4b70 <_ZN7MPU605016writeMemoryBlockEPKhjhhbb>
    4e2c:	8a 0c       	add	r8, r10
    4e2e:	9b 1c       	adc	r9, r11
    4e30:	81 11       	cpse	r24, r1
    4e32:	25 c0       	rjmp	.+74     	; 0x4e7e <_ZN7MPU605024writeDMPConfigurationSetEPKhjb+0x132>
    4e34:	18 c0       	rjmp	.+48     	; 0x4e66 <_ZN7MPU605024writeDMPConfigurationSetEPKhjb+0x11a>
    4e36:	e4 e0       	ldi	r30, 0x04	; 4
    4e38:	8e 0e       	add	r8, r30
    4e3a:	91 1c       	adc	r9, r1
    4e3c:	fe 01       	movw	r30, r28
    4e3e:	ea 0d       	add	r30, r10
    4e40:	fb 1d       	adc	r31, r11
    4e42:	84 91       	lpm	r24, Z
    4e44:	07 c0       	rjmp	.+14     	; 0x4e54 <_ZN7MPU605024writeDMPConfigurationSetEPKhjb+0x108>
    4e46:	fe 01       	movw	r30, r28
    4e48:	ea 0d       	add	r30, r10
    4e4a:	fb 1d       	adc	r31, r11
    4e4c:	80 81       	ld	r24, Z
    4e4e:	f4 e0       	ldi	r31, 0x04	; 4
    4e50:	8f 0e       	add	r8, r31
    4e52:	91 1c       	adc	r9, r1
    4e54:	81 30       	cpi	r24, 0x01	; 1
    4e56:	39 f4       	brne	.+14     	; 0x4e66 <_ZN7MPU605024writeDMPConfigurationSetEPKhjb+0x11a>
    4e58:	42 e3       	ldi	r20, 0x32	; 50
    4e5a:	68 e3       	ldi	r22, 0x38	; 56
    4e5c:	f1 01       	movw	r30, r2
    4e5e:	80 81       	ld	r24, Z
    4e60:	0e 94 f5 1d 	call	0x3bea	; 0x3bea <_ZN6I2Cdev9writeByteEhhh>
    4e64:	0c c0       	rjmp	.+24     	; 0x4e7e <_ZN7MPU605024writeDMPConfigurationSetEPKhjb+0x132>
    4e66:	11 23       	and	r17, r17
    4e68:	a9 f0       	breq	.+42     	; 0x4e94 <_ZN7MPU605024writeDMPConfigurationSetEPKhjb+0x148>
    4e6a:	c3 01       	movw	r24, r6
    4e6c:	0e 94 b5 36 	call	0x6d6a	; 0x6d6a <free>
    4e70:	80 e0       	ldi	r24, 0x00	; 0
    4e72:	1c c0       	rjmp	.+56     	; 0x4eac <_ZN7MPU605024writeDMPConfigurationSetEPKhjb+0x160>
    4e74:	41 14       	cp	r4, r1
    4e76:	51 04       	cpc	r5, r1
    4e78:	09 f0       	breq	.+2      	; 0x4e7c <_ZN7MPU605024writeDMPConfigurationSetEPKhjb+0x130>
    4e7a:	87 cf       	rjmp	.-242    	; 0x4d8a <_ZN7MPU605024writeDMPConfigurationSetEPKhjb+0x3e>
    4e7c:	04 c0       	rjmp	.+8      	; 0x4e86 <_ZN7MPU605024writeDMPConfigurationSetEPKhjb+0x13a>
    4e7e:	84 14       	cp	r8, r4
    4e80:	95 04       	cpc	r9, r5
    4e82:	08 f4       	brcc	.+2      	; 0x4e86 <_ZN7MPU605024writeDMPConfigurationSetEPKhjb+0x13a>
    4e84:	84 cf       	rjmp	.-248    	; 0x4d8e <_ZN7MPU605024writeDMPConfigurationSetEPKhjb+0x42>
    4e86:	11 23       	and	r17, r17
    4e88:	39 f0       	breq	.+14     	; 0x4e98 <_ZN7MPU605024writeDMPConfigurationSetEPKhjb+0x14c>
    4e8a:	c3 01       	movw	r24, r6
    4e8c:	0e 94 b5 36 	call	0x6d6a	; 0x6d6a <free>
    4e90:	81 e0       	ldi	r24, 0x01	; 1
    4e92:	0c c0       	rjmp	.+24     	; 0x4eac <_ZN7MPU605024writeDMPConfigurationSetEPKhjb+0x160>
    4e94:	80 e0       	ldi	r24, 0x00	; 0
    4e96:	0a c0       	rjmp	.+20     	; 0x4eac <_ZN7MPU605024writeDMPConfigurationSetEPKhjb+0x160>
    4e98:	81 e0       	ldi	r24, 0x01	; 1
    4e9a:	08 c0       	rjmp	.+16     	; 0x4eac <_ZN7MPU605024writeDMPConfigurationSetEPKhjb+0x160>
    4e9c:	3e 01       	movw	r6, r28
    4e9e:	6a 0c       	add	r6, r10
    4ea0:	7b 1c       	adc	r7, r11
    4ea2:	bb cf       	rjmp	.-138    	; 0x4e1a <_ZN7MPU605024writeDMPConfigurationSetEPKhjb+0xce>
    4ea4:	03 30       	cpi	r16, 0x03	; 3
    4ea6:	08 f4       	brcc	.+2      	; 0x4eaa <_ZN7MPU605024writeDMPConfigurationSetEPKhjb+0x15e>
    4ea8:	9d cf       	rjmp	.-198    	; 0x4de4 <_ZN7MPU605024writeDMPConfigurationSetEPKhjb+0x98>
    4eaa:	95 cf       	rjmp	.-214    	; 0x4dd6 <_ZN7MPU605024writeDMPConfigurationSetEPKhjb+0x8a>
    4eac:	df 91       	pop	r29
    4eae:	cf 91       	pop	r28
    4eb0:	1f 91       	pop	r17
    4eb2:	0f 91       	pop	r16
    4eb4:	ff 90       	pop	r15
    4eb6:	ef 90       	pop	r14
    4eb8:	cf 90       	pop	r12
    4eba:	bf 90       	pop	r11
    4ebc:	af 90       	pop	r10
    4ebe:	9f 90       	pop	r9
    4ec0:	8f 90       	pop	r8
    4ec2:	7f 90       	pop	r7
    4ec4:	6f 90       	pop	r6
    4ec6:	5f 90       	pop	r5
    4ec8:	4f 90       	pop	r4
    4eca:	3f 90       	pop	r3
    4ecc:	2f 90       	pop	r2
    4ece:	08 95       	ret

00004ed0 <_ZN7MPU605028writeProgDMPConfigurationSetEPKhj>:
    4ed0:	21 e0       	ldi	r18, 0x01	; 1
    4ed2:	3c cf       	rjmp	.-392    	; 0x4d4c <_ZN7MPU605024writeDMPConfigurationSetEPKhjb>

00004ed4 <_ZN7MPU605013setDMPConfig1Eh>:
    4ed4:	46 2f       	mov	r20, r22
    4ed6:	60 e7       	ldi	r22, 0x70	; 112
    4ed8:	fc 01       	movw	r30, r24
    4eda:	80 81       	ld	r24, Z
    4edc:	0c 94 f5 1d 	jmp	0x3bea	; 0x3bea <_ZN6I2Cdev9writeByteEhhh>

00004ee0 <_ZN7MPU605013setDMPConfig2Eh>:
    4ee0:	46 2f       	mov	r20, r22
    4ee2:	61 e7       	ldi	r22, 0x71	; 113
    4ee4:	fc 01       	movw	r30, r24
    4ee6:	80 81       	ld	r24, Z
    4ee8:	0c 94 f5 1d 	jmp	0x3bea	; 0x3bea <_ZN6I2Cdev9writeByteEhhh>

00004eec <_ZN7MPU605013dmpInitializeEv>:
    4eec:	8f 92       	push	r8
    4eee:	9f 92       	push	r9
    4ef0:	af 92       	push	r10
    4ef2:	bf 92       	push	r11
    4ef4:	cf 92       	push	r12
    4ef6:	ef 92       	push	r14
    4ef8:	0f 93       	push	r16
    4efa:	1f 93       	push	r17
    4efc:	cf 93       	push	r28
    4efe:	df 93       	push	r29
    4f00:	cd b7       	in	r28, 0x3d	; 61
    4f02:	de b7       	in	r29, 0x3e	; 62
    4f04:	c0 59       	subi	r28, 0x90	; 144
    4f06:	d1 09       	sbc	r29, r1
    4f08:	0f b6       	in	r0, 0x3f	; 63
    4f0a:	f8 94       	cli
    4f0c:	de bf       	out	0x3e, r29	; 62
    4f0e:	0f be       	out	0x3f, r0	; 63
    4f10:	cd bf       	out	0x3d, r28	; 61
    4f12:	5c 01       	movw	r10, r24
    4f14:	af dc       	rcall	.-1698   	; 0x4874 <_ZN7MPU60505resetEv>
    4f16:	2f ef       	ldi	r18, 0xFF	; 255
    4f18:	86 e7       	ldi	r24, 0x76	; 118
    4f1a:	91 e0       	ldi	r25, 0x01	; 1
    4f1c:	21 50       	subi	r18, 0x01	; 1
    4f1e:	80 40       	sbci	r24, 0x00	; 0
    4f20:	90 40       	sbci	r25, 0x00	; 0
    4f22:	e1 f7       	brne	.-8      	; 0x4f1c <_ZN7MPU605013dmpInitializeEv+0x30>
    4f24:	00 c0       	rjmp	.+0      	; 0x4f26 <_ZN7MPU605013dmpInitializeEv+0x3a>
    4f26:	00 00       	nop
    4f28:	60 e0       	ldi	r22, 0x00	; 0
    4f2a:	c5 01       	movw	r24, r10
    4f2c:	a9 dc       	rcall	.-1710   	; 0x4880 <_ZN7MPU605015setSleepEnabledEb>
    4f2e:	21 e0       	ldi	r18, 0x01	; 1
    4f30:	41 e0       	ldi	r20, 0x01	; 1
    4f32:	60 e1       	ldi	r22, 0x10	; 16
    4f34:	c5 01       	movw	r24, r10
    4f36:	92 dd       	rcall	.-1244   	; 0x4a5c <_ZN7MPU605013setMemoryBankEhbb>
    4f38:	66 e0       	ldi	r22, 0x06	; 6
    4f3a:	c5 01       	movw	r24, r10
    4f3c:	99 dd       	rcall	.-1230   	; 0x4a70 <_ZN7MPU605021setMemoryStartAddressEh>
    4f3e:	c5 01       	movw	r24, r10
    4f40:	9c dd       	rcall	.-1224   	; 0x4a7a <_ZN7MPU605014readMemoryByteEv>
    4f42:	20 e0       	ldi	r18, 0x00	; 0
    4f44:	40 e0       	ldi	r20, 0x00	; 0
    4f46:	60 e0       	ldi	r22, 0x00	; 0
    4f48:	c5 01       	movw	r24, r10
    4f4a:	88 dd       	rcall	.-1264   	; 0x4a5c <_ZN7MPU605013setMemoryBankEhbb>
    4f4c:	c5 01       	movw	r24, r10
    4f4e:	db dc       	rcall	.-1610   	; 0x4906 <_ZN7MPU605015getOTPBankValidEv>
    4f50:	c5 01       	movw	r24, r10
    4f52:	f5 dc       	rcall	.-1558   	; 0x493e <_ZN7MPU605016getXGyroOffsetTCEv>
    4f54:	18 2f       	mov	r17, r24
    4f56:	c5 01       	movw	r24, r10
    4f58:	17 dd       	rcall	.-1490   	; 0x4988 <_ZN7MPU605016getYGyroOffsetTCEv>
    4f5a:	88 2e       	mov	r8, r24
    4f5c:	c5 01       	movw	r24, r10
    4f5e:	39 dd       	rcall	.-1422   	; 0x49d2 <_ZN7MPU605016getZGyroOffsetTCEv>
    4f60:	98 2e       	mov	r9, r24
    4f62:	4f e7       	ldi	r20, 0x7F	; 127
    4f64:	60 e0       	ldi	r22, 0x00	; 0
    4f66:	c5 01       	movw	r24, r10
    4f68:	4d dc       	rcall	.-1894   	; 0x4804 <_ZN7MPU605015setSlaveAddressEhh>
    4f6a:	60 e0       	ldi	r22, 0x00	; 0
    4f6c:	c5 01       	movw	r24, r10
    4f6e:	70 dc       	rcall	.-1824   	; 0x4850 <_ZN7MPU605023setI2CMasterModeEnabledEb>
    4f70:	48 e6       	ldi	r20, 0x68	; 104
    4f72:	60 e0       	ldi	r22, 0x00	; 0
    4f74:	c5 01       	movw	r24, r10
    4f76:	46 dc       	rcall	.-1908   	; 0x4804 <_ZN7MPU605015setSlaveAddressEhh>
    4f78:	c5 01       	movw	r24, r10
    4f7a:	76 dc       	rcall	.-1812   	; 0x4868 <_ZN7MPU605014resetI2CMasterEv>
    4f7c:	ef ef       	ldi	r30, 0xFF	; 255
    4f7e:	f9 ef       	ldi	r31, 0xF9	; 249
    4f80:	20 e0       	ldi	r18, 0x00	; 0
    4f82:	e1 50       	subi	r30, 0x01	; 1
    4f84:	f0 40       	sbci	r31, 0x00	; 0
    4f86:	20 40       	sbci	r18, 0x00	; 0
    4f88:	e1 f7       	brne	.-8      	; 0x4f82 <_ZN7MPU605013dmpInitializeEv+0x96>
    4f8a:	00 c0       	rjmp	.+0      	; 0x4f8c <_ZN7MPU605013dmpInitializeEv+0xa0>
    4f8c:	00 00       	nop
    4f8e:	ee 24       	eor	r14, r14
    4f90:	e3 94       	inc	r14
    4f92:	00 e0       	ldi	r16, 0x00	; 0
    4f94:	20 e0       	ldi	r18, 0x00	; 0
    4f96:	49 e8       	ldi	r20, 0x89	; 137
    4f98:	57 e0       	ldi	r21, 0x07	; 7
    4f9a:	63 e1       	ldi	r22, 0x13	; 19
    4f9c:	71 e0       	ldi	r23, 0x01	; 1
    4f9e:	c5 01       	movw	r24, r10
    4fa0:	cb de       	rcall	.-618    	; 0x4d38 <_ZN7MPU605020writeProgMemoryBlockEPKhjhhb>
    4fa2:	88 23       	and	r24, r24
    4fa4:	09 f4       	brne	.+2      	; 0x4fa8 <_ZN7MPU605013dmpInitializeEv+0xbc>
    4fa6:	e7 c1       	rjmp	.+974    	; 0x5376 <_ZN7MPU605013dmpInitializeEv+0x48a>
    4fa8:	40 ec       	ldi	r20, 0xC0	; 192
    4faa:	50 e0       	ldi	r21, 0x00	; 0
    4fac:	6c e9       	ldi	r22, 0x9C	; 156
    4fae:	78 e0       	ldi	r23, 0x08	; 8
    4fb0:	c5 01       	movw	r24, r10
    4fb2:	8e df       	rcall	.-228    	; 0x4ed0 <_ZN7MPU605028writeProgDMPConfigurationSetEPKhj>
    4fb4:	88 23       	and	r24, r24
    4fb6:	09 f4       	brne	.+2      	; 0x4fba <_ZN7MPU605013dmpInitializeEv+0xce>
    4fb8:	e0 c1       	rjmp	.+960    	; 0x537a <_ZN7MPU605013dmpInitializeEv+0x48e>
    4fba:	63 e0       	ldi	r22, 0x03	; 3
    4fbc:	c5 01       	movw	r24, r10
    4fbe:	66 dc       	rcall	.-1844   	; 0x488c <_ZN7MPU605014setClockSourceEh>
    4fc0:	62 e1       	ldi	r22, 0x12	; 18
    4fc2:	c5 01       	movw	r24, r10
    4fc4:	29 dc       	rcall	.-1966   	; 0x4818 <_ZN7MPU605013setIntEnabledEh>
    4fc6:	64 e0       	ldi	r22, 0x04	; 4
    4fc8:	c5 01       	movw	r24, r10
    4fca:	e5 db       	rcall	.-2102   	; 0x4796 <_ZN7MPU60507setRateEh>
    4fcc:	61 e0       	ldi	r22, 0x01	; 1
    4fce:	c5 01       	movw	r24, r10
    4fd0:	e7 db       	rcall	.-2098   	; 0x47a0 <_ZN7MPU605020setExternalFrameSyncEh>
    4fd2:	63 e0       	ldi	r22, 0x03	; 3
    4fd4:	c5 01       	movw	r24, r10
    4fd6:	ee db       	rcall	.-2084   	; 0x47b4 <_ZN7MPU605011setDLPFModeEh>
    4fd8:	63 e0       	ldi	r22, 0x03	; 3
    4fda:	c5 01       	movw	r24, r10
    4fdc:	f5 db       	rcall	.-2070   	; 0x47c8 <_ZN7MPU605021setFullScaleGyroRangeEh>
    4fde:	63 e0       	ldi	r22, 0x03	; 3
    4fe0:	c5 01       	movw	r24, r10
    4fe2:	78 df       	rcall	.-272    	; 0x4ed4 <_ZN7MPU605013setDMPConfig1Eh>
    4fe4:	60 e0       	ldi	r22, 0x00	; 0
    4fe6:	c5 01       	movw	r24, r10
    4fe8:	7b df       	rcall	.-266    	; 0x4ee0 <_ZN7MPU605013setDMPConfig2Eh>
    4fea:	60 e0       	ldi	r22, 0x00	; 0
    4fec:	c5 01       	movw	r24, r10
    4fee:	a1 dc       	rcall	.-1726   	; 0x4932 <_ZN7MPU605015setOTPBankValidEb>
    4ff0:	61 2f       	mov	r22, r17
    4ff2:	c5 01       	movw	r24, r10
    4ff4:	bf dc       	rcall	.-1666   	; 0x4974 <_ZN7MPU605016setXGyroOffsetTCEa>
    4ff6:	68 2d       	mov	r22, r8
    4ff8:	c5 01       	movw	r24, r10
    4ffa:	e1 dc       	rcall	.-1598   	; 0x49be <_ZN7MPU605016setYGyroOffsetTCEa>
    4ffc:	69 2d       	mov	r22, r9
    4ffe:	c5 01       	movw	r24, r10
    5000:	03 dd       	rcall	.-1530   	; 0x4a08 <_ZN7MPU605016setZGyroOffsetTCEa>
    5002:	81 2c       	mov	r8, r1
    5004:	91 2c       	mov	r9, r1
    5006:	0e c0       	rjmp	.+28     	; 0x5024 <_ZN7MPU605013dmpInitializeEv+0x138>
    5008:	f4 01       	movw	r30, r8
    500a:	e4 5a       	subi	r30, 0xA4	; 164
    500c:	f6 4f       	sbci	r31, 0xF6	; 246
    500e:	e4 91       	lpm	r30, Z
    5010:	a1 e8       	ldi	r26, 0x81	; 129
    5012:	b0 e0       	ldi	r27, 0x00	; 0
    5014:	ac 0f       	add	r26, r28
    5016:	bd 1f       	adc	r27, r29
    5018:	a8 0d       	add	r26, r8
    501a:	b1 1d       	adc	r27, r1
    501c:	ec 93       	st	X, r30
    501e:	8f ef       	ldi	r24, 0xFF	; 255
    5020:	88 1a       	sub	r8, r24
    5022:	98 0a       	sbc	r9, r24
    5024:	93 e0       	ldi	r25, 0x03	; 3
    5026:	98 15       	cp	r25, r8
    5028:	78 f7       	brcc	.-34     	; 0x5008 <_ZN7MPU605013dmpInitializeEv+0x11c>
    502a:	cd 57       	subi	r28, 0x7D	; 125
    502c:	df 4f       	sbci	r29, 0xFF	; 255
    502e:	48 81       	ld	r20, Y
    5030:	c3 58       	subi	r28, 0x83	; 131
    5032:	d0 40       	sbci	r29, 0x00	; 0
    5034:	94 01       	movw	r18, r8
    5036:	33 27       	eor	r19, r19
    5038:	84 2f       	mov	r24, r20
    503a:	90 e0       	ldi	r25, 0x00	; 0
    503c:	03 96       	adiw	r24, 0x03	; 3
    503e:	28 17       	cp	r18, r24
    5040:	39 07       	cpc	r19, r25
    5042:	14 f3       	brlt	.-60     	; 0x5008 <_ZN7MPU605013dmpInitializeEv+0x11c>
    5044:	61 e8       	ldi	r22, 0x81	; 129
    5046:	70 e0       	ldi	r23, 0x00	; 0
    5048:	6c 0f       	add	r22, r28
    504a:	7d 1f       	adc	r23, r29
    504c:	6d 5f       	subi	r22, 0xFD	; 253
    504e:	7f 4f       	sbci	r23, 0xFF	; 255
    5050:	c1 2c       	mov	r12, r1
    5052:	ee 24       	eor	r14, r14
    5054:	e3 94       	inc	r14
    5056:	ce 57       	subi	r28, 0x7E	; 126
    5058:	df 4f       	sbci	r29, 0xFF	; 255
    505a:	08 81       	ld	r16, Y
    505c:	c2 58       	subi	r28, 0x82	; 130
    505e:	d0 40       	sbci	r29, 0x00	; 0
    5060:	cf 57       	subi	r28, 0x7F	; 127
    5062:	df 4f       	sbci	r29, 0xFF	; 255
    5064:	28 81       	ld	r18, Y
    5066:	c1 58       	subi	r28, 0x81	; 129
    5068:	d0 40       	sbci	r29, 0x00	; 0
    506a:	50 e0       	ldi	r21, 0x00	; 0
    506c:	c5 01       	movw	r24, r10
    506e:	80 dd       	rcall	.-1280   	; 0x4b70 <_ZN7MPU605016writeMemoryBlockEPKhjhhbb>
    5070:	50 e0       	ldi	r21, 0x00	; 0
    5072:	f4 01       	movw	r30, r8
    5074:	e4 5a       	subi	r30, 0xA4	; 164
    5076:	f6 4f       	sbci	r31, 0xF6	; 246
    5078:	e4 91       	lpm	r30, Z
    507a:	a1 e8       	ldi	r26, 0x81	; 129
    507c:	b0 e0       	ldi	r27, 0x00	; 0
    507e:	ac 0f       	add	r26, r28
    5080:	bd 1f       	adc	r27, r29
    5082:	a5 0f       	add	r26, r21
    5084:	b1 1d       	adc	r27, r1
    5086:	ec 93       	st	X, r30
    5088:	5f 5f       	subi	r21, 0xFF	; 255
    508a:	ef ef       	ldi	r30, 0xFF	; 255
    508c:	8e 1a       	sub	r8, r30
    508e:	9e 0a       	sbc	r9, r30
    5090:	54 30       	cpi	r21, 0x04	; 4
    5092:	78 f3       	brcs	.-34     	; 0x5072 <_ZN7MPU605013dmpInitializeEv+0x186>
    5094:	cd 57       	subi	r28, 0x7D	; 125
    5096:	df 4f       	sbci	r29, 0xFF	; 255
    5098:	48 81       	ld	r20, Y
    509a:	c3 58       	subi	r28, 0x83	; 131
    509c:	d0 40       	sbci	r29, 0x00	; 0
    509e:	25 2f       	mov	r18, r21
    50a0:	30 e0       	ldi	r19, 0x00	; 0
    50a2:	84 2f       	mov	r24, r20
    50a4:	90 e0       	ldi	r25, 0x00	; 0
    50a6:	03 96       	adiw	r24, 0x03	; 3
    50a8:	28 17       	cp	r18, r24
    50aa:	39 07       	cpc	r19, r25
    50ac:	14 f3       	brlt	.-60     	; 0x5072 <_ZN7MPU605013dmpInitializeEv+0x186>
    50ae:	61 e8       	ldi	r22, 0x81	; 129
    50b0:	70 e0       	ldi	r23, 0x00	; 0
    50b2:	6c 0f       	add	r22, r28
    50b4:	7d 1f       	adc	r23, r29
    50b6:	6d 5f       	subi	r22, 0xFD	; 253
    50b8:	7f 4f       	sbci	r23, 0xFF	; 255
    50ba:	c1 2c       	mov	r12, r1
    50bc:	ee 24       	eor	r14, r14
    50be:	e3 94       	inc	r14
    50c0:	ce 57       	subi	r28, 0x7E	; 126
    50c2:	df 4f       	sbci	r29, 0xFF	; 255
    50c4:	08 81       	ld	r16, Y
    50c6:	c2 58       	subi	r28, 0x82	; 130
    50c8:	d0 40       	sbci	r29, 0x00	; 0
    50ca:	cf 57       	subi	r28, 0x7F	; 127
    50cc:	df 4f       	sbci	r29, 0xFF	; 255
    50ce:	28 81       	ld	r18, Y
    50d0:	c1 58       	subi	r28, 0x81	; 129
    50d2:	d0 40       	sbci	r29, 0x00	; 0
    50d4:	50 e0       	ldi	r21, 0x00	; 0
    50d6:	c5 01       	movw	r24, r10
    50d8:	4b dd       	rcall	.-1386   	; 0x4b70 <_ZN7MPU605016writeMemoryBlockEPKhjhhbb>
    50da:	c5 01       	movw	r24, r10
    50dc:	bf db       	rcall	.-2178   	; 0x485c <_ZN7MPU60509resetFIFOEv>
    50de:	c5 01       	movw	r24, r10
    50e0:	df db       	rcall	.-2114   	; 0x48a0 <_ZN7MPU605012getFIFOCountEv>
    50e2:	ac 01       	movw	r20, r24
    50e4:	be 01       	movw	r22, r28
    50e6:	6f 5f       	subi	r22, 0xFF	; 255
    50e8:	7f 4f       	sbci	r23, 0xFF	; 255
    50ea:	c5 01       	movw	r24, r10
    50ec:	f6 db       	rcall	.-2068   	; 0x48da <_ZN7MPU605012getFIFOBytesEPhj>
    50ee:	62 e0       	ldi	r22, 0x02	; 2
    50f0:	c5 01       	movw	r24, r10
    50f2:	74 db       	rcall	.-2328   	; 0x47dc <_ZN7MPU605027setMotionDetectionThresholdEh>
    50f4:	6c e9       	ldi	r22, 0x9C	; 156
    50f6:	c5 01       	movw	r24, r10
    50f8:	7b db       	rcall	.-2314   	; 0x47f0 <_ZN7MPU605031setZeroMotionDetectionThresholdEh>
    50fa:	60 e5       	ldi	r22, 0x50	; 80
    50fc:	c5 01       	movw	r24, r10
    50fe:	73 db       	rcall	.-2330   	; 0x47e6 <_ZN7MPU605026setMotionDetectionDurationEh>
    5100:	60 e0       	ldi	r22, 0x00	; 0
    5102:	c5 01       	movw	r24, r10
    5104:	7a db       	rcall	.-2316   	; 0x47fa <_ZN7MPU605030setZeroMotionDetectionDurationEh>
    5106:	c5 01       	movw	r24, r10
    5108:	a9 db       	rcall	.-2222   	; 0x485c <_ZN7MPU60509resetFIFOEv>
    510a:	61 e0       	ldi	r22, 0x01	; 1
    510c:	c5 01       	movw	r24, r10
    510e:	9a db       	rcall	.-2252   	; 0x4844 <_ZN7MPU605014setFIFOEnabledEb>
    5110:	61 e0       	ldi	r22, 0x01	; 1
    5112:	c5 01       	movw	r24, r10
    5114:	97 dc       	rcall	.-1746   	; 0x4a44 <_ZN7MPU605013setDMPEnabledEb>
    5116:	c5 01       	movw	r24, r10
    5118:	9b dc       	rcall	.-1738   	; 0x4a50 <_ZN7MPU60508resetDMPEv>
    511a:	50 e0       	ldi	r21, 0x00	; 0
    511c:	f4 01       	movw	r30, r8
    511e:	e4 5a       	subi	r30, 0xA4	; 164
    5120:	f6 4f       	sbci	r31, 0xF6	; 246
    5122:	e4 91       	lpm	r30, Z
    5124:	a1 e8       	ldi	r26, 0x81	; 129
    5126:	b0 e0       	ldi	r27, 0x00	; 0
    5128:	ac 0f       	add	r26, r28
    512a:	bd 1f       	adc	r27, r29
    512c:	a5 0f       	add	r26, r21
    512e:	b1 1d       	adc	r27, r1
    5130:	ec 93       	st	X, r30
    5132:	5f 5f       	subi	r21, 0xFF	; 255
    5134:	ff ef       	ldi	r31, 0xFF	; 255
    5136:	8f 1a       	sub	r8, r31
    5138:	9f 0a       	sbc	r9, r31
    513a:	54 30       	cpi	r21, 0x04	; 4
    513c:	78 f3       	brcs	.-34     	; 0x511c <_ZN7MPU605013dmpInitializeEv+0x230>
    513e:	cd 57       	subi	r28, 0x7D	; 125
    5140:	df 4f       	sbci	r29, 0xFF	; 255
    5142:	48 81       	ld	r20, Y
    5144:	c3 58       	subi	r28, 0x83	; 131
    5146:	d0 40       	sbci	r29, 0x00	; 0
    5148:	25 2f       	mov	r18, r21
    514a:	30 e0       	ldi	r19, 0x00	; 0
    514c:	84 2f       	mov	r24, r20
    514e:	90 e0       	ldi	r25, 0x00	; 0
    5150:	03 96       	adiw	r24, 0x03	; 3
    5152:	28 17       	cp	r18, r24
    5154:	39 07       	cpc	r19, r25
    5156:	14 f3       	brlt	.-60     	; 0x511c <_ZN7MPU605013dmpInitializeEv+0x230>
    5158:	61 e8       	ldi	r22, 0x81	; 129
    515a:	70 e0       	ldi	r23, 0x00	; 0
    515c:	6c 0f       	add	r22, r28
    515e:	7d 1f       	adc	r23, r29
    5160:	6d 5f       	subi	r22, 0xFD	; 253
    5162:	7f 4f       	sbci	r23, 0xFF	; 255
    5164:	c1 2c       	mov	r12, r1
    5166:	ee 24       	eor	r14, r14
    5168:	e3 94       	inc	r14
    516a:	ce 57       	subi	r28, 0x7E	; 126
    516c:	df 4f       	sbci	r29, 0xFF	; 255
    516e:	08 81       	ld	r16, Y
    5170:	c2 58       	subi	r28, 0x82	; 130
    5172:	d0 40       	sbci	r29, 0x00	; 0
    5174:	cf 57       	subi	r28, 0x7F	; 127
    5176:	df 4f       	sbci	r29, 0xFF	; 255
    5178:	28 81       	ld	r18, Y
    517a:	c1 58       	subi	r28, 0x81	; 129
    517c:	d0 40       	sbci	r29, 0x00	; 0
    517e:	50 e0       	ldi	r21, 0x00	; 0
    5180:	c5 01       	movw	r24, r10
    5182:	f6 dc       	rcall	.-1556   	; 0x4b70 <_ZN7MPU605016writeMemoryBlockEPKhjhhbb>
    5184:	50 e0       	ldi	r21, 0x00	; 0
    5186:	f4 01       	movw	r30, r8
    5188:	e4 5a       	subi	r30, 0xA4	; 164
    518a:	f6 4f       	sbci	r31, 0xF6	; 246
    518c:	e4 91       	lpm	r30, Z
    518e:	a1 e8       	ldi	r26, 0x81	; 129
    5190:	b0 e0       	ldi	r27, 0x00	; 0
    5192:	ac 0f       	add	r26, r28
    5194:	bd 1f       	adc	r27, r29
    5196:	a5 0f       	add	r26, r21
    5198:	b1 1d       	adc	r27, r1
    519a:	ec 93       	st	X, r30
    519c:	5f 5f       	subi	r21, 0xFF	; 255
    519e:	2f ef       	ldi	r18, 0xFF	; 255
    51a0:	82 1a       	sub	r8, r18
    51a2:	92 0a       	sbc	r9, r18
    51a4:	54 30       	cpi	r21, 0x04	; 4
    51a6:	78 f3       	brcs	.-34     	; 0x5186 <_ZN7MPU605013dmpInitializeEv+0x29a>
    51a8:	cd 57       	subi	r28, 0x7D	; 125
    51aa:	df 4f       	sbci	r29, 0xFF	; 255
    51ac:	48 81       	ld	r20, Y
    51ae:	c3 58       	subi	r28, 0x83	; 131
    51b0:	d0 40       	sbci	r29, 0x00	; 0
    51b2:	25 2f       	mov	r18, r21
    51b4:	30 e0       	ldi	r19, 0x00	; 0
    51b6:	84 2f       	mov	r24, r20
    51b8:	90 e0       	ldi	r25, 0x00	; 0
    51ba:	03 96       	adiw	r24, 0x03	; 3
    51bc:	28 17       	cp	r18, r24
    51be:	39 07       	cpc	r19, r25
    51c0:	14 f3       	brlt	.-60     	; 0x5186 <_ZN7MPU605013dmpInitializeEv+0x29a>
    51c2:	61 e8       	ldi	r22, 0x81	; 129
    51c4:	70 e0       	ldi	r23, 0x00	; 0
    51c6:	6c 0f       	add	r22, r28
    51c8:	7d 1f       	adc	r23, r29
    51ca:	6d 5f       	subi	r22, 0xFD	; 253
    51cc:	7f 4f       	sbci	r23, 0xFF	; 255
    51ce:	c1 2c       	mov	r12, r1
    51d0:	ee 24       	eor	r14, r14
    51d2:	e3 94       	inc	r14
    51d4:	ce 57       	subi	r28, 0x7E	; 126
    51d6:	df 4f       	sbci	r29, 0xFF	; 255
    51d8:	08 81       	ld	r16, Y
    51da:	c2 58       	subi	r28, 0x82	; 130
    51dc:	d0 40       	sbci	r29, 0x00	; 0
    51de:	cf 57       	subi	r28, 0x7F	; 127
    51e0:	df 4f       	sbci	r29, 0xFF	; 255
    51e2:	28 81       	ld	r18, Y
    51e4:	c1 58       	subi	r28, 0x81	; 129
    51e6:	d0 40       	sbci	r29, 0x00	; 0
    51e8:	50 e0       	ldi	r21, 0x00	; 0
    51ea:	c5 01       	movw	r24, r10
    51ec:	c1 dc       	rcall	.-1662   	; 0x4b70 <_ZN7MPU605016writeMemoryBlockEPKhjhhbb>
    51ee:	50 e0       	ldi	r21, 0x00	; 0
    51f0:	f4 01       	movw	r30, r8
    51f2:	e4 5a       	subi	r30, 0xA4	; 164
    51f4:	f6 4f       	sbci	r31, 0xF6	; 246
    51f6:	e4 91       	lpm	r30, Z
    51f8:	a1 e8       	ldi	r26, 0x81	; 129
    51fa:	b0 e0       	ldi	r27, 0x00	; 0
    51fc:	ac 0f       	add	r26, r28
    51fe:	bd 1f       	adc	r27, r29
    5200:	a5 0f       	add	r26, r21
    5202:	b1 1d       	adc	r27, r1
    5204:	ec 93       	st	X, r30
    5206:	5f 5f       	subi	r21, 0xFF	; 255
    5208:	8f ef       	ldi	r24, 0xFF	; 255
    520a:	88 1a       	sub	r8, r24
    520c:	98 0a       	sbc	r9, r24
    520e:	54 30       	cpi	r21, 0x04	; 4
    5210:	78 f3       	brcs	.-34     	; 0x51f0 <_ZN7MPU605013dmpInitializeEv+0x304>
    5212:	cd 57       	subi	r28, 0x7D	; 125
    5214:	df 4f       	sbci	r29, 0xFF	; 255
    5216:	48 81       	ld	r20, Y
    5218:	c3 58       	subi	r28, 0x83	; 131
    521a:	d0 40       	sbci	r29, 0x00	; 0
    521c:	25 2f       	mov	r18, r21
    521e:	30 e0       	ldi	r19, 0x00	; 0
    5220:	84 2f       	mov	r24, r20
    5222:	90 e0       	ldi	r25, 0x00	; 0
    5224:	03 96       	adiw	r24, 0x03	; 3
    5226:	28 17       	cp	r18, r24
    5228:	39 07       	cpc	r19, r25
    522a:	14 f3       	brlt	.-60     	; 0x51f0 <_ZN7MPU605013dmpInitializeEv+0x304>
    522c:	61 e8       	ldi	r22, 0x81	; 129
    522e:	70 e0       	ldi	r23, 0x00	; 0
    5230:	6c 0f       	add	r22, r28
    5232:	7d 1f       	adc	r23, r29
    5234:	6d 5f       	subi	r22, 0xFD	; 253
    5236:	7f 4f       	sbci	r23, 0xFF	; 255
    5238:	c1 2c       	mov	r12, r1
    523a:	ee 24       	eor	r14, r14
    523c:	e3 94       	inc	r14
    523e:	ce 57       	subi	r28, 0x7E	; 126
    5240:	df 4f       	sbci	r29, 0xFF	; 255
    5242:	08 81       	ld	r16, Y
    5244:	c2 58       	subi	r28, 0x82	; 130
    5246:	d0 40       	sbci	r29, 0x00	; 0
    5248:	cf 57       	subi	r28, 0x7F	; 127
    524a:	df 4f       	sbci	r29, 0xFF	; 255
    524c:	28 81       	ld	r18, Y
    524e:	c1 58       	subi	r28, 0x81	; 129
    5250:	d0 40       	sbci	r29, 0x00	; 0
    5252:	50 e0       	ldi	r21, 0x00	; 0
    5254:	c5 01       	movw	r24, r10
    5256:	8c dc       	rcall	.-1768   	; 0x4b70 <_ZN7MPU605016writeMemoryBlockEPKhjhhbb>
    5258:	c5 01       	movw	r24, r10
    525a:	22 db       	rcall	.-2492   	; 0x48a0 <_ZN7MPU605012getFIFOCountEv>
    525c:	83 30       	cpi	r24, 0x03	; 3
    525e:	91 05       	cpc	r25, r1
    5260:	d8 f3       	brcs	.-10     	; 0x5258 <_ZN7MPU605013dmpInitializeEv+0x36c>
    5262:	ac 01       	movw	r20, r24
    5264:	be 01       	movw	r22, r28
    5266:	6f 5f       	subi	r22, 0xFF	; 255
    5268:	7f 4f       	sbci	r23, 0xFF	; 255
    526a:	c5 01       	movw	r24, r10
    526c:	36 db       	rcall	.-2452   	; 0x48da <_ZN7MPU605012getFIFOBytesEPhj>
    526e:	c5 01       	movw	r24, r10
    5270:	d8 da       	rcall	.-2640   	; 0x4822 <_ZN7MPU605012getIntStatusEv>
    5272:	50 e0       	ldi	r21, 0x00	; 0
    5274:	f4 01       	movw	r30, r8
    5276:	e4 5a       	subi	r30, 0xA4	; 164
    5278:	f6 4f       	sbci	r31, 0xF6	; 246
    527a:	e4 91       	lpm	r30, Z
    527c:	a1 e8       	ldi	r26, 0x81	; 129
    527e:	b0 e0       	ldi	r27, 0x00	; 0
    5280:	ac 0f       	add	r26, r28
    5282:	bd 1f       	adc	r27, r29
    5284:	a5 0f       	add	r26, r21
    5286:	b1 1d       	adc	r27, r1
    5288:	ec 93       	st	X, r30
    528a:	5f 5f       	subi	r21, 0xFF	; 255
    528c:	9f ef       	ldi	r25, 0xFF	; 255
    528e:	89 1a       	sub	r8, r25
    5290:	99 0a       	sbc	r9, r25
    5292:	54 30       	cpi	r21, 0x04	; 4
    5294:	78 f3       	brcs	.-34     	; 0x5274 <_ZN7MPU605013dmpInitializeEv+0x388>
    5296:	cd 57       	subi	r28, 0x7D	; 125
    5298:	df 4f       	sbci	r29, 0xFF	; 255
    529a:	48 81       	ld	r20, Y
    529c:	c3 58       	subi	r28, 0x83	; 131
    529e:	d0 40       	sbci	r29, 0x00	; 0
    52a0:	25 2f       	mov	r18, r21
    52a2:	30 e0       	ldi	r19, 0x00	; 0
    52a4:	84 2f       	mov	r24, r20
    52a6:	90 e0       	ldi	r25, 0x00	; 0
    52a8:	03 96       	adiw	r24, 0x03	; 3
    52aa:	28 17       	cp	r18, r24
    52ac:	39 07       	cpc	r19, r25
    52ae:	14 f3       	brlt	.-60     	; 0x5274 <_ZN7MPU605013dmpInitializeEv+0x388>
    52b0:	61 e8       	ldi	r22, 0x81	; 129
    52b2:	70 e0       	ldi	r23, 0x00	; 0
    52b4:	6c 0f       	add	r22, r28
    52b6:	7d 1f       	adc	r23, r29
    52b8:	6d 5f       	subi	r22, 0xFD	; 253
    52ba:	7f 4f       	sbci	r23, 0xFF	; 255
    52bc:	ce 57       	subi	r28, 0x7E	; 126
    52be:	df 4f       	sbci	r29, 0xFF	; 255
    52c0:	08 81       	ld	r16, Y
    52c2:	c2 58       	subi	r28, 0x82	; 130
    52c4:	d0 40       	sbci	r29, 0x00	; 0
    52c6:	cf 57       	subi	r28, 0x7F	; 127
    52c8:	df 4f       	sbci	r29, 0xFF	; 255
    52ca:	28 81       	ld	r18, Y
    52cc:	c1 58       	subi	r28, 0x81	; 129
    52ce:	d0 40       	sbci	r29, 0x00	; 0
    52d0:	50 e0       	ldi	r21, 0x00	; 0
    52d2:	c5 01       	movw	r24, r10
    52d4:	e4 db       	rcall	.-2104   	; 0x4a9e <_ZN7MPU605015readMemoryBlockEPhjhh>
    52d6:	c5 01       	movw	r24, r10
    52d8:	e3 da       	rcall	.-2618   	; 0x48a0 <_ZN7MPU605012getFIFOCountEv>
    52da:	83 30       	cpi	r24, 0x03	; 3
    52dc:	91 05       	cpc	r25, r1
    52de:	d8 f3       	brcs	.-10     	; 0x52d6 <_ZN7MPU605013dmpInitializeEv+0x3ea>
    52e0:	ac 01       	movw	r20, r24
    52e2:	be 01       	movw	r22, r28
    52e4:	6f 5f       	subi	r22, 0xFF	; 255
    52e6:	7f 4f       	sbci	r23, 0xFF	; 255
    52e8:	c5 01       	movw	r24, r10
    52ea:	f7 da       	rcall	.-2578   	; 0x48da <_ZN7MPU605012getFIFOBytesEPhj>
    52ec:	c5 01       	movw	r24, r10
    52ee:	99 da       	rcall	.-2766   	; 0x4822 <_ZN7MPU605012getIntStatusEv>
    52f0:	50 e0       	ldi	r21, 0x00	; 0
    52f2:	f4 01       	movw	r30, r8
    52f4:	e4 5a       	subi	r30, 0xA4	; 164
    52f6:	f6 4f       	sbci	r31, 0xF6	; 246
    52f8:	e4 91       	lpm	r30, Z
    52fa:	a1 e8       	ldi	r26, 0x81	; 129
    52fc:	b0 e0       	ldi	r27, 0x00	; 0
    52fe:	ac 0f       	add	r26, r28
    5300:	bd 1f       	adc	r27, r29
    5302:	a5 0f       	add	r26, r21
    5304:	b1 1d       	adc	r27, r1
    5306:	ec 93       	st	X, r30
    5308:	5f 5f       	subi	r21, 0xFF	; 255
    530a:	ef ef       	ldi	r30, 0xFF	; 255
    530c:	8e 1a       	sub	r8, r30
    530e:	9e 0a       	sbc	r9, r30
    5310:	54 30       	cpi	r21, 0x04	; 4
    5312:	78 f3       	brcs	.-34     	; 0x52f2 <_ZN7MPU605013dmpInitializeEv+0x406>
    5314:	cd 57       	subi	r28, 0x7D	; 125
    5316:	df 4f       	sbci	r29, 0xFF	; 255
    5318:	48 81       	ld	r20, Y
    531a:	c3 58       	subi	r28, 0x83	; 131
    531c:	d0 40       	sbci	r29, 0x00	; 0
    531e:	25 2f       	mov	r18, r21
    5320:	30 e0       	ldi	r19, 0x00	; 0
    5322:	84 2f       	mov	r24, r20
    5324:	90 e0       	ldi	r25, 0x00	; 0
    5326:	03 96       	adiw	r24, 0x03	; 3
    5328:	28 17       	cp	r18, r24
    532a:	39 07       	cpc	r19, r25
    532c:	14 f3       	brlt	.-60     	; 0x52f2 <_ZN7MPU605013dmpInitializeEv+0x406>
    532e:	61 e8       	ldi	r22, 0x81	; 129
    5330:	70 e0       	ldi	r23, 0x00	; 0
    5332:	6c 0f       	add	r22, r28
    5334:	7d 1f       	adc	r23, r29
    5336:	6d 5f       	subi	r22, 0xFD	; 253
    5338:	7f 4f       	sbci	r23, 0xFF	; 255
    533a:	c1 2c       	mov	r12, r1
    533c:	ee 24       	eor	r14, r14
    533e:	e3 94       	inc	r14
    5340:	ce 57       	subi	r28, 0x7E	; 126
    5342:	df 4f       	sbci	r29, 0xFF	; 255
    5344:	08 81       	ld	r16, Y
    5346:	c2 58       	subi	r28, 0x82	; 130
    5348:	d0 40       	sbci	r29, 0x00	; 0
    534a:	cf 57       	subi	r28, 0x7F	; 127
    534c:	df 4f       	sbci	r29, 0xFF	; 255
    534e:	28 81       	ld	r18, Y
    5350:	c1 58       	subi	r28, 0x81	; 129
    5352:	d0 40       	sbci	r29, 0x00	; 0
    5354:	50 e0       	ldi	r21, 0x00	; 0
    5356:	c5 01       	movw	r24, r10
    5358:	0b dc       	rcall	.-2026   	; 0x4b70 <_ZN7MPU605016writeMemoryBlockEPKhjhhbb>
    535a:	60 e0       	ldi	r22, 0x00	; 0
    535c:	c5 01       	movw	r24, r10
    535e:	72 db       	rcall	.-2332   	; 0x4a44 <_ZN7MPU605013setDMPEnabledEb>
    5360:	8a e2       	ldi	r24, 0x2A	; 42
    5362:	90 e0       	ldi	r25, 0x00	; 0
    5364:	f5 01       	movw	r30, r10
    5366:	93 83       	std	Z+3, r25	; 0x03
    5368:	82 83       	std	Z+2, r24	; 0x02
    536a:	c5 01       	movw	r24, r10
    536c:	77 da       	rcall	.-2834   	; 0x485c <_ZN7MPU60509resetFIFOEv>
    536e:	c5 01       	movw	r24, r10
    5370:	58 da       	rcall	.-2896   	; 0x4822 <_ZN7MPU605012getIntStatusEv>
    5372:	80 e0       	ldi	r24, 0x00	; 0
    5374:	03 c0       	rjmp	.+6      	; 0x537c <_ZN7MPU605013dmpInitializeEv+0x490>
    5376:	81 e0       	ldi	r24, 0x01	; 1
    5378:	01 c0       	rjmp	.+2      	; 0x537c <_ZN7MPU605013dmpInitializeEv+0x490>
    537a:	82 e0       	ldi	r24, 0x02	; 2
    537c:	c0 57       	subi	r28, 0x70	; 112
    537e:	df 4f       	sbci	r29, 0xFF	; 255
    5380:	0f b6       	in	r0, 0x3f	; 63
    5382:	f8 94       	cli
    5384:	de bf       	out	0x3e, r29	; 62
    5386:	0f be       	out	0x3f, r0	; 63
    5388:	cd bf       	out	0x3d, r28	; 61
    538a:	df 91       	pop	r29
    538c:	cf 91       	pop	r28
    538e:	1f 91       	pop	r17
    5390:	0f 91       	pop	r16
    5392:	ef 90       	pop	r14
    5394:	cf 90       	pop	r12
    5396:	bf 90       	pop	r11
    5398:	af 90       	pop	r10
    539a:	9f 90       	pop	r9
    539c:	8f 90       	pop	r8
    539e:	08 95       	ret

000053a0 <_ZN7MPU605016dmpGetQuaternionEPiPKh>:
    53a0:	cf 93       	push	r28
    53a2:	df 93       	push	r29
    53a4:	db 01       	movw	r26, r22
    53a6:	fa 01       	movw	r30, r20
    53a8:	30 97       	sbiw	r30, 0x00	; 0
    53aa:	19 f4       	brne	.+6      	; 0x53b2 <_ZN7MPU605016dmpGetQuaternionEPiPKh+0x12>
    53ac:	ec 01       	movw	r28, r24
    53ae:	e8 81       	ld	r30, Y
    53b0:	f9 81       	ldd	r31, Y+1	; 0x01
    53b2:	90 81       	ld	r25, Z
    53b4:	80 e0       	ldi	r24, 0x00	; 0
    53b6:	21 81       	ldd	r18, Z+1	; 0x01
    53b8:	82 0f       	add	r24, r18
    53ba:	91 1d       	adc	r25, r1
    53bc:	11 96       	adiw	r26, 0x01	; 1
    53be:	9c 93       	st	X, r25
    53c0:	8e 93       	st	-X, r24
    53c2:	94 81       	ldd	r25, Z+4	; 0x04
    53c4:	80 e0       	ldi	r24, 0x00	; 0
    53c6:	25 81       	ldd	r18, Z+5	; 0x05
    53c8:	82 0f       	add	r24, r18
    53ca:	91 1d       	adc	r25, r1
    53cc:	13 96       	adiw	r26, 0x03	; 3
    53ce:	9c 93       	st	X, r25
    53d0:	8e 93       	st	-X, r24
    53d2:	12 97       	sbiw	r26, 0x02	; 2
    53d4:	90 85       	ldd	r25, Z+8	; 0x08
    53d6:	80 e0       	ldi	r24, 0x00	; 0
    53d8:	21 85       	ldd	r18, Z+9	; 0x09
    53da:	82 0f       	add	r24, r18
    53dc:	91 1d       	adc	r25, r1
    53de:	15 96       	adiw	r26, 0x05	; 5
    53e0:	9c 93       	st	X, r25
    53e2:	8e 93       	st	-X, r24
    53e4:	14 97       	sbiw	r26, 0x04	; 4
    53e6:	94 85       	ldd	r25, Z+12	; 0x0c
    53e8:	80 e0       	ldi	r24, 0x00	; 0
    53ea:	25 85       	ldd	r18, Z+13	; 0x0d
    53ec:	82 0f       	add	r24, r18
    53ee:	91 1d       	adc	r25, r1
    53f0:	17 96       	adiw	r26, 0x07	; 7
    53f2:	9c 93       	st	X, r25
    53f4:	8e 93       	st	-X, r24
    53f6:	16 97       	sbiw	r26, 0x06	; 6
    53f8:	80 e0       	ldi	r24, 0x00	; 0
    53fa:	df 91       	pop	r29
    53fc:	cf 91       	pop	r28
    53fe:	08 95       	ret

00005400 <_ZN7MPU605016dmpGetQuaternionEP10QuaternionPKh>:
    5400:	ff 92       	push	r15
    5402:	0f 93       	push	r16
    5404:	1f 93       	push	r17
    5406:	cf 93       	push	r28
    5408:	df 93       	push	r29
    540a:	cd b7       	in	r28, 0x3d	; 61
    540c:	de b7       	in	r29, 0x3e	; 62
    540e:	28 97       	sbiw	r28, 0x08	; 8
    5410:	0f b6       	in	r0, 0x3f	; 63
    5412:	f8 94       	cli
    5414:	de bf       	out	0x3e, r29	; 62
    5416:	0f be       	out	0x3f, r0	; 63
    5418:	cd bf       	out	0x3d, r28	; 61
    541a:	8b 01       	movw	r16, r22
    541c:	be 01       	movw	r22, r28
    541e:	6f 5f       	subi	r22, 0xFF	; 255
    5420:	7f 4f       	sbci	r23, 0xFF	; 255
    5422:	be df       	rcall	.-132    	; 0x53a0 <_ZN7MPU605016dmpGetQuaternionEPiPKh>
    5424:	f8 2e       	mov	r15, r24
    5426:	81 11       	cpse	r24, r1
    5428:	4c c0       	rjmp	.+152    	; 0x54c2 <_ZN7MPU605016dmpGetQuaternionEP10QuaternionPKh+0xc2>
    542a:	69 81       	ldd	r22, Y+1	; 0x01
    542c:	7a 81       	ldd	r23, Y+2	; 0x02
    542e:	88 27       	eor	r24, r24
    5430:	77 fd       	sbrc	r23, 7
    5432:	80 95       	com	r24
    5434:	98 2f       	mov	r25, r24
    5436:	0e 94 64 33 	call	0x66c8	; 0x66c8 <__floatsisf>
    543a:	20 e0       	ldi	r18, 0x00	; 0
    543c:	30 e0       	ldi	r19, 0x00	; 0
    543e:	40 e8       	ldi	r20, 0x80	; 128
    5440:	58 e3       	ldi	r21, 0x38	; 56
    5442:	0e 94 24 35 	call	0x6a48	; 0x6a48 <__mulsf3>
    5446:	f8 01       	movw	r30, r16
    5448:	60 83       	st	Z, r22
    544a:	71 83       	std	Z+1, r23	; 0x01
    544c:	82 83       	std	Z+2, r24	; 0x02
    544e:	93 83       	std	Z+3, r25	; 0x03
    5450:	6b 81       	ldd	r22, Y+3	; 0x03
    5452:	7c 81       	ldd	r23, Y+4	; 0x04
    5454:	88 27       	eor	r24, r24
    5456:	77 fd       	sbrc	r23, 7
    5458:	80 95       	com	r24
    545a:	98 2f       	mov	r25, r24
    545c:	0e 94 64 33 	call	0x66c8	; 0x66c8 <__floatsisf>
    5460:	20 e0       	ldi	r18, 0x00	; 0
    5462:	30 e0       	ldi	r19, 0x00	; 0
    5464:	40 e8       	ldi	r20, 0x80	; 128
    5466:	58 e3       	ldi	r21, 0x38	; 56
    5468:	0e 94 24 35 	call	0x6a48	; 0x6a48 <__mulsf3>
    546c:	f8 01       	movw	r30, r16
    546e:	64 83       	std	Z+4, r22	; 0x04
    5470:	75 83       	std	Z+5, r23	; 0x05
    5472:	86 83       	std	Z+6, r24	; 0x06
    5474:	97 83       	std	Z+7, r25	; 0x07
    5476:	6d 81       	ldd	r22, Y+5	; 0x05
    5478:	7e 81       	ldd	r23, Y+6	; 0x06
    547a:	88 27       	eor	r24, r24
    547c:	77 fd       	sbrc	r23, 7
    547e:	80 95       	com	r24
    5480:	98 2f       	mov	r25, r24
    5482:	0e 94 64 33 	call	0x66c8	; 0x66c8 <__floatsisf>
    5486:	20 e0       	ldi	r18, 0x00	; 0
    5488:	30 e0       	ldi	r19, 0x00	; 0
    548a:	40 e8       	ldi	r20, 0x80	; 128
    548c:	58 e3       	ldi	r21, 0x38	; 56
    548e:	0e 94 24 35 	call	0x6a48	; 0x6a48 <__mulsf3>
    5492:	f8 01       	movw	r30, r16
    5494:	60 87       	std	Z+8, r22	; 0x08
    5496:	71 87       	std	Z+9, r23	; 0x09
    5498:	82 87       	std	Z+10, r24	; 0x0a
    549a:	93 87       	std	Z+11, r25	; 0x0b
    549c:	6f 81       	ldd	r22, Y+7	; 0x07
    549e:	78 85       	ldd	r23, Y+8	; 0x08
    54a0:	88 27       	eor	r24, r24
    54a2:	77 fd       	sbrc	r23, 7
    54a4:	80 95       	com	r24
    54a6:	98 2f       	mov	r25, r24
    54a8:	0e 94 64 33 	call	0x66c8	; 0x66c8 <__floatsisf>
    54ac:	20 e0       	ldi	r18, 0x00	; 0
    54ae:	30 e0       	ldi	r19, 0x00	; 0
    54b0:	40 e8       	ldi	r20, 0x80	; 128
    54b2:	58 e3       	ldi	r21, 0x38	; 56
    54b4:	0e 94 24 35 	call	0x6a48	; 0x6a48 <__mulsf3>
    54b8:	f8 01       	movw	r30, r16
    54ba:	64 87       	std	Z+12, r22	; 0x0c
    54bc:	75 87       	std	Z+13, r23	; 0x0d
    54be:	86 87       	std	Z+14, r24	; 0x0e
    54c0:	97 87       	std	Z+15, r25	; 0x0f
    54c2:	8f 2d       	mov	r24, r15
    54c4:	28 96       	adiw	r28, 0x08	; 8
    54c6:	0f b6       	in	r0, 0x3f	; 63
    54c8:	f8 94       	cli
    54ca:	de bf       	out	0x3e, r29	; 62
    54cc:	0f be       	out	0x3f, r0	; 63
    54ce:	cd bf       	out	0x3d, r28	; 61
    54d0:	df 91       	pop	r29
    54d2:	cf 91       	pop	r28
    54d4:	1f 91       	pop	r17
    54d6:	0f 91       	pop	r16
    54d8:	ff 90       	pop	r15
    54da:	08 95       	ret

000054dc <_ZN7MPU605013dmpGetGravityEP11VectorFloatP10Quaternion>:
    54dc:	2f 92       	push	r2
    54de:	3f 92       	push	r3
    54e0:	4f 92       	push	r4
    54e2:	5f 92       	push	r5
    54e4:	6f 92       	push	r6
    54e6:	7f 92       	push	r7
    54e8:	8f 92       	push	r8
    54ea:	9f 92       	push	r9
    54ec:	af 92       	push	r10
    54ee:	bf 92       	push	r11
    54f0:	cf 92       	push	r12
    54f2:	df 92       	push	r13
    54f4:	ef 92       	push	r14
    54f6:	ff 92       	push	r15
    54f8:	0f 93       	push	r16
    54fa:	1f 93       	push	r17
    54fc:	cf 93       	push	r28
    54fe:	df 93       	push	r29
    5500:	00 d0       	rcall	.+0      	; 0x5502 <_ZN7MPU605013dmpGetGravityEP11VectorFloatP10Quaternion+0x26>
    5502:	00 d0       	rcall	.+0      	; 0x5504 <_ZN7MPU605013dmpGetGravityEP11VectorFloatP10Quaternion+0x28>
    5504:	cd b7       	in	r28, 0x3d	; 61
    5506:	de b7       	in	r29, 0x3e	; 62
    5508:	8b 01       	movw	r16, r22
    550a:	1a 01       	movw	r2, r20
    550c:	fa 01       	movw	r30, r20
    550e:	24 85       	ldd	r18, Z+12	; 0x0c
    5510:	35 85       	ldd	r19, Z+13	; 0x0d
    5512:	46 85       	ldd	r20, Z+14	; 0x0e
    5514:	57 85       	ldd	r21, Z+15	; 0x0f
    5516:	64 81       	ldd	r22, Z+4	; 0x04
    5518:	75 81       	ldd	r23, Z+5	; 0x05
    551a:	86 81       	ldd	r24, Z+6	; 0x06
    551c:	97 81       	ldd	r25, Z+7	; 0x07
    551e:	0e 94 24 35 	call	0x6a48	; 0x6a48 <__mulsf3>
    5522:	6b 01       	movw	r12, r22
    5524:	7c 01       	movw	r14, r24
    5526:	f1 01       	movw	r30, r2
    5528:	20 85       	ldd	r18, Z+8	; 0x08
    552a:	31 85       	ldd	r19, Z+9	; 0x09
    552c:	42 85       	ldd	r20, Z+10	; 0x0a
    552e:	53 85       	ldd	r21, Z+11	; 0x0b
    5530:	60 81       	ld	r22, Z
    5532:	71 81       	ldd	r23, Z+1	; 0x01
    5534:	82 81       	ldd	r24, Z+2	; 0x02
    5536:	93 81       	ldd	r25, Z+3	; 0x03
    5538:	0e 94 24 35 	call	0x6a48	; 0x6a48 <__mulsf3>
    553c:	9b 01       	movw	r18, r22
    553e:	ac 01       	movw	r20, r24
    5540:	c7 01       	movw	r24, r14
    5542:	b6 01       	movw	r22, r12
    5544:	41 d7       	rcall	.+3714   	; 0x63c8 <__subsf3>
    5546:	9b 01       	movw	r18, r22
    5548:	ac 01       	movw	r20, r24
    554a:	3f d7       	rcall	.+3710   	; 0x63ca <__addsf3>
    554c:	f8 01       	movw	r30, r16
    554e:	60 83       	st	Z, r22
    5550:	71 83       	std	Z+1, r23	; 0x01
    5552:	82 83       	std	Z+2, r24	; 0x02
    5554:	93 83       	std	Z+3, r25	; 0x03
    5556:	f1 01       	movw	r30, r2
    5558:	24 81       	ldd	r18, Z+4	; 0x04
    555a:	35 81       	ldd	r19, Z+5	; 0x05
    555c:	46 81       	ldd	r20, Z+6	; 0x06
    555e:	57 81       	ldd	r21, Z+7	; 0x07
    5560:	60 81       	ld	r22, Z
    5562:	71 81       	ldd	r23, Z+1	; 0x01
    5564:	82 81       	ldd	r24, Z+2	; 0x02
    5566:	93 81       	ldd	r25, Z+3	; 0x03
    5568:	0e 94 24 35 	call	0x6a48	; 0x6a48 <__mulsf3>
    556c:	6b 01       	movw	r12, r22
    556e:	7c 01       	movw	r14, r24
    5570:	f1 01       	movw	r30, r2
    5572:	24 85       	ldd	r18, Z+12	; 0x0c
    5574:	35 85       	ldd	r19, Z+13	; 0x0d
    5576:	46 85       	ldd	r20, Z+14	; 0x0e
    5578:	57 85       	ldd	r21, Z+15	; 0x0f
    557a:	60 85       	ldd	r22, Z+8	; 0x08
    557c:	71 85       	ldd	r23, Z+9	; 0x09
    557e:	82 85       	ldd	r24, Z+10	; 0x0a
    5580:	93 85       	ldd	r25, Z+11	; 0x0b
    5582:	0e 94 24 35 	call	0x6a48	; 0x6a48 <__mulsf3>
    5586:	9b 01       	movw	r18, r22
    5588:	ac 01       	movw	r20, r24
    558a:	c7 01       	movw	r24, r14
    558c:	b6 01       	movw	r22, r12
    558e:	1d d7       	rcall	.+3642   	; 0x63ca <__addsf3>
    5590:	9b 01       	movw	r18, r22
    5592:	ac 01       	movw	r20, r24
    5594:	1a d7       	rcall	.+3636   	; 0x63ca <__addsf3>
    5596:	f8 01       	movw	r30, r16
    5598:	64 83       	std	Z+4, r22	; 0x04
    559a:	75 83       	std	Z+5, r23	; 0x05
    559c:	86 83       	std	Z+6, r24	; 0x06
    559e:	97 83       	std	Z+7, r25	; 0x07
    55a0:	f1 01       	movw	r30, r2
    55a2:	60 81       	ld	r22, Z
    55a4:	71 81       	ldd	r23, Z+1	; 0x01
    55a6:	82 81       	ldd	r24, Z+2	; 0x02
    55a8:	93 81       	ldd	r25, Z+3	; 0x03
    55aa:	44 80       	ldd	r4, Z+4	; 0x04
    55ac:	55 80       	ldd	r5, Z+5	; 0x05
    55ae:	66 80       	ldd	r6, Z+6	; 0x06
    55b0:	77 80       	ldd	r7, Z+7	; 0x07
    55b2:	80 84       	ldd	r8, Z+8	; 0x08
    55b4:	91 84       	ldd	r9, Z+9	; 0x09
    55b6:	a2 84       	ldd	r10, Z+10	; 0x0a
    55b8:	b3 84       	ldd	r11, Z+11	; 0x0b
    55ba:	c4 84       	ldd	r12, Z+12	; 0x0c
    55bc:	d5 84       	ldd	r13, Z+13	; 0x0d
    55be:	e6 84       	ldd	r14, Z+14	; 0x0e
    55c0:	f7 84       	ldd	r15, Z+15	; 0x0f
    55c2:	9b 01       	movw	r18, r22
    55c4:	ac 01       	movw	r20, r24
    55c6:	0e 94 24 35 	call	0x6a48	; 0x6a48 <__mulsf3>
    55ca:	69 83       	std	Y+1, r22	; 0x01
    55cc:	7a 83       	std	Y+2, r23	; 0x02
    55ce:	8b 83       	std	Y+3, r24	; 0x03
    55d0:	9c 83       	std	Y+4, r25	; 0x04
    55d2:	a3 01       	movw	r20, r6
    55d4:	92 01       	movw	r18, r4
    55d6:	c3 01       	movw	r24, r6
    55d8:	b2 01       	movw	r22, r4
    55da:	0e 94 24 35 	call	0x6a48	; 0x6a48 <__mulsf3>
    55de:	9b 01       	movw	r18, r22
    55e0:	ac 01       	movw	r20, r24
    55e2:	69 81       	ldd	r22, Y+1	; 0x01
    55e4:	7a 81       	ldd	r23, Y+2	; 0x02
    55e6:	8b 81       	ldd	r24, Y+3	; 0x03
    55e8:	9c 81       	ldd	r25, Y+4	; 0x04
    55ea:	ee d6       	rcall	.+3548   	; 0x63c8 <__subsf3>
    55ec:	2b 01       	movw	r4, r22
    55ee:	3c 01       	movw	r6, r24
    55f0:	a5 01       	movw	r20, r10
    55f2:	94 01       	movw	r18, r8
    55f4:	c5 01       	movw	r24, r10
    55f6:	b4 01       	movw	r22, r8
    55f8:	0e 94 24 35 	call	0x6a48	; 0x6a48 <__mulsf3>
    55fc:	9b 01       	movw	r18, r22
    55fe:	ac 01       	movw	r20, r24
    5600:	c3 01       	movw	r24, r6
    5602:	b2 01       	movw	r22, r4
    5604:	e1 d6       	rcall	.+3522   	; 0x63c8 <__subsf3>
    5606:	4b 01       	movw	r8, r22
    5608:	5c 01       	movw	r10, r24
    560a:	a7 01       	movw	r20, r14
    560c:	96 01       	movw	r18, r12
    560e:	c7 01       	movw	r24, r14
    5610:	b6 01       	movw	r22, r12
    5612:	0e 94 24 35 	call	0x6a48	; 0x6a48 <__mulsf3>
    5616:	9b 01       	movw	r18, r22
    5618:	ac 01       	movw	r20, r24
    561a:	c5 01       	movw	r24, r10
    561c:	b4 01       	movw	r22, r8
    561e:	d5 d6       	rcall	.+3498   	; 0x63ca <__addsf3>
    5620:	f8 01       	movw	r30, r16
    5622:	60 87       	std	Z+8, r22	; 0x08
    5624:	71 87       	std	Z+9, r23	; 0x09
    5626:	82 87       	std	Z+10, r24	; 0x0a
    5628:	93 87       	std	Z+11, r25	; 0x0b
    562a:	80 e0       	ldi	r24, 0x00	; 0
    562c:	0f 90       	pop	r0
    562e:	0f 90       	pop	r0
    5630:	0f 90       	pop	r0
    5632:	0f 90       	pop	r0
    5634:	df 91       	pop	r29
    5636:	cf 91       	pop	r28
    5638:	1f 91       	pop	r17
    563a:	0f 91       	pop	r16
    563c:	ff 90       	pop	r15
    563e:	ef 90       	pop	r14
    5640:	df 90       	pop	r13
    5642:	cf 90       	pop	r12
    5644:	bf 90       	pop	r11
    5646:	af 90       	pop	r10
    5648:	9f 90       	pop	r9
    564a:	8f 90       	pop	r8
    564c:	7f 90       	pop	r7
    564e:	6f 90       	pop	r6
    5650:	5f 90       	pop	r5
    5652:	4f 90       	pop	r4
    5654:	3f 90       	pop	r3
    5656:	2f 90       	pop	r2
    5658:	08 95       	ret

0000565a <_ZN7MPU605018dmpGetYawPitchRollEPfP10QuaternionP11VectorFloat>:
    565a:	2f 92       	push	r2
    565c:	3f 92       	push	r3
    565e:	4f 92       	push	r4
    5660:	5f 92       	push	r5
    5662:	6f 92       	push	r6
    5664:	7f 92       	push	r7
    5666:	8f 92       	push	r8
    5668:	9f 92       	push	r9
    566a:	af 92       	push	r10
    566c:	bf 92       	push	r11
    566e:	cf 92       	push	r12
    5670:	df 92       	push	r13
    5672:	ef 92       	push	r14
    5674:	ff 92       	push	r15
    5676:	0f 93       	push	r16
    5678:	1f 93       	push	r17
    567a:	cf 93       	push	r28
    567c:	df 93       	push	r29
    567e:	00 d0       	rcall	.+0      	; 0x5680 <_ZN7MPU605018dmpGetYawPitchRollEPfP10QuaternionP11VectorFloat+0x26>
    5680:	00 d0       	rcall	.+0      	; 0x5682 <_ZN7MPU605018dmpGetYawPitchRollEPfP10QuaternionP11VectorFloat+0x28>
    5682:	00 d0       	rcall	.+0      	; 0x5684 <_ZN7MPU605018dmpGetYawPitchRollEPfP10QuaternionP11VectorFloat+0x2a>
    5684:	cd b7       	in	r28, 0x3d	; 61
    5686:	de b7       	in	r29, 0x3e	; 62
    5688:	5b 01       	movw	r10, r22
    568a:	8a 01       	movw	r16, r20
    568c:	3e 83       	std	Y+6, r19	; 0x06
    568e:	2d 83       	std	Y+5, r18	; 0x05
    5690:	fa 01       	movw	r30, r20
    5692:	40 80       	ld	r4, Z
    5694:	51 80       	ldd	r5, Z+1	; 0x01
    5696:	62 80       	ldd	r6, Z+2	; 0x02
    5698:	73 80       	ldd	r7, Z+3	; 0x03
    569a:	a3 01       	movw	r20, r6
    569c:	92 01       	movw	r18, r4
    569e:	c3 01       	movw	r24, r6
    56a0:	b2 01       	movw	r22, r4
    56a2:	93 d6       	rcall	.+3366   	; 0x63ca <__addsf3>
    56a4:	69 83       	std	Y+1, r22	; 0x01
    56a6:	7a 83       	std	Y+2, r23	; 0x02
    56a8:	8b 83       	std	Y+3, r24	; 0x03
    56aa:	9c 83       	std	Y+4, r25	; 0x04
    56ac:	f8 01       	movw	r30, r16
    56ae:	c4 80       	ldd	r12, Z+4	; 0x04
    56b0:	d5 80       	ldd	r13, Z+5	; 0x05
    56b2:	e6 80       	ldd	r14, Z+6	; 0x06
    56b4:	f7 80       	ldd	r15, Z+7	; 0x07
    56b6:	a7 01       	movw	r20, r14
    56b8:	96 01       	movw	r18, r12
    56ba:	c7 01       	movw	r24, r14
    56bc:	b6 01       	movw	r22, r12
    56be:	85 d6       	rcall	.+3338   	; 0x63ca <__addsf3>
    56c0:	36 2e       	mov	r3, r22
    56c2:	87 2e       	mov	r8, r23
    56c4:	98 2e       	mov	r9, r24
    56c6:	29 2e       	mov	r2, r25
    56c8:	79 81       	ldd	r23, Y+1	; 0x01
    56ca:	6a 81       	ldd	r22, Y+2	; 0x02
    56cc:	9b 81       	ldd	r25, Y+3	; 0x03
    56ce:	8c 81       	ldd	r24, Y+4	; 0x04
    56d0:	27 2f       	mov	r18, r23
    56d2:	36 2f       	mov	r19, r22
    56d4:	49 2f       	mov	r20, r25
    56d6:	58 2f       	mov	r21, r24
    56d8:	c3 01       	movw	r24, r6
    56da:	b2 01       	movw	r22, r4
    56dc:	0e 94 24 35 	call	0x6a48	; 0x6a48 <__mulsf3>
    56e0:	2b 01       	movw	r4, r22
    56e2:	3c 01       	movw	r6, r24
    56e4:	23 2d       	mov	r18, r3
    56e6:	38 2d       	mov	r19, r8
    56e8:	49 2d       	mov	r20, r9
    56ea:	52 2d       	mov	r21, r2
    56ec:	c7 01       	movw	r24, r14
    56ee:	b6 01       	movw	r22, r12
    56f0:	0e 94 24 35 	call	0x6a48	; 0x6a48 <__mulsf3>
    56f4:	9b 01       	movw	r18, r22
    56f6:	ac 01       	movw	r20, r24
    56f8:	c3 01       	movw	r24, r6
    56fa:	b2 01       	movw	r22, r4
    56fc:	66 d6       	rcall	.+3276   	; 0x63ca <__addsf3>
    56fe:	20 e0       	ldi	r18, 0x00	; 0
    5700:	30 e0       	ldi	r19, 0x00	; 0
    5702:	40 e8       	ldi	r20, 0x80	; 128
    5704:	5f e3       	ldi	r21, 0x3F	; 63
    5706:	60 d6       	rcall	.+3264   	; 0x63c8 <__subsf3>
    5708:	6b 01       	movw	r12, r22
    570a:	7c 01       	movw	r14, r24
    570c:	f8 01       	movw	r30, r16
    570e:	20 85       	ldd	r18, Z+8	; 0x08
    5710:	31 85       	ldd	r19, Z+9	; 0x09
    5712:	42 85       	ldd	r20, Z+10	; 0x0a
    5714:	53 85       	ldd	r21, Z+11	; 0x0b
    5716:	63 2d       	mov	r22, r3
    5718:	78 2d       	mov	r23, r8
    571a:	89 2d       	mov	r24, r9
    571c:	92 2d       	mov	r25, r2
    571e:	0e 94 24 35 	call	0x6a48	; 0x6a48 <__mulsf3>
    5722:	2b 01       	movw	r4, r22
    5724:	3c 01       	movw	r6, r24
    5726:	f8 01       	movw	r30, r16
    5728:	24 85       	ldd	r18, Z+12	; 0x0c
    572a:	35 85       	ldd	r19, Z+13	; 0x0d
    572c:	46 85       	ldd	r20, Z+14	; 0x0e
    572e:	57 85       	ldd	r21, Z+15	; 0x0f
    5730:	b9 81       	ldd	r27, Y+1	; 0x01
    5732:	aa 81       	ldd	r26, Y+2	; 0x02
    5734:	1b 81       	ldd	r17, Y+3	; 0x03
    5736:	0c 81       	ldd	r16, Y+4	; 0x04
    5738:	6b 2f       	mov	r22, r27
    573a:	7a 2f       	mov	r23, r26
    573c:	81 2f       	mov	r24, r17
    573e:	90 2f       	mov	r25, r16
    5740:	0e 94 24 35 	call	0x6a48	; 0x6a48 <__mulsf3>
    5744:	9b 01       	movw	r18, r22
    5746:	ac 01       	movw	r20, r24
    5748:	c3 01       	movw	r24, r6
    574a:	b2 01       	movw	r22, r4
    574c:	3d d6       	rcall	.+3194   	; 0x63c8 <__subsf3>
    574e:	a7 01       	movw	r20, r14
    5750:	96 01       	movw	r18, r12
    5752:	c5 d6       	rcall	.+3466   	; 0x64de <atan2>
    5754:	f5 01       	movw	r30, r10
    5756:	60 83       	st	Z, r22
    5758:	71 83       	std	Z+1, r23	; 0x01
    575a:	82 83       	std	Z+2, r24	; 0x02
    575c:	93 83       	std	Z+3, r25	; 0x03
    575e:	ed 81       	ldd	r30, Y+5	; 0x05
    5760:	fe 81       	ldd	r31, Y+6	; 0x06
    5762:	64 81       	ldd	r22, Z+4	; 0x04
    5764:	75 81       	ldd	r23, Z+5	; 0x05
    5766:	86 81       	ldd	r24, Z+6	; 0x06
    5768:	97 81       	ldd	r25, Z+7	; 0x07
    576a:	c0 84       	ldd	r12, Z+8	; 0x08
    576c:	d1 84       	ldd	r13, Z+9	; 0x09
    576e:	e2 84       	ldd	r14, Z+10	; 0x0a
    5770:	f3 84       	ldd	r15, Z+11	; 0x0b
    5772:	9b 01       	movw	r18, r22
    5774:	ac 01       	movw	r20, r24
    5776:	0e 94 24 35 	call	0x6a48	; 0x6a48 <__mulsf3>
    577a:	2b 01       	movw	r4, r22
    577c:	3c 01       	movw	r6, r24
    577e:	a7 01       	movw	r20, r14
    5780:	96 01       	movw	r18, r12
    5782:	c7 01       	movw	r24, r14
    5784:	b6 01       	movw	r22, r12
    5786:	0e 94 24 35 	call	0x6a48	; 0x6a48 <__mulsf3>
    578a:	9b 01       	movw	r18, r22
    578c:	ac 01       	movw	r20, r24
    578e:	c3 01       	movw	r24, r6
    5790:	b2 01       	movw	r22, r4
    5792:	1b d6       	rcall	.+3126   	; 0x63ca <__addsf3>
    5794:	0e 94 91 35 	call	0x6b22	; 0x6b22 <sqrt>
    5798:	9b 01       	movw	r18, r22
    579a:	ac 01       	movw	r20, r24
    579c:	ed 81       	ldd	r30, Y+5	; 0x05
    579e:	fe 81       	ldd	r31, Y+6	; 0x06
    57a0:	60 81       	ld	r22, Z
    57a2:	71 81       	ldd	r23, Z+1	; 0x01
    57a4:	82 81       	ldd	r24, Z+2	; 0x02
    57a6:	93 81       	ldd	r25, Z+3	; 0x03
    57a8:	f4 d6       	rcall	.+3560   	; 0x6592 <__divsf3>
    57aa:	c4 d6       	rcall	.+3464   	; 0x6534 <atan>
    57ac:	f5 01       	movw	r30, r10
    57ae:	64 83       	std	Z+4, r22	; 0x04
    57b0:	75 83       	std	Z+5, r23	; 0x05
    57b2:	86 83       	std	Z+6, r24	; 0x06
    57b4:	97 83       	std	Z+7, r25	; 0x07
    57b6:	ed 81       	ldd	r30, Y+5	; 0x05
    57b8:	fe 81       	ldd	r31, Y+6	; 0x06
    57ba:	60 81       	ld	r22, Z
    57bc:	71 81       	ldd	r23, Z+1	; 0x01
    57be:	82 81       	ldd	r24, Z+2	; 0x02
    57c0:	93 81       	ldd	r25, Z+3	; 0x03
    57c2:	c0 84       	ldd	r12, Z+8	; 0x08
    57c4:	d1 84       	ldd	r13, Z+9	; 0x09
    57c6:	e2 84       	ldd	r14, Z+10	; 0x0a
    57c8:	f3 84       	ldd	r15, Z+11	; 0x0b
    57ca:	9b 01       	movw	r18, r22
    57cc:	ac 01       	movw	r20, r24
    57ce:	0e 94 24 35 	call	0x6a48	; 0x6a48 <__mulsf3>
    57d2:	2b 01       	movw	r4, r22
    57d4:	3c 01       	movw	r6, r24
    57d6:	a7 01       	movw	r20, r14
    57d8:	96 01       	movw	r18, r12
    57da:	c7 01       	movw	r24, r14
    57dc:	b6 01       	movw	r22, r12
    57de:	0e 94 24 35 	call	0x6a48	; 0x6a48 <__mulsf3>
    57e2:	9b 01       	movw	r18, r22
    57e4:	ac 01       	movw	r20, r24
    57e6:	c3 01       	movw	r24, r6
    57e8:	b2 01       	movw	r22, r4
    57ea:	ef d5       	rcall	.+3038   	; 0x63ca <__addsf3>
    57ec:	0e 94 91 35 	call	0x6b22	; 0x6b22 <sqrt>
    57f0:	9b 01       	movw	r18, r22
    57f2:	ac 01       	movw	r20, r24
    57f4:	ed 81       	ldd	r30, Y+5	; 0x05
    57f6:	fe 81       	ldd	r31, Y+6	; 0x06
    57f8:	64 81       	ldd	r22, Z+4	; 0x04
    57fa:	75 81       	ldd	r23, Z+5	; 0x05
    57fc:	86 81       	ldd	r24, Z+6	; 0x06
    57fe:	97 81       	ldd	r25, Z+7	; 0x07
    5800:	c8 d6       	rcall	.+3472   	; 0x6592 <__divsf3>
    5802:	98 d6       	rcall	.+3376   	; 0x6534 <atan>
    5804:	f5 01       	movw	r30, r10
    5806:	60 87       	std	Z+8, r22	; 0x08
    5808:	71 87       	std	Z+9, r23	; 0x09
    580a:	82 87       	std	Z+10, r24	; 0x0a
    580c:	93 87       	std	Z+11, r25	; 0x0b
    580e:	80 e0       	ldi	r24, 0x00	; 0
    5810:	26 96       	adiw	r28, 0x06	; 6
    5812:	0f b6       	in	r0, 0x3f	; 63
    5814:	f8 94       	cli
    5816:	de bf       	out	0x3e, r29	; 62
    5818:	0f be       	out	0x3f, r0	; 63
    581a:	cd bf       	out	0x3d, r28	; 61
    581c:	df 91       	pop	r29
    581e:	cf 91       	pop	r28
    5820:	1f 91       	pop	r17
    5822:	0f 91       	pop	r16
    5824:	ff 90       	pop	r15
    5826:	ef 90       	pop	r14
    5828:	df 90       	pop	r13
    582a:	cf 90       	pop	r12
    582c:	bf 90       	pop	r11
    582e:	af 90       	pop	r10
    5830:	9f 90       	pop	r9
    5832:	8f 90       	pop	r8
    5834:	7f 90       	pop	r7
    5836:	6f 90       	pop	r6
    5838:	5f 90       	pop	r5
    583a:	4f 90       	pop	r4
    583c:	3f 90       	pop	r3
    583e:	2f 90       	pop	r2
    5840:	08 95       	ret

00005842 <_ZN7MPU605020dmpGetFIFOPacketSizeEv>:
    5842:	fc 01       	movw	r30, r24
    5844:	82 81       	ldd	r24, Z+2	; 0x02
    5846:	93 81       	ldd	r25, Z+3	; 0x03
    5848:	08 95       	ret

0000584a <__vector_4>:
    584a:	1f 92       	push	r1
    584c:	0f 92       	push	r0
    584e:	0f b6       	in	r0, 0x3f	; 63
    5850:	0f 92       	push	r0
    5852:	11 24       	eor	r1, r1
    5854:	8f 93       	push	r24
    5856:	81 e0       	ldi	r24, 0x01	; 1
    5858:	80 93 3f 19 	sts	0x193F, r24
    585c:	8f 91       	pop	r24
    585e:	0f 90       	pop	r0
    5860:	0f be       	out	0x3f, r0	; 63
    5862:	0f 90       	pop	r0
    5864:	1f 90       	pop	r1
    5866:	18 95       	reti

00005868 <_Z17enable_interrupt0v>:
    5868:	eb e6       	ldi	r30, 0x6B	; 107
    586a:	f0 e0       	ldi	r31, 0x00	; 0
    586c:	80 81       	ld	r24, Z
    586e:	81 60       	ori	r24, 0x01	; 1
    5870:	80 83       	st	Z, r24
    5872:	e8 e6       	ldi	r30, 0x68	; 104
    5874:	f0 e0       	ldi	r31, 0x00	; 0
    5876:	80 81       	ld	r24, Z
    5878:	81 60       	ori	r24, 0x01	; 1
    587a:	80 83       	st	Z, r24
    587c:	78 94       	sei
    587e:	08 95       	ret

00005880 <_Z9MPU_get_yv>:
    5880:	e0 e4       	ldi	r30, 0x40	; 64
    5882:	f9 e1       	ldi	r31, 0x19	; 25
    5884:	50 81       	ld	r21, Z
    5886:	41 81       	ldd	r20, Z+1	; 0x01
    5888:	32 81       	ldd	r19, Z+2	; 0x02
    588a:	23 81       	ldd	r18, Z+3	; 0x03
    588c:	65 2f       	mov	r22, r21
    588e:	74 2f       	mov	r23, r20
    5890:	83 2f       	mov	r24, r19
    5892:	92 2f       	mov	r25, r18
    5894:	08 95       	ret

00005896 <_Z8MPU_initv>:
    5896:	61 e0       	ldi	r22, 0x01	; 1
    5898:	80 e9       	ldi	r24, 0x90	; 144
    589a:	91 e0       	ldi	r25, 0x01	; 1
    589c:	0e 94 38 1b 	call	0x3670	; 0x3670 <_ZN8Fastwire5setupEih>
    58a0:	84 ed       	ldi	r24, 0xD4	; 212
    58a2:	99 e1       	ldi	r25, 0x19	; 25
    58a4:	23 db       	rcall	.-2490   	; 0x4eec <_ZN7MPU605013dmpInitializeEv>
    58a6:	80 93 be 19 	sts	0x19BE, r24
    58aa:	6c ed       	ldi	r22, 0xDC	; 220
    58ac:	70 e0       	ldi	r23, 0x00	; 0
    58ae:	84 ed       	ldi	r24, 0xD4	; 212
    58b0:	99 e1       	ldi	r25, 0x19	; 25
    58b2:	b9 d8       	rcall	.-3726   	; 0x4a26 <_ZN7MPU605014setXGyroOffsetEi>
    58b4:	6c e4       	ldi	r22, 0x4C	; 76
    58b6:	70 e0       	ldi	r23, 0x00	; 0
    58b8:	84 ed       	ldi	r24, 0xD4	; 212
    58ba:	99 e1       	ldi	r25, 0x19	; 25
    58bc:	b9 d8       	rcall	.-3726   	; 0x4a30 <_ZN7MPU605014setYGyroOffsetEi>
    58be:	6b ea       	ldi	r22, 0xAB	; 171
    58c0:	7f ef       	ldi	r23, 0xFF	; 255
    58c2:	84 ed       	ldi	r24, 0xD4	; 212
    58c4:	99 e1       	ldi	r25, 0x19	; 25
    58c6:	b9 d8       	rcall	.-3726   	; 0x4a3a <_ZN7MPU605014setZGyroOffsetEi>
    58c8:	6c ef       	ldi	r22, 0xFC	; 252
    58ca:	76 e0       	ldi	r23, 0x06	; 6
    58cc:	84 ed       	ldi	r24, 0xD4	; 212
    58ce:	99 e1       	ldi	r25, 0x19	; 25
    58d0:	a5 d8       	rcall	.-3766   	; 0x4a1c <_ZN7MPU605015setZAccelOffsetEi>
    58d2:	80 91 be 19 	lds	r24, 0x19BE
    58d6:	81 11       	cpse	r24, r1
    58d8:	15 c0       	rjmp	.+42     	; 0x5904 <_Z8MPU_initv+0x6e>
    58da:	61 e0       	ldi	r22, 0x01	; 1
    58dc:	84 ed       	ldi	r24, 0xD4	; 212
    58de:	99 e1       	ldi	r25, 0x19	; 25
    58e0:	b1 d8       	rcall	.-3742   	; 0x4a44 <_ZN7MPU605013setDMPEnabledEb>
    58e2:	c2 df       	rcall	.-124    	; 0x5868 <_Z17enable_interrupt0v>
    58e4:	84 ed       	ldi	r24, 0xD4	; 212
    58e6:	99 e1       	ldi	r25, 0x19	; 25
    58e8:	0e 94 11 24 	call	0x4822	; 0x4822 <_ZN7MPU605012getIntStatusEv>
    58ec:	80 93 bf 19 	sts	0x19BF, r24
    58f0:	81 e0       	ldi	r24, 0x01	; 1
    58f2:	80 93 c0 19 	sts	0x19C0, r24
    58f6:	84 ed       	ldi	r24, 0xD4	; 212
    58f8:	99 e1       	ldi	r25, 0x19	; 25
    58fa:	a3 df       	rcall	.-186    	; 0x5842 <_ZN7MPU605020dmpGetFIFOPacketSizeEv>
    58fc:	90 93 bd 19 	sts	0x19BD, r25
    5900:	80 93 bc 19 	sts	0x19BC, r24
    5904:	08 95       	ret

00005906 <_Z10MPU_updatev>:
    5906:	80 91 3f 19 	lds	r24, 0x193F
    590a:	81 11       	cpse	r24, r1
    590c:	58 c0       	rjmp	.+176    	; 0x59be <_Z10MPU_updatev+0xb8>
    590e:	20 91 ba 19 	lds	r18, 0x19BA
    5912:	30 91 bb 19 	lds	r19, 0x19BB
    5916:	80 91 bc 19 	lds	r24, 0x19BC
    591a:	90 91 bd 19 	lds	r25, 0x19BD
    591e:	28 17       	cp	r18, r24
    5920:	39 07       	cpc	r19, r25
    5922:	08 f4       	brcc	.+2      	; 0x5926 <_Z10MPU_updatev+0x20>
    5924:	61 c0       	rjmp	.+194    	; 0x59e8 <_Z10MPU_updatev+0xe2>
    5926:	4b c0       	rjmp	.+150    	; 0x59be <_Z10MPU_updatev+0xb8>
    5928:	81 15       	cp	r24, r1
    592a:	34 e0       	ldi	r19, 0x04	; 4
    592c:	93 07       	cpc	r25, r19
    592e:	21 f4       	brne	.+8      	; 0x5938 <_Z10MPU_updatev+0x32>
    5930:	84 ed       	ldi	r24, 0xD4	; 212
    5932:	99 e1       	ldi	r25, 0x19	; 25
    5934:	0c 94 2e 24 	jmp	0x485c	; 0x485c <_ZN7MPU60509resetFIFOEv>
    5938:	21 ff       	sbrs	r18, 1
    593a:	56 c0       	rjmp	.+172    	; 0x59e8 <_Z10MPU_updatev+0xe2>
    593c:	40 91 bc 19 	lds	r20, 0x19BC
    5940:	50 91 bd 19 	lds	r21, 0x19BD
    5944:	84 17       	cp	r24, r20
    5946:	95 07       	cpc	r25, r21
    5948:	78 f4       	brcc	.+30     	; 0x5968 <_Z10MPU_updatev+0x62>
    594a:	84 ed       	ldi	r24, 0xD4	; 212
    594c:	99 e1       	ldi	r25, 0x19	; 25
    594e:	0e 94 50 24 	call	0x48a0	; 0x48a0 <_ZN7MPU605012getFIFOCountEv>
    5952:	90 93 bb 19 	sts	0x19BB, r25
    5956:	80 93 ba 19 	sts	0x19BA, r24
    595a:	40 91 bc 19 	lds	r20, 0x19BC
    595e:	50 91 bd 19 	lds	r21, 0x19BD
    5962:	84 17       	cp	r24, r20
    5964:	95 07       	cpc	r25, r21
    5966:	88 f3       	brcs	.-30     	; 0x594a <_Z10MPU_updatev+0x44>
    5968:	6a e7       	ldi	r22, 0x7A	; 122
    596a:	79 e1       	ldi	r23, 0x19	; 25
    596c:	84 ed       	ldi	r24, 0xD4	; 212
    596e:	99 e1       	ldi	r25, 0x19	; 25
    5970:	0e 94 6d 24 	call	0x48da	; 0x48da <_ZN7MPU605012getFIFOBytesEPhj>
    5974:	80 91 ba 19 	lds	r24, 0x19BA
    5978:	90 91 bb 19 	lds	r25, 0x19BB
    597c:	20 91 bc 19 	lds	r18, 0x19BC
    5980:	30 91 bd 19 	lds	r19, 0x19BD
    5984:	82 1b       	sub	r24, r18
    5986:	93 0b       	sbc	r25, r19
    5988:	90 93 bb 19 	sts	0x19BB, r25
    598c:	80 93 ba 19 	sts	0x19BA, r24
    5990:	4a e7       	ldi	r20, 0x7A	; 122
    5992:	59 e1       	ldi	r21, 0x19	; 25
    5994:	6a e6       	ldi	r22, 0x6A	; 106
    5996:	79 e1       	ldi	r23, 0x19	; 25
    5998:	84 ed       	ldi	r24, 0xD4	; 212
    599a:	99 e1       	ldi	r25, 0x19	; 25
    599c:	31 dd       	rcall	.-1438   	; 0x5400 <_ZN7MPU605016dmpGetQuaternionEP10QuaternionPKh>
    599e:	4a e6       	ldi	r20, 0x6A	; 106
    59a0:	59 e1       	ldi	r21, 0x19	; 25
    59a2:	6c e4       	ldi	r22, 0x4C	; 76
    59a4:	79 e1       	ldi	r23, 0x19	; 25
    59a6:	84 ed       	ldi	r24, 0xD4	; 212
    59a8:	99 e1       	ldi	r25, 0x19	; 25
    59aa:	98 dd       	rcall	.-1232   	; 0x54dc <_ZN7MPU605013dmpGetGravityEP11VectorFloatP10Quaternion>
    59ac:	2c e4       	ldi	r18, 0x4C	; 76
    59ae:	39 e1       	ldi	r19, 0x19	; 25
    59b0:	4a e6       	ldi	r20, 0x6A	; 106
    59b2:	59 e1       	ldi	r21, 0x19	; 25
    59b4:	60 e4       	ldi	r22, 0x40	; 64
    59b6:	79 e1       	ldi	r23, 0x19	; 25
    59b8:	84 ed       	ldi	r24, 0xD4	; 212
    59ba:	99 e1       	ldi	r25, 0x19	; 25
    59bc:	4e ce       	rjmp	.-868    	; 0x565a <_ZN7MPU605018dmpGetYawPitchRollEPfP10QuaternionP11VectorFloat>
    59be:	10 92 3f 19 	sts	0x193F, r1
    59c2:	84 ed       	ldi	r24, 0xD4	; 212
    59c4:	99 e1       	ldi	r25, 0x19	; 25
    59c6:	0e 94 11 24 	call	0x4822	; 0x4822 <_ZN7MPU605012getIntStatusEv>
    59ca:	80 93 bf 19 	sts	0x19BF, r24
    59ce:	84 ed       	ldi	r24, 0xD4	; 212
    59d0:	99 e1       	ldi	r25, 0x19	; 25
    59d2:	0e 94 50 24 	call	0x48a0	; 0x48a0 <_ZN7MPU605012getFIFOCountEv>
    59d6:	90 93 bb 19 	sts	0x19BB, r25
    59da:	80 93 ba 19 	sts	0x19BA, r24
    59de:	20 91 bf 19 	lds	r18, 0x19BF
    59e2:	24 ff       	sbrs	r18, 4
    59e4:	a1 cf       	rjmp	.-190    	; 0x5928 <_Z10MPU_updatev+0x22>
    59e6:	a4 cf       	rjmp	.-184    	; 0x5930 <_Z10MPU_updatev+0x2a>
    59e8:	08 95       	ret

000059ea <_GLOBAL__sub_I__ZN7MPU605013dmpInitializeEv>:
    59ea:	84 ed       	ldi	r24, 0xD4	; 212
    59ec:	99 e1       	ldi	r25, 0x19	; 25
    59ee:	0e 94 c7 23 	call	0x478e	; 0x478e <_ZN7MPU6050C1Ev>
    59f2:	81 ec       	ldi	r24, 0xC1	; 193
    59f4:	99 e1       	ldi	r25, 0x19	; 25
    59f6:	0e 94 c7 23 	call	0x478e	; 0x478e <_ZN7MPU6050C1Ev>
    59fa:	80 e0       	ldi	r24, 0x00	; 0
    59fc:	90 e0       	ldi	r25, 0x00	; 0
    59fe:	a0 e8       	ldi	r26, 0x80	; 128
    5a00:	bf e3       	ldi	r27, 0x3F	; 63
    5a02:	80 93 6a 19 	sts	0x196A, r24
    5a06:	90 93 6b 19 	sts	0x196B, r25
    5a0a:	a0 93 6c 19 	sts	0x196C, r26
    5a0e:	b0 93 6d 19 	sts	0x196D, r27
    5a12:	10 92 6e 19 	sts	0x196E, r1
    5a16:	10 92 6f 19 	sts	0x196F, r1
    5a1a:	10 92 70 19 	sts	0x1970, r1
    5a1e:	10 92 71 19 	sts	0x1971, r1
    5a22:	10 92 72 19 	sts	0x1972, r1
    5a26:	10 92 73 19 	sts	0x1973, r1
    5a2a:	10 92 74 19 	sts	0x1974, r1
    5a2e:	10 92 75 19 	sts	0x1975, r1
    5a32:	10 92 76 19 	sts	0x1976, r1
    5a36:	10 92 77 19 	sts	0x1977, r1
    5a3a:	10 92 78 19 	sts	0x1978, r1
    5a3e:	10 92 79 19 	sts	0x1979, r1
    5a42:	10 92 65 19 	sts	0x1965, r1
    5a46:	10 92 64 19 	sts	0x1964, r1
    5a4a:	10 92 67 19 	sts	0x1967, r1
    5a4e:	10 92 66 19 	sts	0x1966, r1
    5a52:	10 92 69 19 	sts	0x1969, r1
    5a56:	10 92 68 19 	sts	0x1968, r1
    5a5a:	10 92 5f 19 	sts	0x195F, r1
    5a5e:	10 92 5e 19 	sts	0x195E, r1
    5a62:	10 92 61 19 	sts	0x1961, r1
    5a66:	10 92 60 19 	sts	0x1960, r1
    5a6a:	10 92 63 19 	sts	0x1963, r1
    5a6e:	10 92 62 19 	sts	0x1962, r1
    5a72:	10 92 59 19 	sts	0x1959, r1
    5a76:	10 92 58 19 	sts	0x1958, r1
    5a7a:	10 92 5b 19 	sts	0x195B, r1
    5a7e:	10 92 5a 19 	sts	0x195A, r1
    5a82:	10 92 5d 19 	sts	0x195D, r1
    5a86:	10 92 5c 19 	sts	0x195C, r1
    5a8a:	10 92 4c 19 	sts	0x194C, r1
    5a8e:	10 92 4d 19 	sts	0x194D, r1
    5a92:	10 92 4e 19 	sts	0x194E, r1
    5a96:	10 92 4f 19 	sts	0x194F, r1
    5a9a:	10 92 50 19 	sts	0x1950, r1
    5a9e:	10 92 51 19 	sts	0x1951, r1
    5aa2:	10 92 52 19 	sts	0x1952, r1
    5aa6:	10 92 53 19 	sts	0x1953, r1
    5aaa:	10 92 54 19 	sts	0x1954, r1
    5aae:	10 92 55 19 	sts	0x1955, r1
    5ab2:	10 92 56 19 	sts	0x1956, r1
    5ab6:	10 92 57 19 	sts	0x1957, r1
    5aba:	08 95       	ret

00005abc <_Z20servo_check_tx_readyv>:
    5abc:	80 91 c8 00 	lds	r24, 0x00C8
    5ac0:	80 72       	andi	r24, 0x20	; 32
    5ac2:	08 95       	ret

00005ac4 <_Z16servo_write_byteh>:
    5ac4:	cf 93       	push	r28
    5ac6:	c8 2f       	mov	r28, r24
    5ac8:	f9 df       	rcall	.-14     	; 0x5abc <_Z20servo_check_tx_readyv>
    5aca:	88 23       	and	r24, r24
    5acc:	e9 f3       	breq	.-6      	; 0x5ac8 <_Z16servo_write_byteh+0x4>
    5ace:	c0 93 ce 00 	sts	0x00CE, r28
    5ad2:	cf 91       	pop	r28
    5ad4:	08 95       	ret

00005ad6 <_Z17send_servo_packethhh>:
    5ad6:	0f 93       	push	r16
    5ad8:	1f 93       	push	r17
    5ada:	cf 93       	push	r28
    5adc:	df 93       	push	r29
    5ade:	9f ef       	ldi	r25, 0xFF	; 255
    5ae0:	90 93 ef 19 	sts	0x19EF, r25
    5ae4:	90 93 f0 19 	sts	0x19F0, r25
    5ae8:	80 93 f1 19 	sts	0x19F1, r24
    5aec:	84 2f       	mov	r24, r20
    5aee:	8e 5f       	subi	r24, 0xFE	; 254
    5af0:	80 93 f2 19 	sts	0x19F2, r24
    5af4:	60 93 f3 19 	sts	0x19F3, r22
    5af8:	44 23       	and	r20, r20
    5afa:	c1 f1       	breq	.+112    	; 0x5b6c <_Z17send_servo_packethhh+0x96>
    5afc:	ef e6       	ldi	r30, 0x6F	; 111
    5afe:	fa e1       	ldi	r31, 0x1A	; 26
    5b00:	a4 ef       	ldi	r26, 0xF4	; 244
    5b02:	b9 e1       	ldi	r27, 0x19	; 25
    5b04:	83 50       	subi	r24, 0x03	; 3
    5b06:	90 e0       	ldi	r25, 0x00	; 0
    5b08:	80 59       	subi	r24, 0x90	; 144
    5b0a:	95 4e       	sbci	r25, 0xE5	; 229
    5b0c:	21 91       	ld	r18, Z+
    5b0e:	2d 93       	st	X+, r18
    5b10:	e8 17       	cp	r30, r24
    5b12:	f9 07       	cpc	r31, r25
    5b14:	d9 f7       	brne	.-10     	; 0x5b0c <_Z17send_servo_packethhh+0x36>
    5b16:	4a 5f       	subi	r20, 0xFA	; 250
    5b18:	24 2f       	mov	r18, r20
    5b1a:	30 e0       	ldi	r19, 0x00	; 0
    5b1c:	21 50       	subi	r18, 0x01	; 1
    5b1e:	31 09       	sbc	r19, r1
    5b20:	23 30       	cpi	r18, 0x03	; 3
    5b22:	31 05       	cpc	r19, r1
    5b24:	34 f5       	brge	.+76     	; 0x5b72 <_Z17send_servo_packethhh+0x9c>
    5b26:	82 e0       	ldi	r24, 0x02	; 2
    5b28:	90 e0       	ldi	r25, 0x00	; 0
    5b2a:	60 e0       	ldi	r22, 0x00	; 0
    5b2c:	0b c0       	rjmp	.+22     	; 0x5b44 <_Z17send_servo_packethhh+0x6e>
    5b2e:	fc 01       	movw	r30, r24
    5b30:	e1 51       	subi	r30, 0x11	; 17
    5b32:	f6 4e       	sbci	r31, 0xE6	; 230
    5b34:	80 81       	ld	r24, Z
    5b36:	68 0f       	add	r22, r24
    5b38:	5f 5f       	subi	r21, 0xFF	; 255
    5b3a:	85 2f       	mov	r24, r21
    5b3c:	90 e0       	ldi	r25, 0x00	; 0
    5b3e:	82 17       	cp	r24, r18
    5b40:	93 07       	cpc	r25, r19
    5b42:	ac f3       	brlt	.-22     	; 0x5b2e <_Z17send_servo_packethhh+0x58>
    5b44:	fc 01       	movw	r30, r24
    5b46:	e1 51       	subi	r30, 0x11	; 17
    5b48:	f6 4e       	sbci	r31, 0xE6	; 230
    5b4a:	60 95       	com	r22
    5b4c:	60 83       	st	Z, r22
    5b4e:	44 23       	and	r20, r20
    5b50:	a9 f0       	breq	.+42     	; 0x5b7c <_Z17send_servo_packethhh+0xa6>
    5b52:	cf ee       	ldi	r28, 0xEF	; 239
    5b54:	d9 e1       	ldi	r29, 0x19	; 25
    5b56:	41 50       	subi	r20, 0x01	; 1
    5b58:	04 2f       	mov	r16, r20
    5b5a:	10 e0       	ldi	r17, 0x00	; 0
    5b5c:	00 51       	subi	r16, 0x10	; 16
    5b5e:	16 4e       	sbci	r17, 0xE6	; 230
    5b60:	89 91       	ld	r24, Y+
    5b62:	b0 df       	rcall	.-160    	; 0x5ac4 <_Z16servo_write_byteh>
    5b64:	c0 17       	cp	r28, r16
    5b66:	d1 07       	cpc	r29, r17
    5b68:	d9 f7       	brne	.-10     	; 0x5b60 <_Z17send_servo_packethhh+0x8a>
    5b6a:	08 c0       	rjmp	.+16     	; 0x5b7c <_Z17send_servo_packethhh+0xa6>
    5b6c:	25 e0       	ldi	r18, 0x05	; 5
    5b6e:	30 e0       	ldi	r19, 0x00	; 0
    5b70:	46 e0       	ldi	r20, 0x06	; 6
    5b72:	82 e0       	ldi	r24, 0x02	; 2
    5b74:	90 e0       	ldi	r25, 0x00	; 0
    5b76:	60 e0       	ldi	r22, 0x00	; 0
    5b78:	52 e0       	ldi	r21, 0x02	; 2
    5b7a:	d9 cf       	rjmp	.-78     	; 0x5b2e <_Z17send_servo_packethhh+0x58>
    5b7c:	df 91       	pop	r29
    5b7e:	cf 91       	pop	r28
    5b80:	1f 91       	pop	r17
    5b82:	0f 91       	pop	r16
    5b84:	08 95       	ret

00005b86 <_Z10SERVO_gotohdj>:
    5b86:	9f 92       	push	r9
    5b88:	af 92       	push	r10
    5b8a:	bf 92       	push	r11
    5b8c:	cf 92       	push	r12
    5b8e:	df 92       	push	r13
    5b90:	ef 92       	push	r14
    5b92:	ff 92       	push	r15
    5b94:	0f 93       	push	r16
    5b96:	1f 93       	push	r17
    5b98:	cf 93       	push	r28
    5b9a:	df 93       	push	r29
    5b9c:	c8 2f       	mov	r28, r24
    5b9e:	cb 01       	movw	r24, r22
    5ba0:	ba 01       	movw	r22, r20
    5ba2:	12 2f       	mov	r17, r18
    5ba4:	d3 2f       	mov	r29, r19
    5ba6:	5c 98       	cbi	0x0b, 4	; 11
    5ba8:	ef e3       	ldi	r30, 0x3F	; 63
    5baa:	ff e1       	ldi	r31, 0x1F	; 31
    5bac:	31 97       	sbiw	r30, 0x01	; 1
    5bae:	f1 f7       	brne	.-4      	; 0x5bac <_Z10SERVO_gotohdj+0x26>
    5bb0:	00 c0       	rjmp	.+0      	; 0x5bb2 <_Z10SERVO_gotohdj+0x2c>
    5bb2:	00 00       	nop
    5bb4:	20 e0       	ldi	r18, 0x00	; 0
    5bb6:	30 e0       	ldi	r19, 0x00	; 0
    5bb8:	46 e1       	ldi	r20, 0x16	; 22
    5bba:	53 e4       	ldi	r21, 0x43	; 67
    5bbc:	45 d7       	rcall	.+3722   	; 0x6a48 <__mulsf3>
    5bbe:	26 e5       	ldi	r18, 0x56	; 86
    5bc0:	3e e0       	ldi	r19, 0x0E	; 14
    5bc2:	49 e4       	ldi	r20, 0x49	; 73
    5bc4:	50 e4       	ldi	r21, 0x40	; 64
    5bc6:	e5 d4       	rcall	.+2506   	; 0x6592 <__divsf3>
    5bc8:	20 e0       	ldi	r18, 0x00	; 0
    5bca:	30 e0       	ldi	r19, 0x00	; 0
    5bcc:	46 e1       	ldi	r20, 0x16	; 22
    5bce:	53 e4       	ldi	r21, 0x43	; 67
    5bd0:	fc d3       	rcall	.+2040   	; 0x63ca <__addsf3>
    5bd2:	96 2e       	mov	r9, r22
    5bd4:	e7 2e       	mov	r14, r23
    5bd6:	f8 2e       	mov	r15, r24
    5bd8:	09 2f       	mov	r16, r25
    5bda:	a6 2e       	mov	r10, r22
    5bdc:	b7 2e       	mov	r11, r23
    5bde:	c8 2e       	mov	r12, r24
    5be0:	d9 2e       	mov	r13, r25
    5be2:	20 e0       	ldi	r18, 0x00	; 0
    5be4:	30 e0       	ldi	r19, 0x00	; 0
    5be6:	46 e9       	ldi	r20, 0x96	; 150
    5be8:	53 e4       	ldi	r21, 0x43	; 67
    5bea:	23 d7       	rcall	.+3654   	; 0x6a32 <__gesf2>
    5bec:	18 16       	cp	r1, r24
    5bee:	5c f0       	brlt	.+22     	; 0x5c06 <_Z10SERVO_gotohdj+0x80>
    5bf0:	20 e0       	ldi	r18, 0x00	; 0
    5bf2:	30 e0       	ldi	r19, 0x00	; 0
    5bf4:	a9 01       	movw	r20, r18
    5bf6:	69 2d       	mov	r22, r9
    5bf8:	7e 2d       	mov	r23, r14
    5bfa:	8f 2d       	mov	r24, r15
    5bfc:	90 2f       	mov	r25, r16
    5bfe:	c2 d4       	rcall	.+2436   	; 0x6584 <__cmpsf2>
    5c00:	88 23       	and	r24, r24
    5c02:	84 f4       	brge	.+32     	; 0x5c24 <_Z10SERVO_gotohdj+0x9e>
    5c04:	0b c0       	rjmp	.+22     	; 0x5c1c <_Z10SERVO_gotohdj+0x96>
    5c06:	a1 2c       	mov	r10, r1
    5c08:	b1 2c       	mov	r11, r1
    5c0a:	0f 2e       	mov	r0, r31
    5c0c:	f6 e9       	ldi	r31, 0x96	; 150
    5c0e:	cf 2e       	mov	r12, r31
    5c10:	f0 2d       	mov	r31, r0
    5c12:	0f 2e       	mov	r0, r31
    5c14:	f3 e4       	ldi	r31, 0x43	; 67
    5c16:	df 2e       	mov	r13, r31
    5c18:	f0 2d       	mov	r31, r0
    5c1a:	04 c0       	rjmp	.+8      	; 0x5c24 <_Z10SERVO_gotohdj+0x9e>
    5c1c:	a1 2c       	mov	r10, r1
    5c1e:	b1 2c       	mov	r11, r1
    5c20:	c1 2c       	mov	r12, r1
    5c22:	d1 2c       	mov	r13, r1
    5c24:	20 e0       	ldi	r18, 0x00	; 0
    5c26:	30 ec       	ldi	r19, 0xC0	; 192
    5c28:	4f e7       	ldi	r20, 0x7F	; 127
    5c2a:	54 e4       	ldi	r21, 0x44	; 68
    5c2c:	6a 2d       	mov	r22, r10
    5c2e:	7b 2d       	mov	r23, r11
    5c30:	8c 2d       	mov	r24, r12
    5c32:	9d 2d       	mov	r25, r13
    5c34:	09 d7       	rcall	.+3602   	; 0x6a48 <__mulsf3>
    5c36:	20 e0       	ldi	r18, 0x00	; 0
    5c38:	30 e0       	ldi	r19, 0x00	; 0
    5c3a:	46 e9       	ldi	r20, 0x96	; 150
    5c3c:	53 e4       	ldi	r21, 0x43	; 67
    5c3e:	a9 d4       	rcall	.+2386   	; 0x6592 <__divsf3>
    5c40:	15 d5       	rcall	.+2602   	; 0x666c <__fixunssfsi>
    5c42:	26 2f       	mov	r18, r22
    5c44:	9e e1       	ldi	r25, 0x1E	; 30
    5c46:	90 93 6f 1a 	sts	0x1A6F, r25
    5c4a:	20 93 70 1a 	sts	0x1A70, r18
    5c4e:	70 93 71 1a 	sts	0x1A71, r23
    5c52:	10 93 72 1a 	sts	0x1A72, r17
    5c56:	d0 93 73 1a 	sts	0x1A73, r29
    5c5a:	45 e0       	ldi	r20, 0x05	; 5
    5c5c:	63 e0       	ldi	r22, 0x03	; 3
    5c5e:	8c 2f       	mov	r24, r28
    5c60:	3a df       	rcall	.-396    	; 0x5ad6 <_Z17send_servo_packethhh>
    5c62:	df 91       	pop	r29
    5c64:	cf 91       	pop	r28
    5c66:	1f 91       	pop	r17
    5c68:	0f 91       	pop	r16
    5c6a:	ff 90       	pop	r15
    5c6c:	ef 90       	pop	r14
    5c6e:	df 90       	pop	r13
    5c70:	cf 90       	pop	r12
    5c72:	bf 90       	pop	r11
    5c74:	af 90       	pop	r10
    5c76:	9f 90       	pop	r9
    5c78:	08 95       	ret

00005c7a <_Z21SERVO_buffer_positionhdj>:
    5c7a:	9f 92       	push	r9
    5c7c:	af 92       	push	r10
    5c7e:	bf 92       	push	r11
    5c80:	cf 92       	push	r12
    5c82:	df 92       	push	r13
    5c84:	ef 92       	push	r14
    5c86:	ff 92       	push	r15
    5c88:	0f 93       	push	r16
    5c8a:	1f 93       	push	r17
    5c8c:	cf 93       	push	r28
    5c8e:	df 93       	push	r29
    5c90:	c8 2f       	mov	r28, r24
    5c92:	cb 01       	movw	r24, r22
    5c94:	ba 01       	movw	r22, r20
    5c96:	12 2f       	mov	r17, r18
    5c98:	d3 2f       	mov	r29, r19
    5c9a:	5c 98       	cbi	0x0b, 4	; 11
    5c9c:	ef e3       	ldi	r30, 0x3F	; 63
    5c9e:	ff e1       	ldi	r31, 0x1F	; 31
    5ca0:	31 97       	sbiw	r30, 0x01	; 1
    5ca2:	f1 f7       	brne	.-4      	; 0x5ca0 <_Z21SERVO_buffer_positionhdj+0x26>
    5ca4:	00 c0       	rjmp	.+0      	; 0x5ca6 <_Z21SERVO_buffer_positionhdj+0x2c>
    5ca6:	00 00       	nop
    5ca8:	20 e0       	ldi	r18, 0x00	; 0
    5caa:	30 e0       	ldi	r19, 0x00	; 0
    5cac:	46 e1       	ldi	r20, 0x16	; 22
    5cae:	53 e4       	ldi	r21, 0x43	; 67
    5cb0:	cb d6       	rcall	.+3478   	; 0x6a48 <__mulsf3>
    5cb2:	26 e5       	ldi	r18, 0x56	; 86
    5cb4:	3e e0       	ldi	r19, 0x0E	; 14
    5cb6:	49 e4       	ldi	r20, 0x49	; 73
    5cb8:	50 e4       	ldi	r21, 0x40	; 64
    5cba:	6b d4       	rcall	.+2262   	; 0x6592 <__divsf3>
    5cbc:	20 e0       	ldi	r18, 0x00	; 0
    5cbe:	30 e0       	ldi	r19, 0x00	; 0
    5cc0:	46 e1       	ldi	r20, 0x16	; 22
    5cc2:	53 e4       	ldi	r21, 0x43	; 67
    5cc4:	82 d3       	rcall	.+1796   	; 0x63ca <__addsf3>
    5cc6:	96 2e       	mov	r9, r22
    5cc8:	e7 2e       	mov	r14, r23
    5cca:	f8 2e       	mov	r15, r24
    5ccc:	09 2f       	mov	r16, r25
    5cce:	a6 2e       	mov	r10, r22
    5cd0:	b7 2e       	mov	r11, r23
    5cd2:	c8 2e       	mov	r12, r24
    5cd4:	d9 2e       	mov	r13, r25
    5cd6:	20 e0       	ldi	r18, 0x00	; 0
    5cd8:	30 e0       	ldi	r19, 0x00	; 0
    5cda:	46 e9       	ldi	r20, 0x96	; 150
    5cdc:	53 e4       	ldi	r21, 0x43	; 67
    5cde:	a9 d6       	rcall	.+3410   	; 0x6a32 <__gesf2>
    5ce0:	18 16       	cp	r1, r24
    5ce2:	5c f0       	brlt	.+22     	; 0x5cfa <_Z21SERVO_buffer_positionhdj+0x80>
    5ce4:	20 e0       	ldi	r18, 0x00	; 0
    5ce6:	30 e0       	ldi	r19, 0x00	; 0
    5ce8:	a9 01       	movw	r20, r18
    5cea:	69 2d       	mov	r22, r9
    5cec:	7e 2d       	mov	r23, r14
    5cee:	8f 2d       	mov	r24, r15
    5cf0:	90 2f       	mov	r25, r16
    5cf2:	48 d4       	rcall	.+2192   	; 0x6584 <__cmpsf2>
    5cf4:	88 23       	and	r24, r24
    5cf6:	84 f4       	brge	.+32     	; 0x5d18 <_Z21SERVO_buffer_positionhdj+0x9e>
    5cf8:	0b c0       	rjmp	.+22     	; 0x5d10 <_Z21SERVO_buffer_positionhdj+0x96>
    5cfa:	a1 2c       	mov	r10, r1
    5cfc:	b1 2c       	mov	r11, r1
    5cfe:	0f 2e       	mov	r0, r31
    5d00:	f6 e9       	ldi	r31, 0x96	; 150
    5d02:	cf 2e       	mov	r12, r31
    5d04:	f0 2d       	mov	r31, r0
    5d06:	0f 2e       	mov	r0, r31
    5d08:	f3 e4       	ldi	r31, 0x43	; 67
    5d0a:	df 2e       	mov	r13, r31
    5d0c:	f0 2d       	mov	r31, r0
    5d0e:	04 c0       	rjmp	.+8      	; 0x5d18 <_Z21SERVO_buffer_positionhdj+0x9e>
    5d10:	a1 2c       	mov	r10, r1
    5d12:	b1 2c       	mov	r11, r1
    5d14:	c1 2c       	mov	r12, r1
    5d16:	d1 2c       	mov	r13, r1
    5d18:	20 e0       	ldi	r18, 0x00	; 0
    5d1a:	30 ec       	ldi	r19, 0xC0	; 192
    5d1c:	4f e7       	ldi	r20, 0x7F	; 127
    5d1e:	54 e4       	ldi	r21, 0x44	; 68
    5d20:	6a 2d       	mov	r22, r10
    5d22:	7b 2d       	mov	r23, r11
    5d24:	8c 2d       	mov	r24, r12
    5d26:	9d 2d       	mov	r25, r13
    5d28:	8f d6       	rcall	.+3358   	; 0x6a48 <__mulsf3>
    5d2a:	20 e0       	ldi	r18, 0x00	; 0
    5d2c:	30 e0       	ldi	r19, 0x00	; 0
    5d2e:	46 e9       	ldi	r20, 0x96	; 150
    5d30:	53 e4       	ldi	r21, 0x43	; 67
    5d32:	2f d4       	rcall	.+2142   	; 0x6592 <__divsf3>
    5d34:	9b d4       	rcall	.+2358   	; 0x666c <__fixunssfsi>
    5d36:	26 2f       	mov	r18, r22
    5d38:	9e e1       	ldi	r25, 0x1E	; 30
    5d3a:	90 93 6f 1a 	sts	0x1A6F, r25
    5d3e:	20 93 70 1a 	sts	0x1A70, r18
    5d42:	70 93 71 1a 	sts	0x1A71, r23
    5d46:	10 93 72 1a 	sts	0x1A72, r17
    5d4a:	d0 93 73 1a 	sts	0x1A73, r29
    5d4e:	45 e0       	ldi	r20, 0x05	; 5
    5d50:	64 e0       	ldi	r22, 0x04	; 4
    5d52:	8c 2f       	mov	r24, r28
    5d54:	c0 de       	rcall	.-640    	; 0x5ad6 <_Z17send_servo_packethhh>
    5d56:	df 91       	pop	r29
    5d58:	cf 91       	pop	r28
    5d5a:	1f 91       	pop	r17
    5d5c:	0f 91       	pop	r16
    5d5e:	ff 90       	pop	r15
    5d60:	ef 90       	pop	r14
    5d62:	df 90       	pop	r13
    5d64:	cf 90       	pop	r12
    5d66:	bf 90       	pop	r11
    5d68:	af 90       	pop	r10
    5d6a:	9f 90       	pop	r9
    5d6c:	08 95       	ret

00005d6e <_Z12SERVO_actionv>:
    5d6e:	40 e0       	ldi	r20, 0x00	; 0
    5d70:	65 e0       	ldi	r22, 0x05	; 5
    5d72:	8e ef       	ldi	r24, 0xFE	; 254
    5d74:	b0 ce       	rjmp	.-672    	; 0x5ad6 <_Z17send_servo_packethhh>

00005d76 <_Z22SERVO_set_torque_limithj>:
    5d76:	92 e2       	ldi	r25, 0x22	; 34
    5d78:	90 93 6f 1a 	sts	0x1A6F, r25
    5d7c:	60 93 70 1a 	sts	0x1A70, r22
    5d80:	70 93 71 1a 	sts	0x1A71, r23
    5d84:	43 e0       	ldi	r20, 0x03	; 3
    5d86:	63 e0       	ldi	r22, 0x03	; 3
    5d88:	a6 ce       	rjmp	.-692    	; 0x5ad6 <_Z17send_servo_packethhh>

00005d8a <_Z10SERVO_initv>:
    5d8a:	5c 98       	cbi	0x0b, 4	; 11
    5d8c:	10 92 cd 00 	sts	0x00CD, r1
    5d90:	10 92 cc 00 	sts	0x00CC, r1
    5d94:	88 e9       	ldi	r24, 0x98	; 152
    5d96:	80 93 c9 00 	sts	0x00C9, r24
    5d9a:	86 e0       	ldi	r24, 0x06	; 6
    5d9c:	80 93 ca 00 	sts	0x00CA, r24
    5da0:	54 9a       	sbi	0x0a, 4	; 10
    5da2:	60 e0       	ldi	r22, 0x00	; 0
    5da4:	72 e0       	ldi	r23, 0x02	; 2
    5da6:	8e ef       	ldi	r24, 0xFE	; 254
    5da8:	e6 cf       	rjmp	.-52     	; 0x5d76 <_Z22SERVO_set_torque_limithj>

00005daa <_Z22SERVO_set_return_levelhh>:
    5daa:	90 e1       	ldi	r25, 0x10	; 16
    5dac:	90 93 6f 1a 	sts	0x1A6F, r25
    5db0:	60 93 70 1a 	sts	0x1A70, r22
    5db4:	42 e0       	ldi	r20, 0x02	; 2
    5db6:	63 e0       	ldi	r22, 0x03	; 3
    5db8:	8e ce       	rjmp	.-740    	; 0x5ad6 <_Z17send_servo_packethhh>

00005dba <_Z27SERVO_set_return_delay_timehh>:
    5dba:	95 e0       	ldi	r25, 0x05	; 5
    5dbc:	90 93 6f 1a 	sts	0x1A6F, r25
    5dc0:	60 93 70 1a 	sts	0x1A70, r22
    5dc4:	42 e0       	ldi	r20, 0x02	; 2
    5dc6:	63 e0       	ldi	r22, 0x03	; 3
    5dc8:	86 ce       	rjmp	.-756    	; 0x5ad6 <_Z17send_servo_packethhh>

00005dca <_Z19SERVO_update_EEPROMh>:
    5dca:	cf 93       	push	r28
    5dcc:	c8 2f       	mov	r28, r24
    5dce:	5c 98       	cbi	0x0b, 4	; 11
    5dd0:	61 e0       	ldi	r22, 0x01	; 1
    5dd2:	eb df       	rcall	.-42     	; 0x5daa <_Z22SERVO_set_return_levelhh>
    5dd4:	8f e3       	ldi	r24, 0x3F	; 63
    5dd6:	9f e1       	ldi	r25, 0x1F	; 31
    5dd8:	01 97       	sbiw	r24, 0x01	; 1
    5dda:	f1 f7       	brne	.-4      	; 0x5dd8 <_Z19SERVO_update_EEPROMh+0xe>
    5ddc:	00 c0       	rjmp	.+0      	; 0x5dde <_Z19SERVO_update_EEPROMh+0x14>
    5dde:	00 00       	nop
    5de0:	64 e1       	ldi	r22, 0x14	; 20
    5de2:	8c 2f       	mov	r24, r28
    5de4:	ea df       	rcall	.-44     	; 0x5dba <_Z27SERVO_set_return_delay_timehh>
    5de6:	cf 91       	pop	r28
    5de8:	08 95       	ret

00005dea <_Z17SERVO_update_datah>:
    5dea:	9f 92       	push	r9
    5dec:	af 92       	push	r10
    5dee:	bf 92       	push	r11
    5df0:	cf 92       	push	r12
    5df2:	df 92       	push	r13
    5df4:	ef 92       	push	r14
    5df6:	ff 92       	push	r15
    5df8:	0f 93       	push	r16
    5dfa:	1f 93       	push	r17
    5dfc:	cf 93       	push	r28
    5dfe:	df 93       	push	r29
    5e00:	cd b7       	in	r28, 0x3d	; 61
    5e02:	de b7       	in	r29, 0x3e	; 62
    5e04:	2a 97       	sbiw	r28, 0x0a	; 10
    5e06:	0f b6       	in	r0, 0x3f	; 63
    5e08:	f8 94       	cli
    5e0a:	de bf       	out	0x3e, r29	; 62
    5e0c:	0f be       	out	0x3f, r0	; 63
    5e0e:	cd bf       	out	0x3d, r28	; 61
    5e10:	e8 2e       	mov	r14, r24
    5e12:	5c 98       	cbi	0x0b, 4	; 11
    5e14:	84 e2       	ldi	r24, 0x24	; 36
    5e16:	80 93 6f 1a 	sts	0x1A6F, r24
    5e1a:	88 e0       	ldi	r24, 0x08	; 8
    5e1c:	80 93 70 1a 	sts	0x1A70, r24
    5e20:	42 e0       	ldi	r20, 0x02	; 2
    5e22:	62 e0       	ldi	r22, 0x02	; 2
    5e24:	8e 2d       	mov	r24, r14
    5e26:	57 de       	rcall	.-850    	; 0x5ad6 <_Z17send_servo_packethhh>
    5e28:	04 c0       	rjmp	.+8      	; 0x5e32 <_Z17SERVO_update_datah+0x48>
	#else
		//round up by default
		__ticks_dc = (uint32_t)(ceil(fabs(__tmp)));
	#endif

	__builtin_avr_delay_cycles(__ticks_dc);
    5e2a:	8a e6       	ldi	r24, 0x6A	; 106
    5e2c:	8a 95       	dec	r24
    5e2e:	f1 f7       	brne	.-4      	; 0x5e2c <_Z17SERVO_update_datah+0x42>
    5e30:	00 c0       	rjmp	.+0      	; 0x5e32 <_Z17SERVO_update_datah+0x48>
    5e32:	44 de       	rcall	.-888    	; 0x5abc <_Z20servo_check_tx_readyv>
    5e34:	88 23       	and	r24, r24
    5e36:	c9 f3       	breq	.-14     	; 0x5e2a <_Z17SERVO_update_datah+0x40>
    5e38:	5c 9a       	sbi	0x0b, 4	; 11
    5e3a:	87 ee       	ldi	r24, 0xE7	; 231
    5e3c:	93 e0       	ldi	r25, 0x03	; 3
    5e3e:	01 97       	sbiw	r24, 0x01	; 1
    5e40:	f1 f7       	brne	.-4      	; 0x5e3e <_Z17SERVO_update_datah+0x54>
    5e42:	00 c0       	rjmp	.+0      	; 0x5e44 <_Z17SERVO_update_datah+0x5a>
    5e44:	00 00       	nop
    5e46:	5c 98       	cbi	0x0b, 4	; 11
    5e48:	d1 2c       	mov	r13, r1
    5e4a:	91 2c       	mov	r9, r1
    5e4c:	b1 2c       	mov	r11, r1
    5e4e:	00 e0       	ldi	r16, 0x00	; 0
    5e50:	f1 2c       	mov	r15, r1
    5e52:	17 e5       	ldi	r17, 0x57	; 87
    5e54:	cc 24       	eor	r12, r12
    5e56:	c3 94       	inc	r12
    5e58:	a1 2c       	mov	r10, r1
    5e5a:	5d c0       	rjmp	.+186    	; 0x5f16 <_Z17SERVO_update_datah+0x12c>
    5e5c:	6f 3f       	cpi	r22, 0xFF	; 255
    5e5e:	09 f0       	breq	.+2      	; 0x5e62 <_Z17SERVO_update_datah+0x78>
    5e60:	5a c0       	rjmp	.+180    	; 0x5f16 <_Z17SERVO_update_datah+0x12c>
    5e62:	4d c0       	rjmp	.+154    	; 0x5efe <_Z17SERVO_update_datah+0x114>
    5e64:	6f 3f       	cpi	r22, 0xFF	; 255
    5e66:	09 f0       	breq	.+2      	; 0x5e6a <_Z17SERVO_update_datah+0x80>
    5e68:	4c c0       	rjmp	.+152    	; 0x5f02 <_Z17SERVO_update_datah+0x118>
    5e6a:	19 e4       	ldi	r17, 0x49	; 73
    5e6c:	54 c0       	rjmp	.+168    	; 0x5f16 <_Z17SERVO_update_datah+0x12c>
    5e6e:	e6 16       	cp	r14, r22
    5e70:	09 f4       	brne	.+2      	; 0x5e74 <_Z17SERVO_update_datah+0x8a>
    5e72:	49 c0       	rjmp	.+146    	; 0x5f06 <_Z17SERVO_update_datah+0x11c>
    5e74:	86 e5       	ldi	r24, 0x56	; 86
    5e76:	95 e1       	ldi	r25, 0x15	; 21
    5e78:	e8 d1       	rcall	.+976    	; 0x624a <_Z17USART_SendMessagePc>
    5e7a:	60 e0       	ldi	r22, 0x00	; 0
    5e7c:	70 e0       	ldi	r23, 0x00	; 0
    5e7e:	80 91 39 01 	lds	r24, 0x0139
    5e82:	90 91 3a 01 	lds	r25, 0x013A
    5e86:	0e 94 90 05 	call	0xb20	; 0xb20 <_Z8FifoReadP4fifoPh>
    5e8a:	88 23       	and	r24, r24
    5e8c:	b1 f3       	breq	.-20     	; 0x5e7a <_Z17SERVO_update_datah+0x90>
    5e8e:	1c e4       	ldi	r17, 0x4C	; 76
    5e90:	42 c0       	rjmp	.+132    	; 0x5f16 <_Z17SERVO_update_datah+0x12c>
    5e92:	d6 2e       	mov	r13, r22
    5e94:	10 e5       	ldi	r17, 0x50	; 80
    5e96:	3f c0       	rjmp	.+126    	; 0x5f16 <_Z17SERVO_update_datah+0x12c>
    5e98:	2f 2d       	mov	r18, r15
    5e9a:	30 e0       	ldi	r19, 0x00	; 0
    5e9c:	40 2f       	mov	r20, r16
    5e9e:	50 e0       	ldi	r21, 0x00	; 0
    5ea0:	ca 01       	movw	r24, r20
    5ea2:	02 97       	sbiw	r24, 0x02	; 2
    5ea4:	28 17       	cp	r18, r24
    5ea6:	39 07       	cpc	r19, r25
    5ea8:	3c f4       	brge	.+14     	; 0x5eb8 <_Z17SERVO_update_datah+0xce>
    5eaa:	e1 e0       	ldi	r30, 0x01	; 1
    5eac:	f0 e0       	ldi	r31, 0x00	; 0
    5eae:	ec 0f       	add	r30, r28
    5eb0:	fd 1f       	adc	r31, r29
    5eb2:	e2 0f       	add	r30, r18
    5eb4:	f3 1f       	adc	r31, r19
    5eb6:	60 83       	st	Z, r22
    5eb8:	43 50       	subi	r20, 0x03	; 3
    5eba:	51 09       	sbc	r21, r1
    5ebc:	24 17       	cp	r18, r20
    5ebe:	35 07       	cpc	r19, r21
    5ec0:	09 f4       	brne	.+2      	; 0x5ec4 <_Z17SERVO_update_datah+0xda>
    5ec2:	13 e4       	ldi	r17, 0x43	; 67
    5ec4:	f3 94       	inc	r15
    5ec6:	27 c0       	rjmp	.+78     	; 0x5f16 <_Z17SERVO_update_datah+0x12c>
    5ec8:	40 2f       	mov	r20, r16
    5eca:	4d 0d       	add	r20, r13
    5ecc:	4e 0d       	add	r20, r14
    5ece:	80 2f       	mov	r24, r16
    5ed0:	90 e0       	ldi	r25, 0x00	; 0
    5ed2:	02 97       	sbiw	r24, 0x02	; 2
    5ed4:	18 16       	cp	r1, r24
    5ed6:	19 06       	cpc	r1, r25
    5ed8:	6c f4       	brge	.+26     	; 0x5ef4 <_Z17SERVO_update_datah+0x10a>
    5eda:	fe 01       	movw	r30, r28
    5edc:	31 96       	adiw	r30, 0x01	; 1
    5ede:	2f ef       	ldi	r18, 0xFF	; 255
    5ee0:	3f ef       	ldi	r19, 0xFF	; 255
    5ee2:	2c 0f       	add	r18, r28
    5ee4:	3d 1f       	adc	r19, r29
    5ee6:	20 0f       	add	r18, r16
    5ee8:	31 1d       	adc	r19, r1
    5eea:	81 91       	ld	r24, Z+
    5eec:	48 0f       	add	r20, r24
    5eee:	e2 17       	cp	r30, r18
    5ef0:	f3 07       	cpc	r31, r19
    5ef2:	d9 f7       	brne	.-10     	; 0x5eea <_Z17SERVO_update_datah+0x100>
    5ef4:	40 95       	com	r20
    5ef6:	46 17       	cp	r20, r22
    5ef8:	41 f0       	breq	.+16     	; 0x5f0a <_Z17SERVO_update_datah+0x120>
    5efa:	9c 2c       	mov	r9, r12
    5efc:	0c c0       	rjmp	.+24     	; 0x5f16 <_Z17SERVO_update_datah+0x12c>
    5efe:	13 e5       	ldi	r17, 0x53	; 83
    5f00:	0a c0       	rjmp	.+20     	; 0x5f16 <_Z17SERVO_update_datah+0x12c>
    5f02:	17 e5       	ldi	r17, 0x57	; 87
    5f04:	08 c0       	rjmp	.+16     	; 0x5f16 <_Z17SERVO_update_datah+0x12c>
    5f06:	1c e4       	ldi	r17, 0x4C	; 76
    5f08:	06 c0       	rjmp	.+12     	; 0x5f16 <_Z17SERVO_update_datah+0x12c>
    5f0a:	9c 2c       	mov	r9, r12
    5f0c:	bc 2c       	mov	r11, r12
    5f0e:	03 c0       	rjmp	.+6      	; 0x5f16 <_Z17SERVO_update_datah+0x12c>
    5f10:	06 2f       	mov	r16, r22
    5f12:	fa 2c       	mov	r15, r10
    5f14:	15 e4       	ldi	r17, 0x45	; 69
    5f16:	60 e0       	ldi	r22, 0x00	; 0
    5f18:	70 e0       	ldi	r23, 0x00	; 0
    5f1a:	80 91 39 01 	lds	r24, 0x0139
    5f1e:	90 91 3a 01 	lds	r25, 0x013A
    5f22:	0e 94 90 05 	call	0xb20	; 0xb20 <_Z8FifoReadP4fifoPh>
    5f26:	81 11       	cpse	r24, r1
    5f28:	38 c0       	rjmp	.+112    	; 0x5f9a <_Z17SERVO_update_datah+0x1b0>
    5f2a:	99 20       	and	r9, r9
    5f2c:	09 f4       	brne	.+2      	; 0x5f30 <_Z17SERVO_update_datah+0x146>
    5f2e:	40 c0       	rjmp	.+128    	; 0x5fb0 <_Z17SERVO_update_datah+0x1c6>
    5f30:	34 c0       	rjmp	.+104    	; 0x5f9a <_Z17SERVO_update_datah+0x1b0>
    5f32:	84 e6       	ldi	r24, 0x64	; 100
    5f34:	95 e1       	ldi	r25, 0x15	; 21
    5f36:	89 d1       	rcall	.+786    	; 0x624a <_Z17USART_SendMessagePc>
    5f38:	60 e0       	ldi	r22, 0x00	; 0
    5f3a:	70 e0       	ldi	r23, 0x00	; 0
    5f3c:	80 91 39 01 	lds	r24, 0x0139
    5f40:	90 91 3a 01 	lds	r25, 0x013A
    5f44:	0e 94 90 05 	call	0xb20	; 0xb20 <_Z8FifoReadP4fifoPh>
    5f48:	88 23       	and	r24, r24
    5f4a:	b1 f3       	breq	.-20     	; 0x5f38 <_Z17SERVO_update_datah+0x14e>
    5f4c:	bb 20       	and	r11, r11
    5f4e:	09 f4       	brne	.+2      	; 0x5f52 <_Z17SERVO_update_datah+0x168>
    5f50:	49 c0       	rjmp	.+146    	; 0x5fe4 <_Z17SERVO_update_datah+0x1fa>
    5f52:	9a 81       	ldd	r25, Y+2	; 0x02
    5f54:	80 e0       	ldi	r24, 0x00	; 0
    5f56:	29 81       	ldd	r18, Y+1	; 0x01
    5f58:	82 0f       	add	r24, r18
    5f5a:	91 1d       	adc	r25, r1
    5f5c:	90 93 ee 19 	sts	0x19EE, r25
    5f60:	80 93 ed 19 	sts	0x19ED, r24
    5f64:	9c 81       	ldd	r25, Y+4	; 0x04
    5f66:	80 e0       	ldi	r24, 0x00	; 0
    5f68:	2b 81       	ldd	r18, Y+3	; 0x03
    5f6a:	82 0f       	add	r24, r18
    5f6c:	91 1d       	adc	r25, r1
    5f6e:	90 93 ec 19 	sts	0x19EC, r25
    5f72:	80 93 eb 19 	sts	0x19EB, r24
    5f76:	2e 81       	ldd	r18, Y+6	; 0x06
    5f78:	92 2f       	mov	r25, r18
    5f7a:	91 70       	andi	r25, 0x01	; 1
    5f7c:	80 e0       	ldi	r24, 0x00	; 0
    5f7e:	2d 81       	ldd	r18, Y+5	; 0x05
    5f80:	82 0f       	add	r24, r18
    5f82:	91 1d       	adc	r25, r1
    5f84:	90 93 ea 19 	sts	0x19EA, r25
    5f88:	80 93 e9 19 	sts	0x19E9, r24
    5f8c:	8f 81       	ldd	r24, Y+7	; 0x07
    5f8e:	80 93 e8 19 	sts	0x19E8, r24
    5f92:	88 85       	ldd	r24, Y+8	; 0x08
    5f94:	80 93 e7 19 	sts	0x19E7, r24
    5f98:	25 c0       	rjmp	.+74     	; 0x5fe4 <_Z17SERVO_update_datah+0x1fa>
    5f9a:	60 e0       	ldi	r22, 0x00	; 0
    5f9c:	70 e0       	ldi	r23, 0x00	; 0
    5f9e:	80 91 39 01 	lds	r24, 0x0139
    5fa2:	90 91 3a 01 	lds	r25, 0x013A
    5fa6:	0e 94 90 05 	call	0xb20	; 0xb20 <_Z8FifoReadP4fifoPh>
    5faa:	81 11       	cpse	r24, r1
    5fac:	cf cf       	rjmp	.-98     	; 0x5f4c <_Z17SERVO_update_datah+0x162>
    5fae:	c1 cf       	rjmp	.-126    	; 0x5f32 <_Z17SERVO_update_datah+0x148>
    5fb0:	60 91 00 00 	lds	r22, 0x0000
    5fb4:	1c 34       	cpi	r17, 0x4C	; 76
    5fb6:	09 f4       	brne	.+2      	; 0x5fba <_Z17SERVO_update_datah+0x1d0>
    5fb8:	ab cf       	rjmp	.-170    	; 0x5f10 <_Z17SERVO_update_datah+0x126>
    5fba:	50 f4       	brcc	.+20     	; 0x5fd0 <_Z17SERVO_update_datah+0x1e6>
    5fbc:	15 34       	cpi	r17, 0x45	; 69
    5fbe:	09 f4       	brne	.+2      	; 0x5fc2 <_Z17SERVO_update_datah+0x1d8>
    5fc0:	68 cf       	rjmp	.-304    	; 0x5e92 <_Z17SERVO_update_datah+0xa8>
    5fc2:	19 34       	cpi	r17, 0x49	; 73
    5fc4:	09 f4       	brne	.+2      	; 0x5fc8 <_Z17SERVO_update_datah+0x1de>
    5fc6:	53 cf       	rjmp	.-346    	; 0x5e6e <_Z17SERVO_update_datah+0x84>
    5fc8:	13 34       	cpi	r17, 0x43	; 67
    5fca:	09 f0       	breq	.+2      	; 0x5fce <_Z17SERVO_update_datah+0x1e4>
    5fcc:	a4 cf       	rjmp	.-184    	; 0x5f16 <_Z17SERVO_update_datah+0x12c>
    5fce:	7c cf       	rjmp	.-264    	; 0x5ec8 <_Z17SERVO_update_datah+0xde>
    5fd0:	13 35       	cpi	r17, 0x53	; 83
    5fd2:	09 f4       	brne	.+2      	; 0x5fd6 <_Z17SERVO_update_datah+0x1ec>
    5fd4:	47 cf       	rjmp	.-370    	; 0x5e64 <_Z17SERVO_update_datah+0x7a>
    5fd6:	17 35       	cpi	r17, 0x57	; 87
    5fd8:	09 f4       	brne	.+2      	; 0x5fdc <_Z17SERVO_update_datah+0x1f2>
    5fda:	40 cf       	rjmp	.-384    	; 0x5e5c <_Z17SERVO_update_datah+0x72>
    5fdc:	10 35       	cpi	r17, 0x50	; 80
    5fde:	09 f0       	breq	.+2      	; 0x5fe2 <_Z17SERVO_update_datah+0x1f8>
    5fe0:	9a cf       	rjmp	.-204    	; 0x5f16 <_Z17SERVO_update_datah+0x12c>
    5fe2:	5a cf       	rjmp	.-332    	; 0x5e98 <_Z17SERVO_update_datah+0xae>
    5fe4:	2a 96       	adiw	r28, 0x0a	; 10
    5fe6:	0f b6       	in	r0, 0x3f	; 63
    5fe8:	f8 94       	cli
    5fea:	de bf       	out	0x3e, r29	; 62
    5fec:	0f be       	out	0x3f, r0	; 63
    5fee:	cd bf       	out	0x3d, r28	; 61
    5ff0:	df 91       	pop	r29
    5ff2:	cf 91       	pop	r28
    5ff4:	1f 91       	pop	r17
    5ff6:	0f 91       	pop	r16
    5ff8:	ff 90       	pop	r15
    5ffa:	ef 90       	pop	r14
    5ffc:	df 90       	pop	r13
    5ffe:	cf 90       	pop	r12
    6000:	bf 90       	pop	r11
    6002:	af 90       	pop	r10
    6004:	9f 90       	pop	r9
    6006:	08 95       	ret

00006008 <_Z13SERVO_get_posv>:
    6008:	80 91 ed 19 	lds	r24, 0x19ED
    600c:	90 91 ee 19 	lds	r25, 0x19EE
    6010:	08 95       	ret

00006012 <_Z15SERVO_get_speedv>:
    6012:	80 91 eb 19 	lds	r24, 0x19EB
    6016:	90 91 ec 19 	lds	r25, 0x19EC
    601a:	08 95       	ret

0000601c <_Z14SERVO_get_loadv>:
    601c:	80 91 e9 19 	lds	r24, 0x19E9
    6020:	90 91 ea 19 	lds	r25, 0x19EA
    6024:	08 95       	ret

00006026 <_Z21SERVO_get_temperaturev>:
    6026:	80 91 e7 19 	lds	r24, 0x19E7
    602a:	08 95       	ret

0000602c <_Z17SERVO_get_voltagev>:
    602c:	80 91 e8 19 	lds	r24, 0x19E8
    6030:	08 95       	ret

00006032 <__vector_28>:
    6032:	1f 92       	push	r1
    6034:	0f 92       	push	r0
    6036:	0f b6       	in	r0, 0x3f	; 63
    6038:	0f 92       	push	r0
    603a:	11 24       	eor	r1, r1
    603c:	0b b6       	in	r0, 0x3b	; 59
    603e:	0f 92       	push	r0
    6040:	2f 93       	push	r18
    6042:	3f 93       	push	r19
    6044:	4f 93       	push	r20
    6046:	5f 93       	push	r21
    6048:	6f 93       	push	r22
    604a:	7f 93       	push	r23
    604c:	8f 93       	push	r24
    604e:	9f 93       	push	r25
    6050:	af 93       	push	r26
    6052:	bf 93       	push	r27
    6054:	ef 93       	push	r30
    6056:	ff 93       	push	r31
    6058:	60 91 ce 00 	lds	r22, 0x00CE
    605c:	80 91 39 01 	lds	r24, 0x0139
    6060:	90 91 3a 01 	lds	r25, 0x013A
    6064:	0e 94 70 05 	call	0xae0	; 0xae0 <_Z9FifoWriteP4fifoh>
    6068:	88 23       	and	r24, r24
    606a:	19 f0       	breq	.+6      	; 0x6072 <__vector_28+0x40>
    606c:	82 e7       	ldi	r24, 0x72	; 114
    606e:	95 e1       	ldi	r25, 0x15	; 21
    6070:	ec d0       	rcall	.+472    	; 0x624a <_Z17USART_SendMessagePc>
    6072:	ff 91       	pop	r31
    6074:	ef 91       	pop	r30
    6076:	bf 91       	pop	r27
    6078:	af 91       	pop	r26
    607a:	9f 91       	pop	r25
    607c:	8f 91       	pop	r24
    607e:	7f 91       	pop	r23
    6080:	6f 91       	pop	r22
    6082:	5f 91       	pop	r21
    6084:	4f 91       	pop	r20
    6086:	3f 91       	pop	r19
    6088:	2f 91       	pop	r18
    608a:	0f 90       	pop	r0
    608c:	0b be       	out	0x3b, r0	; 59
    608e:	0f 90       	pop	r0
    6090:	0f be       	out	0x3f, r0	; 63
    6092:	0f 90       	pop	r0
    6094:	1f 90       	pop	r1
    6096:	18 95       	reti

00006098 <_Z10USART_initv>:
    6098:	10 92 c5 00 	sts	0x00C5, r1
    609c:	87 e0       	ldi	r24, 0x07	; 7
    609e:	80 93 c4 00 	sts	0x00C4, r24
    60a2:	88 e9       	ldi	r24, 0x98	; 152
    60a4:	80 93 c1 00 	sts	0x00C1, r24
    60a8:	86 e0       	ldi	r24, 0x06	; 6
    60aa:	80 93 c2 00 	sts	0x00C2, r24
    60ae:	82 e3       	ldi	r24, 0x32	; 50
    60b0:	80 93 49 15 	sts	0x1549, r24
    60b4:	10 92 f0 1a 	sts	0x1AF0, r1
    60b8:	10 92 ef 1a 	sts	0x1AEF, r1
    60bc:	08 95       	ret

000060be <_Z18USART_CheckTxReadyv>:
    60be:	80 91 c0 00 	lds	r24, 0x00C0
    60c2:	80 72       	andi	r24, 0x20	; 32
    60c4:	08 95       	ret

000060c6 <_Z15USART_WriteByteh>:
    60c6:	cf 93       	push	r28
    60c8:	c8 2f       	mov	r28, r24
    60ca:	f9 df       	rcall	.-14     	; 0x60be <_Z18USART_CheckTxReadyv>
    60cc:	88 23       	and	r24, r24
    60ce:	e9 f3       	breq	.-6      	; 0x60ca <_Z15USART_WriteByteh+0x4>
    60d0:	c0 93 c6 00 	sts	0x00C6, r28
    60d4:	cf 91       	pop	r28
    60d6:	08 95       	ret

000060d8 <_Z11USART_crc16hh>:
    60d8:	cf 92       	push	r12
    60da:	df 92       	push	r13
    60dc:	ef 92       	push	r14
    60de:	ff 92       	push	r15
    60e0:	0f 93       	push	r16
    60e2:	1f 93       	push	r17
    60e4:	cf 93       	push	r28
    60e6:	df 93       	push	r29
    60e8:	66 23       	and	r22, r22
    60ea:	09 f4       	brne	.+2      	; 0x60ee <_Z11USART_crc16hh+0x16>
    60ec:	3e c0       	rjmp	.+124    	; 0x616a <_Z11USART_crc16hh+0x92>
    60ee:	06 2f       	mov	r16, r22
    60f0:	10 e0       	ldi	r17, 0x00	; 0
    60f2:	4f ef       	ldi	r20, 0xFF	; 255
    60f4:	5f ef       	ldi	r21, 0xFF	; 255
    60f6:	ee ef       	ldi	r30, 0xFE	; 254
    60f8:	ff ef       	ldi	r31, 0xFF	; 255
    60fa:	c6 2e       	mov	r12, r22
    60fc:	d1 2c       	mov	r13, r1
    60fe:	e8 2e       	mov	r14, r24
    6100:	f1 2c       	mov	r15, r1
    6102:	c8 e0       	ldi	r28, 0x08	; 8
    6104:	d0 e0       	ldi	r29, 0x00	; 0
    6106:	ee 3f       	cpi	r30, 0xFE	; 254
    6108:	6f ef       	ldi	r22, 0xFF	; 255
    610a:	f6 07       	cpc	r31, r22
    610c:	19 f4       	brne	.+6      	; 0x6114 <_Z11USART_crc16hh+0x3c>
    610e:	8e 2d       	mov	r24, r14
    6110:	9f 2d       	mov	r25, r15
    6112:	30 c0       	rjmp	.+96     	; 0x6174 <_Z11USART_crc16hh+0x9c>
    6114:	ef 3f       	cpi	r30, 0xFF	; 255
    6116:	8f ef       	ldi	r24, 0xFF	; 255
    6118:	f8 07       	cpc	r31, r24
    611a:	19 f4       	brne	.+6      	; 0x6122 <_Z11USART_crc16hh+0x4a>
    611c:	8c 2d       	mov	r24, r12
    611e:	9d 2d       	mov	r25, r13
    6120:	29 c0       	rjmp	.+82     	; 0x6174 <_Z11USART_crc16hh+0x9c>
    6122:	df 01       	movw	r26, r30
    6124:	a1 50       	subi	r26, 0x01	; 1
    6126:	b1 4e       	sbci	r27, 0xE1	; 225
    6128:	8c 91       	ld	r24, X
    612a:	90 e0       	ldi	r25, 0x00	; 0
    612c:	23 c0       	rjmp	.+70     	; 0x6174 <_Z11USART_crc16hh+0x9c>
    612e:	ba 01       	movw	r22, r20
    6130:	68 27       	eor	r22, r24
    6132:	79 27       	eor	r23, r25
    6134:	60 ff       	sbrs	r22, 0
    6136:	07 c0       	rjmp	.+14     	; 0x6146 <_Z11USART_crc16hh+0x6e>
    6138:	56 95       	lsr	r21
    613a:	47 95       	ror	r20
    613c:	68 e0       	ldi	r22, 0x08	; 8
    613e:	46 27       	eor	r20, r22
    6140:	64 e8       	ldi	r22, 0x84	; 132
    6142:	56 27       	eor	r21, r22
    6144:	02 c0       	rjmp	.+4      	; 0x614a <_Z11USART_crc16hh+0x72>
    6146:	56 95       	lsr	r21
    6148:	47 95       	ror	r20
    614a:	96 95       	lsr	r25
    614c:	87 95       	ror	r24
    614e:	21 50       	subi	r18, 0x01	; 1
    6150:	31 09       	sbc	r19, r1
    6152:	69 f7       	brne	.-38     	; 0x612e <_Z11USART_crc16hh+0x56>
    6154:	31 96       	adiw	r30, 0x01	; 1
    6156:	e0 17       	cp	r30, r16
    6158:	f1 07       	cpc	r31, r17
    615a:	a9 f6       	brne	.-86     	; 0x6106 <_Z11USART_crc16hh+0x2e>
    615c:	9a 01       	movw	r18, r20
    615e:	20 95       	com	r18
    6160:	30 95       	com	r19
    6162:	32 27       	eor	r19, r18
    6164:	23 27       	eor	r18, r19
    6166:	32 27       	eor	r19, r18
    6168:	02 c0       	rjmp	.+4      	; 0x616e <_Z11USART_crc16hh+0x96>
    616a:	20 e0       	ldi	r18, 0x00	; 0
    616c:	30 e0       	ldi	r19, 0x00	; 0
    616e:	82 2f       	mov	r24, r18
    6170:	93 2f       	mov	r25, r19
    6172:	02 c0       	rjmp	.+4      	; 0x6178 <_Z11USART_crc16hh+0xa0>
    6174:	9e 01       	movw	r18, r28
    6176:	db cf       	rjmp	.-74     	; 0x612e <_Z11USART_crc16hh+0x56>
    6178:	df 91       	pop	r29
    617a:	cf 91       	pop	r28
    617c:	1f 91       	pop	r17
    617e:	0f 91       	pop	r16
    6180:	ff 90       	pop	r15
    6182:	ef 90       	pop	r14
    6184:	df 90       	pop	r13
    6186:	cf 90       	pop	r12
    6188:	08 95       	ret

0000618a <_Z16USART_SendPacketch>:
    618a:	0f 93       	push	r16
    618c:	1f 93       	push	r17
    618e:	cf 93       	push	r28
    6190:	df 93       	push	r29
    6192:	9e e7       	ldi	r25, 0x7E	; 126
    6194:	90 93 fa 1c 	sts	0x1CFA, r25
    6198:	80 93 fb 1c 	sts	0x1CFB, r24
    619c:	60 93 fc 1c 	sts	0x1CFC, r22
    61a0:	26 2f       	mov	r18, r22
    61a2:	30 e0       	ldi	r19, 0x00	; 0
    61a4:	12 16       	cp	r1, r18
    61a6:	13 06       	cpc	r1, r19
    61a8:	4c f5       	brge	.+82     	; 0x61fc <_Z16USART_SendPacketch+0x72>
    61aa:	ef ef       	ldi	r30, 0xFF	; 255
    61ac:	fe e1       	ldi	r31, 0x1E	; 30
    61ae:	03 e0       	ldi	r16, 0x03	; 3
    61b0:	10 e0       	ldi	r17, 0x00	; 0
    61b2:	c0 e0       	ldi	r28, 0x00	; 0
    61b4:	d0 e0       	ldi	r29, 0x00	; 0
    61b6:	7d e7       	ldi	r23, 0x7D	; 125
    61b8:	50 e2       	ldi	r21, 0x20	; 32
    61ba:	90 81       	ld	r25, Z
    61bc:	49 2f       	mov	r20, r25
    61be:	4d 57       	subi	r20, 0x7D	; 125
    61c0:	42 30       	cpi	r20, 0x02	; 2
    61c2:	80 f4       	brcc	.+32     	; 0x61e4 <_Z16USART_SendPacketch+0x5a>
    61c4:	d8 01       	movw	r26, r16
    61c6:	a6 50       	subi	r26, 0x06	; 6
    61c8:	b3 4e       	sbci	r27, 0xE3	; 227
    61ca:	ac 0f       	add	r26, r28
    61cc:	bd 1f       	adc	r27, r29
    61ce:	7c 93       	st	X, r23
    61d0:	0f 5f       	subi	r16, 0xFF	; 255
    61d2:	1f 4f       	sbci	r17, 0xFF	; 255
    61d4:	d8 01       	movw	r26, r16
    61d6:	a6 50       	subi	r26, 0x06	; 6
    61d8:	b3 4e       	sbci	r27, 0xE3	; 227
    61da:	ac 0f       	add	r26, r28
    61dc:	bd 1f       	adc	r27, r29
    61de:	95 27       	eor	r25, r21
    61e0:	9c 93       	st	X, r25
    61e2:	06 c0       	rjmp	.+12     	; 0x61f0 <_Z16USART_SendPacketch+0x66>
    61e4:	d8 01       	movw	r26, r16
    61e6:	a6 50       	subi	r26, 0x06	; 6
    61e8:	b3 4e       	sbci	r27, 0xE3	; 227
    61ea:	ac 0f       	add	r26, r28
    61ec:	bd 1f       	adc	r27, r29
    61ee:	9c 93       	st	X, r25
    61f0:	21 96       	adiw	r28, 0x01	; 1
    61f2:	31 96       	adiw	r30, 0x01	; 1
    61f4:	c2 17       	cp	r28, r18
    61f6:	d3 07       	cpc	r29, r19
    61f8:	01 f7       	brne	.-64     	; 0x61ba <_Z16USART_SendPacketch+0x30>
    61fa:	04 c0       	rjmp	.+8      	; 0x6204 <_Z16USART_SendPacketch+0x7a>
    61fc:	03 e0       	ldi	r16, 0x03	; 3
    61fe:	10 e0       	ldi	r17, 0x00	; 0
    6200:	c0 e0       	ldi	r28, 0x00	; 0
    6202:	d0 e0       	ldi	r29, 0x00	; 0
    6204:	69 df       	rcall	.-302    	; 0x60d8 <_Z11USART_crc16hh>
    6206:	f8 01       	movw	r30, r16
    6208:	e6 50       	subi	r30, 0x06	; 6
    620a:	f3 4e       	sbci	r31, 0xE3	; 227
    620c:	ec 0f       	add	r30, r28
    620e:	fd 1f       	adc	r31, r29
    6210:	90 83       	st	Z, r25
    6212:	81 83       	std	Z+1, r24	; 0x01
    6214:	22 96       	adiw	r28, 0x02	; 2
    6216:	0c 0f       	add	r16, r28
    6218:	1d 1f       	adc	r17, r29
    621a:	f8 01       	movw	r30, r16
    621c:	e6 50       	subi	r30, 0x06	; 6
    621e:	f3 4e       	sbci	r31, 0xE3	; 227
    6220:	8e e7       	ldi	r24, 0x7E	; 126
    6222:	80 83       	st	Z, r24
    6224:	c8 01       	movw	r24, r16
    6226:	01 96       	adiw	r24, 0x01	; 1
    6228:	18 16       	cp	r1, r24
    622a:	19 06       	cpc	r1, r25
    622c:	4c f4       	brge	.+18     	; 0x6240 <_Z16USART_SendPacketch+0xb6>
    622e:	ca ef       	ldi	r28, 0xFA	; 250
    6230:	dc e1       	ldi	r29, 0x1C	; 28
    6232:	05 50       	subi	r16, 0x05	; 5
    6234:	13 4e       	sbci	r17, 0xE3	; 227
    6236:	89 91       	ld	r24, Y+
    6238:	46 df       	rcall	.-372    	; 0x60c6 <_Z15USART_WriteByteh>
    623a:	c0 17       	cp	r28, r16
    623c:	d1 07       	cpc	r29, r17
    623e:	d9 f7       	brne	.-10     	; 0x6236 <_Z16USART_SendPacketch+0xac>
    6240:	df 91       	pop	r29
    6242:	cf 91       	pop	r28
    6244:	1f 91       	pop	r17
    6246:	0f 91       	pop	r16
    6248:	08 95       	ret

0000624a <_Z17USART_SendMessagePc>:
    624a:	cf 93       	push	r28
    624c:	df 93       	push	r29
    624e:	c8 2f       	mov	r28, r24
    6250:	d9 2f       	mov	r29, r25
    6252:	4f ef       	ldi	r20, 0xFF	; 255
    6254:	5e e1       	ldi	r21, 0x1E	; 30
    6256:	20 e0       	ldi	r18, 0x00	; 0
    6258:	30 e0       	ldi	r19, 0x00	; 0
    625a:	06 c0       	rjmp	.+12     	; 0x6268 <_Z17USART_SendMessagePc+0x1e>
    625c:	69 91       	ld	r22, Y+
    625e:	fa 01       	movw	r30, r20
    6260:	61 93       	st	Z+, r22
    6262:	af 01       	movw	r20, r30
    6264:	2f 5f       	subi	r18, 0xFF	; 255
    6266:	3f 4f       	sbci	r19, 0xFF	; 255
    6268:	e8 2f       	mov	r30, r24
    626a:	f9 2f       	mov	r31, r25
    626c:	df 01       	movw	r26, r30
    626e:	0d 90       	ld	r0, X+
    6270:	00 20       	and	r0, r0
    6272:	e9 f7       	brne	.-6      	; 0x626e <_Z17USART_SendMessagePc+0x24>
    6274:	11 97       	sbiw	r26, 0x01	; 1
    6276:	bd 01       	movw	r22, r26
    6278:	6e 1b       	sub	r22, r30
    627a:	7f 0b       	sbc	r23, r31
    627c:	26 17       	cp	r18, r22
    627e:	37 07       	cpc	r19, r23
    6280:	68 f3       	brcs	.-38     	; 0x625c <_Z17USART_SendMessagePc+0x12>
    6282:	8d e4       	ldi	r24, 0x4D	; 77
    6284:	82 df       	rcall	.-252    	; 0x618a <_Z16USART_SendPacketch>
    6286:	df 91       	pop	r29
    6288:	cf 91       	pop	r28
    628a:	08 95       	ret

0000628c <_Z15USART_SendValuef>:
    628c:	60 93 ff 1e 	sts	0x1EFF, r22
    6290:	70 93 00 1f 	sts	0x1F00, r23
    6294:	80 93 01 1f 	sts	0x1F01, r24
    6298:	90 93 02 1f 	sts	0x1F02, r25
    629c:	64 e0       	ldi	r22, 0x04	; 4
    629e:	86 e5       	ldi	r24, 0x56	; 86
    62a0:	74 cf       	rjmp	.-280    	; 0x618a <_Z16USART_SendPacketch>

000062a2 <__vector_20>:
    62a2:	1f 92       	push	r1
    62a4:	0f 92       	push	r0
    62a6:	0f b6       	in	r0, 0x3f	; 63
    62a8:	0f 92       	push	r0
    62aa:	11 24       	eor	r1, r1
    62ac:	0b b6       	in	r0, 0x3b	; 59
    62ae:	0f 92       	push	r0
    62b0:	ef 92       	push	r14
    62b2:	ff 92       	push	r15
    62b4:	0f 93       	push	r16
    62b6:	1f 93       	push	r17
    62b8:	2f 93       	push	r18
    62ba:	3f 93       	push	r19
    62bc:	4f 93       	push	r20
    62be:	5f 93       	push	r21
    62c0:	6f 93       	push	r22
    62c2:	7f 93       	push	r23
    62c4:	8f 93       	push	r24
    62c6:	9f 93       	push	r25
    62c8:	af 93       	push	r26
    62ca:	bf 93       	push	r27
    62cc:	cf 93       	push	r28
    62ce:	df 93       	push	r29
    62d0:	ef 93       	push	r30
    62d2:	ff 93       	push	r31
    62d4:	20 91 c6 00 	lds	r18, 0x00C6
    62d8:	2e 37       	cpi	r18, 0x7E	; 126
    62da:	c9 f5       	brne	.+114    	; 0x634e <__vector_20+0xac>
    62dc:	80 91 f3 1a 	lds	r24, 0x1AF3
    62e0:	90 91 f4 1a 	lds	r25, 0x1AF4
    62e4:	84 30       	cpi	r24, 0x04	; 4
    62e6:	91 05       	cpc	r25, r1
    62e8:	40 f4       	brcc	.+16     	; 0x62fa <__vector_20+0x58>
    62ea:	20 91 f6 1a 	lds	r18, 0x1AF6
    62ee:	30 e0       	ldi	r19, 0x00	; 0
    62f0:	2c 5f       	subi	r18, 0xFC	; 252
    62f2:	3f 4f       	sbci	r19, 0xFF	; 255
    62f4:	82 17       	cp	r24, r18
    62f6:	93 07       	cpc	r25, r19
    62f8:	29 f5       	brne	.+74     	; 0x6344 <__vector_20+0xa2>
    62fa:	80 91 f1 1a 	lds	r24, 0x1AF1
    62fe:	90 91 f2 1a 	lds	r25, 0x1AF2
    6302:	89 2b       	or	r24, r25
    6304:	21 f0       	breq	.+8      	; 0x630e <__vector_20+0x6c>
    6306:	10 92 f2 1a 	sts	0x1AF2, r1
    630a:	10 92 f1 1a 	sts	0x1AF1, r1
    630e:	05 ef       	ldi	r16, 0xF5	; 245
    6310:	1a e1       	ldi	r17, 0x1A	; 26
    6312:	c0 e0       	ldi	r28, 0x00	; 0
    6314:	d0 e0       	ldi	r29, 0x00	; 0
    6316:	0f 2e       	mov	r0, r31
    6318:	f6 ef       	ldi	r31, 0xF6	; 246
    631a:	ef 2e       	mov	r14, r31
    631c:	fa e1       	ldi	r31, 0x1A	; 26
    631e:	ff 2e       	mov	r15, r31
    6320:	f0 2d       	mov	r31, r0
    6322:	f8 01       	movw	r30, r16
    6324:	61 91       	ld	r22, Z+
    6326:	8f 01       	movw	r16, r30
    6328:	80 91 41 05 	lds	r24, 0x0541
    632c:	90 91 42 05 	lds	r25, 0x0542
    6330:	0e 94 70 05 	call	0xae0	; 0xae0 <_Z9FifoWriteP4fifoh>
    6334:	21 96       	adiw	r28, 0x01	; 1
    6336:	f7 01       	movw	r30, r14
    6338:	80 81       	ld	r24, Z
    633a:	90 e0       	ldi	r25, 0x00	; 0
    633c:	02 96       	adiw	r24, 0x02	; 2
    633e:	c8 17       	cp	r28, r24
    6340:	d9 07       	cpc	r29, r25
    6342:	7c f3       	brlt	.-34     	; 0x6322 <__vector_20+0x80>
    6344:	10 92 f4 1a 	sts	0x1AF4, r1
    6348:	10 92 f3 1a 	sts	0x1AF3, r1
    634c:	16 c0       	rjmp	.+44     	; 0x637a <__vector_20+0xd8>
    634e:	2d 37       	cpi	r18, 0x7D	; 125
    6350:	39 f4       	brne	.+14     	; 0x6360 <__vector_20+0xbe>
    6352:	81 e0       	ldi	r24, 0x01	; 1
    6354:	90 e0       	ldi	r25, 0x00	; 0
    6356:	90 93 f2 1a 	sts	0x1AF2, r25
    635a:	80 93 f1 1a 	sts	0x1AF1, r24
    635e:	0d c0       	rjmp	.+26     	; 0x637a <__vector_20+0xd8>
    6360:	80 91 f3 1a 	lds	r24, 0x1AF3
    6364:	90 91 f4 1a 	lds	r25, 0x1AF4
    6368:	fc 01       	movw	r30, r24
    636a:	eb 50       	subi	r30, 0x0B	; 11
    636c:	f5 4e       	sbci	r31, 0xE5	; 229
    636e:	20 83       	st	Z, r18
    6370:	01 96       	adiw	r24, 0x01	; 1
    6372:	90 93 f4 1a 	sts	0x1AF4, r25
    6376:	80 93 f3 1a 	sts	0x1AF3, r24
    637a:	ff 91       	pop	r31
    637c:	ef 91       	pop	r30
    637e:	df 91       	pop	r29
    6380:	cf 91       	pop	r28
    6382:	bf 91       	pop	r27
    6384:	af 91       	pop	r26
    6386:	9f 91       	pop	r25
    6388:	8f 91       	pop	r24
    638a:	7f 91       	pop	r23
    638c:	6f 91       	pop	r22
    638e:	5f 91       	pop	r21
    6390:	4f 91       	pop	r20
    6392:	3f 91       	pop	r19
    6394:	2f 91       	pop	r18
    6396:	1f 91       	pop	r17
    6398:	0f 91       	pop	r16
    639a:	ff 90       	pop	r15
    639c:	ef 90       	pop	r14
    639e:	0f 90       	pop	r0
    63a0:	0b be       	out	0x3b, r0	; 59
    63a2:	0f 90       	pop	r0
    63a4:	0f be       	out	0x3f, r0	; 63
    63a6:	0f 90       	pop	r0
    63a8:	1f 90       	pop	r1
    63aa:	18 95       	reti

000063ac <acos>:
    63ac:	9f 93       	push	r25
    63ae:	9f 77       	andi	r25, 0x7F	; 127
    63b0:	33 d2       	rcall	.+1126   	; 0x6818 <__fp_arccos>
    63b2:	0f 90       	pop	r0
    63b4:	00 20       	and	r0, r0
    63b6:	3a f4       	brpl	.+14     	; 0x63c6 <acos+0x1a>
    63b8:	90 58       	subi	r25, 0x80	; 128
    63ba:	a2 ea       	ldi	r26, 0xA2	; 162
    63bc:	2a ed       	ldi	r18, 0xDA	; 218
    63be:	3f e0       	ldi	r19, 0x0F	; 15
    63c0:	49 e4       	ldi	r20, 0x49	; 73
    63c2:	50 e4       	ldi	r21, 0x40	; 64
    63c4:	13 d0       	rcall	.+38     	; 0x63ec <__addsf3x>
    63c6:	ea c2       	rjmp	.+1492   	; 0x699c <__fp_round>

000063c8 <__subsf3>:
    63c8:	50 58       	subi	r21, 0x80	; 128

000063ca <__addsf3>:
    63ca:	bb 27       	eor	r27, r27
    63cc:	aa 27       	eor	r26, r26
    63ce:	0e d0       	rcall	.+28     	; 0x63ec <__addsf3x>
    63d0:	e5 c2       	rjmp	.+1482   	; 0x699c <__fp_round>
    63d2:	ae d2       	rcall	.+1372   	; 0x6930 <__fp_pscA>
    63d4:	30 f0       	brcs	.+12     	; 0x63e2 <__addsf3+0x18>
    63d6:	b3 d2       	rcall	.+1382   	; 0x693e <__fp_pscB>
    63d8:	20 f0       	brcs	.+8      	; 0x63e2 <__addsf3+0x18>
    63da:	31 f4       	brne	.+12     	; 0x63e8 <__addsf3+0x1e>
    63dc:	9f 3f       	cpi	r25, 0xFF	; 255
    63de:	11 f4       	brne	.+4      	; 0x63e4 <__addsf3+0x1a>
    63e0:	1e f4       	brtc	.+6      	; 0x63e8 <__addsf3+0x1e>
    63e2:	6d c2       	rjmp	.+1242   	; 0x68be <__fp_nan>
    63e4:	0e f4       	brtc	.+2      	; 0x63e8 <__addsf3+0x1e>
    63e6:	e0 95       	com	r30
    63e8:	e7 fb       	bst	r30, 7
    63ea:	55 c2       	rjmp	.+1194   	; 0x6896 <__fp_inf>

000063ec <__addsf3x>:
    63ec:	e9 2f       	mov	r30, r25
    63ee:	f8 d2       	rcall	.+1520   	; 0x69e0 <__fp_split3>
    63f0:	80 f3       	brcs	.-32     	; 0x63d2 <__addsf3+0x8>
    63f2:	ba 17       	cp	r27, r26
    63f4:	62 07       	cpc	r22, r18
    63f6:	73 07       	cpc	r23, r19
    63f8:	84 07       	cpc	r24, r20
    63fa:	95 07       	cpc	r25, r21
    63fc:	18 f0       	brcs	.+6      	; 0x6404 <__addsf3x+0x18>
    63fe:	71 f4       	brne	.+28     	; 0x641c <__addsf3x+0x30>
    6400:	9e f5       	brtc	.+102    	; 0x6468 <__addsf3x+0x7c>
    6402:	10 c3       	rjmp	.+1568   	; 0x6a24 <__fp_zero>
    6404:	0e f4       	brtc	.+2      	; 0x6408 <__addsf3x+0x1c>
    6406:	e0 95       	com	r30
    6408:	0b 2e       	mov	r0, r27
    640a:	ba 2f       	mov	r27, r26
    640c:	a0 2d       	mov	r26, r0
    640e:	0b 01       	movw	r0, r22
    6410:	b9 01       	movw	r22, r18
    6412:	90 01       	movw	r18, r0
    6414:	0c 01       	movw	r0, r24
    6416:	ca 01       	movw	r24, r20
    6418:	a0 01       	movw	r20, r0
    641a:	11 24       	eor	r1, r1
    641c:	ff 27       	eor	r31, r31
    641e:	59 1b       	sub	r21, r25
    6420:	99 f0       	breq	.+38     	; 0x6448 <__addsf3x+0x5c>
    6422:	59 3f       	cpi	r21, 0xF9	; 249
    6424:	50 f4       	brcc	.+20     	; 0x643a <__addsf3x+0x4e>
    6426:	50 3e       	cpi	r21, 0xE0	; 224
    6428:	68 f1       	brcs	.+90     	; 0x6484 <__addsf3x+0x98>
    642a:	1a 16       	cp	r1, r26
    642c:	f0 40       	sbci	r31, 0x00	; 0
    642e:	a2 2f       	mov	r26, r18
    6430:	23 2f       	mov	r18, r19
    6432:	34 2f       	mov	r19, r20
    6434:	44 27       	eor	r20, r20
    6436:	58 5f       	subi	r21, 0xF8	; 248
    6438:	f3 cf       	rjmp	.-26     	; 0x6420 <__addsf3x+0x34>
    643a:	46 95       	lsr	r20
    643c:	37 95       	ror	r19
    643e:	27 95       	ror	r18
    6440:	a7 95       	ror	r26
    6442:	f0 40       	sbci	r31, 0x00	; 0
    6444:	53 95       	inc	r21
    6446:	c9 f7       	brne	.-14     	; 0x643a <__addsf3x+0x4e>
    6448:	7e f4       	brtc	.+30     	; 0x6468 <__addsf3x+0x7c>
    644a:	1f 16       	cp	r1, r31
    644c:	ba 0b       	sbc	r27, r26
    644e:	62 0b       	sbc	r22, r18
    6450:	73 0b       	sbc	r23, r19
    6452:	84 0b       	sbc	r24, r20
    6454:	ba f0       	brmi	.+46     	; 0x6484 <__addsf3x+0x98>
    6456:	91 50       	subi	r25, 0x01	; 1
    6458:	a1 f0       	breq	.+40     	; 0x6482 <__addsf3x+0x96>
    645a:	ff 0f       	add	r31, r31
    645c:	bb 1f       	adc	r27, r27
    645e:	66 1f       	adc	r22, r22
    6460:	77 1f       	adc	r23, r23
    6462:	88 1f       	adc	r24, r24
    6464:	c2 f7       	brpl	.-16     	; 0x6456 <__addsf3x+0x6a>
    6466:	0e c0       	rjmp	.+28     	; 0x6484 <__addsf3x+0x98>
    6468:	ba 0f       	add	r27, r26
    646a:	62 1f       	adc	r22, r18
    646c:	73 1f       	adc	r23, r19
    646e:	84 1f       	adc	r24, r20
    6470:	48 f4       	brcc	.+18     	; 0x6484 <__addsf3x+0x98>
    6472:	87 95       	ror	r24
    6474:	77 95       	ror	r23
    6476:	67 95       	ror	r22
    6478:	b7 95       	ror	r27
    647a:	f7 95       	ror	r31
    647c:	9e 3f       	cpi	r25, 0xFE	; 254
    647e:	08 f0       	brcs	.+2      	; 0x6482 <__addsf3x+0x96>
    6480:	b3 cf       	rjmp	.-154    	; 0x63e8 <__addsf3+0x1e>
    6482:	93 95       	inc	r25
    6484:	88 0f       	add	r24, r24
    6486:	08 f0       	brcs	.+2      	; 0x648a <__addsf3x+0x9e>
    6488:	99 27       	eor	r25, r25
    648a:	ee 0f       	add	r30, r30
    648c:	97 95       	ror	r25
    648e:	87 95       	ror	r24
    6490:	08 95       	ret

00006492 <asin>:
    6492:	9f 93       	push	r25
    6494:	9f 77       	andi	r25, 0x7F	; 127
    6496:	ee e3       	ldi	r30, 0x3E	; 62
    6498:	89 37       	cpi	r24, 0x79	; 121
    649a:	9e 07       	cpc	r25, r30
    649c:	20 f4       	brcc	.+8      	; 0x64a6 <asin+0x14>
    649e:	ec e8       	ldi	r30, 0x8C	; 140
    64a0:	f0 e0       	ldi	r31, 0x00	; 0
    64a2:	35 d2       	rcall	.+1130   	; 0x690e <__fp_powsodd>
    64a4:	09 c0       	rjmp	.+18     	; 0x64b8 <asin+0x26>
    64a6:	b8 d1       	rcall	.+880    	; 0x6818 <__fp_arccos>
    64a8:	90 58       	subi	r25, 0x80	; 128
    64aa:	a2 ea       	ldi	r26, 0xA2	; 162
    64ac:	2a ed       	ldi	r18, 0xDA	; 218
    64ae:	3f e0       	ldi	r19, 0x0F	; 15
    64b0:	49 ec       	ldi	r20, 0xC9	; 201
    64b2:	5f e3       	ldi	r21, 0x3F	; 63
    64b4:	9b df       	rcall	.-202    	; 0x63ec <__addsf3x>
    64b6:	72 d2       	rcall	.+1252   	; 0x699c <__fp_round>
    64b8:	0f 90       	pop	r0
    64ba:	07 fc       	sbrc	r0, 7
    64bc:	90 58       	subi	r25, 0x80	; 128
    64be:	08 95       	ret
    64c0:	37 d2       	rcall	.+1134   	; 0x6930 <__fp_pscA>
    64c2:	58 f0       	brcs	.+22     	; 0x64da <asin+0x48>
    64c4:	80 e8       	ldi	r24, 0x80	; 128
    64c6:	91 e0       	ldi	r25, 0x01	; 1
    64c8:	09 f4       	brne	.+2      	; 0x64cc <asin+0x3a>
    64ca:	9e ef       	ldi	r25, 0xFE	; 254
    64cc:	38 d2       	rcall	.+1136   	; 0x693e <__fp_pscB>
    64ce:	28 f0       	brcs	.+10     	; 0x64da <asin+0x48>
    64d0:	40 e8       	ldi	r20, 0x80	; 128
    64d2:	51 e0       	ldi	r21, 0x01	; 1
    64d4:	59 f4       	brne	.+22     	; 0x64ec <atan2+0xe>
    64d6:	5e ef       	ldi	r21, 0xFE	; 254
    64d8:	09 c0       	rjmp	.+18     	; 0x64ec <atan2+0xe>
    64da:	f1 c1       	rjmp	.+994    	; 0x68be <__fp_nan>
    64dc:	a3 c2       	rjmp	.+1350   	; 0x6a24 <__fp_zero>

000064de <atan2>:
    64de:	e9 2f       	mov	r30, r25
    64e0:	e0 78       	andi	r30, 0x80	; 128
    64e2:	7e d2       	rcall	.+1276   	; 0x69e0 <__fp_split3>
    64e4:	68 f3       	brcs	.-38     	; 0x64c0 <asin+0x2e>
    64e6:	09 2e       	mov	r0, r25
    64e8:	05 2a       	or	r0, r21
    64ea:	c1 f3       	breq	.-16     	; 0x64dc <asin+0x4a>
    64ec:	26 17       	cp	r18, r22
    64ee:	37 07       	cpc	r19, r23
    64f0:	48 07       	cpc	r20, r24
    64f2:	59 07       	cpc	r21, r25
    64f4:	38 f0       	brcs	.+14     	; 0x6504 <atan2+0x26>
    64f6:	0e 2e       	mov	r0, r30
    64f8:	07 f8       	bld	r0, 7
    64fa:	e0 25       	eor	r30, r0
    64fc:	69 f0       	breq	.+26     	; 0x6518 <atan2+0x3a>
    64fe:	e0 25       	eor	r30, r0
    6500:	e0 64       	ori	r30, 0x40	; 64
    6502:	0a c0       	rjmp	.+20     	; 0x6518 <atan2+0x3a>
    6504:	ef 63       	ori	r30, 0x3F	; 63
    6506:	07 f8       	bld	r0, 7
    6508:	00 94       	com	r0
    650a:	07 fa       	bst	r0, 7
    650c:	db 01       	movw	r26, r22
    650e:	b9 01       	movw	r22, r18
    6510:	9d 01       	movw	r18, r26
    6512:	dc 01       	movw	r26, r24
    6514:	ca 01       	movw	r24, r20
    6516:	ad 01       	movw	r20, r26
    6518:	ef 93       	push	r30
    651a:	4a d0       	rcall	.+148    	; 0x65b0 <__divsf3_pse>
    651c:	3f d2       	rcall	.+1150   	; 0x699c <__fp_round>
    651e:	0a d0       	rcall	.+20     	; 0x6534 <atan>
    6520:	5f 91       	pop	r21
    6522:	55 23       	and	r21, r21
    6524:	31 f0       	breq	.+12     	; 0x6532 <atan2+0x54>
    6526:	2b ed       	ldi	r18, 0xDB	; 219
    6528:	3f e0       	ldi	r19, 0x0F	; 15
    652a:	49 e4       	ldi	r20, 0x49	; 73
    652c:	50 fd       	sbrc	r21, 0
    652e:	49 ec       	ldi	r20, 0xC9	; 201
    6530:	4c cf       	rjmp	.-360    	; 0x63ca <__addsf3>
    6532:	08 95       	ret

00006534 <atan>:
    6534:	df 93       	push	r29
    6536:	dd 27       	eor	r29, r29
    6538:	b9 2f       	mov	r27, r25
    653a:	bf 77       	andi	r27, 0x7F	; 127
    653c:	40 e8       	ldi	r20, 0x80	; 128
    653e:	5f e3       	ldi	r21, 0x3F	; 63
    6540:	16 16       	cp	r1, r22
    6542:	17 06       	cpc	r1, r23
    6544:	48 07       	cpc	r20, r24
    6546:	5b 07       	cpc	r21, r27
    6548:	10 f4       	brcc	.+4      	; 0x654e <atan+0x1a>
    654a:	d9 2f       	mov	r29, r25
    654c:	76 d2       	rcall	.+1260   	; 0x6a3a <inverse>
    654e:	9f 93       	push	r25
    6550:	8f 93       	push	r24
    6552:	7f 93       	push	r23
    6554:	6f 93       	push	r22
    6556:	23 d3       	rcall	.+1606   	; 0x6b9e <square>
    6558:	e0 ea       	ldi	r30, 0xA0	; 160
    655a:	f0 e0       	ldi	r31, 0x00	; 0
    655c:	b3 d1       	rcall	.+870    	; 0x68c4 <__fp_powser>
    655e:	1e d2       	rcall	.+1084   	; 0x699c <__fp_round>
    6560:	2f 91       	pop	r18
    6562:	3f 91       	pop	r19
    6564:	4f 91       	pop	r20
    6566:	5f 91       	pop	r21
    6568:	7b d2       	rcall	.+1270   	; 0x6a60 <__mulsf3x>
    656a:	dd 23       	and	r29, r29
    656c:	49 f0       	breq	.+18     	; 0x6580 <atan+0x4c>
    656e:	90 58       	subi	r25, 0x80	; 128
    6570:	a2 ea       	ldi	r26, 0xA2	; 162
    6572:	2a ed       	ldi	r18, 0xDA	; 218
    6574:	3f e0       	ldi	r19, 0x0F	; 15
    6576:	49 ec       	ldi	r20, 0xC9	; 201
    6578:	5f e3       	ldi	r21, 0x3F	; 63
    657a:	d0 78       	andi	r29, 0x80	; 128
    657c:	5d 27       	eor	r21, r29
    657e:	36 df       	rcall	.-404    	; 0x63ec <__addsf3x>
    6580:	df 91       	pop	r29
    6582:	0c c2       	rjmp	.+1048   	; 0x699c <__fp_round>

00006584 <__cmpsf2>:
    6584:	64 d1       	rcall	.+712    	; 0x684e <__fp_cmp>
    6586:	08 f4       	brcc	.+2      	; 0x658a <__cmpsf2+0x6>
    6588:	81 e0       	ldi	r24, 0x01	; 1
    658a:	08 95       	ret

0000658c <cos>:
    658c:	e0 d1       	rcall	.+960    	; 0x694e <__fp_rempio2>
    658e:	e3 95       	inc	r30
    6590:	16 c2       	rjmp	.+1068   	; 0x69be <__fp_sinus>

00006592 <__divsf3>:
    6592:	0c d0       	rcall	.+24     	; 0x65ac <__divsf3x>
    6594:	03 c2       	rjmp	.+1030   	; 0x699c <__fp_round>
    6596:	d3 d1       	rcall	.+934    	; 0x693e <__fp_pscB>
    6598:	40 f0       	brcs	.+16     	; 0x65aa <__divsf3+0x18>
    659a:	ca d1       	rcall	.+916    	; 0x6930 <__fp_pscA>
    659c:	30 f0       	brcs	.+12     	; 0x65aa <__divsf3+0x18>
    659e:	21 f4       	brne	.+8      	; 0x65a8 <__divsf3+0x16>
    65a0:	5f 3f       	cpi	r21, 0xFF	; 255
    65a2:	19 f0       	breq	.+6      	; 0x65aa <__divsf3+0x18>
    65a4:	78 c1       	rjmp	.+752    	; 0x6896 <__fp_inf>
    65a6:	51 11       	cpse	r21, r1
    65a8:	3e c2       	rjmp	.+1148   	; 0x6a26 <__fp_szero>
    65aa:	89 c1       	rjmp	.+786    	; 0x68be <__fp_nan>

000065ac <__divsf3x>:
    65ac:	19 d2       	rcall	.+1074   	; 0x69e0 <__fp_split3>
    65ae:	98 f3       	brcs	.-26     	; 0x6596 <__divsf3+0x4>

000065b0 <__divsf3_pse>:
    65b0:	99 23       	and	r25, r25
    65b2:	c9 f3       	breq	.-14     	; 0x65a6 <__divsf3+0x14>
    65b4:	55 23       	and	r21, r21
    65b6:	b1 f3       	breq	.-20     	; 0x65a4 <__divsf3+0x12>
    65b8:	95 1b       	sub	r25, r21
    65ba:	55 0b       	sbc	r21, r21
    65bc:	bb 27       	eor	r27, r27
    65be:	aa 27       	eor	r26, r26
    65c0:	62 17       	cp	r22, r18
    65c2:	73 07       	cpc	r23, r19
    65c4:	84 07       	cpc	r24, r20
    65c6:	38 f0       	brcs	.+14     	; 0x65d6 <__divsf3_pse+0x26>
    65c8:	9f 5f       	subi	r25, 0xFF	; 255
    65ca:	5f 4f       	sbci	r21, 0xFF	; 255
    65cc:	22 0f       	add	r18, r18
    65ce:	33 1f       	adc	r19, r19
    65d0:	44 1f       	adc	r20, r20
    65d2:	aa 1f       	adc	r26, r26
    65d4:	a9 f3       	breq	.-22     	; 0x65c0 <__divsf3_pse+0x10>
    65d6:	33 d0       	rcall	.+102    	; 0x663e <__divsf3_pse+0x8e>
    65d8:	0e 2e       	mov	r0, r30
    65da:	3a f0       	brmi	.+14     	; 0x65ea <__divsf3_pse+0x3a>
    65dc:	e0 e8       	ldi	r30, 0x80	; 128
    65de:	30 d0       	rcall	.+96     	; 0x6640 <__divsf3_pse+0x90>
    65e0:	91 50       	subi	r25, 0x01	; 1
    65e2:	50 40       	sbci	r21, 0x00	; 0
    65e4:	e6 95       	lsr	r30
    65e6:	00 1c       	adc	r0, r0
    65e8:	ca f7       	brpl	.-14     	; 0x65dc <__divsf3_pse+0x2c>
    65ea:	29 d0       	rcall	.+82     	; 0x663e <__divsf3_pse+0x8e>
    65ec:	fe 2f       	mov	r31, r30
    65ee:	27 d0       	rcall	.+78     	; 0x663e <__divsf3_pse+0x8e>
    65f0:	66 0f       	add	r22, r22
    65f2:	77 1f       	adc	r23, r23
    65f4:	88 1f       	adc	r24, r24
    65f6:	bb 1f       	adc	r27, r27
    65f8:	26 17       	cp	r18, r22
    65fa:	37 07       	cpc	r19, r23
    65fc:	48 07       	cpc	r20, r24
    65fe:	ab 07       	cpc	r26, r27
    6600:	b0 e8       	ldi	r27, 0x80	; 128
    6602:	09 f0       	breq	.+2      	; 0x6606 <__divsf3_pse+0x56>
    6604:	bb 0b       	sbc	r27, r27
    6606:	80 2d       	mov	r24, r0
    6608:	bf 01       	movw	r22, r30
    660a:	ff 27       	eor	r31, r31
    660c:	93 58       	subi	r25, 0x83	; 131
    660e:	5f 4f       	sbci	r21, 0xFF	; 255
    6610:	2a f0       	brmi	.+10     	; 0x661c <__divsf3_pse+0x6c>
    6612:	9e 3f       	cpi	r25, 0xFE	; 254
    6614:	51 05       	cpc	r21, r1
    6616:	68 f0       	brcs	.+26     	; 0x6632 <__divsf3_pse+0x82>
    6618:	3e c1       	rjmp	.+636    	; 0x6896 <__fp_inf>
    661a:	05 c2       	rjmp	.+1034   	; 0x6a26 <__fp_szero>
    661c:	5f 3f       	cpi	r21, 0xFF	; 255
    661e:	ec f3       	brlt	.-6      	; 0x661a <__divsf3_pse+0x6a>
    6620:	98 3e       	cpi	r25, 0xE8	; 232
    6622:	dc f3       	brlt	.-10     	; 0x661a <__divsf3_pse+0x6a>
    6624:	86 95       	lsr	r24
    6626:	77 95       	ror	r23
    6628:	67 95       	ror	r22
    662a:	b7 95       	ror	r27
    662c:	f7 95       	ror	r31
    662e:	9f 5f       	subi	r25, 0xFF	; 255
    6630:	c9 f7       	brne	.-14     	; 0x6624 <__divsf3_pse+0x74>
    6632:	88 0f       	add	r24, r24
    6634:	91 1d       	adc	r25, r1
    6636:	96 95       	lsr	r25
    6638:	87 95       	ror	r24
    663a:	97 f9       	bld	r25, 7
    663c:	08 95       	ret
    663e:	e1 e0       	ldi	r30, 0x01	; 1
    6640:	66 0f       	add	r22, r22
    6642:	77 1f       	adc	r23, r23
    6644:	88 1f       	adc	r24, r24
    6646:	bb 1f       	adc	r27, r27
    6648:	62 17       	cp	r22, r18
    664a:	73 07       	cpc	r23, r19
    664c:	84 07       	cpc	r24, r20
    664e:	ba 07       	cpc	r27, r26
    6650:	20 f0       	brcs	.+8      	; 0x665a <__divsf3_pse+0xaa>
    6652:	62 1b       	sub	r22, r18
    6654:	73 0b       	sbc	r23, r19
    6656:	84 0b       	sbc	r24, r20
    6658:	ba 0b       	sbc	r27, r26
    665a:	ee 1f       	adc	r30, r30
    665c:	88 f7       	brcc	.-30     	; 0x6640 <__divsf3_pse+0x90>
    665e:	e0 95       	com	r30
    6660:	08 95       	ret

00006662 <__fixsfsi>:
    6662:	04 d0       	rcall	.+8      	; 0x666c <__fixunssfsi>
    6664:	68 94       	set
    6666:	b1 11       	cpse	r27, r1
    6668:	de c1       	rjmp	.+956    	; 0x6a26 <__fp_szero>
    666a:	08 95       	ret

0000666c <__fixunssfsi>:
    666c:	c1 d1       	rcall	.+898    	; 0x69f0 <__fp_splitA>
    666e:	88 f0       	brcs	.+34     	; 0x6692 <__fixunssfsi+0x26>
    6670:	9f 57       	subi	r25, 0x7F	; 127
    6672:	90 f0       	brcs	.+36     	; 0x6698 <__fixunssfsi+0x2c>
    6674:	b9 2f       	mov	r27, r25
    6676:	99 27       	eor	r25, r25
    6678:	b7 51       	subi	r27, 0x17	; 23
    667a:	a0 f0       	brcs	.+40     	; 0x66a4 <__fixunssfsi+0x38>
    667c:	d1 f0       	breq	.+52     	; 0x66b2 <__fixunssfsi+0x46>
    667e:	66 0f       	add	r22, r22
    6680:	77 1f       	adc	r23, r23
    6682:	88 1f       	adc	r24, r24
    6684:	99 1f       	adc	r25, r25
    6686:	1a f0       	brmi	.+6      	; 0x668e <__fixunssfsi+0x22>
    6688:	ba 95       	dec	r27
    668a:	c9 f7       	brne	.-14     	; 0x667e <__fixunssfsi+0x12>
    668c:	12 c0       	rjmp	.+36     	; 0x66b2 <__fixunssfsi+0x46>
    668e:	b1 30       	cpi	r27, 0x01	; 1
    6690:	81 f0       	breq	.+32     	; 0x66b2 <__fixunssfsi+0x46>
    6692:	c8 d1       	rcall	.+912    	; 0x6a24 <__fp_zero>
    6694:	b1 e0       	ldi	r27, 0x01	; 1
    6696:	08 95       	ret
    6698:	c5 c1       	rjmp	.+906    	; 0x6a24 <__fp_zero>
    669a:	67 2f       	mov	r22, r23
    669c:	78 2f       	mov	r23, r24
    669e:	88 27       	eor	r24, r24
    66a0:	b8 5f       	subi	r27, 0xF8	; 248
    66a2:	39 f0       	breq	.+14     	; 0x66b2 <__fixunssfsi+0x46>
    66a4:	b9 3f       	cpi	r27, 0xF9	; 249
    66a6:	cc f3       	brlt	.-14     	; 0x669a <__fixunssfsi+0x2e>
    66a8:	86 95       	lsr	r24
    66aa:	77 95       	ror	r23
    66ac:	67 95       	ror	r22
    66ae:	b3 95       	inc	r27
    66b0:	d9 f7       	brne	.-10     	; 0x66a8 <__fixunssfsi+0x3c>
    66b2:	3e f4       	brtc	.+14     	; 0x66c2 <__fixunssfsi+0x56>
    66b4:	90 95       	com	r25
    66b6:	80 95       	com	r24
    66b8:	70 95       	com	r23
    66ba:	61 95       	neg	r22
    66bc:	7f 4f       	sbci	r23, 0xFF	; 255
    66be:	8f 4f       	sbci	r24, 0xFF	; 255
    66c0:	9f 4f       	sbci	r25, 0xFF	; 255
    66c2:	08 95       	ret

000066c4 <__floatunsisf>:
    66c4:	e8 94       	clt
    66c6:	09 c0       	rjmp	.+18     	; 0x66da <__floatsisf+0x12>

000066c8 <__floatsisf>:
    66c8:	97 fb       	bst	r25, 7
    66ca:	3e f4       	brtc	.+14     	; 0x66da <__floatsisf+0x12>
    66cc:	90 95       	com	r25
    66ce:	80 95       	com	r24
    66d0:	70 95       	com	r23
    66d2:	61 95       	neg	r22
    66d4:	7f 4f       	sbci	r23, 0xFF	; 255
    66d6:	8f 4f       	sbci	r24, 0xFF	; 255
    66d8:	9f 4f       	sbci	r25, 0xFF	; 255
    66da:	99 23       	and	r25, r25
    66dc:	a9 f0       	breq	.+42     	; 0x6708 <__floatsisf+0x40>
    66de:	f9 2f       	mov	r31, r25
    66e0:	96 e9       	ldi	r25, 0x96	; 150
    66e2:	bb 27       	eor	r27, r27
    66e4:	93 95       	inc	r25
    66e6:	f6 95       	lsr	r31
    66e8:	87 95       	ror	r24
    66ea:	77 95       	ror	r23
    66ec:	67 95       	ror	r22
    66ee:	b7 95       	ror	r27
    66f0:	f1 11       	cpse	r31, r1
    66f2:	f8 cf       	rjmp	.-16     	; 0x66e4 <__floatsisf+0x1c>
    66f4:	fa f4       	brpl	.+62     	; 0x6734 <__floatsisf+0x6c>
    66f6:	bb 0f       	add	r27, r27
    66f8:	11 f4       	brne	.+4      	; 0x66fe <__floatsisf+0x36>
    66fa:	60 ff       	sbrs	r22, 0
    66fc:	1b c0       	rjmp	.+54     	; 0x6734 <__floatsisf+0x6c>
    66fe:	6f 5f       	subi	r22, 0xFF	; 255
    6700:	7f 4f       	sbci	r23, 0xFF	; 255
    6702:	8f 4f       	sbci	r24, 0xFF	; 255
    6704:	9f 4f       	sbci	r25, 0xFF	; 255
    6706:	16 c0       	rjmp	.+44     	; 0x6734 <__floatsisf+0x6c>
    6708:	88 23       	and	r24, r24
    670a:	11 f0       	breq	.+4      	; 0x6710 <__floatsisf+0x48>
    670c:	96 e9       	ldi	r25, 0x96	; 150
    670e:	11 c0       	rjmp	.+34     	; 0x6732 <__floatsisf+0x6a>
    6710:	77 23       	and	r23, r23
    6712:	21 f0       	breq	.+8      	; 0x671c <__floatsisf+0x54>
    6714:	9e e8       	ldi	r25, 0x8E	; 142
    6716:	87 2f       	mov	r24, r23
    6718:	76 2f       	mov	r23, r22
    671a:	05 c0       	rjmp	.+10     	; 0x6726 <__floatsisf+0x5e>
    671c:	66 23       	and	r22, r22
    671e:	71 f0       	breq	.+28     	; 0x673c <__floatsisf+0x74>
    6720:	96 e8       	ldi	r25, 0x86	; 134
    6722:	86 2f       	mov	r24, r22
    6724:	70 e0       	ldi	r23, 0x00	; 0
    6726:	60 e0       	ldi	r22, 0x00	; 0
    6728:	2a f0       	brmi	.+10     	; 0x6734 <__floatsisf+0x6c>
    672a:	9a 95       	dec	r25
    672c:	66 0f       	add	r22, r22
    672e:	77 1f       	adc	r23, r23
    6730:	88 1f       	adc	r24, r24
    6732:	da f7       	brpl	.-10     	; 0x672a <__floatsisf+0x62>
    6734:	88 0f       	add	r24, r24
    6736:	96 95       	lsr	r25
    6738:	87 95       	ror	r24
    673a:	97 f9       	bld	r25, 7
    673c:	08 95       	ret

0000673e <fmax>:
    673e:	99 0f       	add	r25, r25
    6740:	bb 0b       	sbc	r27, r27
    6742:	55 0f       	add	r21, r21
    6744:	aa 0b       	sbc	r26, r26
    6746:	e0 e8       	ldi	r30, 0x80	; 128
    6748:	fe ef       	ldi	r31, 0xFE	; 254
    674a:	16 16       	cp	r1, r22
    674c:	17 06       	cpc	r1, r23
    674e:	e8 07       	cpc	r30, r24
    6750:	f9 07       	cpc	r31, r25
    6752:	70 f0       	brcs	.+28     	; 0x6770 <fmax+0x32>
    6754:	12 16       	cp	r1, r18
    6756:	13 06       	cpc	r1, r19
    6758:	e4 07       	cpc	r30, r20
    675a:	f5 07       	cpc	r31, r21
    675c:	60 f0       	brcs	.+24     	; 0x6776 <fmax+0x38>
    675e:	ba 17       	cp	r27, r26
    6760:	3c f0       	brlt	.+14     	; 0x6770 <fmax+0x32>
    6762:	49 f4       	brne	.+18     	; 0x6776 <fmax+0x38>
    6764:	62 17       	cp	r22, r18
    6766:	73 07       	cpc	r23, r19
    6768:	84 07       	cpc	r24, r20
    676a:	95 07       	cpc	r25, r21
    676c:	a7 95       	ror	r26
    676e:	1b f4       	brvc	.+6      	; 0x6776 <fmax+0x38>
    6770:	b9 01       	movw	r22, r18
    6772:	ca 01       	movw	r24, r20
    6774:	ba 2f       	mov	r27, r26
    6776:	b6 95       	lsr	r27
    6778:	97 95       	ror	r25
    677a:	08 95       	ret
    677c:	d9 d0       	rcall	.+434    	; 0x6930 <__fp_pscA>
    677e:	18 f0       	brcs	.+6      	; 0x6786 <fmax+0x48>
    6780:	11 f0       	breq	.+4      	; 0x6786 <fmax+0x48>
    6782:	dd d0       	rcall	.+442    	; 0x693e <__fp_pscB>
    6784:	38 f4       	brcc	.+14     	; 0x6794 <fmod+0xa>
    6786:	9b c0       	rjmp	.+310    	; 0x68be <__fp_nan>
    6788:	4e c1       	rjmp	.+668    	; 0x6a26 <__fp_szero>

0000678a <fmod>:
    678a:	e9 2f       	mov	r30, r25
    678c:	29 d1       	rcall	.+594    	; 0x69e0 <__fp_split3>
    678e:	b0 f3       	brcs	.-20     	; 0x677c <fmax+0x3e>
    6790:	55 23       	and	r21, r21
    6792:	c9 f3       	breq	.-14     	; 0x6786 <fmax+0x48>
    6794:	e7 fb       	bst	r30, 7
    6796:	62 17       	cp	r22, r18
    6798:	73 07       	cpc	r23, r19
    679a:	84 07       	cpc	r24, r20
    679c:	95 07       	cpc	r25, r21
    679e:	a8 f1       	brcs	.+106    	; 0x680a <fmod+0x80>
    67a0:	99 f3       	breq	.-26     	; 0x6788 <fmax+0x4a>
    67a2:	e9 2f       	mov	r30, r25
    67a4:	ff 27       	eor	r31, r31
    67a6:	88 23       	and	r24, r24
    67a8:	2a f0       	brmi	.+10     	; 0x67b4 <fmod+0x2a>
    67aa:	31 97       	sbiw	r30, 0x01	; 1
    67ac:	66 0f       	add	r22, r22
    67ae:	77 1f       	adc	r23, r23
    67b0:	88 1f       	adc	r24, r24
    67b2:	da f7       	brpl	.-10     	; 0x67aa <fmod+0x20>
    67b4:	95 2f       	mov	r25, r21
    67b6:	55 27       	eor	r21, r21
    67b8:	44 23       	and	r20, r20
    67ba:	32 f0       	brmi	.+12     	; 0x67c8 <fmod+0x3e>
    67bc:	91 50       	subi	r25, 0x01	; 1
    67be:	50 40       	sbci	r21, 0x00	; 0
    67c0:	22 0f       	add	r18, r18
    67c2:	33 1f       	adc	r19, r19
    67c4:	44 1f       	adc	r20, r20
    67c6:	d2 f7       	brpl	.-12     	; 0x67bc <fmod+0x32>
    67c8:	bb 27       	eor	r27, r27
    67ca:	e9 1b       	sub	r30, r25
    67cc:	f5 0b       	sbc	r31, r21
    67ce:	62 1b       	sub	r22, r18
    67d0:	73 0b       	sbc	r23, r19
    67d2:	84 0b       	sbc	r24, r20
    67d4:	b1 09       	sbc	r27, r1
    67d6:	c1 f2       	breq	.-80     	; 0x6788 <fmax+0x4a>
    67d8:	22 f4       	brpl	.+8      	; 0x67e2 <fmod+0x58>
    67da:	62 0f       	add	r22, r18
    67dc:	73 1f       	adc	r23, r19
    67de:	84 1f       	adc	r24, r20
    67e0:	b1 1d       	adc	r27, r1
    67e2:	31 97       	sbiw	r30, 0x01	; 1
    67e4:	2a f0       	brmi	.+10     	; 0x67f0 <fmod+0x66>
    67e6:	66 0f       	add	r22, r22
    67e8:	77 1f       	adc	r23, r23
    67ea:	88 1f       	adc	r24, r24
    67ec:	bb 1f       	adc	r27, r27
    67ee:	ef cf       	rjmp	.-34     	; 0x67ce <fmod+0x44>
    67f0:	91 50       	subi	r25, 0x01	; 1
    67f2:	50 40       	sbci	r21, 0x00	; 0
    67f4:	5a f0       	brmi	.+22     	; 0x680c <fmod+0x82>
    67f6:	41 f0       	breq	.+16     	; 0x6808 <fmod+0x7e>
    67f8:	88 23       	and	r24, r24
    67fa:	32 f0       	brmi	.+12     	; 0x6808 <fmod+0x7e>
    67fc:	66 0f       	add	r22, r22
    67fe:	77 1f       	adc	r23, r23
    6800:	88 1f       	adc	r24, r24
    6802:	91 50       	subi	r25, 0x01	; 1
    6804:	50 40       	sbci	r21, 0x00	; 0
    6806:	c1 f7       	brne	.-16     	; 0x67f8 <fmod+0x6e>
    6808:	93 95       	inc	r25
    680a:	4b c0       	rjmp	.+150    	; 0x68a2 <__fp_mpack>
    680c:	86 95       	lsr	r24
    680e:	77 95       	ror	r23
    6810:	67 95       	ror	r22
    6812:	9f 5f       	subi	r25, 0xFF	; 255
    6814:	d9 f7       	brne	.-10     	; 0x680c <fmod+0x82>
    6816:	f8 cf       	rjmp	.-16     	; 0x6808 <fmod+0x7e>

00006818 <__fp_arccos>:
    6818:	df 93       	push	r29
    681a:	cf 93       	push	r28
    681c:	1f 93       	push	r17
    681e:	0f 93       	push	r16
    6820:	8b 01       	movw	r16, r22
    6822:	ec 01       	movw	r28, r24
    6824:	ed ec       	ldi	r30, 0xCD	; 205
    6826:	f0 e0       	ldi	r31, 0x00	; 0
    6828:	4d d0       	rcall	.+154    	; 0x68c4 <__fp_powser>
    682a:	b8 d0       	rcall	.+368    	; 0x699c <__fp_round>
    682c:	98 01       	movw	r18, r16
    682e:	ae 01       	movw	r20, r28
    6830:	8b 01       	movw	r16, r22
    6832:	ec 01       	movw	r28, r24
    6834:	60 e0       	ldi	r22, 0x00	; 0
    6836:	70 e0       	ldi	r23, 0x00	; 0
    6838:	80 e8       	ldi	r24, 0x80	; 128
    683a:	9f e3       	ldi	r25, 0x3F	; 63
    683c:	c5 dd       	rcall	.-1142   	; 0x63c8 <__subsf3>
    683e:	71 d1       	rcall	.+738    	; 0x6b22 <sqrt>
    6840:	98 01       	movw	r18, r16
    6842:	ae 01       	movw	r20, r28
    6844:	0f 91       	pop	r16
    6846:	1f 91       	pop	r17
    6848:	cf 91       	pop	r28
    684a:	df 91       	pop	r29
    684c:	09 c1       	rjmp	.+530    	; 0x6a60 <__mulsf3x>

0000684e <__fp_cmp>:
    684e:	99 0f       	add	r25, r25
    6850:	00 08       	sbc	r0, r0
    6852:	55 0f       	add	r21, r21
    6854:	aa 0b       	sbc	r26, r26
    6856:	e0 e8       	ldi	r30, 0x80	; 128
    6858:	fe ef       	ldi	r31, 0xFE	; 254
    685a:	16 16       	cp	r1, r22
    685c:	17 06       	cpc	r1, r23
    685e:	e8 07       	cpc	r30, r24
    6860:	f9 07       	cpc	r31, r25
    6862:	c0 f0       	brcs	.+48     	; 0x6894 <__fp_cmp+0x46>
    6864:	12 16       	cp	r1, r18
    6866:	13 06       	cpc	r1, r19
    6868:	e4 07       	cpc	r30, r20
    686a:	f5 07       	cpc	r31, r21
    686c:	98 f0       	brcs	.+38     	; 0x6894 <__fp_cmp+0x46>
    686e:	62 1b       	sub	r22, r18
    6870:	73 0b       	sbc	r23, r19
    6872:	84 0b       	sbc	r24, r20
    6874:	95 0b       	sbc	r25, r21
    6876:	39 f4       	brne	.+14     	; 0x6886 <__fp_cmp+0x38>
    6878:	0a 26       	eor	r0, r26
    687a:	61 f0       	breq	.+24     	; 0x6894 <__fp_cmp+0x46>
    687c:	23 2b       	or	r18, r19
    687e:	24 2b       	or	r18, r20
    6880:	25 2b       	or	r18, r21
    6882:	21 f4       	brne	.+8      	; 0x688c <__fp_cmp+0x3e>
    6884:	08 95       	ret
    6886:	0a 26       	eor	r0, r26
    6888:	09 f4       	brne	.+2      	; 0x688c <__fp_cmp+0x3e>
    688a:	a1 40       	sbci	r26, 0x01	; 1
    688c:	a6 95       	lsr	r26
    688e:	8f ef       	ldi	r24, 0xFF	; 255
    6890:	81 1d       	adc	r24, r1
    6892:	81 1d       	adc	r24, r1
    6894:	08 95       	ret

00006896 <__fp_inf>:
    6896:	97 f9       	bld	r25, 7
    6898:	9f 67       	ori	r25, 0x7F	; 127
    689a:	80 e8       	ldi	r24, 0x80	; 128
    689c:	70 e0       	ldi	r23, 0x00	; 0
    689e:	60 e0       	ldi	r22, 0x00	; 0
    68a0:	08 95       	ret

000068a2 <__fp_mpack>:
    68a2:	9f 3f       	cpi	r25, 0xFF	; 255
    68a4:	31 f0       	breq	.+12     	; 0x68b2 <__fp_mpack_finite+0xc>

000068a6 <__fp_mpack_finite>:
    68a6:	91 50       	subi	r25, 0x01	; 1
    68a8:	20 f4       	brcc	.+8      	; 0x68b2 <__fp_mpack_finite+0xc>
    68aa:	87 95       	ror	r24
    68ac:	77 95       	ror	r23
    68ae:	67 95       	ror	r22
    68b0:	b7 95       	ror	r27
    68b2:	88 0f       	add	r24, r24
    68b4:	91 1d       	adc	r25, r1
    68b6:	96 95       	lsr	r25
    68b8:	87 95       	ror	r24
    68ba:	97 f9       	bld	r25, 7
    68bc:	08 95       	ret

000068be <__fp_nan>:
    68be:	9f ef       	ldi	r25, 0xFF	; 255
    68c0:	80 ec       	ldi	r24, 0xC0	; 192
    68c2:	08 95       	ret

000068c4 <__fp_powser>:
    68c4:	df 93       	push	r29
    68c6:	cf 93       	push	r28
    68c8:	1f 93       	push	r17
    68ca:	0f 93       	push	r16
    68cc:	ff 92       	push	r15
    68ce:	ef 92       	push	r14
    68d0:	df 92       	push	r13
    68d2:	7b 01       	movw	r14, r22
    68d4:	8c 01       	movw	r16, r24
    68d6:	68 94       	set
    68d8:	05 c0       	rjmp	.+10     	; 0x68e4 <__fp_powser+0x20>
    68da:	da 2e       	mov	r13, r26
    68dc:	ef 01       	movw	r28, r30
    68de:	c0 d0       	rcall	.+384    	; 0x6a60 <__mulsf3x>
    68e0:	fe 01       	movw	r30, r28
    68e2:	e8 94       	clt
    68e4:	a5 91       	lpm	r26, Z+
    68e6:	25 91       	lpm	r18, Z+
    68e8:	35 91       	lpm	r19, Z+
    68ea:	45 91       	lpm	r20, Z+
    68ec:	55 91       	lpm	r21, Z+
    68ee:	ae f3       	brts	.-22     	; 0x68da <__fp_powser+0x16>
    68f0:	ef 01       	movw	r28, r30
    68f2:	7c dd       	rcall	.-1288   	; 0x63ec <__addsf3x>
    68f4:	fe 01       	movw	r30, r28
    68f6:	97 01       	movw	r18, r14
    68f8:	a8 01       	movw	r20, r16
    68fa:	da 94       	dec	r13
    68fc:	79 f7       	brne	.-34     	; 0x68dc <__fp_powser+0x18>
    68fe:	df 90       	pop	r13
    6900:	ef 90       	pop	r14
    6902:	ff 90       	pop	r15
    6904:	0f 91       	pop	r16
    6906:	1f 91       	pop	r17
    6908:	cf 91       	pop	r28
    690a:	df 91       	pop	r29
    690c:	08 95       	ret

0000690e <__fp_powsodd>:
    690e:	9f 93       	push	r25
    6910:	8f 93       	push	r24
    6912:	7f 93       	push	r23
    6914:	6f 93       	push	r22
    6916:	ff 93       	push	r31
    6918:	ef 93       	push	r30
    691a:	9b 01       	movw	r18, r22
    691c:	ac 01       	movw	r20, r24
    691e:	94 d0       	rcall	.+296    	; 0x6a48 <__mulsf3>
    6920:	ef 91       	pop	r30
    6922:	ff 91       	pop	r31
    6924:	cf df       	rcall	.-98     	; 0x68c4 <__fp_powser>
    6926:	2f 91       	pop	r18
    6928:	3f 91       	pop	r19
    692a:	4f 91       	pop	r20
    692c:	5f 91       	pop	r21
    692e:	8c c0       	rjmp	.+280    	; 0x6a48 <__mulsf3>

00006930 <__fp_pscA>:
    6930:	00 24       	eor	r0, r0
    6932:	0a 94       	dec	r0
    6934:	16 16       	cp	r1, r22
    6936:	17 06       	cpc	r1, r23
    6938:	18 06       	cpc	r1, r24
    693a:	09 06       	cpc	r0, r25
    693c:	08 95       	ret

0000693e <__fp_pscB>:
    693e:	00 24       	eor	r0, r0
    6940:	0a 94       	dec	r0
    6942:	12 16       	cp	r1, r18
    6944:	13 06       	cpc	r1, r19
    6946:	14 06       	cpc	r1, r20
    6948:	05 06       	cpc	r0, r21
    694a:	08 95       	ret
    694c:	b8 cf       	rjmp	.-144    	; 0x68be <__fp_nan>

0000694e <__fp_rempio2>:
    694e:	50 d0       	rcall	.+160    	; 0x69f0 <__fp_splitA>
    6950:	e8 f3       	brcs	.-6      	; 0x694c <__fp_pscB+0xe>
    6952:	e8 94       	clt
    6954:	e0 e0       	ldi	r30, 0x00	; 0
    6956:	bb 27       	eor	r27, r27
    6958:	9f 57       	subi	r25, 0x7F	; 127
    695a:	f0 f0       	brcs	.+60     	; 0x6998 <__fp_rempio2+0x4a>
    695c:	2a ed       	ldi	r18, 0xDA	; 218
    695e:	3f e0       	ldi	r19, 0x0F	; 15
    6960:	49 ec       	ldi	r20, 0xC9	; 201
    6962:	06 c0       	rjmp	.+12     	; 0x6970 <__fp_rempio2+0x22>
    6964:	ee 0f       	add	r30, r30
    6966:	bb 0f       	add	r27, r27
    6968:	66 1f       	adc	r22, r22
    696a:	77 1f       	adc	r23, r23
    696c:	88 1f       	adc	r24, r24
    696e:	28 f0       	brcs	.+10     	; 0x697a <__fp_rempio2+0x2c>
    6970:	b2 3a       	cpi	r27, 0xA2	; 162
    6972:	62 07       	cpc	r22, r18
    6974:	73 07       	cpc	r23, r19
    6976:	84 07       	cpc	r24, r20
    6978:	28 f0       	brcs	.+10     	; 0x6984 <__fp_rempio2+0x36>
    697a:	b2 5a       	subi	r27, 0xA2	; 162
    697c:	62 0b       	sbc	r22, r18
    697e:	73 0b       	sbc	r23, r19
    6980:	84 0b       	sbc	r24, r20
    6982:	e3 95       	inc	r30
    6984:	9a 95       	dec	r25
    6986:	72 f7       	brpl	.-36     	; 0x6964 <__fp_rempio2+0x16>
    6988:	80 38       	cpi	r24, 0x80	; 128
    698a:	30 f4       	brcc	.+12     	; 0x6998 <__fp_rempio2+0x4a>
    698c:	9a 95       	dec	r25
    698e:	bb 0f       	add	r27, r27
    6990:	66 1f       	adc	r22, r22
    6992:	77 1f       	adc	r23, r23
    6994:	88 1f       	adc	r24, r24
    6996:	d2 f7       	brpl	.-12     	; 0x698c <__fp_rempio2+0x3e>
    6998:	90 48       	sbci	r25, 0x80	; 128
    699a:	85 cf       	rjmp	.-246    	; 0x68a6 <__fp_mpack_finite>

0000699c <__fp_round>:
    699c:	09 2e       	mov	r0, r25
    699e:	03 94       	inc	r0
    69a0:	00 0c       	add	r0, r0
    69a2:	11 f4       	brne	.+4      	; 0x69a8 <__fp_round+0xc>
    69a4:	88 23       	and	r24, r24
    69a6:	52 f0       	brmi	.+20     	; 0x69bc <__fp_round+0x20>
    69a8:	bb 0f       	add	r27, r27
    69aa:	40 f4       	brcc	.+16     	; 0x69bc <__fp_round+0x20>
    69ac:	bf 2b       	or	r27, r31
    69ae:	11 f4       	brne	.+4      	; 0x69b4 <__fp_round+0x18>
    69b0:	60 ff       	sbrs	r22, 0
    69b2:	04 c0       	rjmp	.+8      	; 0x69bc <__fp_round+0x20>
    69b4:	6f 5f       	subi	r22, 0xFF	; 255
    69b6:	7f 4f       	sbci	r23, 0xFF	; 255
    69b8:	8f 4f       	sbci	r24, 0xFF	; 255
    69ba:	9f 4f       	sbci	r25, 0xFF	; 255
    69bc:	08 95       	ret

000069be <__fp_sinus>:
    69be:	ef 93       	push	r30
    69c0:	e0 ff       	sbrs	r30, 0
    69c2:	06 c0       	rjmp	.+12     	; 0x69d0 <__fp_sinus+0x12>
    69c4:	a2 ea       	ldi	r26, 0xA2	; 162
    69c6:	2a ed       	ldi	r18, 0xDA	; 218
    69c8:	3f e0       	ldi	r19, 0x0F	; 15
    69ca:	49 ec       	ldi	r20, 0xC9	; 201
    69cc:	5f eb       	ldi	r21, 0xBF	; 191
    69ce:	0e dd       	rcall	.-1508   	; 0x63ec <__addsf3x>
    69d0:	e5 df       	rcall	.-54     	; 0x699c <__fp_round>
    69d2:	0f 90       	pop	r0
    69d4:	03 94       	inc	r0
    69d6:	01 fc       	sbrc	r0, 1
    69d8:	90 58       	subi	r25, 0x80	; 128
    69da:	e5 ef       	ldi	r30, 0xF5	; 245
    69dc:	f0 e0       	ldi	r31, 0x00	; 0
    69de:	97 cf       	rjmp	.-210    	; 0x690e <__fp_powsodd>

000069e0 <__fp_split3>:
    69e0:	57 fd       	sbrc	r21, 7
    69e2:	90 58       	subi	r25, 0x80	; 128
    69e4:	44 0f       	add	r20, r20
    69e6:	55 1f       	adc	r21, r21
    69e8:	59 f0       	breq	.+22     	; 0x6a00 <__fp_splitA+0x10>
    69ea:	5f 3f       	cpi	r21, 0xFF	; 255
    69ec:	71 f0       	breq	.+28     	; 0x6a0a <__fp_splitA+0x1a>
    69ee:	47 95       	ror	r20

000069f0 <__fp_splitA>:
    69f0:	88 0f       	add	r24, r24
    69f2:	97 fb       	bst	r25, 7
    69f4:	99 1f       	adc	r25, r25
    69f6:	61 f0       	breq	.+24     	; 0x6a10 <__fp_splitA+0x20>
    69f8:	9f 3f       	cpi	r25, 0xFF	; 255
    69fa:	79 f0       	breq	.+30     	; 0x6a1a <__fp_splitA+0x2a>
    69fc:	87 95       	ror	r24
    69fe:	08 95       	ret
    6a00:	12 16       	cp	r1, r18
    6a02:	13 06       	cpc	r1, r19
    6a04:	14 06       	cpc	r1, r20
    6a06:	55 1f       	adc	r21, r21
    6a08:	f2 cf       	rjmp	.-28     	; 0x69ee <__fp_split3+0xe>
    6a0a:	46 95       	lsr	r20
    6a0c:	f1 df       	rcall	.-30     	; 0x69f0 <__fp_splitA>
    6a0e:	08 c0       	rjmp	.+16     	; 0x6a20 <__fp_splitA+0x30>
    6a10:	16 16       	cp	r1, r22
    6a12:	17 06       	cpc	r1, r23
    6a14:	18 06       	cpc	r1, r24
    6a16:	99 1f       	adc	r25, r25
    6a18:	f1 cf       	rjmp	.-30     	; 0x69fc <__fp_splitA+0xc>
    6a1a:	86 95       	lsr	r24
    6a1c:	71 05       	cpc	r23, r1
    6a1e:	61 05       	cpc	r22, r1
    6a20:	08 94       	sec
    6a22:	08 95       	ret

00006a24 <__fp_zero>:
    6a24:	e8 94       	clt

00006a26 <__fp_szero>:
    6a26:	bb 27       	eor	r27, r27
    6a28:	66 27       	eor	r22, r22
    6a2a:	77 27       	eor	r23, r23
    6a2c:	cb 01       	movw	r24, r22
    6a2e:	97 f9       	bld	r25, 7
    6a30:	08 95       	ret

00006a32 <__gesf2>:
    6a32:	0d df       	rcall	.-486    	; 0x684e <__fp_cmp>
    6a34:	08 f4       	brcc	.+2      	; 0x6a38 <__gesf2+0x6>
    6a36:	8f ef       	ldi	r24, 0xFF	; 255
    6a38:	08 95       	ret

00006a3a <inverse>:
    6a3a:	9b 01       	movw	r18, r22
    6a3c:	ac 01       	movw	r20, r24
    6a3e:	60 e0       	ldi	r22, 0x00	; 0
    6a40:	70 e0       	ldi	r23, 0x00	; 0
    6a42:	80 e8       	ldi	r24, 0x80	; 128
    6a44:	9f e3       	ldi	r25, 0x3F	; 63
    6a46:	a5 cd       	rjmp	.-1206   	; 0x6592 <__divsf3>

00006a48 <__mulsf3>:
    6a48:	0b d0       	rcall	.+22     	; 0x6a60 <__mulsf3x>
    6a4a:	a8 cf       	rjmp	.-176    	; 0x699c <__fp_round>
    6a4c:	71 df       	rcall	.-286    	; 0x6930 <__fp_pscA>
    6a4e:	28 f0       	brcs	.+10     	; 0x6a5a <__mulsf3+0x12>
    6a50:	76 df       	rcall	.-276    	; 0x693e <__fp_pscB>
    6a52:	18 f0       	brcs	.+6      	; 0x6a5a <__mulsf3+0x12>
    6a54:	95 23       	and	r25, r21
    6a56:	09 f0       	breq	.+2      	; 0x6a5a <__mulsf3+0x12>
    6a58:	1e cf       	rjmp	.-452    	; 0x6896 <__fp_inf>
    6a5a:	31 cf       	rjmp	.-414    	; 0x68be <__fp_nan>
    6a5c:	11 24       	eor	r1, r1
    6a5e:	e3 cf       	rjmp	.-58     	; 0x6a26 <__fp_szero>

00006a60 <__mulsf3x>:
    6a60:	bf df       	rcall	.-130    	; 0x69e0 <__fp_split3>
    6a62:	a0 f3       	brcs	.-24     	; 0x6a4c <__mulsf3+0x4>

00006a64 <__mulsf3_pse>:
    6a64:	95 9f       	mul	r25, r21
    6a66:	d1 f3       	breq	.-12     	; 0x6a5c <__mulsf3+0x14>
    6a68:	95 0f       	add	r25, r21
    6a6a:	50 e0       	ldi	r21, 0x00	; 0
    6a6c:	55 1f       	adc	r21, r21
    6a6e:	62 9f       	mul	r22, r18
    6a70:	f0 01       	movw	r30, r0
    6a72:	72 9f       	mul	r23, r18
    6a74:	bb 27       	eor	r27, r27
    6a76:	f0 0d       	add	r31, r0
    6a78:	b1 1d       	adc	r27, r1
    6a7a:	63 9f       	mul	r22, r19
    6a7c:	aa 27       	eor	r26, r26
    6a7e:	f0 0d       	add	r31, r0
    6a80:	b1 1d       	adc	r27, r1
    6a82:	aa 1f       	adc	r26, r26
    6a84:	64 9f       	mul	r22, r20
    6a86:	66 27       	eor	r22, r22
    6a88:	b0 0d       	add	r27, r0
    6a8a:	a1 1d       	adc	r26, r1
    6a8c:	66 1f       	adc	r22, r22
    6a8e:	82 9f       	mul	r24, r18
    6a90:	22 27       	eor	r18, r18
    6a92:	b0 0d       	add	r27, r0
    6a94:	a1 1d       	adc	r26, r1
    6a96:	62 1f       	adc	r22, r18
    6a98:	73 9f       	mul	r23, r19
    6a9a:	b0 0d       	add	r27, r0
    6a9c:	a1 1d       	adc	r26, r1
    6a9e:	62 1f       	adc	r22, r18
    6aa0:	83 9f       	mul	r24, r19
    6aa2:	a0 0d       	add	r26, r0
    6aa4:	61 1d       	adc	r22, r1
    6aa6:	22 1f       	adc	r18, r18
    6aa8:	74 9f       	mul	r23, r20
    6aaa:	33 27       	eor	r19, r19
    6aac:	a0 0d       	add	r26, r0
    6aae:	61 1d       	adc	r22, r1
    6ab0:	23 1f       	adc	r18, r19
    6ab2:	84 9f       	mul	r24, r20
    6ab4:	60 0d       	add	r22, r0
    6ab6:	21 1d       	adc	r18, r1
    6ab8:	82 2f       	mov	r24, r18
    6aba:	76 2f       	mov	r23, r22
    6abc:	6a 2f       	mov	r22, r26
    6abe:	11 24       	eor	r1, r1
    6ac0:	9f 57       	subi	r25, 0x7F	; 127
    6ac2:	50 40       	sbci	r21, 0x00	; 0
    6ac4:	8a f0       	brmi	.+34     	; 0x6ae8 <__mulsf3_pse+0x84>
    6ac6:	e1 f0       	breq	.+56     	; 0x6b00 <__mulsf3_pse+0x9c>
    6ac8:	88 23       	and	r24, r24
    6aca:	4a f0       	brmi	.+18     	; 0x6ade <__mulsf3_pse+0x7a>
    6acc:	ee 0f       	add	r30, r30
    6ace:	ff 1f       	adc	r31, r31
    6ad0:	bb 1f       	adc	r27, r27
    6ad2:	66 1f       	adc	r22, r22
    6ad4:	77 1f       	adc	r23, r23
    6ad6:	88 1f       	adc	r24, r24
    6ad8:	91 50       	subi	r25, 0x01	; 1
    6ada:	50 40       	sbci	r21, 0x00	; 0
    6adc:	a9 f7       	brne	.-22     	; 0x6ac8 <__mulsf3_pse+0x64>
    6ade:	9e 3f       	cpi	r25, 0xFE	; 254
    6ae0:	51 05       	cpc	r21, r1
    6ae2:	70 f0       	brcs	.+28     	; 0x6b00 <__mulsf3_pse+0x9c>
    6ae4:	d8 ce       	rjmp	.-592    	; 0x6896 <__fp_inf>
    6ae6:	9f cf       	rjmp	.-194    	; 0x6a26 <__fp_szero>
    6ae8:	5f 3f       	cpi	r21, 0xFF	; 255
    6aea:	ec f3       	brlt	.-6      	; 0x6ae6 <__mulsf3_pse+0x82>
    6aec:	98 3e       	cpi	r25, 0xE8	; 232
    6aee:	dc f3       	brlt	.-10     	; 0x6ae6 <__mulsf3_pse+0x82>
    6af0:	86 95       	lsr	r24
    6af2:	77 95       	ror	r23
    6af4:	67 95       	ror	r22
    6af6:	b7 95       	ror	r27
    6af8:	f7 95       	ror	r31
    6afa:	e7 95       	ror	r30
    6afc:	9f 5f       	subi	r25, 0xFF	; 255
    6afe:	c1 f7       	brne	.-16     	; 0x6af0 <__mulsf3_pse+0x8c>
    6b00:	fe 2b       	or	r31, r30
    6b02:	88 0f       	add	r24, r24
    6b04:	91 1d       	adc	r25, r1
    6b06:	96 95       	lsr	r25
    6b08:	87 95       	ror	r24
    6b0a:	97 f9       	bld	r25, 7
    6b0c:	08 95       	ret

00006b0e <sin>:
    6b0e:	9f 93       	push	r25
    6b10:	1e df       	rcall	.-452    	; 0x694e <__fp_rempio2>
    6b12:	0f 90       	pop	r0
    6b14:	07 fc       	sbrc	r0, 7
    6b16:	ee 5f       	subi	r30, 0xFE	; 254
    6b18:	52 cf       	rjmp	.-348    	; 0x69be <__fp_sinus>
    6b1a:	11 f4       	brne	.+4      	; 0x6b20 <sin+0x12>
    6b1c:	0e f4       	brtc	.+2      	; 0x6b20 <sin+0x12>
    6b1e:	cf ce       	rjmp	.-610    	; 0x68be <__fp_nan>
    6b20:	c0 ce       	rjmp	.-640    	; 0x68a2 <__fp_mpack>

00006b22 <sqrt>:
    6b22:	66 df       	rcall	.-308    	; 0x69f0 <__fp_splitA>
    6b24:	d0 f3       	brcs	.-12     	; 0x6b1a <sin+0xc>
    6b26:	99 23       	and	r25, r25
    6b28:	d9 f3       	breq	.-10     	; 0x6b20 <sin+0x12>
    6b2a:	ce f3       	brts	.-14     	; 0x6b1e <sin+0x10>
    6b2c:	9f 57       	subi	r25, 0x7F	; 127
    6b2e:	55 0b       	sbc	r21, r21
    6b30:	87 ff       	sbrs	r24, 7
    6b32:	38 d0       	rcall	.+112    	; 0x6ba4 <__fp_norm2>
    6b34:	00 24       	eor	r0, r0
    6b36:	a0 e6       	ldi	r26, 0x60	; 96
    6b38:	40 ea       	ldi	r20, 0xA0	; 160
    6b3a:	90 01       	movw	r18, r0
    6b3c:	80 58       	subi	r24, 0x80	; 128
    6b3e:	56 95       	lsr	r21
    6b40:	97 95       	ror	r25
    6b42:	28 f4       	brcc	.+10     	; 0x6b4e <sqrt+0x2c>
    6b44:	80 5c       	subi	r24, 0xC0	; 192
    6b46:	66 0f       	add	r22, r22
    6b48:	77 1f       	adc	r23, r23
    6b4a:	88 1f       	adc	r24, r24
    6b4c:	20 f0       	brcs	.+8      	; 0x6b56 <sqrt+0x34>
    6b4e:	26 17       	cp	r18, r22
    6b50:	37 07       	cpc	r19, r23
    6b52:	48 07       	cpc	r20, r24
    6b54:	30 f4       	brcc	.+12     	; 0x6b62 <sqrt+0x40>
    6b56:	62 1b       	sub	r22, r18
    6b58:	73 0b       	sbc	r23, r19
    6b5a:	84 0b       	sbc	r24, r20
    6b5c:	20 29       	or	r18, r0
    6b5e:	31 29       	or	r19, r1
    6b60:	4a 2b       	or	r20, r26
    6b62:	a6 95       	lsr	r26
    6b64:	17 94       	ror	r1
    6b66:	07 94       	ror	r0
    6b68:	20 25       	eor	r18, r0
    6b6a:	31 25       	eor	r19, r1
    6b6c:	4a 27       	eor	r20, r26
    6b6e:	58 f7       	brcc	.-42     	; 0x6b46 <sqrt+0x24>
    6b70:	66 0f       	add	r22, r22
    6b72:	77 1f       	adc	r23, r23
    6b74:	88 1f       	adc	r24, r24
    6b76:	20 f0       	brcs	.+8      	; 0x6b80 <sqrt+0x5e>
    6b78:	26 17       	cp	r18, r22
    6b7a:	37 07       	cpc	r19, r23
    6b7c:	48 07       	cpc	r20, r24
    6b7e:	30 f4       	brcc	.+12     	; 0x6b8c <sqrt+0x6a>
    6b80:	62 0b       	sbc	r22, r18
    6b82:	73 0b       	sbc	r23, r19
    6b84:	84 0b       	sbc	r24, r20
    6b86:	20 0d       	add	r18, r0
    6b88:	31 1d       	adc	r19, r1
    6b8a:	41 1d       	adc	r20, r1
    6b8c:	a0 95       	com	r26
    6b8e:	81 f7       	brne	.-32     	; 0x6b70 <sqrt+0x4e>
    6b90:	b9 01       	movw	r22, r18
    6b92:	84 2f       	mov	r24, r20
    6b94:	91 58       	subi	r25, 0x81	; 129
    6b96:	88 0f       	add	r24, r24
    6b98:	96 95       	lsr	r25
    6b9a:	87 95       	ror	r24
    6b9c:	08 95       	ret

00006b9e <square>:
    6b9e:	9b 01       	movw	r18, r22
    6ba0:	ac 01       	movw	r20, r24
    6ba2:	52 cf       	rjmp	.-348    	; 0x6a48 <__mulsf3>

00006ba4 <__fp_norm2>:
    6ba4:	91 50       	subi	r25, 0x01	; 1
    6ba6:	50 40       	sbci	r21, 0x00	; 0
    6ba8:	66 0f       	add	r22, r22
    6baa:	77 1f       	adc	r23, r23
    6bac:	88 1f       	adc	r24, r24
    6bae:	d2 f7       	brpl	.-12     	; 0x6ba4 <__fp_norm2>
    6bb0:	08 95       	ret

00006bb2 <__divmodsi4>:
    6bb2:	05 2e       	mov	r0, r21
    6bb4:	97 fb       	bst	r25, 7
    6bb6:	16 f4       	brtc	.+4      	; 0x6bbc <__divmodsi4+0xa>
    6bb8:	00 94       	com	r0
    6bba:	06 d0       	rcall	.+12     	; 0x6bc8 <__divmodsi4_neg1>
    6bbc:	57 fd       	sbrc	r21, 7
    6bbe:	0c d0       	rcall	.+24     	; 0x6bd8 <__divmodsi4_neg2>
    6bc0:	17 d0       	rcall	.+46     	; 0x6bf0 <__udivmodsi4>
    6bc2:	07 fc       	sbrc	r0, 7
    6bc4:	09 d0       	rcall	.+18     	; 0x6bd8 <__divmodsi4_neg2>
    6bc6:	7e f4       	brtc	.+30     	; 0x6be6 <__divmodsi4_exit>

00006bc8 <__divmodsi4_neg1>:
    6bc8:	90 95       	com	r25
    6bca:	80 95       	com	r24
    6bcc:	70 95       	com	r23
    6bce:	61 95       	neg	r22
    6bd0:	7f 4f       	sbci	r23, 0xFF	; 255
    6bd2:	8f 4f       	sbci	r24, 0xFF	; 255
    6bd4:	9f 4f       	sbci	r25, 0xFF	; 255
    6bd6:	08 95       	ret

00006bd8 <__divmodsi4_neg2>:
    6bd8:	50 95       	com	r21
    6bda:	40 95       	com	r20
    6bdc:	30 95       	com	r19
    6bde:	21 95       	neg	r18
    6be0:	3f 4f       	sbci	r19, 0xFF	; 255
    6be2:	4f 4f       	sbci	r20, 0xFF	; 255
    6be4:	5f 4f       	sbci	r21, 0xFF	; 255

00006be6 <__divmodsi4_exit>:
    6be6:	08 95       	ret

00006be8 <__tablejump_elpm__>:
    6be8:	07 90       	elpm	r0, Z+
    6bea:	f6 91       	elpm	r31, Z
    6bec:	e0 2d       	mov	r30, r0
    6bee:	09 94       	ijmp

00006bf0 <__udivmodsi4>:
    6bf0:	a1 e2       	ldi	r26, 0x21	; 33
    6bf2:	1a 2e       	mov	r1, r26
    6bf4:	aa 1b       	sub	r26, r26
    6bf6:	bb 1b       	sub	r27, r27
    6bf8:	fd 01       	movw	r30, r26
    6bfa:	0d c0       	rjmp	.+26     	; 0x6c16 <__udivmodsi4_ep>

00006bfc <__udivmodsi4_loop>:
    6bfc:	aa 1f       	adc	r26, r26
    6bfe:	bb 1f       	adc	r27, r27
    6c00:	ee 1f       	adc	r30, r30
    6c02:	ff 1f       	adc	r31, r31
    6c04:	a2 17       	cp	r26, r18
    6c06:	b3 07       	cpc	r27, r19
    6c08:	e4 07       	cpc	r30, r20
    6c0a:	f5 07       	cpc	r31, r21
    6c0c:	20 f0       	brcs	.+8      	; 0x6c16 <__udivmodsi4_ep>
    6c0e:	a2 1b       	sub	r26, r18
    6c10:	b3 0b       	sbc	r27, r19
    6c12:	e4 0b       	sbc	r30, r20
    6c14:	f5 0b       	sbc	r31, r21

00006c16 <__udivmodsi4_ep>:
    6c16:	66 1f       	adc	r22, r22
    6c18:	77 1f       	adc	r23, r23
    6c1a:	88 1f       	adc	r24, r24
    6c1c:	99 1f       	adc	r25, r25
    6c1e:	1a 94       	dec	r1
    6c20:	69 f7       	brne	.-38     	; 0x6bfc <__udivmodsi4_loop>
    6c22:	60 95       	com	r22
    6c24:	70 95       	com	r23
    6c26:	80 95       	com	r24
    6c28:	90 95       	com	r25
    6c2a:	9b 01       	movw	r18, r22
    6c2c:	ac 01       	movw	r20, r24
    6c2e:	bd 01       	movw	r22, r26
    6c30:	cf 01       	movw	r24, r30
    6c32:	08 95       	ret

00006c34 <malloc>:
    6c34:	0f 93       	push	r16
    6c36:	1f 93       	push	r17
    6c38:	cf 93       	push	r28
    6c3a:	df 93       	push	r29
    6c3c:	82 30       	cpi	r24, 0x02	; 2
    6c3e:	91 05       	cpc	r25, r1
    6c40:	10 f4       	brcc	.+4      	; 0x6c46 <malloc+0x12>
    6c42:	82 e0       	ldi	r24, 0x02	; 2
    6c44:	90 e0       	ldi	r25, 0x00	; 0
    6c46:	e0 91 00 20 	lds	r30, 0x2000
    6c4a:	f0 91 01 20 	lds	r31, 0x2001
    6c4e:	20 e0       	ldi	r18, 0x00	; 0
    6c50:	30 e0       	ldi	r19, 0x00	; 0
    6c52:	c0 e0       	ldi	r28, 0x00	; 0
    6c54:	d0 e0       	ldi	r29, 0x00	; 0
    6c56:	23 c0       	rjmp	.+70     	; 0x6c9e <malloc+0x6a>
    6c58:	40 81       	ld	r20, Z
    6c5a:	51 81       	ldd	r21, Z+1	; 0x01
    6c5c:	48 17       	cp	r20, r24
    6c5e:	59 07       	cpc	r21, r25
    6c60:	a8 f0       	brcs	.+42     	; 0x6c8c <malloc+0x58>
    6c62:	48 17       	cp	r20, r24
    6c64:	59 07       	cpc	r21, r25
    6c66:	61 f4       	brne	.+24     	; 0x6c80 <malloc+0x4c>
    6c68:	82 81       	ldd	r24, Z+2	; 0x02
    6c6a:	93 81       	ldd	r25, Z+3	; 0x03
    6c6c:	20 97       	sbiw	r28, 0x00	; 0
    6c6e:	19 f0       	breq	.+6      	; 0x6c76 <malloc+0x42>
    6c70:	9b 83       	std	Y+3, r25	; 0x03
    6c72:	8a 83       	std	Y+2, r24	; 0x02
    6c74:	2e c0       	rjmp	.+92     	; 0x6cd2 <malloc+0x9e>
    6c76:	90 93 01 20 	sts	0x2001, r25
    6c7a:	80 93 00 20 	sts	0x2000, r24
    6c7e:	29 c0       	rjmp	.+82     	; 0x6cd2 <malloc+0x9e>
    6c80:	21 15       	cp	r18, r1
    6c82:	31 05       	cpc	r19, r1
    6c84:	29 f0       	breq	.+10     	; 0x6c90 <malloc+0x5c>
    6c86:	42 17       	cp	r20, r18
    6c88:	53 07       	cpc	r21, r19
    6c8a:	10 f0       	brcs	.+4      	; 0x6c90 <malloc+0x5c>
    6c8c:	a9 01       	movw	r20, r18
    6c8e:	02 c0       	rjmp	.+4      	; 0x6c94 <malloc+0x60>
    6c90:	be 01       	movw	r22, r28
    6c92:	df 01       	movw	r26, r30
    6c94:	02 81       	ldd	r16, Z+2	; 0x02
    6c96:	13 81       	ldd	r17, Z+3	; 0x03
    6c98:	ef 01       	movw	r28, r30
    6c9a:	9a 01       	movw	r18, r20
    6c9c:	f8 01       	movw	r30, r16
    6c9e:	30 97       	sbiw	r30, 0x00	; 0
    6ca0:	d9 f6       	brne	.-74     	; 0x6c58 <malloc+0x24>
    6ca2:	21 15       	cp	r18, r1
    6ca4:	31 05       	cpc	r19, r1
    6ca6:	09 f1       	breq	.+66     	; 0x6cea <malloc+0xb6>
    6ca8:	28 1b       	sub	r18, r24
    6caa:	39 0b       	sbc	r19, r25
    6cac:	24 30       	cpi	r18, 0x04	; 4
    6cae:	31 05       	cpc	r19, r1
    6cb0:	90 f4       	brcc	.+36     	; 0x6cd6 <malloc+0xa2>
    6cb2:	12 96       	adiw	r26, 0x02	; 2
    6cb4:	8d 91       	ld	r24, X+
    6cb6:	9c 91       	ld	r25, X
    6cb8:	13 97       	sbiw	r26, 0x03	; 3
    6cba:	61 15       	cp	r22, r1
    6cbc:	71 05       	cpc	r23, r1
    6cbe:	21 f0       	breq	.+8      	; 0x6cc8 <malloc+0x94>
    6cc0:	fb 01       	movw	r30, r22
    6cc2:	93 83       	std	Z+3, r25	; 0x03
    6cc4:	82 83       	std	Z+2, r24	; 0x02
    6cc6:	04 c0       	rjmp	.+8      	; 0x6cd0 <malloc+0x9c>
    6cc8:	90 93 01 20 	sts	0x2001, r25
    6ccc:	80 93 00 20 	sts	0x2000, r24
    6cd0:	fd 01       	movw	r30, r26
    6cd2:	32 96       	adiw	r30, 0x02	; 2
    6cd4:	44 c0       	rjmp	.+136    	; 0x6d5e <malloc+0x12a>
    6cd6:	fd 01       	movw	r30, r26
    6cd8:	e2 0f       	add	r30, r18
    6cda:	f3 1f       	adc	r31, r19
    6cdc:	81 93       	st	Z+, r24
    6cde:	91 93       	st	Z+, r25
    6ce0:	22 50       	subi	r18, 0x02	; 2
    6ce2:	31 09       	sbc	r19, r1
    6ce4:	2d 93       	st	X+, r18
    6ce6:	3c 93       	st	X, r19
    6ce8:	3a c0       	rjmp	.+116    	; 0x6d5e <malloc+0x12a>
    6cea:	20 91 fe 1f 	lds	r18, 0x1FFE
    6cee:	30 91 ff 1f 	lds	r19, 0x1FFF
    6cf2:	23 2b       	or	r18, r19
    6cf4:	41 f4       	brne	.+16     	; 0x6d06 <malloc+0xd2>
    6cf6:	20 91 02 01 	lds	r18, 0x0102
    6cfa:	30 91 03 01 	lds	r19, 0x0103
    6cfe:	30 93 ff 1f 	sts	0x1FFF, r19
    6d02:	20 93 fe 1f 	sts	0x1FFE, r18
    6d06:	20 91 00 01 	lds	r18, 0x0100
    6d0a:	30 91 01 01 	lds	r19, 0x0101
    6d0e:	21 15       	cp	r18, r1
    6d10:	31 05       	cpc	r19, r1
    6d12:	41 f4       	brne	.+16     	; 0x6d24 <malloc+0xf0>
    6d14:	2d b7       	in	r18, 0x3d	; 61
    6d16:	3e b7       	in	r19, 0x3e	; 62
    6d18:	40 91 04 01 	lds	r20, 0x0104
    6d1c:	50 91 05 01 	lds	r21, 0x0105
    6d20:	24 1b       	sub	r18, r20
    6d22:	35 0b       	sbc	r19, r21
    6d24:	e0 91 fe 1f 	lds	r30, 0x1FFE
    6d28:	f0 91 ff 1f 	lds	r31, 0x1FFF
    6d2c:	e2 17       	cp	r30, r18
    6d2e:	f3 07       	cpc	r31, r19
    6d30:	a0 f4       	brcc	.+40     	; 0x6d5a <malloc+0x126>
    6d32:	2e 1b       	sub	r18, r30
    6d34:	3f 0b       	sbc	r19, r31
    6d36:	28 17       	cp	r18, r24
    6d38:	39 07       	cpc	r19, r25
    6d3a:	78 f0       	brcs	.+30     	; 0x6d5a <malloc+0x126>
    6d3c:	ac 01       	movw	r20, r24
    6d3e:	4e 5f       	subi	r20, 0xFE	; 254
    6d40:	5f 4f       	sbci	r21, 0xFF	; 255
    6d42:	24 17       	cp	r18, r20
    6d44:	35 07       	cpc	r19, r21
    6d46:	48 f0       	brcs	.+18     	; 0x6d5a <malloc+0x126>
    6d48:	4e 0f       	add	r20, r30
    6d4a:	5f 1f       	adc	r21, r31
    6d4c:	50 93 ff 1f 	sts	0x1FFF, r21
    6d50:	40 93 fe 1f 	sts	0x1FFE, r20
    6d54:	81 93       	st	Z+, r24
    6d56:	91 93       	st	Z+, r25
    6d58:	02 c0       	rjmp	.+4      	; 0x6d5e <malloc+0x12a>
    6d5a:	e0 e0       	ldi	r30, 0x00	; 0
    6d5c:	f0 e0       	ldi	r31, 0x00	; 0
    6d5e:	cf 01       	movw	r24, r30
    6d60:	df 91       	pop	r29
    6d62:	cf 91       	pop	r28
    6d64:	1f 91       	pop	r17
    6d66:	0f 91       	pop	r16
    6d68:	08 95       	ret

00006d6a <free>:
    6d6a:	ef 92       	push	r14
    6d6c:	ff 92       	push	r15
    6d6e:	0f 93       	push	r16
    6d70:	1f 93       	push	r17
    6d72:	cf 93       	push	r28
    6d74:	df 93       	push	r29
    6d76:	00 97       	sbiw	r24, 0x00	; 0
    6d78:	09 f4       	brne	.+2      	; 0x6d7c <free+0x12>
    6d7a:	8f c0       	rjmp	.+286    	; 0x6e9a <free+0x130>
    6d7c:	dc 01       	movw	r26, r24
    6d7e:	12 97       	sbiw	r26, 0x02	; 2
    6d80:	13 96       	adiw	r26, 0x03	; 3
    6d82:	1c 92       	st	X, r1
    6d84:	1e 92       	st	-X, r1
    6d86:	12 97       	sbiw	r26, 0x02	; 2
    6d88:	e0 90 00 20 	lds	r14, 0x2000
    6d8c:	f0 90 01 20 	lds	r15, 0x2001
    6d90:	e1 14       	cp	r14, r1
    6d92:	f1 04       	cpc	r15, r1
    6d94:	89 f4       	brne	.+34     	; 0x6db8 <free+0x4e>
    6d96:	2d 91       	ld	r18, X+
    6d98:	3c 91       	ld	r19, X
    6d9a:	11 97       	sbiw	r26, 0x01	; 1
    6d9c:	28 0f       	add	r18, r24
    6d9e:	39 1f       	adc	r19, r25
    6da0:	80 91 fe 1f 	lds	r24, 0x1FFE
    6da4:	90 91 ff 1f 	lds	r25, 0x1FFF
    6da8:	82 17       	cp	r24, r18
    6daa:	93 07       	cpc	r25, r19
    6dac:	89 f5       	brne	.+98     	; 0x6e10 <free+0xa6>
    6dae:	b0 93 ff 1f 	sts	0x1FFF, r27
    6db2:	a0 93 fe 1f 	sts	0x1FFE, r26
    6db6:	71 c0       	rjmp	.+226    	; 0x6e9a <free+0x130>
    6db8:	e7 01       	movw	r28, r14
    6dba:	20 e0       	ldi	r18, 0x00	; 0
    6dbc:	30 e0       	ldi	r19, 0x00	; 0
    6dbe:	01 c0       	rjmp	.+2      	; 0x6dc2 <free+0x58>
    6dc0:	ea 01       	movw	r28, r20
    6dc2:	ca 17       	cp	r28, r26
    6dc4:	db 07       	cpc	r29, r27
    6dc6:	38 f4       	brcc	.+14     	; 0x6dd6 <free+0x6c>
    6dc8:	4a 81       	ldd	r20, Y+2	; 0x02
    6dca:	5b 81       	ldd	r21, Y+3	; 0x03
    6dcc:	9e 01       	movw	r18, r28
    6dce:	41 15       	cp	r20, r1
    6dd0:	51 05       	cpc	r21, r1
    6dd2:	b1 f7       	brne	.-20     	; 0x6dc0 <free+0x56>
    6dd4:	22 c0       	rjmp	.+68     	; 0x6e1a <free+0xb0>
    6dd6:	bc 01       	movw	r22, r24
    6dd8:	62 50       	subi	r22, 0x02	; 2
    6dda:	71 09       	sbc	r23, r1
    6ddc:	fb 01       	movw	r30, r22
    6dde:	d3 83       	std	Z+3, r29	; 0x03
    6de0:	c2 83       	std	Z+2, r28	; 0x02
    6de2:	00 81       	ld	r16, Z
    6de4:	11 81       	ldd	r17, Z+1	; 0x01
    6de6:	ac 01       	movw	r20, r24
    6de8:	40 0f       	add	r20, r16
    6dea:	51 1f       	adc	r21, r17
    6dec:	4c 17       	cp	r20, r28
    6dee:	5d 07       	cpc	r21, r29
    6df0:	61 f4       	brne	.+24     	; 0x6e0a <free+0xa0>
    6df2:	48 81       	ld	r20, Y
    6df4:	59 81       	ldd	r21, Y+1	; 0x01
    6df6:	40 0f       	add	r20, r16
    6df8:	51 1f       	adc	r21, r17
    6dfa:	4e 5f       	subi	r20, 0xFE	; 254
    6dfc:	5f 4f       	sbci	r21, 0xFF	; 255
    6dfe:	51 83       	std	Z+1, r21	; 0x01
    6e00:	40 83       	st	Z, r20
    6e02:	4a 81       	ldd	r20, Y+2	; 0x02
    6e04:	5b 81       	ldd	r21, Y+3	; 0x03
    6e06:	53 83       	std	Z+3, r21	; 0x03
    6e08:	42 83       	std	Z+2, r20	; 0x02
    6e0a:	21 15       	cp	r18, r1
    6e0c:	31 05       	cpc	r19, r1
    6e0e:	29 f4       	brne	.+10     	; 0x6e1a <free+0xb0>
    6e10:	b0 93 01 20 	sts	0x2001, r27
    6e14:	a0 93 00 20 	sts	0x2000, r26
    6e18:	40 c0       	rjmp	.+128    	; 0x6e9a <free+0x130>
    6e1a:	f9 01       	movw	r30, r18
    6e1c:	b3 83       	std	Z+3, r27	; 0x03
    6e1e:	a2 83       	std	Z+2, r26	; 0x02
    6e20:	e9 01       	movw	r28, r18
    6e22:	69 91       	ld	r22, Y+
    6e24:	79 91       	ld	r23, Y+
    6e26:	c6 0f       	add	r28, r22
    6e28:	d7 1f       	adc	r29, r23
    6e2a:	ac 17       	cp	r26, r28
    6e2c:	bd 07       	cpc	r27, r29
    6e2e:	79 f4       	brne	.+30     	; 0x6e4e <free+0xe4>
    6e30:	dc 01       	movw	r26, r24
    6e32:	5e 91       	ld	r21, -X
    6e34:	4e 91       	ld	r20, -X
    6e36:	46 0f       	add	r20, r22
    6e38:	57 1f       	adc	r21, r23
    6e3a:	4e 5f       	subi	r20, 0xFE	; 254
    6e3c:	5f 4f       	sbci	r21, 0xFF	; 255
    6e3e:	51 83       	std	Z+1, r21	; 0x01
    6e40:	40 83       	st	Z, r20
    6e42:	12 96       	adiw	r26, 0x02	; 2
    6e44:	8d 91       	ld	r24, X+
    6e46:	9c 91       	ld	r25, X
    6e48:	13 97       	sbiw	r26, 0x03	; 3
    6e4a:	93 83       	std	Z+3, r25	; 0x03
    6e4c:	82 83       	std	Z+2, r24	; 0x02
    6e4e:	a0 e0       	ldi	r26, 0x00	; 0
    6e50:	b0 e0       	ldi	r27, 0x00	; 0
    6e52:	02 c0       	rjmp	.+4      	; 0x6e58 <free+0xee>
    6e54:	d7 01       	movw	r26, r14
    6e56:	7c 01       	movw	r14, r24
    6e58:	f7 01       	movw	r30, r14
    6e5a:	82 81       	ldd	r24, Z+2	; 0x02
    6e5c:	93 81       	ldd	r25, Z+3	; 0x03
    6e5e:	00 97       	sbiw	r24, 0x00	; 0
    6e60:	c9 f7       	brne	.-14     	; 0x6e54 <free+0xea>
    6e62:	c7 01       	movw	r24, r14
    6e64:	02 96       	adiw	r24, 0x02	; 2
    6e66:	20 81       	ld	r18, Z
    6e68:	31 81       	ldd	r19, Z+1	; 0x01
    6e6a:	82 0f       	add	r24, r18
    6e6c:	93 1f       	adc	r25, r19
    6e6e:	20 91 fe 1f 	lds	r18, 0x1FFE
    6e72:	30 91 ff 1f 	lds	r19, 0x1FFF
    6e76:	28 17       	cp	r18, r24
    6e78:	39 07       	cpc	r19, r25
    6e7a:	79 f4       	brne	.+30     	; 0x6e9a <free+0x130>
    6e7c:	10 97       	sbiw	r26, 0x00	; 0
    6e7e:	29 f4       	brne	.+10     	; 0x6e8a <free+0x120>
    6e80:	10 92 01 20 	sts	0x2001, r1
    6e84:	10 92 00 20 	sts	0x2000, r1
    6e88:	04 c0       	rjmp	.+8      	; 0x6e92 <free+0x128>
    6e8a:	13 96       	adiw	r26, 0x03	; 3
    6e8c:	1c 92       	st	X, r1
    6e8e:	1e 92       	st	-X, r1
    6e90:	12 97       	sbiw	r26, 0x02	; 2
    6e92:	f0 92 ff 1f 	sts	0x1FFF, r15
    6e96:	e0 92 fe 1f 	sts	0x1FFE, r14
    6e9a:	df 91       	pop	r29
    6e9c:	cf 91       	pop	r28
    6e9e:	1f 91       	pop	r17
    6ea0:	0f 91       	pop	r16
    6ea2:	ff 90       	pop	r15
    6ea4:	ef 90       	pop	r14
    6ea6:	08 95       	ret

00006ea8 <realloc>:
    6ea8:	8f 92       	push	r8
    6eaa:	9f 92       	push	r9
    6eac:	af 92       	push	r10
    6eae:	bf 92       	push	r11
    6eb0:	cf 92       	push	r12
    6eb2:	df 92       	push	r13
    6eb4:	ef 92       	push	r14
    6eb6:	ff 92       	push	r15
    6eb8:	0f 93       	push	r16
    6eba:	1f 93       	push	r17
    6ebc:	cf 93       	push	r28
    6ebe:	df 93       	push	r29
    6ec0:	ec 01       	movw	r28, r24
    6ec2:	00 97       	sbiw	r24, 0x00	; 0
    6ec4:	71 f4       	brne	.+28     	; 0x6ee2 <realloc+0x3a>
    6ec6:	cb 01       	movw	r24, r22
    6ec8:	df 91       	pop	r29
    6eca:	cf 91       	pop	r28
    6ecc:	1f 91       	pop	r17
    6ece:	0f 91       	pop	r16
    6ed0:	ff 90       	pop	r15
    6ed2:	ef 90       	pop	r14
    6ed4:	df 90       	pop	r13
    6ed6:	cf 90       	pop	r12
    6ed8:	bf 90       	pop	r11
    6eda:	af 90       	pop	r10
    6edc:	9f 90       	pop	r9
    6ede:	8f 90       	pop	r8
    6ee0:	a9 ce       	rjmp	.-686    	; 0x6c34 <malloc>
    6ee2:	dc 01       	movw	r26, r24
    6ee4:	a6 0f       	add	r26, r22
    6ee6:	b7 1f       	adc	r27, r23
    6ee8:	fc 01       	movw	r30, r24
    6eea:	32 97       	sbiw	r30, 0x02	; 2
    6eec:	ae 17       	cp	r26, r30
    6eee:	bf 07       	cpc	r27, r31
    6ef0:	18 f4       	brcc	.+6      	; 0x6ef8 <realloc+0x50>
    6ef2:	c0 e0       	ldi	r28, 0x00	; 0
    6ef4:	d0 e0       	ldi	r29, 0x00	; 0
    6ef6:	a9 c0       	rjmp	.+338    	; 0x704a <realloc+0x1a2>
    6ef8:	00 81       	ld	r16, Z
    6efa:	11 81       	ldd	r17, Z+1	; 0x01
    6efc:	06 17       	cp	r16, r22
    6efe:	17 07       	cpc	r17, r23
    6f00:	a8 f0       	brcs	.+42     	; 0x6f2c <realloc+0x84>
    6f02:	05 30       	cpi	r16, 0x05	; 5
    6f04:	11 05       	cpc	r17, r1
    6f06:	08 f4       	brcc	.+2      	; 0x6f0a <realloc+0x62>
    6f08:	a0 c0       	rjmp	.+320    	; 0x704a <realloc+0x1a2>
    6f0a:	c8 01       	movw	r24, r16
    6f0c:	04 97       	sbiw	r24, 0x04	; 4
    6f0e:	86 17       	cp	r24, r22
    6f10:	97 07       	cpc	r25, r23
    6f12:	08 f4       	brcc	.+2      	; 0x6f16 <realloc+0x6e>
    6f14:	9a c0       	rjmp	.+308    	; 0x704a <realloc+0x1a2>
    6f16:	02 50       	subi	r16, 0x02	; 2
    6f18:	11 09       	sbc	r17, r1
    6f1a:	06 1b       	sub	r16, r22
    6f1c:	17 0b       	sbc	r17, r23
    6f1e:	0d 93       	st	X+, r16
    6f20:	1d 93       	st	X+, r17
    6f22:	71 83       	std	Z+1, r23	; 0x01
    6f24:	60 83       	st	Z, r22
    6f26:	cd 01       	movw	r24, r26
    6f28:	20 df       	rcall	.-448    	; 0x6d6a <free>
    6f2a:	8f c0       	rjmp	.+286    	; 0x704a <realloc+0x1a2>
    6f2c:	7b 01       	movw	r14, r22
    6f2e:	e0 1a       	sub	r14, r16
    6f30:	f1 0a       	sbc	r15, r17
    6f32:	5c 01       	movw	r10, r24
    6f34:	a0 0e       	add	r10, r16
    6f36:	b1 1e       	adc	r11, r17
    6f38:	e0 91 00 20 	lds	r30, 0x2000
    6f3c:	f0 91 01 20 	lds	r31, 0x2001
    6f40:	81 2c       	mov	r8, r1
    6f42:	91 2c       	mov	r9, r1
    6f44:	80 e0       	ldi	r24, 0x00	; 0
    6f46:	90 e0       	ldi	r25, 0x00	; 0
    6f48:	4c c0       	rjmp	.+152    	; 0x6fe2 <realloc+0x13a>
    6f4a:	ea 15       	cp	r30, r10
    6f4c:	fb 05       	cpc	r31, r11
    6f4e:	f1 f5       	brne	.+124    	; 0x6fcc <realloc+0x124>
    6f50:	40 81       	ld	r20, Z
    6f52:	51 81       	ldd	r21, Z+1	; 0x01
    6f54:	6a 01       	movw	r12, r20
    6f56:	22 e0       	ldi	r18, 0x02	; 2
    6f58:	c2 0e       	add	r12, r18
    6f5a:	d1 1c       	adc	r13, r1
    6f5c:	ce 14       	cp	r12, r14
    6f5e:	df 04       	cpc	r13, r15
    6f60:	a8 f1       	brcs	.+106    	; 0x6fcc <realloc+0x124>
    6f62:	9a 01       	movw	r18, r20
    6f64:	2e 19       	sub	r18, r14
    6f66:	3f 09       	sbc	r19, r15
    6f68:	79 01       	movw	r14, r18
    6f6a:	69 01       	movw	r12, r18
    6f6c:	32 e0       	ldi	r19, 0x02	; 2
    6f6e:	c3 0e       	add	r12, r19
    6f70:	d1 1c       	adc	r13, r1
    6f72:	2e ef       	ldi	r18, 0xFE	; 254
    6f74:	a2 2e       	mov	r10, r18
    6f76:	bb 24       	eor	r11, r11
    6f78:	ba 94       	dec	r11
    6f7a:	ac 0e       	add	r10, r28
    6f7c:	bd 1e       	adc	r11, r29
    6f7e:	25 e0       	ldi	r18, 0x05	; 5
    6f80:	c2 16       	cp	r12, r18
    6f82:	d1 04       	cpc	r13, r1
    6f84:	78 f0       	brcs	.+30     	; 0x6fa4 <realloc+0xfc>
    6f86:	42 81       	ldd	r20, Z+2	; 0x02
    6f88:	53 81       	ldd	r21, Z+3	; 0x03
    6f8a:	13 96       	adiw	r26, 0x03	; 3
    6f8c:	5c 93       	st	X, r21
    6f8e:	4e 93       	st	-X, r20
    6f90:	12 97       	sbiw	r26, 0x02	; 2
    6f92:	11 96       	adiw	r26, 0x01	; 1
    6f94:	fc 92       	st	X, r15
    6f96:	ee 92       	st	-X, r14
    6f98:	f5 01       	movw	r30, r10
    6f9a:	71 83       	std	Z+1, r23	; 0x01
    6f9c:	60 83       	st	Z, r22
    6f9e:	3a 2f       	mov	r19, r26
    6fa0:	2b 2f       	mov	r18, r27
    6fa2:	09 c0       	rjmp	.+18     	; 0x6fb6 <realloc+0x10e>
    6fa4:	0e 5f       	subi	r16, 0xFE	; 254
    6fa6:	1f 4f       	sbci	r17, 0xFF	; 255
    6fa8:	04 0f       	add	r16, r20
    6faa:	15 1f       	adc	r17, r21
    6fac:	d5 01       	movw	r26, r10
    6fae:	0d 93       	st	X+, r16
    6fb0:	1c 93       	st	X, r17
    6fb2:	32 81       	ldd	r19, Z+2	; 0x02
    6fb4:	23 81       	ldd	r18, Z+3	; 0x03
    6fb6:	00 97       	sbiw	r24, 0x00	; 0
    6fb8:	21 f0       	breq	.+8      	; 0x6fc2 <realloc+0x11a>
    6fba:	fc 01       	movw	r30, r24
    6fbc:	32 83       	std	Z+2, r19	; 0x02
    6fbe:	23 83       	std	Z+3, r18	; 0x03
    6fc0:	44 c0       	rjmp	.+136    	; 0x704a <realloc+0x1a2>
    6fc2:	30 93 00 20 	sts	0x2000, r19
    6fc6:	20 93 01 20 	sts	0x2001, r18
    6fca:	3f c0       	rjmp	.+126    	; 0x704a <realloc+0x1a2>
    6fcc:	80 81       	ld	r24, Z
    6fce:	91 81       	ldd	r25, Z+1	; 0x01
    6fd0:	88 16       	cp	r8, r24
    6fd2:	99 06       	cpc	r9, r25
    6fd4:	08 f4       	brcc	.+2      	; 0x6fd8 <realloc+0x130>
    6fd6:	4c 01       	movw	r8, r24
    6fd8:	52 81       	ldd	r21, Z+2	; 0x02
    6fda:	43 81       	ldd	r20, Z+3	; 0x03
    6fdc:	cf 01       	movw	r24, r30
    6fde:	e5 2f       	mov	r30, r21
    6fe0:	f4 2f       	mov	r31, r20
    6fe2:	30 97       	sbiw	r30, 0x00	; 0
    6fe4:	09 f0       	breq	.+2      	; 0x6fe8 <realloc+0x140>
    6fe6:	b1 cf       	rjmp	.-158    	; 0x6f4a <realloc+0xa2>
    6fe8:	80 91 fe 1f 	lds	r24, 0x1FFE
    6fec:	90 91 ff 1f 	lds	r25, 0x1FFF
    6ff0:	8a 15       	cp	r24, r10
    6ff2:	9b 05       	cpc	r25, r11
    6ff4:	f1 f4       	brne	.+60     	; 0x7032 <realloc+0x18a>
    6ff6:	86 16       	cp	r8, r22
    6ff8:	97 06       	cpc	r9, r23
    6ffa:	d8 f4       	brcc	.+54     	; 0x7032 <realloc+0x18a>
    6ffc:	80 91 00 01 	lds	r24, 0x0100
    7000:	90 91 01 01 	lds	r25, 0x0101
    7004:	00 97       	sbiw	r24, 0x00	; 0
    7006:	41 f4       	brne	.+16     	; 0x7018 <realloc+0x170>
    7008:	8d b7       	in	r24, 0x3d	; 61
    700a:	9e b7       	in	r25, 0x3e	; 62
    700c:	20 91 04 01 	lds	r18, 0x0104
    7010:	30 91 05 01 	lds	r19, 0x0105
    7014:	82 1b       	sub	r24, r18
    7016:	93 0b       	sbc	r25, r19
    7018:	a8 17       	cp	r26, r24
    701a:	b9 07       	cpc	r27, r25
    701c:	08 f0       	brcs	.+2      	; 0x7020 <realloc+0x178>
    701e:	69 cf       	rjmp	.-302    	; 0x6ef2 <realloc+0x4a>
    7020:	b0 93 ff 1f 	sts	0x1FFF, r27
    7024:	a0 93 fe 1f 	sts	0x1FFE, r26
    7028:	fe 01       	movw	r30, r28
    702a:	32 97       	sbiw	r30, 0x02	; 2
    702c:	71 83       	std	Z+1, r23	; 0x01
    702e:	60 83       	st	Z, r22
    7030:	0c c0       	rjmp	.+24     	; 0x704a <realloc+0x1a2>
    7032:	cb 01       	movw	r24, r22
    7034:	ff dd       	rcall	.-1026   	; 0x6c34 <malloc>
    7036:	7c 01       	movw	r14, r24
    7038:	00 97       	sbiw	r24, 0x00	; 0
    703a:	09 f4       	brne	.+2      	; 0x703e <realloc+0x196>
    703c:	5a cf       	rjmp	.-332    	; 0x6ef2 <realloc+0x4a>
    703e:	a8 01       	movw	r20, r16
    7040:	be 01       	movw	r22, r28
    7042:	1e d0       	rcall	.+60     	; 0x7080 <memcpy>
    7044:	ce 01       	movw	r24, r28
    7046:	91 de       	rcall	.-734    	; 0x6d6a <free>
    7048:	e7 01       	movw	r28, r14
    704a:	ce 01       	movw	r24, r28
    704c:	df 91       	pop	r29
    704e:	cf 91       	pop	r28
    7050:	1f 91       	pop	r17
    7052:	0f 91       	pop	r16
    7054:	ff 90       	pop	r15
    7056:	ef 90       	pop	r14
    7058:	df 90       	pop	r13
    705a:	cf 90       	pop	r12
    705c:	bf 90       	pop	r11
    705e:	af 90       	pop	r10
    7060:	9f 90       	pop	r9
    7062:	8f 90       	pop	r8
    7064:	08 95       	ret

00007066 <memcmp>:
    7066:	fb 01       	movw	r30, r22
    7068:	dc 01       	movw	r26, r24
    706a:	04 c0       	rjmp	.+8      	; 0x7074 <memcmp+0xe>
    706c:	8d 91       	ld	r24, X+
    706e:	01 90       	ld	r0, Z+
    7070:	80 19       	sub	r24, r0
    7072:	21 f4       	brne	.+8      	; 0x707c <memcmp+0x16>
    7074:	41 50       	subi	r20, 0x01	; 1
    7076:	50 40       	sbci	r21, 0x00	; 0
    7078:	c8 f7       	brcc	.-14     	; 0x706c <memcmp+0x6>
    707a:	88 1b       	sub	r24, r24
    707c:	99 0b       	sbc	r25, r25
    707e:	08 95       	ret

00007080 <memcpy>:
    7080:	fb 01       	movw	r30, r22
    7082:	dc 01       	movw	r26, r24
    7084:	02 c0       	rjmp	.+4      	; 0x708a <memcpy+0xa>
    7086:	01 90       	ld	r0, Z+
    7088:	0d 92       	st	X+, r0
    708a:	41 50       	subi	r20, 0x01	; 1
    708c:	50 40       	sbci	r21, 0x00	; 0
    708e:	d8 f7       	brcc	.-10     	; 0x7086 <memcpy+0x6>
    7090:	08 95       	ret

00007092 <_exit>:
    7092:	f8 94       	cli

00007094 <__stop_program>:
    7094:	ff cf       	rjmp	.-2      	; 0x7094 <__stop_program>
